 Analog_Solution_slrt

 Timestamp is 591059ba (Mon May  8 13:42:50 2017)

 Preferred load address is 10000000

 Start         Length     Name                   Class
 0001:00000000 000061e6H .text                   CODE
 0001:000061f0 00073f7fH .text$mn                CODE
 0002:00000000 00000104H .CRT$XCA                DATA
 0002:00000104 00000104H .CRT$XCZ                DATA
 0002:00000208 00000104H .CRT$XIA                DATA
 0002:0000030c 0000010eH .CRT$XIC                DATA
 0002:0000041c 00000104H .CRT$XIZ                DATA
 0002:00000520 00000104H .CRT$XPA                DATA
 0002:00000624 00000109H .CRT$XPX                DATA
 0002:00000730 00000104H .CRT$XPXA               DATA
 0002:00000834 00000104H .CRT$XPZ                DATA
 0002:00000938 00000104H .CRT$XTA                DATA
 0002:00000a3c 00000104H .CRT$XTZ                DATA
 0002:00000b40 00024d73H .rdata                  DATA
 0002:000258b4 0000038aH .rdata$r                DATA
 0002:00025c40 0000010eH .rdata$sxdata           DATA
 0002:00025d50 00000113H .rdata$zETW0            DATA
 0002:00025e63 0000018eH .rdata$zETW1            DATA
 0002:00025ff1 00000134H .rdata$zETW2            DATA
 0002:00026125 00000101H .rdata$zETW9            DATA
 0002:00026228 000001c0H .rdata$zzzdbg           DATA
 0002:000263e8 00000104H .rtc$IAA                DATA
 0002:000264ec 00000104H .rtc$IZZ                DATA
 0002:000265f0 00000104H .rtc$TAA                DATA
 0002:000266f4 00000104H .rtc$TZZ                DATA
 0002:000267f8 00000ac0H .xdata$x                DATA
 0002:000272c0 000001eaH .edata                  DATA
 0003:00000000 00005677H .data                   DATA
 0003:00005678 000001d4H .data$r                 DATA
 0003:00005860 000269f0H .bss                    DATA
 0004:00000000 000001ecH .idata$5                DATA
 0004:000001ec 00000028H .idata$2                DATA
 0004:00000214 00000014H .idata$3                DATA
 0004:00000228 000001ecH .idata$4                DATA
 0004:00000414 0000080cH .idata$6                DATA
 0005:00000000 00000104H .00cfg                  DATA

  Address         Publics by Value              Rva+Base       Lib:Object

 0000:00000000       ___guard_fids_table        00000000     <absolute>
 0000:00000000       __except_list              00000000     <absolute>
 0000:00000000       ___guard_fids_count        00000000     <absolute>
 0000:00000003       ___safe_se_handler_count   00000003     <absolute>
 0000:00000100       ___guard_flags             00000100     <absolute>
 0000:00000000       ___ImageBase               10000000     <linker-defined>
 0001:00005ef1       ?TraceLoggingRegister@__vcrt_trace_logging_provider@@YAJPBU_TlgProvider_t@1@PBU_GUID@@P6GX1KE_K2PAU_EVENT_FILTER_DESCRIPTOR@@PAX@Z4@Z 10006ef1 f i libvcruntime:telemetry.obj
 0001:00005f65       ?TraceLoggingSetInformation@__vcrt_trace_logging_provider@@YAJPBU_TlgProvider_t@1@W4_EVENT_INFO_CLASS@@PAXK@Z 10006f65 f i libvcruntime:telemetry.obj
 0001:00005f9a       ?TraceLoggingUnregister@__vcrt_trace_logging_provider@@YAXPBU_TlgProvider_t@1@@Z 10006f9a f i libvcruntime:telemetry.obj
 0001:00005fc0       ?_TlgCreateSz@__vcrt_trace_logging_provider@@YAXPAU_EVENT_DATA_DESCRIPTOR@@PBD@Z 10006fc0 f i libvcruntime:telemetry.obj
 0001:00006006       ?_TlgCreateWsz@__vcrt_trace_logging_provider@@YAXPAU_EVENT_DATA_DESCRIPTOR@@PB_W@Z 10007006 f i libvcruntime:telemetry.obj
 0001:0000605b       ?_TlgEnableCallback@__vcrt_trace_logging_provider@@YGXPBU_GUID@@KE_K1PAU_EVENT_FILTER_DESCRIPTOR@@PAX@Z 1000705b f i libvcruntime:telemetry.obj
 0001:000060f1       ?_TlgKeywordOn@__vcrt_trace_logging_provider@@YAEPBU_TlgProvider_t@1@_K@Z 100070f1 f i libvcruntime:telemetry.obj
 0001:0000613c       ?_TlgWrite@__vcrt_trace_logging_provider@@YAJPBU_TlgProvider_t@1@PBXPBU_GUID@@2IPAU_EVENT_DATA_DESCRIPTOR@@@Z 1000713c f i libvcruntime:telemetry.obj
 0001:000061f0       _A_EmbeddedMATLABFunction1_g 100071f0 f   Analog_Solution.obj
 0001:00006580       _An_EmbeddedMATLABFunction_b 10007580 f   Analog_Solution.obj
 0001:00006bf0       _An_EmbeddedMATLABFunction_k 10007bf0 f   Analog_Solution.obj
 0001:00007480       _Ana_EmbeddedMATLABFunction1 10008480 f   Analog_Solution.obj
 0001:000075c0       _Anal_EmbeddedMATLABFunction 100085c0 f   Analog_Solution.obj
 0001:00007940       _Analog_Solut_RS232ISR_Start 10008940 f   Analog_Solution.obj
 0001:00007e10       _Analog_Soluti_RS232ISR_Term 10008e10 f   Analog_Solution.obj
 0001:00008030       _Analog_Solution           10009030 f   Analog_Solution.obj
 0001:000114d0       _Analog_Solution_RS232ISR  100124d0 f   Analog_Solution.obj
 0001:00017690       _MdlInitialize             10018690 f   Analog_Solution.obj
 0001:000176a0       _MdlInitializeSampleTimes  100186a0 f   Analog_Solution.obj
 0001:000176b0       _MdlInitializeSizes        100186b0 f   Analog_Solution.obj
 0001:000176c0       _MdlOutputs                100186c0 f   Analog_Solution.obj
 0001:00017710       _MdlStart                  10018710 f   Analog_Solution.obj
 0001:00017720       _MdlTerminate              10018720 f   Analog_Solution.obj
 0001:00017730       _MdlUpdate                 10018730 f   Analog_Solution.obj
 0001:00017780       ___local_stdio_printf_options 10018780 f i Analog_Solution.obj
 0001:00017790       __vfprintf_l               10018790 f i Analog_Solution.obj
 0001:000177c0       __vsnprintf_l              100187c0 f i Analog_Solution.obj
 0001:00017800       __vsprintf_l               10018800 f i Analog_Solution.obj
 0001:00017840       _printf                    10018840 f i Analog_Solution.obj
 0001:00017960       _rt_SimUpdateDiscreteEvents 10018960 f   Analog_Solution.obj
 0001:000179b0       _rt_powd_snf               100189b0 f   Analog_Solution.obj
 0001:00017c30       _sprintf                   10018c30 f i Analog_Solution.obj
 0001:00017c70       _xPCISR1                   10018c70 f   Analog_Solution.obj
 0001:00017d70       _rt_mxCreateCharMatrixFromStrings 10018d70 f   rt_matrx.obj
 0001:00017ed0       _rt_mxCreateDoubleMatrix   10018ed0 f   rt_matrx.obj
 0001:00017f30       _rt_mxCreateNumericArray   10018f30 f   rt_matrx.obj
 0001:00017fb0       _rt_mxCreateString         10018fb0 f   rt_matrx.obj
 0001:00018040       _rt_mxDuplicateArray       10019040 f   rt_matrx.obj
 0001:000180a0       _rt_mxGetDimensions        100190a0 f   rt_matrx.obj
 0001:000180e0       _rt_mxGetEps               100190e0 f   rt_matrx.obj
 0001:000180f0       _rt_mxGetString            100190f0 f   rt_matrx.obj
 0001:00018170       _rtPrintfNoOp              10019170 f   rt_printf.obj
 0001:00018180       _Analog_Solution_GetCAPIStaticMap 10019180 f   Analog_Solution_capi.obj
 0001:00018190       _Analog_Solution_InitializeDataMapInfo 10019190 f   Analog_Solution_capi.obj
 0001:00018220       _rtGetInf                  10019220 f   rtGetInf.obj
 0001:00018250       _rtGetInfF                 10019250 f   rtGetInf.obj
 0001:00018270       _rtGetMinusInf             10019270 f   rtGetInf.obj
 0001:000182a0       _rtGetMinusInfF            100192a0 f   rtGetInf.obj
 0001:000182c0       _rtGetNaN                  100192c0 f   rtGetNaN.obj
 0001:000182f0       _rtGetNaNF                 100192f0 f   rtGetNaN.obj
 0001:00018310       _rtIsInf                   10019310 f   rt_nonfinite.obj
 0001:00018350       _rtIsInfF                  10019350 f   rt_nonfinite.obj
 0001:00018390       _rtIsNaN                   10019390 f   rt_nonfinite.obj
 0001:000183b0       _rtIsNaNF                  100193b0 f   rt_nonfinite.obj
 0001:000183d0       _rt_InitInfAndNaN          100193d0 f   rt_nonfinite.obj
 0001:00018430       _rt_CleanUpForStateLogWithMMI 10019430 f   rt_logging_mmi.obj
 0001:00018540       _rt_FillStateSigInfoFromMMI 10019540 f   rt_logging_mmi.obj
 0001:000188e0       _rtwCAPI_CountSysRan       100198e0 f   rtw_modelmap_utils.obj
 0001:00018980       _rtwCAPI_EncodePath        10019980 f   rtw_modelmap_utils.obj
 0001:00018a80       _rtwCAPI_FillSysRan        10019a80 f   rtw_modelmap_utils.obj
 0001:00018b70       _rtwCAPI_FreeFullPaths     10019b70 f   rtw_modelmap_utils.obj
 0001:00018c00       _rtwCAPI_GetFullStateBlockPath 10019c00 f   rtw_modelmap_utils.obj
 0001:00018db0       _rtwCAPI_GetNumContStateRecords 10019db0 f   rtw_modelmap_utils.obj
 0001:00018e70       _rtwCAPI_GetNumSigLogRecords 10019e70 f   rtw_modelmap_utils.obj
 0001:00018ec0       _rtwCAPI_GetNumSigLogRecordsForRTWLogging 10019ec0 f   rtw_modelmap_utils.obj
 0001:00018f50       _rtwCAPI_GetNumStateRecords 10019f50 f   rtw_modelmap_utils.obj
 0001:00018fa0       _rtwCAPI_GetNumStateRecordsForRTWLogging 10019fa0 f   rtw_modelmap_utils.obj
 0001:00019030       _rtwCAPI_GetSigAddrFromMap 1001a030 f   rtw_modelmap_utils.obj
 0001:000190f0       _rtwCAPI_GetSigLogRecordInfo 1001a0f0 f   rtw_modelmap_utils.obj
 0001:00019520       _rtwCAPI_GetStateRecordInfo 1001a520 f   rtw_modelmap_utils.obj
 0001:000199d0       _rtwCAPI_GetStateWidth     1001a9d0 f   rtw_modelmap_utils.obj
 0001:00019a30       _rtwCAPI_HasStates         1001aa30 f   rtw_modelmap_utils.obj
 0001:00019aa0       _rtwCAPI_UpdateFullPaths   1001aaa0 f   rtw_modelmap_utils.obj
 0001:00019c80       _fprintf                   1001ac80 f i rt_logging.obj
 0001:0001a580       _rt_CreateLogVar           1001b580 f   rt_logging.obj
 0001:0001a610       _rt_CreateLogVarWithConvert 1001b610 f   rt_logging.obj
 0001:0001af60       _rt_CreateStructLogVar     1001bf60 f   rt_logging.obj
 0001:0001bcc0       _rt_GetMxIdFromDTypeId     1001ccc0 f   rt_logging.obj
 0001:0001bcf0       _rt_GetMxIdFromDTypeIdForRSim 1001ccf0 f   rt_logging.obj
 0001:0001e5c0       _rt_StartDataLogging       1001f5c0 f   rt_logging.obj
 0001:0001ea80       _rt_StartDataLoggingWithStartTime 1001fa80 f   rt_logging.obj
 0001:0001f3d0       _rt_StopDataLogging        100203d0 f   rt_logging.obj
 0001:0001f3f0       _rt_StopDataLoggingImpl    100203f0 f   rt_logging.obj
 0001:0001f720       _rt_UpdateLogVar           10020720 f   rt_logging.obj
 0001:00020840       _rt_UpdateStructLogVar     10021840 f   rt_logging.obj
 0001:000208d0       _rt_UpdateTXXFYLogVars     100218d0 f   rt_logging.obj
 0001:00020c10       _rt_UpdateTXYLogVars       10021c10 f   rt_logging.obj
 0001:00020e60       _Analog_Solution_ChangeStepSize 10021e60 f   xpctarget.obj
 0001:00020f00       _DllMain@12                10021f00 f   xpctarget.obj
 0001:00020f10       _SLRTSetErrorStatus        10021f10 f   xpctarget.obj
 0001:00020f30       _changeStepSize            10021f30 f   xpctarget.obj
 0001:00020fd0       _getDLMVersion             10021fd0 f   xpctarget.obj
 0001:00020fe0       _getRefMdlPath             10021fe0 f   xpctarget.obj
 0001:00021060       _getRefMdlSignalNumber     10022060 f   xpctarget.obj
 0001:00021110       _getrlmdlinfo              10022110 f   xpctarget.obj
 0001:000212f0       _updateDiscreteEvents      100222f0 f   xpctarget.obj
 0001:00021350       _getNumRef                 10022350 f   appmappingData.obj
 0001:00021360       _vprintf                   10022360 f i legacy_stdio.obj
 0001:000213a0       _adnipcim                  100223a0 f   adnipcim.obj
 0001:00021d70       _danipcim                  10022d70 f   danipcim.obj
 0001:00022510       _dinipcim                  10023510 f   dinipcim.obj
 0001:000228b0       _donipcim                  100238b0 f   donipcim.obj
 0001:00022da0       _fiforead                  10023da0 f   fiforead.obj
 0001:000234c0       _fiforeadhdr               100244c0 f   fiforeadhdr.obj
 0001:00024010       _fifowrite                 10025010 f   fifowrite.obj
 0001:00024730       _filterqua                 10025730 f   filterqua.obj
 0001:00024a40       _iqueryqua                 10025a40 f   iqueryqua.obj
 0001:00025160       _pfidinipcim               10026160 f   pfidinipcim.obj
 0001:00025760       _pfidonipcim               10026760 f   pfidonipcim.obj
 0001:00025ac0       _serreadqua                10026ac0 f   serreadqua.obj
 0001:00025d70       _sertxenable               10026d70 f   sertxenable.obj
 0001:000261d0       _serwritequa               100271d0 f   serwritequa.obj
 0001:00026810       _setupqua                  10027810 f   setupqua.obj
 0001:00026860       _DaysPerMonthCumulative    10027860 f   xpcwalltime.obj
 0001:000268a0       _IsLeapYear                100278a0 f   xpcwalltime.obj
 0001:00026910       _LocalTimeDelta            10027910 f   xpcwalltime.obj
 0001:00026ad0       _TimeDelta                 10027ad0 f   xpcwalltime.obj
 0001:00027110       _rt_at_clk_is_bcd          10028110 f   xpcwalltime.obj
 0001:00027140       _rt_at_clk_is_uip          10028140 f   xpcwalltime.obj
 0001:00027170       _rt_at_clk_read_alarm      10028170 f   xpcwalltime.obj
 0001:00027240       _rt_at_clk_read_date       10028240 f   xpcwalltime.obj
 0001:00027430       _rt_at_clk_read_dow        10028430 f   xpcwalltime.obj
 0001:000274a0       _rt_at_clk_read_status_a   100284a0 f   xpcwalltime.obj
 0001:000274f0       _rt_at_clk_read_status_b   100284f0 f   xpcwalltime.obj
 0001:00027590       _rt_at_clk_read_status_c   10028590 f   xpcwalltime.obj
 0001:000275f0       _rt_at_clk_read_status_d   100285f0 f   xpcwalltime.obj
 0001:00027620       _xpcwalltime               10028620 f   xpcwalltime.obj
 0001:000276d0       _niMIdentify               100286d0 f   xpcionim.obj
 0001:00027850       _niM_AISetup               10028850 f   xpcionim.obj
 0001:00027c60       _niM_AO_Setup              10028c60 f   xpcionim.obj
 0001:00027df0       _niM_Cont_Pulse_Train_Generation 10028df0 f   xpcionim.obj
 0001:00027f30       _niM_Counter_Reset_All     10028f30 f   xpcionim.obj
 0001:00027fe0       _niM_CtrArm                10028fe0 f   xpcionim.obj
 0001:00028000       _niM_CtrDisarm             10029000 f   xpcionim.obj
 0001:00028020       _niM_CtrReadArm            10029020 f   xpcionim.obj
 0001:00028040       _niM_CtrReadDisarm         10029040 f   xpcionim.obj
 0001:00028060       _niM_PeriodConfigure       10029060 f   xpcionim.obj
 0001:000281d0       _niM_Private_Data          100291d0 f   xpcionim.obj
 0001:000287b0       _niM_SetPFIFilter          100297b0 f   xpcionim.obj
 0001:00028830       _niM_SetPFI_DO             10029830 f   xpcionim.obj
 0001:00028870       _niM_SetPFI_Select         10029870 f   xpcionim.obj
 0001:000288f0       _niM_aiConfigureChannel    100298f0 f   xpcionim.obj
 0001:00028960       _niM_aiGetScalingCoefficients 10029960 f   xpcionim.obj
 0001:00028b40       _niM_aiPolynomialScaler    10029b40 f   xpcionim.obj
 0001:00028c70       _niM_analogTriggerReset    10029c70 f   xpcionim.obj
 0001:00028cc0       _niM_aoConfigureDAC        10029cc0 f   xpcionim.obj
 0001:00028d10       _niM_aoGetScalingCoefficients 10029d10 f   xpcionim.obj
 0001:00028dc0       _niM_aoLinearScaler        10029dc0 f   xpcionim.obj
 0001:00028df0       _niM_configureTimebase     10029df0 f   xpcionim.obj
 0001:00028e10       _niM_eepromReadMSeries     10029e10 f   xpcionim.obj
 0001:00028ee0       _niM_pllReset              10029ee0 f   xpcionim.obj
 0001:00028f10       _niM_resetCtr              10029f10 f   xpcionim.obj
 0001:00028f30       _niM_whichBank             10029f30 f   xpcionim.obj
 0001:00028f70       _niMconfig                 10029f70 f   xpcionim.obj
 0001:00029010       _quatechinit               1002a010 f   quatechinit.obj
 0001:00029270       _GetPCIDeviceFull          1002a270 f   xpcruntime:xpcimports.obj
 0001:000292b0       _ShowPCIDevice             1002a2b0 f   xpcruntime:xpcimports.obj
 0001:00029ab0       _xpcGetPciConfigAtSlot     1002aab0 f   xpcruntime:xpcimports.obj
 0001:00029dd0       _xpcInitProcs              1002add0 f   xpcruntime:xpcimports.obj
 0001:0002b130       _xpceuploadevent           1002c130 f   xpcruntime:xpcimports.obj
 0001:0002b140       _restoreInterrupts         1002c140 f   xpcruntime:xpcPCFunctions.obj
 0001:0002b150       _rl32eGetTicksDouble       1002c150 f   xpcruntime:xpcPCFunctions.obj
 0001:0002b1e0       _saveAndDisableInterrupts  1002c1e0 f   xpcruntime:xpcPCFunctions.obj
 0001:0002b200       _xPCSubtractTime           1002c200 f   xpcruntime:xpcPCFunctions.obj
 0001:0002b230       _xpcSubtractTime           1002c230 f   xpcruntime:xpcPCFunctions.obj
 0001:0002b302       ___raise_securityfailure   1002c302 f   LIBCMT:gs_report.obj
 0001:0002b334       ___report_gsfailure        1002c334 f   LIBCMT:gs_report.obj
 0001:0002b46d       ___report_rangecheckfailure 1002c46d f   LIBCMT:gs_report.obj
 0001:0002b47c       ___report_securityfailure  1002c47c f   LIBCMT:gs_report.obj
 0001:0002b580       ___report_securityfailureEx 1002c580 f   LIBCMT:gs_report.obj
 0001:0002b6db       @__security_check_cookie@4 1002c6db f   LIBCMT:_secchk_.obj
 0001:0002b6f0       __ftoui3                   1002c6f0 f   LIBCMT:_ftol3_.obj
 0001:0002b6ff       __ftoul3                   1002c6ff f   LIBCMT:_ftol3_.obj
 0001:0002b70e       __ftol3                    1002c70e f   LIBCMT:_ftol3_.obj
 0001:0002b71b       __ftol3_NaN                1002c71b f   LIBCMT:_ftol3_.obj
 0001:0002b733       __ftol3_work               1002c733 f   LIBCMT:_ftol3_.obj
 0001:0002b7b9       __ftol3_common             1002c7b9 f   LIBCMT:_ftol3_.obj
 0001:0002b87b       __ftol3_arg_error          1002c87b f   LIBCMT:_ftol3_.obj
 0001:0002b88d       __ftol3_except             1002c88d f   LIBCMT:_ftol3_.obj
 0001:0002b8d1       __dtoui3                   1002c8d1 f   LIBCMT:_ftol3_.obj
 0001:0002b8e0       __dtoul3                   1002c8e0 f   LIBCMT:_ftol3_.obj
 0001:0002b8ef       __dtol3                    1002c8ef f   LIBCMT:_ftol3_.obj
 0001:0002b8fc       __dtol3_NaN                1002c8fc f   LIBCMT:_ftol3_.obj
 0001:0002b919       __dtol3_work               1002c919 f   LIBCMT:_ftol3_.obj
 0001:0002ba00       __ultod3                   1002ca00 f   LIBCMT:_ftol3_.obj
 0001:0002ba40       __ltod3                    1002ca40 f   LIBCMT:_ftol3_.obj
 0001:0002bb44       ___isa_available_init      1002cb44 f   LIBCMT:_cpu_disp_.obj
 0001:0002c125       __CRT_INIT@12              1002d125 f   LIBCMT:dll_dllmain.obj
 0001:0002c130       __DllMainCRTStartup@12     1002d130 f   LIBCMT:dll_dllmain.obj
 0001:0002c15b       ??$__crt_fast_decode_pointer@PAP6AXXZ@@YAPAP6AXXZQAP6AXXZ@Z 1002d15b f i LIBCMT:utility.obj
 0001:0002c174       ??$__crt_fast_encode_pointer@PAP6AXXZ@@YAPAP6AXXZQAP6AXXZ@Z 1002d174 f i LIBCMT:utility.obj
 0001:0002c198       ?__crt_rotate_pointer_value@@YAIIH@Z 1002d198 f i LIBCMT:utility.obj
 0001:0002c23c       _NtCurrentTeb              1002d23c f i LIBCMT:utility.obj
 0001:0002c243       ___scrt_acquire_startup_lock 1002d243 f   LIBCMT:utility.obj
 0001:0002c285       ___scrt_dllmain_after_initialize_c 1002d285 f   LIBCMT:utility.obj
 0001:0002c2a3       ___scrt_dllmain_before_initialize_c 1002d2a3 f   LIBCMT:utility.obj
 0001:0002c2b4       ___scrt_dllmain_crt_thread_attach 1002d2b4 f   LIBCMT:utility.obj
 0001:0002c2da       ___scrt_dllmain_crt_thread_detach 1002d2da f   LIBCMT:utility.obj
 0001:0002c2ea       ___scrt_dllmain_exception_filter 1002d2ea f   LIBCMT:utility.obj
 0001:0002c329       ___scrt_dllmain_uninitialize_c 1002d329 f   LIBCMT:utility.obj
 0001:0002c354       ___scrt_dllmain_uninitialize_critical 1002d354 f   LIBCMT:utility.obj
 0001:0002c364       ___scrt_initialize_crt     1002d364 f   LIBCMT:utility.obj
 0001:0002c3ab       ___scrt_initialize_onexit_tables 1002d3ab f   LIBCMT:utility.obj
 0001:0002c467       ___scrt_is_nonwritable_in_current_image 1002d467 f   LIBCMT:utility.obj
 0001:0002c517       ___scrt_release_startup_lock 1002d517 f   LIBCMT:utility.obj
 0001:0002c53b       ___scrt_uninitialize_crt   1002d53b f   LIBCMT:utility.obj
 0001:0002c56d       __onexit                   1002d56d f   LIBCMT:utility.obj
 0001:0002c5b6       _at_quick_exit             1002d5b6 f   LIBCMT:utility.obj
 0001:0002c5f3       _atexit                    1002d5f3 f   LIBCMT:utility.obj
 0001:0002c60d       ___security_init_cookie    1002d60d f   LIBCMT:gs_support.obj
 0001:0002c6d0       ?__scrt_initialize_type_info@@YAXXZ 1002d6d0 f   LIBCMT:tncleanup.obj
 0001:0002c6df       ?__scrt_uninitialize_type_info@@YAXXZ 1002d6df f   LIBCMT:tncleanup.obj
 0001:0002c6ee       ___local_stdio_scanf_options 1002d6ee f i LIBCMT:default_local_stdio_options.obj
 0001:0002c6f4       ___scrt_initialize_default_local_stdio_options 1002d6f4 f   LIBCMT:default_local_stdio_options.obj
 0001:0002c718       ___scrt_get_dyn_tls_init_callback 1002d718 f   LIBCMT:dyn_tls_init.obj
 0001:0002c71e       ___scrt_fastfail           1002d71e f   LIBCMT:utility_desktop.obj
 0001:0002c87f       ___scrt_get_show_window_mode 1002d87f f   LIBCMT:utility_desktop.obj
 0001:0002c8be       ___scrt_initialize_winrt   1002d8be f   LIBCMT:utility_desktop.obj
 0001:0002c8c1       ___scrt_is_managed_app     1002d8c1 f   LIBCMT:utility_desktop.obj
 0001:0002c916       ___scrt_set_unhandled_exception_filter 1002d916 f   LIBCMT:utility_desktop.obj
 0001:0002c925       ___scrt_unhandled_exception_filter@4 1002d925 f   LIBCMT:utility_desktop.obj
 0001:0002c976       __crt_debugger_hook        1002d976 f   LIBCMT:utility_desktop.obj
 0001:0002c980       __RTC_Initialize           1002d980 f   LIBCMT:_initsect_.obj
 0001:0002c9b5       __RTC_Terminate            1002d9b5 f   LIBCMT:_initsect_.obj
 0001:0002c9ea       @_guard_check_icall@4      1002d9ea f i LIBCMT:checkcfg.obj
 0001:0002c9f0       __SEH_prolog4              1002d9f0 f   LIBCMT:_sehprolg4_.obj
 0001:0002ca36       __SEH_epilog4              1002da36 f   LIBCMT:_sehprolg4_.obj
 0001:0002ca61       ___scrt_is_ucrt_dll_in_use 1002da61 f   LIBCMT:ucrt_detection.obj
 0001:0002ca70       @_guard_check_icall_nop@4  1002da70 f i LIBCMT:guard_support.obj
 0001:0002ca71       __guard_icall_checks_enforced 1002da71 f i LIBCMT:guard_support.obj
 0001:0002ca88       _GetModuleHandleA@4        1002da88 f   kernel32:KERNEL32.dll
 0001:0002ca8e       _GetProcAddress@8          1002da8e f   kernel32:KERNEL32.dll
 0001:0002ca94       _UnhandledExceptionFilter@4 1002da94 f   kernel32:KERNEL32.dll
 0001:0002ca9a       _SetUnhandledExceptionFilter@4 1002da9a f   kernel32:KERNEL32.dll
 0001:0002caa0       _GetCurrentProcess@0       1002daa0 f   kernel32:KERNEL32.dll
 0001:0002caa6       _TerminateProcess@8        1002daa6 f   kernel32:KERNEL32.dll
 0001:0002caac       _IsProcessorFeaturePresent@4 1002daac f   kernel32:KERNEL32.dll
 0001:0002cab2       _QueryPerformanceCounter@4 1002dab2 f   kernel32:KERNEL32.dll
 0001:0002cab8       _GetCurrentProcessId@0     1002dab8 f   kernel32:KERNEL32.dll
 0001:0002cabe       _GetCurrentThreadId@0      1002dabe f   kernel32:KERNEL32.dll
 0001:0002cac4       _GetSystemTimeAsFileTime@4 1002dac4 f   kernel32:KERNEL32.dll
 0001:0002caca       _InitializeSListHead@4     1002daca f   kernel32:KERNEL32.dll
 0001:0002cad0       _IsDebuggerPresent@0       1002dad0 f   kernel32:KERNEL32.dll
 0001:0002cad6       _GetStartupInfoW@4         1002dad6 f   kernel32:KERNEL32.dll
 0001:0002cadc       _GetModuleHandleW@4        1002dadc f   kernel32:KERNEL32.dll
 0001:0002caf0       _memset                    1002daf0 f   libvcruntime:memset.obj
 0001:0002cca0       _memcpy                    1002dca0 f   libvcruntime:memcpy.obj
 0001:0002d380       _memmove                   1002e380 f   libvcruntime:memmove.obj
 0001:0002da60       _strchr                    1002ea60 f   libvcruntime:strchr.obj
 0001:0002dace       ___from_strstr_to_strchr   1002eace     libvcruntime:strchr.obj
 0001:0002dc1e       _EventDataDescCreate       1002ec1e f i libvcruntime:telemetry.obj
 0001:0002dc3f       _HRESULT_FROM_WIN32        1002ec3f f i libvcruntime:telemetry.obj
 0001:0002dc58       ___telemetry_main_invoke_trigger 1002ec58 f   libvcruntime:telemetry.obj
 0001:0002dd1b       ___telemetry_main_return_trigger 1002ed1b f   libvcruntime:telemetry.obj
 0001:0002ddde       ___vcrt_initialize_telemetry_provider 1002edde f   libvcruntime:telemetry.obj
 0001:0002ddf5       ___vcrt_uninitialize_telemetry_provider 1002edf5 f   libvcruntime:telemetry.obj
 0001:0002de50       __except_handler4          1002ee50 f   libvcruntime:_chandler4_.obj
 0001:0002e000       ___vcrt_initialize         1002f000 f   libvcruntime:initialization.obj
 0001:0002e039       ___vcrt_thread_attach      1002f039 f   libvcruntime:initialization.obj
 0001:0002e046       ___vcrt_thread_detach      1002f046 f   libvcruntime:initialization.obj
 0001:0002e053       ___vcrt_uninitialize       1002f053 f   libvcruntime:initialization.obj
 0001:0002e080       ___vcrt_uninitialize_critical 1002f080 f   libvcruntime:initialization.obj
 0001:0002e09b       ??$?RD@__crt_internal_free_policy@@QBEXQBD@Z 1002f09b f i libvcruntime:std_type_info.obj
 0001:0002e0af       ??$?RX@__crt_internal_free_policy@@QBEXQBX@Z 1002f0af f i libvcruntime:std_type_info.obj
 0001:0002e0c3       ??$__crt_interlocked_compare_exchange_pointer@$$CBD$$T$$T@@YAPBDPDSBD$$T1@Z 1002f0c3 f i libvcruntime:std_type_info.obj
 0001:0002e0d9       ??$__crt_interlocked_compare_exchange_pointer@$$CBDPAD$$T@@YAPBDPDSBDQAD$$T@Z 1002f0d9 f i libvcruntime:std_type_info.obj
 0001:0002e0ef       ??$__crt_interlocked_read_pointer@$$CBD@@YAPBDPDSBD@Z 1002f0ef f i libvcruntime:std_type_info.obj
 0001:0002e103       ??0?$__crt_unique_heap_ptr@DU__crt_internal_free_policy@@@@QAE@QAD@Z 1002f103 f i libvcruntime:std_type_info.obj
 0001:0002e114       ??0?$__crt_unique_heap_ptr@XU__crt_internal_free_policy@@@@QAE@QAX@Z 1002f114 f i libvcruntime:std_type_info.obj
 0001:0002e125       ??1?$__crt_unique_heap_ptr@DU__crt_internal_free_policy@@@@QAE@XZ 1002f125 f i libvcruntime:std_type_info.obj
 0001:0002e139       ??1?$__crt_unique_heap_ptr@XU__crt_internal_free_policy@@@@QAE@XZ 1002f139 f i libvcruntime:std_type_info.obj
 0001:0002e159       ??B?$__crt_unique_heap_ptr@DU__crt_internal_free_policy@@@@QBE_NXZ 1002f159 f i libvcruntime:std_type_info.obj
 0001:0002e163       ??B?$__crt_unique_heap_ptr@XU__crt_internal_free_policy@@@@QBE_NXZ 1002f163 f i libvcruntime:std_type_info.obj
 0001:0002e195       ?detach@?$__crt_unique_heap_ptr@XU__crt_internal_free_policy@@@@QAEPAXXZ 1002f195 f i libvcruntime:std_type_info.obj
 0001:0002e19b       ?get@?$__crt_unique_heap_ptr@DU__crt_internal_free_policy@@@@QBEPADXZ 1002f19b f i libvcruntime:std_type_info.obj
 0001:0002e19e       ?get@?$__crt_unique_heap_ptr@XU__crt_internal_free_policy@@@@QBEPAXXZ 1002f19e f i libvcruntime:std_type_info.obj
 0001:0002e1a1       ?is_valid@?$__crt_unique_heap_ptr@DU__crt_internal_free_policy@@@@QBE_NXZ 1002f1a1 f i libvcruntime:std_type_info.obj
 0001:0002e1ab       ?is_valid@?$__crt_unique_heap_ptr@XU__crt_internal_free_policy@@@@QBE_NXZ 1002f1ab f i libvcruntime:std_type_info.obj
 0001:0002e1b5       ?release@?$__crt_unique_heap_ptr@DU__crt_internal_free_policy@@@@QAEXXZ 1002f1b5 f i libvcruntime:std_type_info.obj
 0001:0002e1c9       ?release@?$__crt_unique_heap_ptr@XU__crt_internal_free_policy@@@@QAEXXZ 1002f1c9 f i libvcruntime:std_type_info.obj
 0001:0002e1dd       ___std_type_info_compare   1002f1dd f   libvcruntime:std_type_info.obj
 0001:0002e228       ___std_type_info_destroy_list 1002f228 f   libvcruntime:std_type_info.obj
 0001:0002e253       ___std_type_info_hash      1002f253 f   libvcruntime:std_type_info.obj
 0001:0002e282       ___std_type_info_name      1002f282 f   libvcruntime:std_type_info.obj
 0001:0002e37f       ??$?BX@__crt_fast_encoded_nullptr_t@@QBEPAXXZ 1002f37f f i libvcruntime:winapi_downlevel.obj
 0001:0002e39d       ??$__crt_fast_decode_pointer@PAX@@YAPAXQAX@Z 1002f39d f i libvcruntime:winapi_downlevel.obj
 0001:0002e3b6       ??$__crt_fast_encode_pointer@PAX@@YAPAXQAX@Z 1002f3b6 f i libvcruntime:winapi_downlevel.obj
 0001:0002e3da       ??$__crt_interlocked_compare_exchange_pointer@UHINSTANCE__@@$$T$$T@@YAPAUHINSTANCE__@@PDSAU0@$$T1@Z 1002f3da f i libvcruntime:winapi_downlevel.obj
 0001:0002e3f0       ??$__crt_interlocked_compare_exchange_pointer@X$$T$$T@@YAPAXPDSAX$$T1@Z 1002f3f0 f i libvcruntime:winapi_downlevel.obj
 0001:0002e406       ??$__crt_interlocked_exchange_pointer@UHINSTANCE__@@PAU1@@@YAPAUHINSTANCE__@@PDSAU0@QAU0@@Z 1002f406 f i libvcruntime:winapi_downlevel.obj
 0001:0002e416       ??$__crt_interlocked_exchange_pointer@UHINSTANCE__@@PAX@@YAPAUHINSTANCE__@@PDSAU0@QAX@Z 1002f416 f i libvcruntime:winapi_downlevel.obj
 0001:0002e426       ??$__crt_interlocked_exchange_pointer@XPAX@@YAPAXPDSAXQAX@Z 1002f426 f i libvcruntime:winapi_downlevel.obj
 0001:0002e436       ??$__crt_interlocked_read_pointer@UHINSTANCE__@@@@YAPAUHINSTANCE__@@PDSAU0@@Z 1002f436 f i libvcruntime:winapi_downlevel.obj
 0001:0002e44a       ??$__crt_interlocked_read_pointer@X@@YAPAXPDSAX@Z 1002f44a f i libvcruntime:winapi_downlevel.obj
 0001:0002e45e       ?__crt_fast_encode_pointer@@YA?AU__crt_fast_encoded_nullptr_t@@$$T@Z 1002f45e f i libvcruntime:winapi_downlevel.obj
 0001:0002e7a2       ___vcrt_EventRegister      1002f7a2 f   libvcruntime:winapi_downlevel.obj
 0001:0002e7f2       ___vcrt_EventSetInformation 1002f7f2 f   libvcruntime:winapi_downlevel.obj
 0001:0002e845       ___vcrt_EventUnregister    1002f845 f   libvcruntime:winapi_downlevel.obj
 0001:0002e88d       ___vcrt_EventWriteTransfer 1002f88d f   libvcruntime:winapi_downlevel.obj
 0001:0002e8e8       ___vcrt_FlsAlloc           1002f8e8 f   libvcruntime:winapi_downlevel.obj
 0001:0002e930       ___vcrt_FlsFree            1002f930 f   libvcruntime:winapi_downlevel.obj
 0001:0002e978       ___vcrt_FlsGetValue        1002f978 f   libvcruntime:winapi_downlevel.obj
 0001:0002e9c0       ___vcrt_FlsSetValue        1002f9c0 f   libvcruntime:winapi_downlevel.obj
 0001:0002ea0c       ___vcrt_InitializeCriticalSectionEx 1002fa0c f   libvcruntime:winapi_downlevel.obj
 0001:0002ea63       ___vcrt_initialize_winapi_thunks 1002fa63 f   libvcruntime:winapi_downlevel.obj
 0001:0002ea90       ___vcrt_uninitialize_winapi_thunks 1002fa90 f   libvcruntime:winapi_downlevel.obj
 0001:0002ead0       __local_unwind4            1002fad0 f   libvcruntime:_exsup4_.obj
 0001:0002eba6       __seh_longjmp_unwind4@4    1002fba6 f   libvcruntime:_exsup4_.obj
 0001:0002ebce       @_EH4_CallFilterFunc@8     1002fbce f   libvcruntime:_exsup4_.obj
 0001:0002ebe5       @_EH4_TransferToHandler@8  1002fbe5 f   libvcruntime:_exsup4_.obj
 0001:0002ebfe       @_EH4_GlobalUnwind2@8      1002fbfe f   libvcruntime:_exsup4_.obj
 0001:0002ec17       @_EH4_LocalUnwind@16       1002fc17 f   libvcruntime:_exsup4_.obj
 0001:0002ec85       ___except_validate_context_record 1002fc85 f   libvcruntime:jbcxrval.obj
 0001:0002ec86       ___except_validate_jump_buffer 1002fc86 f   libvcruntime:jbcxrval.obj
 0001:0002ec87       ??$?RU__vcrt_ptd@@@__crt_internal_free_policy@@QBEXQBU__vcrt_ptd@@@Z 1002fc87 f i libvcruntime:per_thread_data.obj
 0001:0002ec9b       ??0?$__crt_unique_heap_ptr@U__vcrt_ptd@@U__crt_internal_free_policy@@@@QAE@QAU__vcrt_ptd@@@Z 1002fc9b f i libvcruntime:per_thread_data.obj
 0001:0002ecac       ??1?$__crt_unique_heap_ptr@U__vcrt_ptd@@U__crt_internal_free_policy@@@@QAE@XZ 1002fcac f i libvcruntime:per_thread_data.obj
 0001:0002ecc0       ??B?$__crt_unique_heap_ptr@U__vcrt_ptd@@U__crt_internal_free_policy@@@@QBE_NXZ 1002fcc0 f i libvcruntime:per_thread_data.obj
 0001:0002ecca       ?detach@?$__crt_unique_heap_ptr@U__vcrt_ptd@@U__crt_internal_free_policy@@@@QAEPAU__vcrt_ptd@@XZ 1002fcca f i libvcruntime:per_thread_data.obj
 0001:0002ecd0       ?get@?$__crt_unique_heap_ptr@U__vcrt_ptd@@U__crt_internal_free_policy@@@@QBEPAU__vcrt_ptd@@XZ 1002fcd0 f i libvcruntime:per_thread_data.obj
 0001:0002ecd3       ?is_valid@?$__crt_unique_heap_ptr@U__vcrt_ptd@@U__crt_internal_free_policy@@@@QBE_NXZ 1002fcd3 f i libvcruntime:per_thread_data.obj
 0001:0002ecdd       ?release@?$__crt_unique_heap_ptr@U__vcrt_ptd@@U__crt_internal_free_policy@@@@QAEXXZ 1002fcdd f i libvcruntime:per_thread_data.obj
 0001:0002ed11       ___vcrt_freefls@4          1002fd11 f   libvcruntime:per_thread_data.obj
 0001:0002ed34       ___vcrt_freeptd            1002fd34 f   libvcruntime:per_thread_data.obj
 0001:0002ed77       ___vcrt_getptd             1002fd77 f   libvcruntime:per_thread_data.obj
 0001:0002ed88       ___vcrt_getptd_noexit      1002fd88 f   libvcruntime:per_thread_data.obj
 0001:0002ee1e       ___vcrt_initialize_ptd     1002fe1e f   libvcruntime:per_thread_data.obj
 0001:0002ee5d       ___vcrt_uninitialize_ptd   1002fe5d f   libvcruntime:per_thread_data.obj
 0001:0002ee7e       ___vcrt_initialize_locks   1002fe7e f   libvcruntime:locks.obj
 0001:0002eec9       ___vcrt_lock               1002fec9 f   libvcruntime:locks.obj
 0001:0002eee3       ___vcrt_uninitialize_locks 1002fee3 f   libvcruntime:locks.obj
 0001:0002ef1d       ___vcrt_unlock             1002ff1d f   libvcruntime:locks.obj
 0001:0002ef37       ??$?B$$A6AXXZ@__crt_fast_encoded_nullptr_t@@QBEP6AXXZXZ 1002ff37 f i libvcruntime:purevirt_data.obj
 0001:0002ef55       ??$__crt_fast_encode_pointer@P6AXXZ@@YAP6AXXZQ6AXXZ@Z 1002ff55 f i libvcruntime:purevirt_data.obj
 0001:0002ef79       ___vcrt_initialize_pure_virtual_call_handler 1002ff79 f   libvcruntime:purevirt_data.obj
 0001:0002ef9d       ??$__vcrt_va_start_verify_argument_type@QBD@@YAXXZ 1002ff9d f i libvcruntime:undname.obj
 0001:0002ef9e       ??0Block@_HeapManager@@QAE@XZ 1002ff9e f i libvcruntime:undname.obj
 0001:0002efa4       ??0DName@@QAE@AAPBDD@Z     1002ffa4 f   libvcruntime:undname.obj
 0001:0002f08b       ??0DName@@QAE@ABV0@@Z      1003008b f i libvcruntime:undname.obj
 0001:0002f0a6       ??0DName@@QAE@D@Z          100300a6 f   libvcruntime:undname.obj
 0001:0002f0dd       ??0DName@@QAE@PAV0@@Z      100300dd f   libvcruntime:undname.obj
 0001:0002f13d       ??0DName@@QAE@PBD@Z        1003013d f   libvcruntime:undname.obj
 0001:0002f185       ??0DName@@QAE@W4DNameStatus@@@Z 10030185 f   libvcruntime:undname.obj
 0001:0002f1d8       ??0DName@@QAE@XZ           100301d8 f i libvcruntime:undname.obj
 0001:0002f1ed       ??0DName@@QAE@_J@Z         100301ed f   libvcruntime:undname.obj
 0001:0002f2a7       ??0DName@@QAE@_K@Z         100302a7 f   libvcruntime:undname.obj
 0001:0002f331       ??0DNameNode@@IAE@XZ       10030331 f   libvcruntime:undname.obj
 0001:0002f33c       ??0DNameStatusNode@@AAE@W4DNameStatus@@@Z 1003033c f   libvcruntime:undname.obj
 0001:0002f367       ??0Replicator@@QAE@XZ      10030367 f i libvcruntime:undname.obj
 0001:0002f36d       ??0UnDecorator@@QAE@PADPBDHP6APADJ@ZK@Z 1003036d f i libvcruntime:undname.obj
 0001:0002f3f0       ??0charNode@@QAE@D@Z       100303f0 f   libvcruntime:undname.obj
 0001:0002f40a       ??0pDNameNode@@QAE@PAVDName@@@Z 1003040a f   libvcruntime:undname.obj
 0001:0002f43c       ??0pairNode@@QAE@PAVDNameNode@@0@Z 1003043c f   libvcruntime:undname.obj
 0001:0002f462       ??0pcharNode@@QAE@PBDH@Z   10030462 f   libvcruntime:undname.obj
 0001:0002f4d1       ??2@YAPAXIAAV_HeapManager@@H@Z 100304d1 f i libvcruntime:undname.obj
 0001:0002f4eb       ??4DName@@QAEAAV0@ABV0@@Z  100304eb f   libvcruntime:undname.obj
 0001:0002f506       ??4DName@@QAEAAV0@D@Z      10030506 f i libvcruntime:undname.obj
 0001:0002f53d       ??4DName@@QAEAAV0@PAV0@@Z  1003053d f   libvcruntime:undname.obj
 0001:0002f598       ??4DName@@QAEAAV0@PBD@Z    10030598 f   libvcruntime:undname.obj
 0001:0002f5d6       ??4DName@@QAEAAV0@W4DNameStatus@@@Z 100305d6 f   libvcruntime:undname.obj
 0001:0002f618       ??AReplicator@@QBE?AVDName@@H@Z 10030618 f   libvcruntime:undname.obj
 0001:0002f663       ??BUnDecorator@@QAEPADXZ   10030663 f i libvcruntime:undname.obj
 0001:0002f83c       ??H@YA?AVDName@@DABV0@@Z   1003083c f i libvcruntime:undname.obj
 0001:0002f869       ??H@YA?AVDName@@PBDABV0@@Z 10030869 f i libvcruntime:undname.obj
 0001:0002f896       ??H@YA?AVDName@@W4DNameStatus@@ABV0@@Z 10030896 f i libvcruntime:undname.obj
 0001:0002f8c3       ??HDName@@QBE?AV0@ABV0@@Z  100308c3 f   libvcruntime:undname.obj
 0001:0002f8ed       ??HDName@@QBE?AV0@D@Z      100308ed f   libvcruntime:undname.obj
 0001:0002f917       ??HDName@@QBE?AV0@PAV0@@Z  10030917 f   libvcruntime:undname.obj
 0001:0002f941       ??HDName@@QBE?AV0@PBD@Z    10030941 f   libvcruntime:undname.obj
 0001:0002f96b       ??HDName@@QBE?AV0@W4DNameStatus@@@Z 1003096b f   libvcruntime:undname.obj
 0001:0002f995       ??YDName@@QAEAAV0@ABV0@@Z  10030995 f   libvcruntime:undname.obj
 0001:0002f9e8       ??YDName@@QAEAAV0@D@Z      100309e8 f   libvcruntime:undname.obj
 0001:0002fa4c       ??YDName@@QAEAAV0@PAV0@@Z  10030a4c f   libvcruntime:undname.obj
 0001:0002faca       ??YDName@@QAEAAV0@PBD@Z    10030aca f   libvcruntime:undname.obj
 0001:0002fb43       ??YDName@@QAEAAV0@W4DNameStatus@@@Z 10030b43 f   libvcruntime:undname.obj
 0001:0002fb93       ??YReplicator@@QAEAAV0@ABVDName@@@Z 10030b93 f   libvcruntime:undname.obj
 0001:0002fbef       ??_5DName@@QAEAAV0@ABV0@@Z 10030bef f   libvcruntime:undname.obj
 0001:0002fc12       ?Constructor@_HeapManager@@QAEXP6APAXI@ZP6AXPAX@Z@Z 10030c12 f i libvcruntime:undname.obj
 0001:0002fc36       ?Destructor@_HeapManager@@QAEXXZ 10030c36 f i libvcruntime:undname.obj
 0001:0002fc7d       ?UScore@UnDecorator@@SAPBDW4Tokens@@@Z 10030c7d f   libvcruntime:undname.obj
 0001:0002fca1       ?append@DName@@AAEXPAVDNameNode@@@Z 10030ca1 f   libvcruntime:undname.obj
 0001:0002fcf8       ?composeDeclaration@UnDecorator@@CA?AVDName@@ABV2@@Z 10030cf8 f i libvcruntime:undname.obj
 0001:00030d62       ?doAccessSpecifiers@UnDecorator@@SAHXZ 10031d62 f i libvcruntime:undname.obj
 0001:00030d73       ?doAllocationLanguage@UnDecorator@@SAHXZ 10031d73 f i libvcruntime:undname.obj
 0001:00030d84       ?doAllocationModel@UnDecorator@@SAHXZ 10031d84 f i libvcruntime:undname.obj
 0001:00030d95       ?doEcsu@UnDecorator@@SAHXZ 10031d95 f i libvcruntime:undname.obj
 0001:00030da6       ?doEllipsis@UnDecorator@@SAHXZ 10031da6 f i libvcruntime:undname.obj
 0001:00030db7       ?doFunctionReturns@UnDecorator@@SAHXZ 10031db7 f i libvcruntime:undname.obj
 0001:00030dc8       ?doMSKeywords@UnDecorator@@SAHXZ 10031dc8 f i libvcruntime:undname.obj
 0001:00030dd8       ?doMemberTypes@UnDecorator@@SAHXZ 10031dd8 f i libvcruntime:undname.obj
 0001:00030de9       ?doNameOnly@UnDecorator@@SAHXZ 10031de9 f i libvcruntime:undname.obj
 0001:00030df6       ?doNoIdentCharCheck@UnDecorator@@SAHXZ 10031df6 f i libvcruntime:undname.obj
 0001:00030e03       ?doPchar@DName@@AAEXPBDH@Z 10031e03 f   libvcruntime:undname.obj
 0001:00030eaf       ?doPtr64@UnDecorator@@SAHXZ 10031eaf f i libvcruntime:undname.obj
 0001:00030ec0       ?doRestrictionSpec@UnDecorator@@SAHXZ 10031ec0 f i libvcruntime:undname.obj
 0001:00030ed1       ?doThisTypes@UnDecorator@@SAHXZ 10031ed1 f i libvcruntime:undname.obj
 0001:00030ee7       ?doThrowTypes@UnDecorator@@SAHXZ 10031ee7 f i libvcruntime:undname.obj
 0001:00030ef8       ?doTypeOnly@UnDecorator@@SAHXZ 10031ef8 f i libvcruntime:undname.obj
 0001:00030f05       ?doUnderScore@UnDecorator@@SAHXZ 10031f05 f i libvcruntime:undname.obj
 0001:00030f12       ?getArgumentList@UnDecorator@@CA?AVDName@@XZ 10031f12 f   libvcruntime:undname.obj
 0001:00031061       ?getArgumentTypes@UnDecorator@@CA?AVDName@@XZ 10032061 f   libvcruntime:undname.obj
 0001:00031179       ?getArrayType@UnDecorator@@CA?AVDName@@ABV2@@Z 10032179 f i libvcruntime:undname.obj
 0001:000313fb       ?getBasedType@UnDecorator@@CA?AVDName@@XZ 100323fb f   libvcruntime:undname.obj
 0001:000314ba       ?getBasicDataType@UnDecorator@@CA?AVDName@@ABV2@@Z 100324ba f   libvcruntime:undname.obj
 0001:0003199f       ?getCallIndex@UnDecorator@@CA?AVDName@@XZ 1003299f f i libvcruntime:undname.obj
 0001:000319b8       ?getCallingConvention@UnDecorator@@CA?AVDName@@XZ 100329b8 f   libvcruntime:undname.obj
 0001:00031aa6       ?getDataIndirectType@UnDecorator@@CA?AVDName@@ABV2@PBD0H@Z 10032aa6 f   libvcruntime:undname.obj
 0001:00032250       ?getDataIndirectType@UnDecorator@@CA?AVDName@@XZ 10033250 f i libvcruntime:undname.obj
 0001:00032297       ?getDataType@UnDecorator@@CA?AVDName@@PAV2@@Z 10033297 f   libvcruntime:undname.obj
 0001:0003239d       ?getDecoratedName@UnDecorator@@CA?AVDName@@XZ 1003339d f   libvcruntime:undname.obj
 0001:0003267c       ?getDimension@UnDecorator@@CA?AVDName@@_N@Z 1003367c f   libvcruntime:undname.obj
 0001:00032800       ?getDispatchTarget@UnDecorator@@CA?AVDName@@XZ 10033800 f   libvcruntime:undname.obj
 0001:00032871       ?getDisplacement@UnDecorator@@CA?AVDName@@XZ 10033871 f i libvcruntime:undname.obj
 0001:0003288a       ?getECSUDataType@UnDecorator@@CA?AVDName@@XZ 1003388a f   libvcruntime:undname.obj
 0001:000329ee       ?getECSUName@UnDecorator@@CA?AVDName@@XZ 100339ee f i libvcruntime:undname.obj
 0001:00032a03       ?getEnumType@UnDecorator@@CA?AVDName@@XZ 10033a03 f i libvcruntime:undname.obj
 0001:00032b2a       ?getExtendedDataIndirectType@UnDecorator@@CA?AVDName@@AAPBDAA_NH@Z 10033b2a f   libvcruntime:undname.obj
 0001:00032d3d       ?getExternalDataType@UnDecorator@@CA?AVDName@@ABV2@@Z 10033d3d f i libvcruntime:undname.obj
 0001:00032dd4       ?getFunctionIndirectType@UnDecorator@@CA?AVDName@@ABV2@@Z 10033dd4 f   libvcruntime:undname.obj
 0001:000332df       ?getGuardNumber@UnDecorator@@CA?AVDName@@XZ 100342df f i libvcruntime:undname.obj
 0001:000332f8       ?getLastChar@DName@@QBEDXZ 100342f8 f i libvcruntime:undname.obj
 0001:0003331e       ?getLastChar@DNameStatusNode@@UBEDXZ 1003431e f i libvcruntime:undname.obj
 0001:0003332d       ?getLastChar@charNode@@UBEDXZ 1003432d f i libvcruntime:undname.obj
 0001:00033331       ?getLastChar@pDNameNode@@UBEDXZ 10034331 f i libvcruntime:undname.obj
 0001:00033342       ?getLastChar@pairNode@@UBEDXZ 10034342 f i libvcruntime:undname.obj
 0001:00033381       ?getLastChar@pcharNode@@UBEDXZ 10034381 f i libvcruntime:undname.obj
 0001:00033397       ?getLexicalFrame@UnDecorator@@CA?AVDName@@XZ 10034397 f i libvcruntime:undname.obj
 0001:000333e3       ?getMemory@_HeapManager@@QAEPAXIH@Z 100343e3 f   libvcruntime:undname.obj
 0001:00033494       ?getNumberOfDimensions@UnDecorator@@CAHXZ 10034494 f   libvcruntime:undname.obj
 0001:0003350d       ?getOperatorName@UnDecorator@@CA?AVDName@@_NPA_N@Z 1003450d f i libvcruntime:undname.obj
 0001:00033cbc       ?getPointerType@UnDecorator@@CA?AVDName@@ABV2@0@Z 10034cbc f i libvcruntime:undname.obj
 0001:00033ce1       ?getPointerTypeArray@UnDecorator@@CA?AVDName@@ABV2@0@Z 10034ce1 f i libvcruntime:undname.obj
 0001:00033d06       ?getPrimaryDataType@UnDecorator@@CA?AVDName@@ABV2@@Z 10034d06 f   libvcruntime:undname.obj
 0001:00033f57       ?getPtrRefDataType@UnDecorator@@CA?AVDName@@ABV2@H@Z 10034f57 f   libvcruntime:undname.obj
 0001:00034099       ?getPtrRefType@UnDecorator@@CA?AVDName@@ABV2@0PBD@Z 10035099 f   libvcruntime:undname.obj
 0001:000341d4       ?getReferenceType@UnDecorator@@CA?AVDName@@ABV2@0PBD@Z 100351d4 f i libvcruntime:undname.obj
 0001:000341f7       ?getRestrictionSpec@UnDecorator@@CA?AVDName@@XZ 100351f7 f   libvcruntime:undname.obj
 0001:00034325       ?getReturnType@UnDecorator@@CA?AVDName@@PAV2@@Z 10035325 f   libvcruntime:undname.obj
 0001:0003435f       ?getScope@UnDecorator@@CA?AVDName@@XZ 1003535f f   libvcruntime:undname.obj
 0001:00034834       ?getScopedName@UnDecorator@@CA?AVDName@@XZ 10035834 f   libvcruntime:undname.obj
 0001:0003496d       ?getSignedDimension@UnDecorator@@CA?AVDName@@XZ 1003596d f   libvcruntime:undname.obj
 0001:000349d4       ?getStorageConvention@UnDecorator@@CA?AVDName@@XZ 100359d4 f i libvcruntime:undname.obj
 0001:000349e9       ?getString@DName@@QBEPADPAD0@Z 100359e9 f i libvcruntime:undname.obj
 0001:00034a20       ?getString@DName@@QBEPADPADH@Z 10035a20 f i libvcruntime:undname.obj
 0001:00034a8b       ?getString@DNameStatusNode@@UBEPADPAD0@Z 10035a8b f i libvcruntime:undname.obj
 0001:00034abb       ?getString@charNode@@UBEPADPAD0@Z 10035abb f i libvcruntime:undname.obj
 0001:00034ad5       ?getString@pDNameNode@@UBEPADPAD0@Z 10035ad5 f i libvcruntime:undname.obj
 0001:00034af1       ?getString@pairNode@@UBEPADPAD0@Z 10035af1 f i libvcruntime:undname.obj
 0001:00034b46       ?getString@pcharNode@@UBEPADPAD0@Z 10035b46 f i libvcruntime:undname.obj
 0001:00034b67       ?getStringEncoding@UnDecorator@@CA?AVDName@@PADH@Z 10035b67 f   libvcruntime:undname.obj
 0001:00034c32       ?getStringHelper@@YAPADPAD00H@Z 10035c32 f i libvcruntime:undname.obj
 0001:00034c76       ?getSymbolName@UnDecorator@@CA?AVDName@@XZ 10035c76 f i libvcruntime:undname.obj
 0001:00034cd0       ?getTemplateArgumentList@UnDecorator@@CA?AVDName@@XZ 10035cd0 f   libvcruntime:undname.obj
 0001:00035028       ?getTemplateConstant@UnDecorator@@CA?AVDName@@XZ 10036028 f   libvcruntime:undname.obj
 0001:0003543d       ?getTemplateName@UnDecorator@@CA?AVDName@@_N@Z 1003643d f   libvcruntime:undname.obj
 0001:000355e8       ?getThisType@UnDecorator@@CA?AVDName@@XZ 100365e8 f i libvcruntime:undname.obj
 0001:00035630       ?getThrowTypes@UnDecorator@@CA?AVDName@@XZ 10036630 f   libvcruntime:undname.obj
 0001:000356dc       ?getTypeEncoding@UnDecorator@@CAHXZ 100366dc f i libvcruntime:undname.obj
 0001:00035d1c       ?getVCallThunkType@UnDecorator@@CA?AVDName@@XZ 10036d1c f i libvcruntime:undname.obj
 0001:00035d65       ?getVbTableType@UnDecorator@@CA?AVDName@@ABV2@@Z 10036d65 f i libvcruntime:undname.obj
 0001:00035d7f       ?getVdispMapType@UnDecorator@@CA?AVDName@@ABV2@@Z 10036d7f f i libvcruntime:undname.obj
 0001:00035dea       ?getVfTableType@UnDecorator@@CA?AVDName@@ABV2@@Z 10036dea f i libvcruntime:undname.obj
 0001:00035fa8       ?getZName@UnDecorator@@CA?AVDName@@_N0@Z 10036fa8 f   libvcruntime:undname.obj
 0001:00036278       ?haveTemplateParameters@UnDecorator@@SAHXZ 10037278 f i libvcruntime:undname.obj
 0001:00036285       ?isArray@DName@@QBEHXZ     10037285 f i libvcruntime:undname.obj
 0001:00036291       ?isComArray@DName@@QBEHXZ  10037291 f i libvcruntime:undname.obj
 0001:0003629d       ?isEmpty@DName@@QBEHXZ     1003729d f i libvcruntime:undname.obj
 0001:000362a7       ?isFull@Replicator@@QBEHXZ 100372a7 f i libvcruntime:undname.obj
 0001:000362b2       ?isNoTE@DName@@QBEHXZ      100372b2 f i libvcruntime:undname.obj
 0001:000362be       ?isPinPtr@DName@@QBEHXZ    100372be f i libvcruntime:undname.obj
 0001:000362ca       ?isPtrRef@DName@@QBEHXZ    100372ca f i libvcruntime:undname.obj
 0001:000362d6       ?isUDC@DName@@QBEHXZ       100372d6 f i libvcruntime:undname.obj
 0001:000362eb       ?isUDTThunk@DName@@QBEHXZ  100372eb f i libvcruntime:undname.obj
 0001:00036300       ?isVCallThunk@DName@@QBEHXZ 10037300 f i libvcruntime:undname.obj
 0001:0003630c       ?isValid@DName@@QBEHXZ     1003730c f i libvcruntime:undname.obj
 0001:00036318       ?length@DName@@QBEHXZ      10037318 f i libvcruntime:undname.obj
 0001:0003633d       ?length@DNameStatusNode@@UBEHXZ 1003733d f i libvcruntime:undname.obj
 0001:00036341       ?length@charNode@@UBEHXZ   10037341 f i libvcruntime:undname.obj
 0001:00036345       ?length@pDNameNode@@UBEHXZ 10037345 f i libvcruntime:undname.obj
 0001:00036356       ?length@pairNode@@UBEHXZ   10037356 f i libvcruntime:undname.obj
 0001:000363b2       ?length@pcharNode@@UBEHXZ  100373b2 f i libvcruntime:undname.obj
 0001:000363b6       ?make@DNameStatusNode@@SAPAV1@W4DNameStatus@@@Z 100373b6 f i libvcruntime:undname.obj
 0001:0003645d       ?setIsArray@DName@@QAEXXZ  1003745d f i libvcruntime:undname.obj
 0001:00036467       ?setIsComArray@DName@@QAEXXZ 10037467 f i libvcruntime:undname.obj
 0001:00036471       ?setIsNoTE@DName@@QAEXXZ   10037471 f i libvcruntime:undname.obj
 0001:0003647b       ?setIsPinPtr@DName@@QAEXXZ 1003747b f i libvcruntime:undname.obj
 0001:00036485       ?setIsUDC@DName@@QAEXXZ    10037485 f i libvcruntime:undname.obj
 0001:00036495       ?setIsVCallThunk@DName@@QAEXXZ 10037495 f i libvcruntime:undname.obj
 0001:0003649f       ?setPtrRef@DName@@QAEAAV1@XZ 1003749f f i libvcruntime:undname.obj
 0001:000364ab       ?status@DName@@QBE?AW4DNameStatus@@XZ 100374ab f i libvcruntime:undname.obj
 0001:00036530       ___unDName                 10037530 f   libvcruntime:undname.obj
 0001:000365ea       ___unDNameEx               100375ea f   libvcruntime:undname.obj
 0001:000366a4       __vsprintf_s_l             100376a4 f i libvcruntime:undname.obj
 0001:000366dc       _sprintf_s                 100376dc f i libvcruntime:undname.obj
 0001:00036700       __global_unwind2           10037700 f   libvcruntime:_exsup_.obj
 0001:00036765       __local_unwind2            10037765 f   libvcruntime:_exsup_.obj
 0001:000367e9       __abnormal_termination     100377e9 f   libvcruntime:_exsup_.obj
 0001:0003680c       __NLG_Notify1              1003780c f   libvcruntime:_exsup_.obj
 0001:00036815       __NLG_Notify               10037815 f   libvcruntime:_exsup_.obj
 0001:0003682c       __NLG_Dispatch2            1003782c     libvcruntime:_exsup_.obj
 0001:0003682c       __NLG_Dispatch             1003782c     libvcruntime:_exsup_.obj
 0001:00036834       __NLG_Call                 10037834 f   libvcruntime:_exsup_.obj
 0001:00036836       __NLG_Return2              10037836     libvcruntime:_exsup_.obj
 0001:00036884       ??$__crt_fast_decode_pointer@P6AXXZ@@YAP6AXXZQ6AXXZ@Z 10037884 f i libvcruntime:purevirt.obj
 0001:0003689d       ??$__crt_interlocked_compare_exchange_pointer@$$A6AXXZ$$T$$T@@YAP6AXXZPDS6AXXZ$$T1@Z 1003789d f i libvcruntime:purevirt.obj
 0001:000368b3       ??$__crt_interlocked_exchange_pointer@$$A6AXXZP6AXXZ@@YAP6AXXZPDS6AXXZQ6AXXZ@Z 100378b3 f i libvcruntime:purevirt.obj
 0001:000368c3       ??$__crt_interlocked_read_pointer@$$A6AXXZ@@YAP6AXXZPDS6AXXZ@Z 100378c3 f i libvcruntime:purevirt.obj
 0001:000368d7       __get_purecall_handler     100378d7 f   libvcruntime:purevirt.obj
 0001:000368fd       __purecall                 100378fd f   libvcruntime:purevirt.obj
 0001:0003691e       __set_purecall_handler     1003791e f   libvcruntime:purevirt.obj
 0001:0003694c       _malloc                    1003794c f   libucrt:malloc.obj
 0001:00036959       ??$?RPAU__crt_stdio_stream_data@@@__crt_internal_free_policy@@QBEXQBQAU__crt_stdio_stream_data@@@Z 10037959 f i libucrt:_file.obj
 0001:0003696f       ??0?$__crt_unique_heap_ptr@PAU__crt_stdio_stream_data@@U__crt_internal_free_policy@@@@QAE@QAPAU__crt_stdio_stream_data@@@Z 1003796f f i libucrt:_file.obj
 0001:00036983       ??0__crt_stdio_stream@@QAE@QAU_iobuf@@@Z 10037983 f i libucrt:_file.obj
 0001:00036997       ??1?$__crt_unique_heap_ptr@PAU__crt_stdio_stream_data@@U__crt_internal_free_policy@@@@QAE@XZ 10037997 f i libucrt:_file.obj
 0001:000369ad       ??C__crt_stdio_stream@@QBEPAU__crt_stdio_stream_data@@XZ 100379ad f i libucrt:_file.obj
 0001:000369b0       ?detach@?$__crt_unique_heap_ptr@PAU__crt_stdio_stream_data@@U__crt_internal_free_policy@@@@QAEPAPAU__crt_stdio_stream_data@@XZ 100379b0 f i libucrt:_file.obj
 0001:000369b6       ?release@?$__crt_unique_heap_ptr@PAU__crt_stdio_stream_data@@U__crt_internal_free_policy@@@@QAEXXZ 100379b6 f i libucrt:_file.obj
 0001:000369cc       ___acrt_initialize_stdio   100379cc f   libucrt:_file.obj
 0001:00036ac6       ___acrt_iob_func           10037ac6 f   libucrt:_file.obj
 0001:00036ada       ___acrt_uninitialize_stdio 10037ada f   libucrt:_file.obj
 0001:00036b39       __get_stream_buffer_pointers 10037b39 f   libucrt:_file.obj
 0001:00036b90       __lock_file                10037b90 f   libucrt:_file.obj
 0001:00036ba9       __unlock_file              10037ba9 f   libucrt:_file.obj
 0001:00036bc2       ??$?0ABV?$stream_output_adapter@D@__crt_stdio_output@@AB_KABQBDABQAU__crt_locale_pointers@@ABQAD@?$format_validation_base@DV?$stream_output_adapter@D@__crt_stdio_output@@@__crt_stdio_output@@IAE@ABV?$stream_output_adapter@D@1@AB_KABQBDABQAU__crt_locale_pointers@@ABQAD@Z 10037bc2 f i libucrt:output.obj
 0001:00036bed       ??$?0ABV?$stream_output_adapter@D@__crt_stdio_output@@AB_KABQBDABQAU__crt_locale_pointers@@ABQAD@?$positional_parameter_base@DV?$stream_output_adapter@D@__crt_stdio_output@@@__crt_stdio_output@@IAE@ABV?$stream_output_adapter@D@1@AB_KABQBDABQAU__crt_locale_pointers@@ABQAD@Z 10037bed f i libucrt:output.obj
 0001:00036c47       ??$?0ABV?$stream_output_adapter@D@__crt_stdio_output@@AB_KABQBDABQAU__crt_locale_pointers@@ABQAD@?$standard_base@DV?$stream_output_adapter@D@__crt_stdio_output@@@__crt_stdio_output@@IAE@ABV?$stream_output_adapter@D@1@AB_KABQBDABQAU__crt_locale_pointers@@ABQAD@Z 10037c47 f i libucrt:output.obj
 0001:00036c89       ??$?0ABV?$stream_output_adapter@_W@__crt_stdio_output@@AB_KABQB_WABQAU__crt_locale_pointers@@ABQAD@?$format_validation_base@_WV?$stream_output_adapter@_W@__crt_stdio_output@@@__crt_stdio_output@@IAE@ABV?$stream_output_adapter@_W@1@AB_KABQB_WABQAU__crt_locale_pointers@@ABQAD@Z 10037c89 f i libucrt:output.obj
 0001:00036cb4       ??$?0ABV?$stream_output_adapter@_W@__crt_stdio_output@@AB_KABQB_WABQAU__crt_locale_pointers@@ABQAD@?$positional_parameter_base@_WV?$stream_output_adapter@_W@__crt_stdio_output@@@__crt_stdio_output@@IAE@ABV?$stream_output_adapter@_W@1@AB_KABQB_WABQAU__crt_locale_pointers@@ABQAD@Z 10037cb4 f i libucrt:output.obj
 0001:00036d0e       ??$?0ABV?$stream_output_adapter@_W@__crt_stdio_output@@AB_KABQB_WABQAU__crt_locale_pointers@@ABQAD@?$standard_base@_WV?$stream_output_adapter@_W@__crt_stdio_output@@@__crt_stdio_output@@IAE@ABV?$stream_output_adapter@_W@1@AB_KABQB_WABQAU__crt_locale_pointers@@ABQAD@Z 10037d0e f i libucrt:output.obj
 0001:00036d50       ??$?0ABV?$string_output_adapter@D@__crt_stdio_output@@AB_KABQBDABQAU__crt_locale_pointers@@ABQAD@?$format_validation_base@DV?$string_output_adapter@D@__crt_stdio_output@@@__crt_stdio_output@@IAE@ABV?$string_output_adapter@D@1@AB_KABQBDABQAU__crt_locale_pointers@@ABQAD@Z 10037d50 f i libucrt:output.obj
 0001:00036d7b       ??$?0ABV?$string_output_adapter@D@__crt_stdio_output@@AB_KABQBDABQAU__crt_locale_pointers@@ABQAD@?$positional_parameter_base@DV?$string_output_adapter@D@__crt_stdio_output@@@__crt_stdio_output@@IAE@ABV?$string_output_adapter@D@1@AB_KABQBDABQAU__crt_locale_pointers@@ABQAD@Z 10037d7b f i libucrt:output.obj
 0001:00036dd5       ??$?0ABV?$string_output_adapter@D@__crt_stdio_output@@AB_KABQBDABQAU__crt_locale_pointers@@ABQAD@?$standard_base@DV?$string_output_adapter@D@__crt_stdio_output@@@__crt_stdio_output@@IAE@ABV?$string_output_adapter@D@1@AB_KABQBDABQAU__crt_locale_pointers@@ABQAD@Z 10037dd5 f i libucrt:output.obj
 0001:00036e17       ??$?0ABV?$string_output_adapter@_W@__crt_stdio_output@@AB_KABQB_WABQAU__crt_locale_pointers@@ABQAD@?$format_validation_base@_WV?$string_output_adapter@_W@__crt_stdio_output@@@__crt_stdio_output@@IAE@ABV?$string_output_adapter@_W@1@AB_KABQB_WABQAU__crt_locale_pointers@@ABQAD@Z 10037e17 f i libucrt:output.obj
 0001:00036e42       ??$?0ABV?$string_output_adapter@_W@__crt_stdio_output@@AB_KABQB_WABQAU__crt_locale_pointers@@ABQAD@?$positional_parameter_base@_WV?$string_output_adapter@_W@__crt_stdio_output@@@__crt_stdio_output@@IAE@ABV?$string_output_adapter@_W@1@AB_KABQB_WABQAU__crt_locale_pointers@@ABQAD@Z 10037e42 f i libucrt:output.obj
 0001:00036e9c       ??$?0ABV?$string_output_adapter@_W@__crt_stdio_output@@AB_KABQB_WABQAU__crt_locale_pointers@@ABQAD@?$standard_base@_WV?$string_output_adapter@_W@__crt_stdio_output@@@__crt_stdio_output@@IAE@ABV?$string_output_adapter@_W@1@AB_KABQB_WABQAU__crt_locale_pointers@@ABQAD@Z 10037e9c f i libucrt:output.obj
 0001:00036ede       ??$?RV<lambda_2293f24e3ce1ad6fe22ccfb9dec07671>@@AAV<lambda_2565fc715a641e539f44ad02d6823606>@@V<lambda_d3217f279b832965d9ca670dc2993570>@@@?$__crt_seh_guarded_call@H@@QAEH$$QAV<lambda_2293f24e3ce1ad6fe22ccfb9dec07671>@@AAV<lambda_2565fc715a641e539f44ad02d6823606>@@$$QAV<lambda_d3217f279b832965d9ca670dc2993570>@@@Z 10037ede f i libucrt:output.obj
 0001:00036f43       ??$?RV<lambda_4d4ac866be0fa3c441830420fabdd2cb>@@AAV<lambda_63a10c2dc8dbb9e4dd1890be52af7c93>@@V<lambda_002af9fa0f8fe472b648c51882d4fc32>@@@?$__crt_seh_guarded_call@H@@QAEH$$QAV<lambda_4d4ac866be0fa3c441830420fabdd2cb>@@AAV<lambda_63a10c2dc8dbb9e4dd1890be52af7c93>@@$$QAV<lambda_002af9fa0f8fe472b648c51882d4fc32>@@@Z 10037f43 f i libucrt:output.obj
 0001:00036fa8       ??$?RV<lambda_5be909dfbae0a631386585770cd7b676>@@AAV<lambda_e516058a9c289d98c8ca9fea99247804>@@V<lambda_afe2e0cdc5e0ecf6f0d6f5e2f8985e38>@@@?$__crt_seh_guarded_call@H@@QAEH$$QAV<lambda_5be909dfbae0a631386585770cd7b676>@@AAV<lambda_e516058a9c289d98c8ca9fea99247804>@@$$QAV<lambda_afe2e0cdc5e0ecf6f0d6f5e2f8985e38>@@@Z 10037fa8 f i libucrt:output.obj
 0001:0003700d       ??$?RV<lambda_823d65812123d985753d53e2a8c25d20>@@AAV<lambda_0a97c9e57da7be065955385c79108ff2>@@V<lambda_4d2973f3ad2d226f00468307185dca1b>@@@?$__crt_seh_guarded_call@H@@QAEH$$QAV<lambda_823d65812123d985753d53e2a8c25d20>@@AAV<lambda_0a97c9e57da7be065955385c79108ff2>@@$$QAV<lambda_4d2973f3ad2d226f00468307185dca1b>@@@Z 1003800d f i libucrt:output.obj
 0001:00037072       ??$?RV<lambda_ab9923ffb5d694ec0d78876dd103e44f>@@AAV<lambda_481dd5778c961fbcd3b60b650e9b9dc4>@@V<lambda_7923d86c9e3f319b415918ec4b39749c>@@@?$__crt_seh_guarded_call@H@@QAEH$$QAV<lambda_ab9923ffb5d694ec0d78876dd103e44f>@@AAV<lambda_481dd5778c961fbcd3b60b650e9b9dc4>@@$$QAV<lambda_7923d86c9e3f319b415918ec4b39749c>@@@Z 10038072 f i libucrt:output.obj
 0001:000370d7       ??$?RV<lambda_db08b09ef7aa9d4f8620ce68402612bc>@@AAV<lambda_4f2c1eaeead2a5fc776db5b62ea0fb9b>@@V<lambda_3ae262bc35d4ba6a3825c4f6bcaaf95c>@@@?$__crt_seh_guarded_call@H@@QAEH$$QAV<lambda_db08b09ef7aa9d4f8620ce68402612bc>@@AAV<lambda_4f2c1eaeead2a5fc776db5b62ea0fb9b>@@$$QAV<lambda_3ae262bc35d4ba6a3825c4f6bcaaf95c>@@@Z 100380d7 f i libucrt:output.obj
 0001:0003713c       ??$__acrt_lock_stream_and_call@V<lambda_0a97c9e57da7be065955385c79108ff2>@@@@YAHQAU_iobuf@@$$QAV<lambda_0a97c9e57da7be065955385c79108ff2>@@@Z 1003813c f i libucrt:output.obj
 0001:0003716e       ??$__acrt_lock_stream_and_call@V<lambda_2565fc715a641e539f44ad02d6823606>@@@@YAHQAU_iobuf@@$$QAV<lambda_2565fc715a641e539f44ad02d6823606>@@@Z 1003816e f i libucrt:output.obj
 0001:000371a0       ??$__acrt_lock_stream_and_call@V<lambda_481dd5778c961fbcd3b60b650e9b9dc4>@@@@YAHQAU_iobuf@@$$QAV<lambda_481dd5778c961fbcd3b60b650e9b9dc4>@@@Z 100381a0 f i libucrt:output.obj
 0001:000371d2       ??$__acrt_lock_stream_and_call@V<lambda_4f2c1eaeead2a5fc776db5b62ea0fb9b>@@@@YAHQAU_iobuf@@$$QAV<lambda_4f2c1eaeead2a5fc776db5b62ea0fb9b>@@@Z 100381d2 f i libucrt:output.obj
 0001:00037204       ??$__acrt_lock_stream_and_call@V<lambda_63a10c2dc8dbb9e4dd1890be52af7c93>@@@@YAHQAU_iobuf@@$$QAV<lambda_63a10c2dc8dbb9e4dd1890be52af7c93>@@@Z 10038204 f i libucrt:output.obj
 0001:00037236       ??$__acrt_lock_stream_and_call@V<lambda_e516058a9c289d98c8ca9fea99247804>@@@@YAHQAU_iobuf@@$$QAV<lambda_e516058a9c289d98c8ca9fea99247804>@@@Z 10038236 f i libucrt:output.obj
 0001:00037268       ??$__crt_interlocked_read@J@@YAJPDJ@Z 10038268 f i libucrt:output.obj
 0001:000384b3       ??$count@D@formatting_buffer@__crt_stdio_output@@QBEIXZ 100394b3 f i libucrt:output.obj
 0001:000384d1       ??$data@D@formatting_buffer@__crt_stdio_output@@QAEPADXZ 100394d1 f i libucrt:output.obj
 0001:000384e1       ??$data@_W@formatting_buffer@__crt_stdio_output@@QAEPA_WXZ 100394e1 f i libucrt:output.obj
 0001:000384f1       ??$ensure_buffer_is_big_enough@D@formatting_buffer@__crt_stdio_output@@QAE_NI@Z 100394f1 f i libucrt:output.obj
 0001:00038598       ??$extract_argument_from_va_list@C_J@?$positional_parameter_base@DV?$stream_output_adapter@D@__crt_stdio_output@@@__crt_stdio_output@@IAE_NAA_J@Z 10039598 f i libucrt:output.obj
 0001:00038636       ??$extract_argument_from_va_list@C_J@?$positional_parameter_base@DV?$string_output_adapter@D@__crt_stdio_output@@@__crt_stdio_output@@IAE_NAA_J@Z 10039636 f i libucrt:output.obj
 0001:000386d4       ??$extract_argument_from_va_list@C_J@?$positional_parameter_base@_WV?$stream_output_adapter@_W@__crt_stdio_output@@@__crt_stdio_output@@IAE_NAA_J@Z 100396d4 f i libucrt:output.obj
 0001:00038772       ??$extract_argument_from_va_list@C_J@?$positional_parameter_base@_WV?$string_output_adapter@_W@__crt_stdio_output@@@__crt_stdio_output@@IAE_NAA_J@Z 10039772 f i libucrt:output.obj
 0001:00038810       ??$extract_argument_from_va_list@C_J@?$standard_base@DV?$stream_output_adapter@D@__crt_stdio_output@@@__crt_stdio_output@@IAE_NAA_J@Z 10039810 f i libucrt:output.obj
 0001:00038836       ??$extract_argument_from_va_list@C_J@?$standard_base@DV?$string_output_adapter@D@__crt_stdio_output@@@__crt_stdio_output@@IAE_NAA_J@Z 10039836 f i libucrt:output.obj
 0001:0003885c       ??$extract_argument_from_va_list@C_J@?$standard_base@_WV?$stream_output_adapter@_W@__crt_stdio_output@@@__crt_stdio_output@@IAE_NAA_J@Z 1003985c f i libucrt:output.obj
 0001:00038882       ??$extract_argument_from_va_list@C_J@?$standard_base@_WV?$string_output_adapter@_W@__crt_stdio_output@@@__crt_stdio_output@@IAE_NAA_J@Z 10039882 f i libucrt:output.obj
 0001:000388a8       ??$extract_argument_from_va_list@E_J@?$positional_parameter_base@DV?$stream_output_adapter@D@__crt_stdio_output@@@__crt_stdio_output@@IAE_NAA_J@Z 100398a8 f i libucrt:output.obj
 0001:00038946       ??$extract_argument_from_va_list@E_J@?$positional_parameter_base@DV?$string_output_adapter@D@__crt_stdio_output@@@__crt_stdio_output@@IAE_NAA_J@Z 10039946 f i libucrt:output.obj
 0001:000389e4       ??$extract_argument_from_va_list@E_J@?$positional_parameter_base@_WV?$stream_output_adapter@_W@__crt_stdio_output@@@__crt_stdio_output@@IAE_NAA_J@Z 100399e4 f i libucrt:output.obj
 0001:00038a82       ??$extract_argument_from_va_list@E_J@?$positional_parameter_base@_WV?$string_output_adapter@_W@__crt_stdio_output@@@__crt_stdio_output@@IAE_NAA_J@Z 10039a82 f i libucrt:output.obj
 0001:00038b20       ??$extract_argument_from_va_list@E_J@?$standard_base@DV?$stream_output_adapter@D@__crt_stdio_output@@@__crt_stdio_output@@IAE_NAA_J@Z 10039b20 f i libucrt:output.obj
 0001:00038b46       ??$extract_argument_from_va_list@E_J@?$standard_base@DV?$string_output_adapter@D@__crt_stdio_output@@@__crt_stdio_output@@IAE_NAA_J@Z 10039b46 f i libucrt:output.obj
 0001:00038b6c       ??$extract_argument_from_va_list@E_J@?$standard_base@_WV?$stream_output_adapter@_W@__crt_stdio_output@@@__crt_stdio_output@@IAE_NAA_J@Z 10039b6c f i libucrt:output.obj
 0001:00038b92       ??$extract_argument_from_va_list@E_J@?$standard_base@_WV?$string_output_adapter@_W@__crt_stdio_output@@@__crt_stdio_output@@IAE_NAA_J@Z 10039b92 f i libucrt:output.obj
 0001:00038bb8       ??$extract_argument_from_va_list@F_J@?$positional_parameter_base@DV?$stream_output_adapter@D@__crt_stdio_output@@@__crt_stdio_output@@IAE_NAA_J@Z 10039bb8 f i libucrt:output.obj
 0001:00038c56       ??$extract_argument_from_va_list@F_J@?$positional_parameter_base@DV?$string_output_adapter@D@__crt_stdio_output@@@__crt_stdio_output@@IAE_NAA_J@Z 10039c56 f i libucrt:output.obj
 0001:00038cf4       ??$extract_argument_from_va_list@F_J@?$positional_parameter_base@_WV?$stream_output_adapter@_W@__crt_stdio_output@@@__crt_stdio_output@@IAE_NAA_J@Z 10039cf4 f i libucrt:output.obj
 0001:00038d92       ??$extract_argument_from_va_list@F_J@?$positional_parameter_base@_WV?$string_output_adapter@_W@__crt_stdio_output@@@__crt_stdio_output@@IAE_NAA_J@Z 10039d92 f i libucrt:output.obj
 0001:00038e30       ??$extract_argument_from_va_list@F_J@?$standard_base@DV?$stream_output_adapter@D@__crt_stdio_output@@@__crt_stdio_output@@IAE_NAA_J@Z 10039e30 f i libucrt:output.obj
 0001:00038e56       ??$extract_argument_from_va_list@F_J@?$standard_base@DV?$string_output_adapter@D@__crt_stdio_output@@@__crt_stdio_output@@IAE_NAA_J@Z 10039e56 f i libucrt:output.obj
 0001:00038e7c       ??$extract_argument_from_va_list@F_J@?$standard_base@_WV?$stream_output_adapter@_W@__crt_stdio_output@@@__crt_stdio_output@@IAE_NAA_J@Z 10039e7c f i libucrt:output.obj
 0001:00038ea2       ??$extract_argument_from_va_list@F_J@?$standard_base@_WV?$string_output_adapter@_W@__crt_stdio_output@@@__crt_stdio_output@@IAE_NAA_J@Z 10039ea2 f i libucrt:output.obj
 0001:00038ec8       ??$extract_argument_from_va_list@GD@?$positional_parameter_base@DV?$stream_output_adapter@D@__crt_stdio_output@@@__crt_stdio_output@@IAE_NAAD@Z 10039ec8 f i libucrt:output.obj
 0001:00038f65       ??$extract_argument_from_va_list@GD@?$positional_parameter_base@DV?$string_output_adapter@D@__crt_stdio_output@@@__crt_stdio_output@@IAE_NAAD@Z 10039f65 f i libucrt:output.obj
 0001:00039002       ??$extract_argument_from_va_list@GD@?$standard_base@DV?$stream_output_adapter@D@__crt_stdio_output@@@__crt_stdio_output@@IAE_NAAD@Z 1003a002 f i libucrt:output.obj
 0001:00039022       ??$extract_argument_from_va_list@GD@?$standard_base@DV?$string_output_adapter@D@__crt_stdio_output@@@__crt_stdio_output@@IAE_NAAD@Z 1003a022 f i libucrt:output.obj
 0001:00039042       ??$extract_argument_from_va_list@G_J@?$positional_parameter_base@DV?$stream_output_adapter@D@__crt_stdio_output@@@__crt_stdio_output@@IAE_NAA_J@Z 1003a042 f i libucrt:output.obj
 0001:000390e0       ??$extract_argument_from_va_list@G_J@?$positional_parameter_base@DV?$string_output_adapter@D@__crt_stdio_output@@@__crt_stdio_output@@IAE_NAA_J@Z 1003a0e0 f i libucrt:output.obj
 0001:0003917e       ??$extract_argument_from_va_list@G_J@?$positional_parameter_base@_WV?$stream_output_adapter@_W@__crt_stdio_output@@@__crt_stdio_output@@IAE_NAA_J@Z 1003a17e f i libucrt:output.obj
 0001:0003921c       ??$extract_argument_from_va_list@G_J@?$positional_parameter_base@_WV?$string_output_adapter@_W@__crt_stdio_output@@@__crt_stdio_output@@IAE_NAA_J@Z 1003a21c f i libucrt:output.obj
 0001:000392ba       ??$extract_argument_from_va_list@G_J@?$standard_base@DV?$stream_output_adapter@D@__crt_stdio_output@@@__crt_stdio_output@@IAE_NAA_J@Z 1003a2ba f i libucrt:output.obj
 0001:000392e0       ??$extract_argument_from_va_list@G_J@?$standard_base@DV?$string_output_adapter@D@__crt_stdio_output@@@__crt_stdio_output@@IAE_NAA_J@Z 1003a2e0 f i libucrt:output.obj
 0001:00039306       ??$extract_argument_from_va_list@G_J@?$standard_base@_WV?$stream_output_adapter@_W@__crt_stdio_output@@@__crt_stdio_output@@IAE_NAA_J@Z 1003a306 f i libucrt:output.obj
 0001:0003932c       ??$extract_argument_from_va_list@G_J@?$standard_base@_WV?$string_output_adapter@_W@__crt_stdio_output@@@__crt_stdio_output@@IAE_NAA_J@Z 1003a32c f i libucrt:output.obj
 0001:00039352       ??$extract_argument_from_va_list@H_J@?$positional_parameter_base@DV?$stream_output_adapter@D@__crt_stdio_output@@@__crt_stdio_output@@IAE_NAA_J@Z 1003a352 f i libucrt:output.obj
 0001:000393ee       ??$extract_argument_from_va_list@H_J@?$positional_parameter_base@DV?$string_output_adapter@D@__crt_stdio_output@@@__crt_stdio_output@@IAE_NAA_J@Z 1003a3ee f i libucrt:output.obj
 0001:0003948a       ??$extract_argument_from_va_list@H_J@?$positional_parameter_base@_WV?$stream_output_adapter@_W@__crt_stdio_output@@@__crt_stdio_output@@IAE_NAA_J@Z 1003a48a f i libucrt:output.obj
 0001:00039526       ??$extract_argument_from_va_list@H_J@?$positional_parameter_base@_WV?$string_output_adapter@_W@__crt_stdio_output@@@__crt_stdio_output@@IAE_NAA_J@Z 1003a526 f i libucrt:output.obj
 0001:000395c2       ??$extract_argument_from_va_list@H_J@?$standard_base@DV?$stream_output_adapter@D@__crt_stdio_output@@@__crt_stdio_output@@IAE_NAA_J@Z 1003a5c2 f i libucrt:output.obj
 0001:000395e7       ??$extract_argument_from_va_list@H_J@?$standard_base@DV?$string_output_adapter@D@__crt_stdio_output@@@__crt_stdio_output@@IAE_NAA_J@Z 1003a5e7 f i libucrt:output.obj
 0001:0003960c       ??$extract_argument_from_va_list@H_J@?$standard_base@_WV?$stream_output_adapter@_W@__crt_stdio_output@@@__crt_stdio_output@@IAE_NAA_J@Z 1003a60c f i libucrt:output.obj
 0001:00039631       ??$extract_argument_from_va_list@H_J@?$standard_base@_WV?$string_output_adapter@_W@__crt_stdio_output@@@__crt_stdio_output@@IAE_NAA_J@Z 1003a631 f i libucrt:output.obj
 0001:00039656       ??$extract_argument_from_va_list@I_J@?$positional_parameter_base@DV?$stream_output_adapter@D@__crt_stdio_output@@@__crt_stdio_output@@IAE_NAA_J@Z 1003a656 f i libucrt:output.obj
 0001:000396fd       ??$extract_argument_from_va_list@I_J@?$positional_parameter_base@DV?$string_output_adapter@D@__crt_stdio_output@@@__crt_stdio_output@@IAE_NAA_J@Z 1003a6fd f i libucrt:output.obj
 0001:000397a4       ??$extract_argument_from_va_list@I_J@?$positional_parameter_base@_WV?$stream_output_adapter@_W@__crt_stdio_output@@@__crt_stdio_output@@IAE_NAA_J@Z 1003a7a4 f i libucrt:output.obj
 0001:0003984b       ??$extract_argument_from_va_list@I_J@?$positional_parameter_base@_WV?$string_output_adapter@_W@__crt_stdio_output@@@__crt_stdio_output@@IAE_NAA_J@Z 1003a84b f i libucrt:output.obj
 0001:000398f2       ??$extract_argument_from_va_list@I_J@?$standard_base@DV?$stream_output_adapter@D@__crt_stdio_output@@@__crt_stdio_output@@IAE_NAA_J@Z 1003a8f2 f i libucrt:output.obj
 0001:00039917       ??$extract_argument_from_va_list@I_J@?$standard_base@DV?$string_output_adapter@D@__crt_stdio_output@@@__crt_stdio_output@@IAE_NAA_J@Z 1003a917 f i libucrt:output.obj
 0001:0003993c       ??$extract_argument_from_va_list@I_J@?$standard_base@_WV?$stream_output_adapter@_W@__crt_stdio_output@@@__crt_stdio_output@@IAE_NAA_J@Z 1003a93c f i libucrt:output.obj
 0001:00039961       ??$extract_argument_from_va_list@I_J@?$standard_base@_WV?$string_output_adapter@_W@__crt_stdio_output@@@__crt_stdio_output@@IAE_NAA_J@Z 1003a961 f i libucrt:output.obj
 0001:00039986       ??$extract_argument_from_va_list@PADPAD@?$positional_parameter_base@DV?$stream_output_adapter@D@__crt_stdio_output@@@__crt_stdio_output@@IAE_NAAPAD@Z 1003a986 f i libucrt:output.obj
 0001:00039a23       ??$extract_argument_from_va_list@PADPAD@?$positional_parameter_base@DV?$string_output_adapter@D@__crt_stdio_output@@@__crt_stdio_output@@IAE_NAAPAD@Z 1003aa23 f i libucrt:output.obj
 0001:00039ac0       ??$extract_argument_from_va_list@PADPAD@?$positional_parameter_base@_WV?$stream_output_adapter@_W@__crt_stdio_output@@@__crt_stdio_output@@IAE_NAAPAD@Z 1003aac0 f i libucrt:output.obj
 0001:00039b5d       ??$extract_argument_from_va_list@PADPAD@?$positional_parameter_base@_WV?$string_output_adapter@_W@__crt_stdio_output@@@__crt_stdio_output@@IAE_NAAPAD@Z 1003ab5d f i libucrt:output.obj
 0001:00039bfa       ??$extract_argument_from_va_list@PADPAD@?$standard_base@DV?$stream_output_adapter@D@__crt_stdio_output@@@__crt_stdio_output@@IAE_NAAPAD@Z 1003abfa f i libucrt:output.obj
 0001:00039c1a       ??$extract_argument_from_va_list@PADPAD@?$standard_base@DV?$string_output_adapter@D@__crt_stdio_output@@@__crt_stdio_output@@IAE_NAAPAD@Z 1003ac1a f i libucrt:output.obj
 0001:00039c3a       ??$extract_argument_from_va_list@PADPAD@?$standard_base@_WV?$stream_output_adapter@_W@__crt_stdio_output@@@__crt_stdio_output@@IAE_NAAPAD@Z 1003ac3a f i libucrt:output.obj
 0001:00039c5a       ??$extract_argument_from_va_list@PADPAD@?$standard_base@_WV?$string_output_adapter@_W@__crt_stdio_output@@@__crt_stdio_output@@IAE_NAAPAD@Z 1003ac5a f i libucrt:output.obj
 0001:00039c7a       ??$extract_argument_from_va_list@PAUansi_string@?1??type_case_Z@?$output_processor@DV?$stream_output_adapter@D@__crt_stdio_output@@V?$format_validation_base@DV?$stream_output_adapter@D@__crt_stdio_output@@@2@@__crt_stdio_output@@AAE_NXZ@PAU1?1??234@AAE_NXZ@@?$standard_base@DV?$stream_output_adapter@D@__crt_stdio_output@@@__crt_stdio_output@@IAE_NAAPAUansi_string@?1??type_case_Z@?$output_processor@DV?$stream_output_adapter@D@__crt_stdio_output@@V?$format_validation_base@DV?$stream_output_adapter@D@__crt_stdio_output@@@2@@1@AAE_NXZ@@Z 1003ac7a f i libucrt:output.obj
 0001:00039c9a       ??$extract_argument_from_va_list@PAUansi_string@?1??type_case_Z@?$output_processor@DV?$stream_output_adapter@D@__crt_stdio_output@@V?$positional_parameter_base@DV?$stream_output_adapter@D@__crt_stdio_output@@@2@@__crt_stdio_output@@AAE_NXZ@PAU1?1??234@AAE_NXZ@@?$positional_parameter_base@DV?$stream_output_adapter@D@__crt_stdio_output@@@__crt_stdio_output@@IAE_NAAPAUansi_string@?1??type_case_Z@?$output_processor@DV?$stream_output_adapter@D@__crt_stdio_output@@V?$positional_parameter_base@DV?$stream_output_adapter@D@__crt_stdio_output@@@2@@1@AAE_NXZ@@Z 1003ac9a f i libucrt:output.obj
 0001:00039d37       ??$extract_argument_from_va_list@PAUansi_string@?1??type_case_Z@?$output_processor@DV?$stream_output_adapter@D@__crt_stdio_output@@V?$positional_parameter_base@DV?$stream_output_adapter@D@__crt_stdio_output@@@2@@__crt_stdio_output@@AAE_NXZ@PAU1?1??234@AAE_NXZ@@?$standard_base@DV?$stream_output_adapter@D@__crt_stdio_output@@@__crt_stdio_output@@IAE_NAAPAUansi_string@?1??type_case_Z@?$output_processor@DV?$stream_output_adapter@D@__crt_stdio_output@@V?$positional_parameter_base@DV?$stream_output_adapter@D@__crt_stdio_output@@@2@@1@AAE_NXZ@@Z 1003ad37 f i libucrt:output.obj
 0001:00039d57       ??$extract_argument_from_va_list@PAUansi_string@?1??type_case_Z@?$output_processor@DV?$stream_output_adapter@D@__crt_stdio_output@@V?$standard_base@DV?$stream_output_adapter@D@__crt_stdio_output@@@2@@__crt_stdio_output@@AAE_NXZ@PAU1?1??234@AAE_NXZ@@?$standard_base@DV?$stream_output_adapter@D@__crt_stdio_output@@@__crt_stdio_output@@IAE_NAAPAUansi_string@?1??type_case_Z@?$output_processor@DV?$stream_output_adapter@D@__crt_stdio_output@@V?$standard_base@DV?$stream_output_adapter@D@__crt_stdio_output@@@2@@1@AAE_NXZ@@Z 1003ad57 f i libucrt:output.obj
 0001:00039d77       ??$extract_argument_from_va_list@PAUansi_string@?1??type_case_Z@?$output_processor@DV?$string_output_adapter@D@__crt_stdio_output@@V?$format_validation_base@DV?$string_output_adapter@D@__crt_stdio_output@@@2@@__crt_stdio_output@@AAE_NXZ@PAU1?1??234@AAE_NXZ@@?$standard_base@DV?$string_output_adapter@D@__crt_stdio_output@@@__crt_stdio_output@@IAE_NAAPAUansi_string@?1??type_case_Z@?$output_processor@DV?$string_output_adapter@D@__crt_stdio_output@@V?$format_validation_base@DV?$string_output_adapter@D@__crt_stdio_output@@@2@@1@AAE_NXZ@@Z 1003ad77 f i libucrt:output.obj
 0001:00039d97       ??$extract_argument_from_va_list@PAUansi_string@?1??type_case_Z@?$output_processor@DV?$string_output_adapter@D@__crt_stdio_output@@V?$positional_parameter_base@DV?$string_output_adapter@D@__crt_stdio_output@@@2@@__crt_stdio_output@@AAE_NXZ@PAU1?1??234@AAE_NXZ@@?$positional_parameter_base@DV?$string_output_adapter@D@__crt_stdio_output@@@__crt_stdio_output@@IAE_NAAPAUansi_string@?1??type_case_Z@?$output_processor@DV?$string_output_adapter@D@__crt_stdio_output@@V?$positional_parameter_base@DV?$string_output_adapter@D@__crt_stdio_output@@@2@@1@AAE_NXZ@@Z 1003ad97 f i libucrt:output.obj
 0001:00039e34       ??$extract_argument_from_va_list@PAUansi_string@?1??type_case_Z@?$output_processor@DV?$string_output_adapter@D@__crt_stdio_output@@V?$positional_parameter_base@DV?$string_output_adapter@D@__crt_stdio_output@@@2@@__crt_stdio_output@@AAE_NXZ@PAU1?1??234@AAE_NXZ@@?$standard_base@DV?$string_output_adapter@D@__crt_stdio_output@@@__crt_stdio_output@@IAE_NAAPAUansi_string@?1??type_case_Z@?$output_processor@DV?$string_output_adapter@D@__crt_stdio_output@@V?$positional_parameter_base@DV?$string_output_adapter@D@__crt_stdio_output@@@2@@1@AAE_NXZ@@Z 1003ae34 f i libucrt:output.obj
 0001:00039e54       ??$extract_argument_from_va_list@PAUansi_string@?1??type_case_Z@?$output_processor@DV?$string_output_adapter@D@__crt_stdio_output@@V?$standard_base@DV?$string_output_adapter@D@__crt_stdio_output@@@2@@__crt_stdio_output@@AAE_NXZ@PAU1?1??234@AAE_NXZ@@?$standard_base@DV?$string_output_adapter@D@__crt_stdio_output@@@__crt_stdio_output@@IAE_NAAPAUansi_string@?1??type_case_Z@?$output_processor@DV?$string_output_adapter@D@__crt_stdio_output@@V?$standard_base@DV?$string_output_adapter@D@__crt_stdio_output@@@2@@1@AAE_NXZ@@Z 1003ae54 f i libucrt:output.obj
 0001:00039e74       ??$extract_argument_from_va_list@PAUansi_string@?1??type_case_Z@?$output_processor@_WV?$stream_output_adapter@_W@__crt_stdio_output@@V?$format_validation_base@_WV?$stream_output_adapter@_W@__crt_stdio_output@@@2@@__crt_stdio_output@@AAE_NXZ@PAU1?1??234@AAE_NXZ@@?$standard_base@_WV?$stream_output_adapter@_W@__crt_stdio_output@@@__crt_stdio_output@@IAE_NAAPAUansi_string@?1??type_case_Z@?$output_processor@_WV?$stream_output_adapter@_W@__crt_stdio_output@@V?$format_validation_base@_WV?$stream_output_adapter@_W@__crt_stdio_output@@@2@@1@AAE_NXZ@@Z 1003ae74 f i libucrt:output.obj
 0001:00039e94       ??$extract_argument_from_va_list@PAUansi_string@?1??type_case_Z@?$output_processor@_WV?$stream_output_adapter@_W@__crt_stdio_output@@V?$positional_parameter_base@_WV?$stream_output_adapter@_W@__crt_stdio_output@@@2@@__crt_stdio_output@@AAE_NXZ@PAU1?1??234@AAE_NXZ@@?$positional_parameter_base@_WV?$stream_output_adapter@_W@__crt_stdio_output@@@__crt_stdio_output@@IAE_NAAPAUansi_string@?1??type_case_Z@?$output_processor@_WV?$stream_output_adapter@_W@__crt_stdio_output@@V?$positional_parameter_base@_WV?$stream_output_adapter@_W@__crt_stdio_output@@@2@@1@AAE_NXZ@@Z 1003ae94 f i libucrt:output.obj
 0001:00039f31       ??$extract_argument_from_va_list@PAUansi_string@?1??type_case_Z@?$output_processor@_WV?$stream_output_adapter@_W@__crt_stdio_output@@V?$positional_parameter_base@_WV?$stream_output_adapter@_W@__crt_stdio_output@@@2@@__crt_stdio_output@@AAE_NXZ@PAU1?1??234@AAE_NXZ@@?$standard_base@_WV?$stream_output_adapter@_W@__crt_stdio_output@@@__crt_stdio_output@@IAE_NAAPAUansi_string@?1??type_case_Z@?$output_processor@_WV?$stream_output_adapter@_W@__crt_stdio_output@@V?$positional_parameter_base@_WV?$stream_output_adapter@_W@__crt_stdio_output@@@2@@1@AAE_NXZ@@Z 1003af31 f i libucrt:output.obj
 0001:00039f51       ??$extract_argument_from_va_list@PAUansi_string@?1??type_case_Z@?$output_processor@_WV?$stream_output_adapter@_W@__crt_stdio_output@@V?$standard_base@_WV?$stream_output_adapter@_W@__crt_stdio_output@@@2@@__crt_stdio_output@@AAE_NXZ@PAU1?1??234@AAE_NXZ@@?$standard_base@_WV?$stream_output_adapter@_W@__crt_stdio_output@@@__crt_stdio_output@@IAE_NAAPAUansi_string@?1??type_case_Z@?$output_processor@_WV?$stream_output_adapter@_W@__crt_stdio_output@@V?$standard_base@_WV?$stream_output_adapter@_W@__crt_stdio_output@@@2@@1@AAE_NXZ@@Z 1003af51 f i libucrt:output.obj
 0001:00039f71       ??$extract_argument_from_va_list@PAUansi_string@?1??type_case_Z@?$output_processor@_WV?$string_output_adapter@_W@__crt_stdio_output@@V?$format_validation_base@_WV?$string_output_adapter@_W@__crt_stdio_output@@@2@@__crt_stdio_output@@AAE_NXZ@PAU1?1??234@AAE_NXZ@@?$standard_base@_WV?$string_output_adapter@_W@__crt_stdio_output@@@__crt_stdio_output@@IAE_NAAPAUansi_string@?1??type_case_Z@?$output_processor@_WV?$string_output_adapter@_W@__crt_stdio_output@@V?$format_validation_base@_WV?$string_output_adapter@_W@__crt_stdio_output@@@2@@1@AAE_NXZ@@Z 1003af71 f i libucrt:output.obj
 0001:00039f91       ??$extract_argument_from_va_list@PAUansi_string@?1??type_case_Z@?$output_processor@_WV?$string_output_adapter@_W@__crt_stdio_output@@V?$positional_parameter_base@_WV?$string_output_adapter@_W@__crt_stdio_output@@@2@@__crt_stdio_output@@AAE_NXZ@PAU1?1??234@AAE_NXZ@@?$positional_parameter_base@_WV?$string_output_adapter@_W@__crt_stdio_output@@@__crt_stdio_output@@IAE_NAAPAUansi_string@?1??type_case_Z@?$output_processor@_WV?$string_output_adapter@_W@__crt_stdio_output@@V?$positional_parameter_base@_WV?$string_output_adapter@_W@__crt_stdio_output@@@2@@1@AAE_NXZ@@Z 1003af91 f i libucrt:output.obj
 0001:0003a02e       ??$extract_argument_from_va_list@PAUansi_string@?1??type_case_Z@?$output_processor@_WV?$string_output_adapter@_W@__crt_stdio_output@@V?$positional_parameter_base@_WV?$string_output_adapter@_W@__crt_stdio_output@@@2@@__crt_stdio_output@@AAE_NXZ@PAU1?1??234@AAE_NXZ@@?$standard_base@_WV?$string_output_adapter@_W@__crt_stdio_output@@@__crt_stdio_output@@IAE_NAAPAUansi_string@?1??type_case_Z@?$output_processor@_WV?$string_output_adapter@_W@__crt_stdio_output@@V?$positional_parameter_base@_WV?$string_output_adapter@_W@__crt_stdio_output@@@2@@1@AAE_NXZ@@Z 1003b02e f i libucrt:output.obj
 0001:0003a04e       ??$extract_argument_from_va_list@PAUansi_string@?1??type_case_Z@?$output_processor@_WV?$string_output_adapter@_W@__crt_stdio_output@@V?$standard_base@_WV?$string_output_adapter@_W@__crt_stdio_output@@@2@@__crt_stdio_output@@AAE_NXZ@PAU1?1??234@AAE_NXZ@@?$standard_base@_WV?$string_output_adapter@_W@__crt_stdio_output@@@__crt_stdio_output@@IAE_NAAPAUansi_string@?1??type_case_Z@?$output_processor@_WV?$string_output_adapter@_W@__crt_stdio_output@@V?$standard_base@_WV?$string_output_adapter@_W@__crt_stdio_output@@@2@@1@AAE_NXZ@@Z 1003b04e f i libucrt:output.obj
 0001:0003a06e       ??$extract_argument_from_va_list@PAXPAX@?$positional_parameter_base@DV?$stream_output_adapter@D@__crt_stdio_output@@@__crt_stdio_output@@IAE_NAAPAX@Z 1003b06e f i libucrt:output.obj
 0001:0003a10b       ??$extract_argument_from_va_list@PAXPAX@?$positional_parameter_base@DV?$string_output_adapter@D@__crt_stdio_output@@@__crt_stdio_output@@IAE_NAAPAX@Z 1003b10b f i libucrt:output.obj
 0001:0003a1a8       ??$extract_argument_from_va_list@PAXPAX@?$positional_parameter_base@_WV?$stream_output_adapter@_W@__crt_stdio_output@@@__crt_stdio_output@@IAE_NAAPAX@Z 1003b1a8 f i libucrt:output.obj
 0001:0003a245       ??$extract_argument_from_va_list@PAXPAX@?$positional_parameter_base@_WV?$string_output_adapter@_W@__crt_stdio_output@@@__crt_stdio_output@@IAE_NAAPAX@Z 1003b245 f i libucrt:output.obj
 0001:0003a2e2       ??$extract_argument_from_va_list@PAXPAX@?$standard_base@DV?$stream_output_adapter@D@__crt_stdio_output@@@__crt_stdio_output@@IAE_NAAPAX@Z 1003b2e2 f i libucrt:output.obj
 0001:0003a302       ??$extract_argument_from_va_list@PAXPAX@?$standard_base@DV?$string_output_adapter@D@__crt_stdio_output@@@__crt_stdio_output@@IAE_NAAPAX@Z 1003b302 f i libucrt:output.obj
 0001:0003a322       ??$extract_argument_from_va_list@PAXPAX@?$standard_base@_WV?$stream_output_adapter@_W@__crt_stdio_output@@@__crt_stdio_output@@IAE_NAAPAX@Z 1003b322 f i libucrt:output.obj
 0001:0003a342       ??$extract_argument_from_va_list@PAXPAX@?$standard_base@_WV?$string_output_adapter@_W@__crt_stdio_output@@@__crt_stdio_output@@IAE_NAAPAX@Z 1003b342 f i libucrt:output.obj
 0001:0003a362       ??$extract_argument_from_va_list@U_CRT_DOUBLE@@U1@@?$positional_parameter_base@DV?$stream_output_adapter@D@__crt_stdio_output@@@__crt_stdio_output@@IAE_NAAU_CRT_DOUBLE@@@Z 1003b362 f i libucrt:output.obj
 0001:0003a413       ??$extract_argument_from_va_list@U_CRT_DOUBLE@@U1@@?$positional_parameter_base@DV?$string_output_adapter@D@__crt_stdio_output@@@__crt_stdio_output@@IAE_NAAU_CRT_DOUBLE@@@Z 1003b413 f i libucrt:output.obj
 0001:0003a4c4       ??$extract_argument_from_va_list@U_CRT_DOUBLE@@U1@@?$positional_parameter_base@_WV?$stream_output_adapter@_W@__crt_stdio_output@@@__crt_stdio_output@@IAE_NAAU_CRT_DOUBLE@@@Z 1003b4c4 f i libucrt:output.obj
 0001:0003a575       ??$extract_argument_from_va_list@U_CRT_DOUBLE@@U1@@?$positional_parameter_base@_WV?$string_output_adapter@_W@__crt_stdio_output@@@__crt_stdio_output@@IAE_NAAU_CRT_DOUBLE@@@Z 1003b575 f i libucrt:output.obj
 0001:0003a626       ??$extract_argument_from_va_list@U_CRT_DOUBLE@@U1@@?$standard_base@DV?$stream_output_adapter@D@__crt_stdio_output@@@__crt_stdio_output@@IAE_NAAU_CRT_DOUBLE@@@Z 1003b626 f i libucrt:output.obj
 0001:0003a64e       ??$extract_argument_from_va_list@U_CRT_DOUBLE@@U1@@?$standard_base@DV?$string_output_adapter@D@__crt_stdio_output@@@__crt_stdio_output@@IAE_NAAU_CRT_DOUBLE@@@Z 1003b64e f i libucrt:output.obj
 0001:0003a676       ??$extract_argument_from_va_list@U_CRT_DOUBLE@@U1@@?$standard_base@_WV?$stream_output_adapter@_W@__crt_stdio_output@@@__crt_stdio_output@@IAE_NAAU_CRT_DOUBLE@@@Z 1003b676 f i libucrt:output.obj
 0001:0003a69e       ??$extract_argument_from_va_list@U_CRT_DOUBLE@@U1@@?$standard_base@_WV?$string_output_adapter@_W@__crt_stdio_output@@@__crt_stdio_output@@IAE_NAAU_CRT_DOUBLE@@@Z 1003b69e f i libucrt:output.obj
 0001:0003a6c6       ??$extract_argument_from_va_list@_J_J@?$positional_parameter_base@DV?$stream_output_adapter@D@__crt_stdio_output@@@__crt_stdio_output@@IAE_NAA_J@Z 1003b6c6 f i libucrt:output.obj
 0001:0003a777       ??$extract_argument_from_va_list@_J_J@?$positional_parameter_base@DV?$string_output_adapter@D@__crt_stdio_output@@@__crt_stdio_output@@IAE_NAA_J@Z 1003b777 f i libucrt:output.obj
 0001:0003a828       ??$extract_argument_from_va_list@_J_J@?$positional_parameter_base@_WV?$stream_output_adapter@_W@__crt_stdio_output@@@__crt_stdio_output@@IAE_NAA_J@Z 1003b828 f i libucrt:output.obj
 0001:0003a8d9       ??$extract_argument_from_va_list@_J_J@?$positional_parameter_base@_WV?$string_output_adapter@_W@__crt_stdio_output@@@__crt_stdio_output@@IAE_NAA_J@Z 1003b8d9 f i libucrt:output.obj
 0001:0003a98a       ??$extract_argument_from_va_list@_J_J@?$standard_base@DV?$stream_output_adapter@D@__crt_stdio_output@@@__crt_stdio_output@@IAE_NAA_J@Z 1003b98a f i libucrt:output.obj
 0001:0003a9b2       ??$extract_argument_from_va_list@_J_J@?$standard_base@DV?$string_output_adapter@D@__crt_stdio_output@@@__crt_stdio_output@@IAE_NAA_J@Z 1003b9b2 f i libucrt:output.obj
 0001:0003a9da       ??$extract_argument_from_va_list@_J_J@?$standard_base@_WV?$stream_output_adapter@_W@__crt_stdio_output@@@__crt_stdio_output@@IAE_NAA_J@Z 1003b9da f i libucrt:output.obj
 0001:0003aa02       ??$extract_argument_from_va_list@_J_J@?$standard_base@_WV?$string_output_adapter@_W@__crt_stdio_output@@@__crt_stdio_output@@IAE_NAA_J@Z 1003ba02 f i libucrt:output.obj
 0001:0003aa2a       ??$extract_argument_from_va_list@_K_J@?$positional_parameter_base@DV?$stream_output_adapter@D@__crt_stdio_output@@@__crt_stdio_output@@IAE_NAA_J@Z 1003ba2a f i libucrt:output.obj
 0001:0003aadb       ??$extract_argument_from_va_list@_K_J@?$positional_parameter_base@DV?$string_output_adapter@D@__crt_stdio_output@@@__crt_stdio_output@@IAE_NAA_J@Z 1003badb f i libucrt:output.obj
 0001:0003ab8c       ??$extract_argument_from_va_list@_K_J@?$positional_parameter_base@_WV?$stream_output_adapter@_W@__crt_stdio_output@@@__crt_stdio_output@@IAE_NAA_J@Z 1003bb8c f i libucrt:output.obj
 0001:0003ac3d       ??$extract_argument_from_va_list@_K_J@?$positional_parameter_base@_WV?$string_output_adapter@_W@__crt_stdio_output@@@__crt_stdio_output@@IAE_NAA_J@Z 1003bc3d f i libucrt:output.obj
 0001:0003acee       ??$extract_argument_from_va_list@_K_J@?$standard_base@DV?$stream_output_adapter@D@__crt_stdio_output@@@__crt_stdio_output@@IAE_NAA_J@Z 1003bcee f i libucrt:output.obj
 0001:0003ad16       ??$extract_argument_from_va_list@_K_J@?$standard_base@DV?$string_output_adapter@D@__crt_stdio_output@@@__crt_stdio_output@@IAE_NAA_J@Z 1003bd16 f i libucrt:output.obj
 0001:0003ad3e       ??$extract_argument_from_va_list@_K_J@?$standard_base@_WV?$stream_output_adapter@_W@__crt_stdio_output@@@__crt_stdio_output@@IAE_NAA_J@Z 1003bd3e f i libucrt:output.obj
 0001:0003ad66       ??$extract_argument_from_va_list@_K_J@?$standard_base@_WV?$string_output_adapter@_W@__crt_stdio_output@@@__crt_stdio_output@@IAE_NAA_J@Z 1003bd66 f i libucrt:output.obj
 0001:0003ad8e       ??$extract_argument_from_va_list@_W_W@?$positional_parameter_base@DV?$stream_output_adapter@D@__crt_stdio_output@@@__crt_stdio_output@@IAE_NAA_W@Z 1003bd8e f i libucrt:output.obj
 0001:0003ae30       ??$extract_argument_from_va_list@_W_W@?$positional_parameter_base@DV?$string_output_adapter@D@__crt_stdio_output@@@__crt_stdio_output@@IAE_NAA_W@Z 1003be30 f i libucrt:output.obj
 0001:0003aed2       ??$extract_argument_from_va_list@_W_W@?$positional_parameter_base@_WV?$stream_output_adapter@_W@__crt_stdio_output@@@__crt_stdio_output@@IAE_NAA_W@Z 1003bed2 f i libucrt:output.obj
 0001:0003af74       ??$extract_argument_from_va_list@_W_W@?$positional_parameter_base@_WV?$string_output_adapter@_W@__crt_stdio_output@@@__crt_stdio_output@@IAE_NAA_W@Z 1003bf74 f i libucrt:output.obj
 0001:0003b016       ??$extract_argument_from_va_list@_W_W@?$standard_base@DV?$stream_output_adapter@D@__crt_stdio_output@@@__crt_stdio_output@@IAE_NAA_W@Z 1003c016 f i libucrt:output.obj
 0001:0003b039       ??$extract_argument_from_va_list@_W_W@?$standard_base@DV?$string_output_adapter@D@__crt_stdio_output@@@__crt_stdio_output@@IAE_NAA_W@Z 1003c039 f i libucrt:output.obj
 0001:0003b05c       ??$extract_argument_from_va_list@_W_W@?$standard_base@_WV?$stream_output_adapter@_W@__crt_stdio_output@@@__crt_stdio_output@@IAE_NAA_W@Z 1003c05c f i libucrt:output.obj
 0001:0003b07f       ??$extract_argument_from_va_list@_W_W@?$standard_base@_WV?$string_output_adapter@_W@__crt_stdio_output@@@__crt_stdio_output@@IAE_NAA_W@Z 1003c07f f i libucrt:output.obj
 0001:0003b0a2       ??$get_parameter_type@D@?$positional_parameter_base@DV?$stream_output_adapter@D@__crt_stdio_output@@@__crt_stdio_output@@CA?AW4parameter_type@01@PAD@Z 1003c0a2 f i libucrt:output.obj
 0001:0003b0a6       ??$get_parameter_type@D@?$positional_parameter_base@DV?$string_output_adapter@D@__crt_stdio_output@@@__crt_stdio_output@@CA?AW4parameter_type@01@PAD@Z 1003c0a6 f i libucrt:output.obj
 0001:0003b0aa       ??$get_parameter_type@D@?$positional_parameter_base@_WV?$stream_output_adapter@_W@__crt_stdio_output@@@__crt_stdio_output@@CA?AW4parameter_type@01@PAD@Z 1003c0aa f i libucrt:output.obj
 0001:0003b0ae       ??$get_parameter_type@D@?$positional_parameter_base@_WV?$string_output_adapter@_W@__crt_stdio_output@@@__crt_stdio_output@@CA?AW4parameter_type@01@PAD@Z 1003c0ae f i libucrt:output.obj
 0001:0003b0b2       ??$get_parameter_type@Uansi_string@?1??type_case_Z@?$output_processor@DV?$stream_output_adapter@D@__crt_stdio_output@@V?$positional_parameter_base@DV?$stream_output_adapter@D@__crt_stdio_output@@@2@@__crt_stdio_output@@AAE_NXZ@@?$positional_parameter_base@DV?$stream_output_adapter@D@__crt_stdio_output@@@__crt_stdio_output@@CA?AW4parameter_type@01@PAUansi_string@?1??type_case_Z@?$output_processor@DV?$stream_output_adapter@D@__crt_stdio_output@@V?$positional_parameter_base@DV?$stream_output_adapter@D@__crt_stdio_output@@@2@@1@AAE_NXZ@@Z 1003c0b2 f i libucrt:output.obj
 0001:0003b0b6       ??$get_parameter_type@Uansi_string@?1??type_case_Z@?$output_processor@DV?$string_output_adapter@D@__crt_stdio_output@@V?$positional_parameter_base@DV?$string_output_adapter@D@__crt_stdio_output@@@2@@__crt_stdio_output@@AAE_NXZ@@?$positional_parameter_base@DV?$string_output_adapter@D@__crt_stdio_output@@@__crt_stdio_output@@CA?AW4parameter_type@01@PAUansi_string@?1??type_case_Z@?$output_processor@DV?$string_output_adapter@D@__crt_stdio_output@@V?$positional_parameter_base@DV?$string_output_adapter@D@__crt_stdio_output@@@2@@1@AAE_NXZ@@Z 1003c0b6 f i libucrt:output.obj
 0001:0003b0ba       ??$get_parameter_type@Uansi_string@?1??type_case_Z@?$output_processor@_WV?$stream_output_adapter@_W@__crt_stdio_output@@V?$positional_parameter_base@_WV?$stream_output_adapter@_W@__crt_stdio_output@@@2@@__crt_stdio_output@@AAE_NXZ@@?$positional_parameter_base@_WV?$stream_output_adapter@_W@__crt_stdio_output@@@__crt_stdio_output@@CA?AW4parameter_type@01@PAUansi_string@?1??type_case_Z@?$output_processor@_WV?$stream_output_adapter@_W@__crt_stdio_output@@V?$positional_parameter_base@_WV?$stream_output_adapter@_W@__crt_stdio_output@@@2@@1@AAE_NXZ@@Z 1003c0ba f i libucrt:output.obj
 0001:0003b0be       ??$get_parameter_type@Uansi_string@?1??type_case_Z@?$output_processor@_WV?$string_output_adapter@_W@__crt_stdio_output@@V?$positional_parameter_base@_WV?$string_output_adapter@_W@__crt_stdio_output@@@2@@__crt_stdio_output@@AAE_NXZ@@?$positional_parameter_base@_WV?$string_output_adapter@_W@__crt_stdio_output@@@__crt_stdio_output@@CA?AW4parameter_type@01@PAUansi_string@?1??type_case_Z@?$output_processor@_WV?$string_output_adapter@_W@__crt_stdio_output@@V?$positional_parameter_base@_WV?$string_output_adapter@_W@__crt_stdio_output@@@2@@1@AAE_NXZ@@Z 1003c0be f i libucrt:output.obj
 0001:0003b0c2       ??$get_parameter_type@X@?$positional_parameter_base@DV?$stream_output_adapter@D@__crt_stdio_output@@@__crt_stdio_output@@CA?AW4parameter_type@01@PAX@Z 1003c0c2 f i libucrt:output.obj
 0001:0003b0c6       ??$get_parameter_type@X@?$positional_parameter_base@DV?$string_output_adapter@D@__crt_stdio_output@@@__crt_stdio_output@@CA?AW4parameter_type@01@PAX@Z 1003c0c6 f i libucrt:output.obj
 0001:0003b0ca       ??$get_parameter_type@X@?$positional_parameter_base@_WV?$stream_output_adapter@_W@__crt_stdio_output@@@__crt_stdio_output@@CA?AW4parameter_type@01@PAX@Z 1003c0ca f i libucrt:output.obj
 0001:0003b0ce       ??$get_parameter_type@X@?$positional_parameter_base@_WV?$string_output_adapter@_W@__crt_stdio_output@@@__crt_stdio_output@@CA?AW4parameter_type@01@PAX@Z 1003c0ce f i libucrt:output.obj
 0001:0003b0d2       ??$is_character_specifier@D@?$positional_parameter_base@DV?$stream_output_adapter@D@__crt_stdio_output@@@__crt_stdio_output@@CA_ND@Z 1003c0d2 f i libucrt:output.obj
 0001:0003b0f1       ??$is_character_specifier@D@?$positional_parameter_base@DV?$string_output_adapter@D@__crt_stdio_output@@@__crt_stdio_output@@CA_ND@Z 1003c0f1 f i libucrt:output.obj
 0001:0003b110       ??$is_character_specifier@_W@?$positional_parameter_base@_WV?$stream_output_adapter@_W@__crt_stdio_output@@@__crt_stdio_output@@CA_N_W@Z 1003c110 f i libucrt:output.obj
 0001:0003b133       ??$is_character_specifier@_W@?$positional_parameter_base@_WV?$string_output_adapter@_W@__crt_stdio_output@@@__crt_stdio_output@@CA_N_W@Z 1003c133 f i libucrt:output.obj
 0001:0003b156       ??$is_integral_specifier@D@?$positional_parameter_base@DV?$stream_output_adapter@D@__crt_stdio_output@@@__crt_stdio_output@@CA_ND@Z 1003c156 f i libucrt:output.obj
 0001:0003b18e       ??$is_integral_specifier@D@?$positional_parameter_base@DV?$string_output_adapter@D@__crt_stdio_output@@@__crt_stdio_output@@CA_ND@Z 1003c18e f i libucrt:output.obj
 0001:0003b1c6       ??$is_integral_specifier@_W@?$positional_parameter_base@_WV?$stream_output_adapter@_W@__crt_stdio_output@@@__crt_stdio_output@@CA_N_W@Z 1003c1c6 f i libucrt:output.obj
 0001:0003b211       ??$is_integral_specifier@_W@?$positional_parameter_base@_WV?$string_output_adapter@_W@__crt_stdio_output@@@__crt_stdio_output@@CA_N_W@Z 1003c211 f i libucrt:output.obj
 0001:0003b25c       ??$is_pointer_specifier@D@?$positional_parameter_base@DV?$stream_output_adapter@D@__crt_stdio_output@@@__crt_stdio_output@@CA_ND@Z 1003c25c f i libucrt:output.obj
 0001:0003b270       ??$is_pointer_specifier@D@?$positional_parameter_base@DV?$string_output_adapter@D@__crt_stdio_output@@@__crt_stdio_output@@CA_ND@Z 1003c270 f i libucrt:output.obj
 0001:0003b284       ??$is_pointer_specifier@_W@?$positional_parameter_base@_WV?$stream_output_adapter@_W@__crt_stdio_output@@@__crt_stdio_output@@CA_N_W@Z 1003c284 f i libucrt:output.obj
 0001:0003b299       ??$is_pointer_specifier@_W@?$positional_parameter_base@_WV?$string_output_adapter@_W@__crt_stdio_output@@@__crt_stdio_output@@CA_N_W@Z 1003c299 f i libucrt:output.obj
 0001:0003b2ae       ??$is_string_specifier@D@?$positional_parameter_base@DV?$stream_output_adapter@D@__crt_stdio_output@@@__crt_stdio_output@@CA_ND@Z 1003c2ae f i libucrt:output.obj
 0001:0003b2cd       ??$is_string_specifier@D@?$positional_parameter_base@DV?$string_output_adapter@D@__crt_stdio_output@@@__crt_stdio_output@@CA_ND@Z 1003c2cd f i libucrt:output.obj
 0001:0003b2ec       ??$is_string_specifier@_W@?$positional_parameter_base@_WV?$stream_output_adapter@_W@__crt_stdio_output@@@__crt_stdio_output@@CA_N_W@Z 1003c2ec f i libucrt:output.obj
 0001:0003b30f       ??$is_string_specifier@_W@?$positional_parameter_base@_WV?$string_output_adapter@_W@__crt_stdio_output@@@__crt_stdio_output@@CA_N_W@Z 1003c30f f i libucrt:output.obj
 0001:0003b332       ??$is_wide_character_specifier@D@__crt_stdio_output@@YA_N_KDW4length_modifier@0@@Z 1003c332 f i libucrt:output.obj
 0001:0003b382       ??$is_wide_character_specifier@_W@__crt_stdio_output@@YA_N_K_WW4length_modifier@0@@Z 1003c382 f i libucrt:output.obj
 0001:0003b3e4       ??$peek_va_arg@C@__crt_stdio_output@@YACPAD@Z 1003c3e4 f i libucrt:output.obj
 0001:0003b3f3       ??$peek_va_arg@E@__crt_stdio_output@@YAEPAD@Z 1003c3f3 f i libucrt:output.obj
 0001:0003b402       ??$peek_va_arg@F@__crt_stdio_output@@YAFPAD@Z 1003c402 f i libucrt:output.obj
 0001:0003b412       ??$peek_va_arg@G@__crt_stdio_output@@YAGPAD@Z 1003c412 f i libucrt:output.obj
 0001:0003b422       ??$peek_va_arg@H@__crt_stdio_output@@YAHPAD@Z 1003c422 f i libucrt:output.obj
 0001:0003b431       ??$peek_va_arg@I@__crt_stdio_output@@YAIPAD@Z 1003c431 f i libucrt:output.obj
 0001:0003b440       ??$peek_va_arg@PAD@__crt_stdio_output@@YAPADPAD@Z 1003c440 f i libucrt:output.obj
 0001:0003b44f       ??$peek_va_arg@PAUansi_string@?1??type_case_Z@?$output_processor@DV?$stream_output_adapter@D@__crt_stdio_output@@V?$positional_parameter_base@DV?$stream_output_adapter@D@__crt_stdio_output@@@2@@__crt_stdio_output@@AAE_NXZ@@__crt_stdio_output@@YAPAUansi_string@?1??type_case_Z@?$output_processor@DV?$stream_output_adapter@D@__crt_stdio_output@@V?$positional_parameter_base@DV?$stream_output_adapter@D@__crt_stdio_output@@@2@@0@AAE_NXZ@PAD@Z 1003c44f f i libucrt:output.obj
 0001:0003b45e       ??$peek_va_arg@PAUansi_string@?1??type_case_Z@?$output_processor@DV?$string_output_adapter@D@__crt_stdio_output@@V?$positional_parameter_base@DV?$string_output_adapter@D@__crt_stdio_output@@@2@@__crt_stdio_output@@AAE_NXZ@@__crt_stdio_output@@YAPAUansi_string@?1??type_case_Z@?$output_processor@DV?$string_output_adapter@D@__crt_stdio_output@@V?$positional_parameter_base@DV?$string_output_adapter@D@__crt_stdio_output@@@2@@0@AAE_NXZ@PAD@Z 1003c45e f i libucrt:output.obj
 0001:0003b46d       ??$peek_va_arg@PAUansi_string@?1??type_case_Z@?$output_processor@_WV?$stream_output_adapter@_W@__crt_stdio_output@@V?$positional_parameter_base@_WV?$stream_output_adapter@_W@__crt_stdio_output@@@2@@__crt_stdio_output@@AAE_NXZ@@__crt_stdio_output@@YAPAUansi_string@?1??type_case_Z@?$output_processor@_WV?$stream_output_adapter@_W@__crt_stdio_output@@V?$positional_parameter_base@_WV?$stream_output_adapter@_W@__crt_stdio_output@@@2@@0@AAE_NXZ@PAD@Z 1003c46d f i libucrt:output.obj
 0001:0003b47c       ??$peek_va_arg@PAUansi_string@?1??type_case_Z@?$output_processor@_WV?$string_output_adapter@_W@__crt_stdio_output@@V?$positional_parameter_base@_WV?$string_output_adapter@_W@__crt_stdio_output@@@2@@__crt_stdio_output@@AAE_NXZ@@__crt_stdio_output@@YAPAUansi_string@?1??type_case_Z@?$output_processor@_WV?$string_output_adapter@_W@__crt_stdio_output@@V?$positional_parameter_base@_WV?$string_output_adapter@_W@__crt_stdio_output@@@2@@0@AAE_NXZ@PAD@Z 1003c47c f i libucrt:output.obj
 0001:0003b48b       ??$peek_va_arg@PAX@__crt_stdio_output@@YAPAXPAD@Z 1003c48b f i libucrt:output.obj
 0001:0003b49a       ??$peek_va_arg@U_CRT_DOUBLE@@@__crt_stdio_output@@YA?AU_CRT_DOUBLE@@PAD@Z 1003c49a f i libucrt:output.obj
 0001:0003b4ac       ??$peek_va_arg@_J@__crt_stdio_output@@YA_JPAD@Z 1003c4ac f i libucrt:output.obj
 0001:0003b4be       ??$peek_va_arg@_K@__crt_stdio_output@@YA_KPAD@Z 1003c4be f i libucrt:output.obj
 0001:0003b4d0       ??$peek_va_arg@_W@__crt_stdio_output@@YA_WPAD@Z 1003c4d0 f i libucrt:output.obj
 0001:0003b4e0       ??$puttc_nolock@ABDPAU_iobuf@@@?$__crt_char_traits@D@@SAHABD$$QAPAU_iobuf@@@Z 1003c4e0 f i libucrt:output.obj
 0001:0003b500       ??$puttc_nolock@AB_WPAU_iobuf@@@?$__crt_char_traits@_W@@SAGAB_W$$QAPAU_iobuf@@@Z 1003c500 f i libucrt:output.obj
 0001:0003b520       ??$read_va_arg@C@__crt_stdio_output@@YACAAPAD@Z 1003c520 f i libucrt:output.obj
 0001:0003b536       ??$read_va_arg@E@__crt_stdio_output@@YAEAAPAD@Z 1003c536 f i libucrt:output.obj
 0001:0003b54c       ??$read_va_arg@F@__crt_stdio_output@@YAFAAPAD@Z 1003c54c f i libucrt:output.obj
 0001:0003b563       ??$read_va_arg@G@__crt_stdio_output@@YAGAAPAD@Z 1003c563 f i libucrt:output.obj
 0001:0003b57a       ??$read_va_arg@H@__crt_stdio_output@@YAHAAPAD@Z 1003c57a f i libucrt:output.obj
 0001:0003b590       ??$read_va_arg@I@__crt_stdio_output@@YAIAAPAD@Z 1003c590 f i libucrt:output.obj
 0001:0003b5a6       ??$read_va_arg@PAD@__crt_stdio_output@@YAPADAAPAD@Z 1003c5a6 f i libucrt:output.obj
 0001:0003b5bc       ??$read_va_arg@PAUansi_string@?1??type_case_Z@?$output_processor@DV?$stream_output_adapter@D@__crt_stdio_output@@V?$format_validation_base@DV?$stream_output_adapter@D@__crt_stdio_output@@@2@@__crt_stdio_output@@AAE_NXZ@@__crt_stdio_output@@YAPAUansi_string@?1??type_case_Z@?$output_processor@DV?$stream_output_adapter@D@__crt_stdio_output@@V?$format_validation_base@DV?$stream_output_adapter@D@__crt_stdio_output@@@2@@0@AAE_NXZ@AAPAD@Z 1003c5bc f i libucrt:output.obj
 0001:0003b5d2       ??$read_va_arg@PAUansi_string@?1??type_case_Z@?$output_processor@DV?$stream_output_adapter@D@__crt_stdio_output@@V?$positional_parameter_base@DV?$stream_output_adapter@D@__crt_stdio_output@@@2@@__crt_stdio_output@@AAE_NXZ@@__crt_stdio_output@@YAPAUansi_string@?1??type_case_Z@?$output_processor@DV?$stream_output_adapter@D@__crt_stdio_output@@V?$positional_parameter_base@DV?$stream_output_adapter@D@__crt_stdio_output@@@2@@0@AAE_NXZ@AAPAD@Z 1003c5d2 f i libucrt:output.obj
 0001:0003b5e8       ??$read_va_arg@PAUansi_string@?1??type_case_Z@?$output_processor@DV?$stream_output_adapter@D@__crt_stdio_output@@V?$standard_base@DV?$stream_output_adapter@D@__crt_stdio_output@@@2@@__crt_stdio_output@@AAE_NXZ@@__crt_stdio_output@@YAPAUansi_string@?1??type_case_Z@?$output_processor@DV?$stream_output_adapter@D@__crt_stdio_output@@V?$standard_base@DV?$stream_output_adapter@D@__crt_stdio_output@@@2@@0@AAE_NXZ@AAPAD@Z 1003c5e8 f i libucrt:output.obj
 0001:0003b5fe       ??$read_va_arg@PAUansi_string@?1??type_case_Z@?$output_processor@DV?$string_output_adapter@D@__crt_stdio_output@@V?$format_validation_base@DV?$string_output_adapter@D@__crt_stdio_output@@@2@@__crt_stdio_output@@AAE_NXZ@@__crt_stdio_output@@YAPAUansi_string@?1??type_case_Z@?$output_processor@DV?$string_output_adapter@D@__crt_stdio_output@@V?$format_validation_base@DV?$string_output_adapter@D@__crt_stdio_output@@@2@@0@AAE_NXZ@AAPAD@Z 1003c5fe f i libucrt:output.obj
 0001:0003b614       ??$read_va_arg@PAUansi_string@?1??type_case_Z@?$output_processor@DV?$string_output_adapter@D@__crt_stdio_output@@V?$positional_parameter_base@DV?$string_output_adapter@D@__crt_stdio_output@@@2@@__crt_stdio_output@@AAE_NXZ@@__crt_stdio_output@@YAPAUansi_string@?1??type_case_Z@?$output_processor@DV?$string_output_adapter@D@__crt_stdio_output@@V?$positional_parameter_base@DV?$string_output_adapter@D@__crt_stdio_output@@@2@@0@AAE_NXZ@AAPAD@Z 1003c614 f i libucrt:output.obj
 0001:0003b62a       ??$read_va_arg@PAUansi_string@?1??type_case_Z@?$output_processor@DV?$string_output_adapter@D@__crt_stdio_output@@V?$standard_base@DV?$string_output_adapter@D@__crt_stdio_output@@@2@@__crt_stdio_output@@AAE_NXZ@@__crt_stdio_output@@YAPAUansi_string@?1??type_case_Z@?$output_processor@DV?$string_output_adapter@D@__crt_stdio_output@@V?$standard_base@DV?$string_output_adapter@D@__crt_stdio_output@@@2@@0@AAE_NXZ@AAPAD@Z 1003c62a f i libucrt:output.obj
 0001:0003b640       ??$read_va_arg@PAUansi_string@?1??type_case_Z@?$output_processor@_WV?$stream_output_adapter@_W@__crt_stdio_output@@V?$format_validation_base@_WV?$stream_output_adapter@_W@__crt_stdio_output@@@2@@__crt_stdio_output@@AAE_NXZ@@__crt_stdio_output@@YAPAUansi_string@?1??type_case_Z@?$output_processor@_WV?$stream_output_adapter@_W@__crt_stdio_output@@V?$format_validation_base@_WV?$stream_output_adapter@_W@__crt_stdio_output@@@2@@0@AAE_NXZ@AAPAD@Z 1003c640 f i libucrt:output.obj
 0001:0003b656       ??$read_va_arg@PAUansi_string@?1??type_case_Z@?$output_processor@_WV?$stream_output_adapter@_W@__crt_stdio_output@@V?$positional_parameter_base@_WV?$stream_output_adapter@_W@__crt_stdio_output@@@2@@__crt_stdio_output@@AAE_NXZ@@__crt_stdio_output@@YAPAUansi_string@?1??type_case_Z@?$output_processor@_WV?$stream_output_adapter@_W@__crt_stdio_output@@V?$positional_parameter_base@_WV?$stream_output_adapter@_W@__crt_stdio_output@@@2@@0@AAE_NXZ@AAPAD@Z 1003c656 f i libucrt:output.obj
 0001:0003b66c       ??$read_va_arg@PAUansi_string@?1??type_case_Z@?$output_processor@_WV?$stream_output_adapter@_W@__crt_stdio_output@@V?$standard_base@_WV?$stream_output_adapter@_W@__crt_stdio_output@@@2@@__crt_stdio_output@@AAE_NXZ@@__crt_stdio_output@@YAPAUansi_string@?1??type_case_Z@?$output_processor@_WV?$stream_output_adapter@_W@__crt_stdio_output@@V?$standard_base@_WV?$stream_output_adapter@_W@__crt_stdio_output@@@2@@0@AAE_NXZ@AAPAD@Z 1003c66c f i libucrt:output.obj
 0001:0003b682       ??$read_va_arg@PAUansi_string@?1??type_case_Z@?$output_processor@_WV?$string_output_adapter@_W@__crt_stdio_output@@V?$format_validation_base@_WV?$string_output_adapter@_W@__crt_stdio_output@@@2@@__crt_stdio_output@@AAE_NXZ@@__crt_stdio_output@@YAPAUansi_string@?1??type_case_Z@?$output_processor@_WV?$string_output_adapter@_W@__crt_stdio_output@@V?$format_validation_base@_WV?$string_output_adapter@_W@__crt_stdio_output@@@2@@0@AAE_NXZ@AAPAD@Z 1003c682 f i libucrt:output.obj
 0001:0003b698       ??$read_va_arg@PAUansi_string@?1??type_case_Z@?$output_processor@_WV?$string_output_adapter@_W@__crt_stdio_output@@V?$positional_parameter_base@_WV?$string_output_adapter@_W@__crt_stdio_output@@@2@@__crt_stdio_output@@AAE_NXZ@@__crt_stdio_output@@YAPAUansi_string@?1??type_case_Z@?$output_processor@_WV?$string_output_adapter@_W@__crt_stdio_output@@V?$positional_parameter_base@_WV?$string_output_adapter@_W@__crt_stdio_output@@@2@@0@AAE_NXZ@AAPAD@Z 1003c698 f i libucrt:output.obj
 0001:0003b6ae       ??$read_va_arg@PAUansi_string@?1??type_case_Z@?$output_processor@_WV?$string_output_adapter@_W@__crt_stdio_output@@V?$standard_base@_WV?$string_output_adapter@_W@__crt_stdio_output@@@2@@__crt_stdio_output@@AAE_NXZ@@__crt_stdio_output@@YAPAUansi_string@?1??type_case_Z@?$output_processor@_WV?$string_output_adapter@_W@__crt_stdio_output@@V?$standard_base@_WV?$string_output_adapter@_W@__crt_stdio_output@@@2@@0@AAE_NXZ@AAPAD@Z 1003c6ae f i libucrt:output.obj
 0001:0003b6c4       ??$read_va_arg@PAX@__crt_stdio_output@@YAPAXAAPAD@Z 1003c6c4 f i libucrt:output.obj
 0001:0003b6da       ??$read_va_arg@U_CRT_DOUBLE@@@__crt_stdio_output@@YA?AU_CRT_DOUBLE@@AAPAD@Z 1003c6da f i libucrt:output.obj
 0001:0003b6f4       ??$read_va_arg@_J@__crt_stdio_output@@YA_JAAPAD@Z 1003c6f4 f i libucrt:output.obj
 0001:0003b70e       ??$read_va_arg@_K@__crt_stdio_output@@YA_KAAPAD@Z 1003c70e f i libucrt:output.obj
 0001:0003b728       ??$read_va_arg@_W@__crt_stdio_output@@YA_WAAPAD@Z 1003c728 f i libucrt:output.obj
 0001:0003b73f       ??$scratch_count@D@formatting_buffer@__crt_stdio_output@@QBEIXZ 1003c73f f i libucrt:output.obj
 0001:0003b744       ??$scratch_data@D@formatting_buffer@__crt_stdio_output@@QAEPADXZ 1003c744 f i libucrt:output.obj
 0001:0003b769       ??$tcstol@AAPBDPAPADH@?$__crt_char_traits@D@@SAJAAPBD$$QAPAPAD$$QAH@Z 1003c769 f i libucrt:output.obj
 0001:0003b78e       ??$tcstol@AAPB_WPAPA_WH@?$__crt_char_traits@_W@@SAJAAPB_W$$QAPAPA_W$$QAH@Z 1003c78e f i libucrt:output.obj
 0001:0003b7b3       ??$tcstol@PBDPAPADH@?$__crt_char_traits@D@@SAJ$$QAPBD$$QAPAPAD$$QAH@Z 1003c7b3 f i libucrt:output.obj
 0001:0003b7d8       ??$tcstol@PB_WPAPA_WH@?$__crt_char_traits@_W@@SAJ$$QAPB_W$$QAPAPA_W$$QAH@Z 1003c7d8 f i libucrt:output.obj
 0001:0003b7fd       ??$type_case_integer_parse_into_buffer@I@?$output_processor@DV?$stream_output_adapter@D@__crt_stdio_output@@V?$format_validation_base@DV?$stream_output_adapter@D@__crt_stdio_output@@@2@@__crt_stdio_output@@AAEXII_N@Z 1003c7fd f i libucrt:output.obj
 0001:0003b88f       ??$type_case_integer_parse_into_buffer@I@?$output_processor@DV?$stream_output_adapter@D@__crt_stdio_output@@V?$positional_parameter_base@DV?$stream_output_adapter@D@__crt_stdio_output@@@2@@__crt_stdio_output@@AAEXII_N@Z 1003c88f f i libucrt:output.obj
 0001:0003b921       ??$type_case_integer_parse_into_buffer@I@?$output_processor@DV?$stream_output_adapter@D@__crt_stdio_output@@V?$standard_base@DV?$stream_output_adapter@D@__crt_stdio_output@@@2@@__crt_stdio_output@@AAEXII_N@Z 1003c921 f i libucrt:output.obj
 0001:0003b9b3       ??$type_case_integer_parse_into_buffer@I@?$output_processor@DV?$string_output_adapter@D@__crt_stdio_output@@V?$format_validation_base@DV?$string_output_adapter@D@__crt_stdio_output@@@2@@__crt_stdio_output@@AAEXII_N@Z 1003c9b3 f i libucrt:output.obj
 0001:0003ba45       ??$type_case_integer_parse_into_buffer@I@?$output_processor@DV?$string_output_adapter@D@__crt_stdio_output@@V?$positional_parameter_base@DV?$string_output_adapter@D@__crt_stdio_output@@@2@@__crt_stdio_output@@AAEXII_N@Z 1003ca45 f i libucrt:output.obj
 0001:0003bad7       ??$type_case_integer_parse_into_buffer@I@?$output_processor@DV?$string_output_adapter@D@__crt_stdio_output@@V?$standard_base@DV?$string_output_adapter@D@__crt_stdio_output@@@2@@__crt_stdio_output@@AAEXII_N@Z 1003cad7 f i libucrt:output.obj
 0001:0003bb69       ??$type_case_integer_parse_into_buffer@I@?$output_processor@_WV?$stream_output_adapter@_W@__crt_stdio_output@@V?$format_validation_base@_WV?$stream_output_adapter@_W@__crt_stdio_output@@@2@@__crt_stdio_output@@AAEXII_N@Z 1003cb69 f i libucrt:output.obj
 0001:0003bbfb       ??$type_case_integer_parse_into_buffer@I@?$output_processor@_WV?$stream_output_adapter@_W@__crt_stdio_output@@V?$positional_parameter_base@_WV?$stream_output_adapter@_W@__crt_stdio_output@@@2@@__crt_stdio_output@@AAEXII_N@Z 1003cbfb f i libucrt:output.obj
 0001:0003bc8d       ??$type_case_integer_parse_into_buffer@I@?$output_processor@_WV?$stream_output_adapter@_W@__crt_stdio_output@@V?$standard_base@_WV?$stream_output_adapter@_W@__crt_stdio_output@@@2@@__crt_stdio_output@@AAEXII_N@Z 1003cc8d f i libucrt:output.obj
 0001:0003bd1f       ??$type_case_integer_parse_into_buffer@I@?$output_processor@_WV?$string_output_adapter@_W@__crt_stdio_output@@V?$format_validation_base@_WV?$string_output_adapter@_W@__crt_stdio_output@@@2@@__crt_stdio_output@@AAEXII_N@Z 1003cd1f f i libucrt:output.obj
 0001:0003bdb1       ??$type_case_integer_parse_into_buffer@I@?$output_processor@_WV?$string_output_adapter@_W@__crt_stdio_output@@V?$positional_parameter_base@_WV?$string_output_adapter@_W@__crt_stdio_output@@@2@@__crt_stdio_output@@AAEXII_N@Z 1003cdb1 f i libucrt:output.obj
 0001:0003be43       ??$type_case_integer_parse_into_buffer@I@?$output_processor@_WV?$string_output_adapter@_W@__crt_stdio_output@@V?$standard_base@_WV?$string_output_adapter@_W@__crt_stdio_output@@@2@@__crt_stdio_output@@AAEXII_N@Z 1003ce43 f i libucrt:output.obj
 0001:0003bed5       ??$type_case_integer_parse_into_buffer@_K@?$output_processor@DV?$stream_output_adapter@D@__crt_stdio_output@@V?$format_validation_base@DV?$stream_output_adapter@D@__crt_stdio_output@@@2@@__crt_stdio_output@@AAEX_KI_N@Z 1003ced5 f i libucrt:output.obj
 0001:0003bf7f       ??$type_case_integer_parse_into_buffer@_K@?$output_processor@DV?$stream_output_adapter@D@__crt_stdio_output@@V?$positional_parameter_base@DV?$stream_output_adapter@D@__crt_stdio_output@@@2@@__crt_stdio_output@@AAEX_KI_N@Z 1003cf7f f i libucrt:output.obj
 0001:0003c029       ??$type_case_integer_parse_into_buffer@_K@?$output_processor@DV?$stream_output_adapter@D@__crt_stdio_output@@V?$standard_base@DV?$stream_output_adapter@D@__crt_stdio_output@@@2@@__crt_stdio_output@@AAEX_KI_N@Z 1003d029 f i libucrt:output.obj
 0001:0003c0d3       ??$type_case_integer_parse_into_buffer@_K@?$output_processor@DV?$string_output_adapter@D@__crt_stdio_output@@V?$format_validation_base@DV?$string_output_adapter@D@__crt_stdio_output@@@2@@__crt_stdio_output@@AAEX_KI_N@Z 1003d0d3 f i libucrt:output.obj
 0001:0003c17d       ??$type_case_integer_parse_into_buffer@_K@?$output_processor@DV?$string_output_adapter@D@__crt_stdio_output@@V?$positional_parameter_base@DV?$string_output_adapter@D@__crt_stdio_output@@@2@@__crt_stdio_output@@AAEX_KI_N@Z 1003d17d f i libucrt:output.obj
 0001:0003c227       ??$type_case_integer_parse_into_buffer@_K@?$output_processor@DV?$string_output_adapter@D@__crt_stdio_output@@V?$standard_base@DV?$string_output_adapter@D@__crt_stdio_output@@@2@@__crt_stdio_output@@AAEX_KI_N@Z 1003d227 f i libucrt:output.obj
 0001:0003c2d1       ??$type_case_integer_parse_into_buffer@_K@?$output_processor@_WV?$stream_output_adapter@_W@__crt_stdio_output@@V?$format_validation_base@_WV?$stream_output_adapter@_W@__crt_stdio_output@@@2@@__crt_stdio_output@@AAEX_KI_N@Z 1003d2d1 f i libucrt:output.obj
 0001:0003c37b       ??$type_case_integer_parse_into_buffer@_K@?$output_processor@_WV?$stream_output_adapter@_W@__crt_stdio_output@@V?$positional_parameter_base@_WV?$stream_output_adapter@_W@__crt_stdio_output@@@2@@__crt_stdio_output@@AAEX_KI_N@Z 1003d37b f i libucrt:output.obj
 0001:0003c425       ??$type_case_integer_parse_into_buffer@_K@?$output_processor@_WV?$stream_output_adapter@_W@__crt_stdio_output@@V?$standard_base@_WV?$stream_output_adapter@_W@__crt_stdio_output@@@2@@__crt_stdio_output@@AAEX_KI_N@Z 1003d425 f i libucrt:output.obj
 0001:0003c4cf       ??$type_case_integer_parse_into_buffer@_K@?$output_processor@_WV?$string_output_adapter@_W@__crt_stdio_output@@V?$format_validation_base@_WV?$string_output_adapter@_W@__crt_stdio_output@@@2@@__crt_stdio_output@@AAEX_KI_N@Z 1003d4cf f i libucrt:output.obj
 0001:0003c579       ??$type_case_integer_parse_into_buffer@_K@?$output_processor@_WV?$string_output_adapter@_W@__crt_stdio_output@@V?$positional_parameter_base@_WV?$string_output_adapter@_W@__crt_stdio_output@@@2@@__crt_stdio_output@@AAEX_KI_N@Z 1003d579 f i libucrt:output.obj
 0001:0003c623       ??$type_case_integer_parse_into_buffer@_K@?$output_processor@_WV?$string_output_adapter@_W@__crt_stdio_output@@V?$standard_base@_WV?$string_output_adapter@_W@__crt_stdio_output@@@2@@__crt_stdio_output@@AAEX_KI_N@Z 1003d623 f i libucrt:output.obj
 0001:0003c6cd       ??$write_multiple_characters@V?$stream_output_adapter@D@__crt_stdio_output@@D@__crt_stdio_output@@YAXABV?$stream_output_adapter@D@0@DHQAH@Z 1003d6cd f i libucrt:output.obj
 0001:0003c704       ??$write_multiple_characters@V?$stream_output_adapter@_W@__crt_stdio_output@@D@__crt_stdio_output@@YAXABV?$stream_output_adapter@_W@0@DHQAH@Z 1003d704 f i libucrt:output.obj
 0001:0003c741       ??$write_multiple_characters@V?$string_output_adapter@D@__crt_stdio_output@@D@__crt_stdio_output@@YAXABV?$string_output_adapter@D@0@DHQAH@Z 1003d741 f i libucrt:output.obj
 0001:0003c778       ??$write_multiple_characters@V?$string_output_adapter@_W@__crt_stdio_output@@D@__crt_stdio_output@@YAXABV?$string_output_adapter@_W@0@DHQAH@Z 1003d778 f i libucrt:output.obj
 0001:0003c9e9       ??0?$common_data@D@__crt_stdio_output@@IAE@XZ 1003d9e9 f i libucrt:output.obj
 0001:0003ca41       ??0?$common_data@_W@__crt_stdio_output@@IAE@XZ 1003da41 f i libucrt:output.obj
 0001:0003caa0       ??0?$output_adapter_data@DV?$stream_output_adapter@D@__crt_stdio_output@@@__crt_stdio_output@@IAE@ABV?$stream_output_adapter@D@1@_KQBDQAU__crt_locale_pointers@@QAD@Z 1003daa0 f i libucrt:output.obj
 0001:0003caeb       ??0?$output_adapter_data@DV?$string_output_adapter@D@__crt_stdio_output@@@__crt_stdio_output@@IAE@ABV?$string_output_adapter@D@1@_KQBDQAU__crt_locale_pointers@@QAD@Z 1003daeb f i libucrt:output.obj
 0001:0003cb36       ??0?$output_adapter_data@_WV?$stream_output_adapter@_W@__crt_stdio_output@@@__crt_stdio_output@@IAE@ABV?$stream_output_adapter@_W@1@_KQB_WQAU__crt_locale_pointers@@QAD@Z 1003db36 f i libucrt:output.obj
 0001:0003cb81       ??0?$output_adapter_data@_WV?$string_output_adapter@_W@__crt_stdio_output@@@__crt_stdio_output@@IAE@ABV?$string_output_adapter@_W@1@_KQB_WQAU__crt_locale_pointers@@QAD@Z 1003db81 f i libucrt:output.obj
 0001:0003cbcc       ??0?$output_processor@DV?$stream_output_adapter@D@__crt_stdio_output@@V?$format_validation_base@DV?$stream_output_adapter@D@__crt_stdio_output@@@2@@__crt_stdio_output@@QAE@ABV?$stream_output_adapter@D@1@_KQBDQAU__crt_locale_pointers@@QAD@Z 1003dbcc f i libucrt:output.obj
 0001:0003cc0e       ??0?$output_processor@DV?$stream_output_adapter@D@__crt_stdio_output@@V?$positional_parameter_base@DV?$stream_output_adapter@D@__crt_stdio_output@@@2@@__crt_stdio_output@@QAE@ABV?$stream_output_adapter@D@1@_KQBDQAU__crt_locale_pointers@@QAD@Z 1003dc0e f i libucrt:output.obj
 0001:0003cc48       ??0?$output_processor@DV?$stream_output_adapter@D@__crt_stdio_output@@V?$standard_base@DV?$stream_output_adapter@D@__crt_stdio_output@@@2@@__crt_stdio_output@@QAE@ABV?$stream_output_adapter@D@1@_KQBDQAU__crt_locale_pointers@@QAD@Z 1003dc48 f i libucrt:output.obj
 0001:0003cc8a       ??0?$output_processor@DV?$string_output_adapter@D@__crt_stdio_output@@V?$format_validation_base@DV?$string_output_adapter@D@__crt_stdio_output@@@2@@__crt_stdio_output@@QAE@ABV?$string_output_adapter@D@1@_KQBDQAU__crt_locale_pointers@@QAD@Z 1003dc8a f i libucrt:output.obj
 0001:0003cccc       ??0?$output_processor@DV?$string_output_adapter@D@__crt_stdio_output@@V?$positional_parameter_base@DV?$string_output_adapter@D@__crt_stdio_output@@@2@@__crt_stdio_output@@QAE@ABV?$string_output_adapter@D@1@_KQBDQAU__crt_locale_pointers@@QAD@Z 1003dccc f i libucrt:output.obj
 0001:0003cd06       ??0?$output_processor@DV?$string_output_adapter@D@__crt_stdio_output@@V?$standard_base@DV?$string_output_adapter@D@__crt_stdio_output@@@2@@__crt_stdio_output@@QAE@ABV?$string_output_adapter@D@1@_KQBDQAU__crt_locale_pointers@@QAD@Z 1003dd06 f i libucrt:output.obj
 0001:0003cd48       ??0?$output_processor@_WV?$stream_output_adapter@_W@__crt_stdio_output@@V?$format_validation_base@_WV?$stream_output_adapter@_W@__crt_stdio_output@@@2@@__crt_stdio_output@@QAE@ABV?$stream_output_adapter@_W@1@_KQB_WQAU__crt_locale_pointers@@QAD@Z 1003dd48 f i libucrt:output.obj
 0001:0003cd8a       ??0?$output_processor@_WV?$stream_output_adapter@_W@__crt_stdio_output@@V?$positional_parameter_base@_WV?$stream_output_adapter@_W@__crt_stdio_output@@@2@@__crt_stdio_output@@QAE@ABV?$stream_output_adapter@_W@1@_KQB_WQAU__crt_locale_pointers@@QAD@Z 1003dd8a f i libucrt:output.obj
 0001:0003cdc4       ??0?$output_processor@_WV?$stream_output_adapter@_W@__crt_stdio_output@@V?$standard_base@_WV?$stream_output_adapter@_W@__crt_stdio_output@@@2@@__crt_stdio_output@@QAE@ABV?$stream_output_adapter@_W@1@_KQB_WQAU__crt_locale_pointers@@QAD@Z 1003ddc4 f i libucrt:output.obj
 0001:0003ce06       ??0?$output_processor@_WV?$string_output_adapter@_W@__crt_stdio_output@@V?$format_validation_base@_WV?$string_output_adapter@_W@__crt_stdio_output@@@2@@__crt_stdio_output@@QAE@ABV?$string_output_adapter@_W@1@_KQB_WQAU__crt_locale_pointers@@QAD@Z 1003de06 f i libucrt:output.obj
 0001:0003ce48       ??0?$output_processor@_WV?$string_output_adapter@_W@__crt_stdio_output@@V?$positional_parameter_base@_WV?$string_output_adapter@_W@__crt_stdio_output@@@2@@__crt_stdio_output@@QAE@ABV?$string_output_adapter@_W@1@_KQB_WQAU__crt_locale_pointers@@QAD@Z 1003de48 f i libucrt:output.obj
 0001:0003ce82       ??0?$output_processor@_WV?$string_output_adapter@_W@__crt_stdio_output@@V?$standard_base@_WV?$string_output_adapter@_W@__crt_stdio_output@@@2@@__crt_stdio_output@@QAE@ABV?$string_output_adapter@_W@1@_KQB_WQAU__crt_locale_pointers@@QAD@Z 1003de82 f i libucrt:output.obj
 0001:0003cec4       ??0?$stream_output_adapter@D@__crt_stdio_output@@QAE@QAU_iobuf@@@Z 1003dec4 f i libucrt:output.obj
 0001:0003ced8       ??0?$stream_output_adapter@_W@__crt_stdio_output@@QAE@QAU_iobuf@@@Z 1003ded8 f i libucrt:output.obj
 0001:0003ceec       ??0?$string_output_adapter@D@__crt_stdio_output@@QAE@QAU?$string_output_adapter_context@D@1@@Z 1003deec f i libucrt:output.obj
 0001:0003cf00       ??0?$string_output_adapter@_W@__crt_stdio_output@@QAE@QAU?$string_output_adapter_context@_W@1@@Z 1003df00 f i libucrt:output.obj
 0001:0003cf14       ??0_LocaleUpdate@@QAE@QAU__crt_locale_pointers@@@Z 1003df14 f i libucrt:output.obj
 0001:0003cfb7       ??0__acrt_stdio_temporary_buffering_guard@@QAE@QAU_iobuf@@@Z 1003dfb7 f i libucrt:output.obj
 0001:0003cfdc       ??0__crt_errno_guard@@QAE@QAH@Z 1003dfdc f i libucrt:output.obj
 0001:0003cffa       ??0formatting_buffer@__crt_stdio_output@@QAE@XZ 1003dffa f i libucrt:output.obj
 0001:0003d00f       ??1?$common_data@D@__crt_stdio_output@@QAE@XZ 1003e00f f i libucrt:output.obj
 0001:0003d019       ??1?$common_data@_W@__crt_stdio_output@@QAE@XZ 1003e019 f i libucrt:output.obj
 0001:0003d023       ??1?$format_validation_base@DV?$stream_output_adapter@D@__crt_stdio_output@@@__crt_stdio_output@@QAE@XZ 1003e023 f i libucrt:output.obj
 0001:0003d02d       ??1?$format_validation_base@DV?$string_output_adapter@D@__crt_stdio_output@@@__crt_stdio_output@@QAE@XZ 1003e02d f i libucrt:output.obj
 0001:0003d037       ??1?$format_validation_base@_WV?$stream_output_adapter@_W@__crt_stdio_output@@@__crt_stdio_output@@QAE@XZ 1003e037 f i libucrt:output.obj
 0001:0003d041       ??1?$format_validation_base@_WV?$string_output_adapter@_W@__crt_stdio_output@@@__crt_stdio_output@@QAE@XZ 1003e041 f i libucrt:output.obj
 0001:0003d04b       ??1?$output_adapter_data@DV?$stream_output_adapter@D@__crt_stdio_output@@@__crt_stdio_output@@QAE@XZ 1003e04b f i libucrt:output.obj
 0001:0003d055       ??1?$output_adapter_data@DV?$string_output_adapter@D@__crt_stdio_output@@@__crt_stdio_output@@QAE@XZ 1003e055 f i libucrt:output.obj
 0001:0003d05f       ??1?$output_adapter_data@_WV?$stream_output_adapter@_W@__crt_stdio_output@@@__crt_stdio_output@@QAE@XZ 1003e05f f i libucrt:output.obj
 0001:0003d069       ??1?$output_adapter_data@_WV?$string_output_adapter@_W@__crt_stdio_output@@@__crt_stdio_output@@QAE@XZ 1003e069 f i libucrt:output.obj
 0001:0003d073       ??1?$output_processor@DV?$stream_output_adapter@D@__crt_stdio_output@@V?$format_validation_base@DV?$stream_output_adapter@D@__crt_stdio_output@@@2@@__crt_stdio_output@@QAE@XZ 1003e073 f i libucrt:output.obj
 0001:0003d07d       ??1?$output_processor@DV?$stream_output_adapter@D@__crt_stdio_output@@V?$positional_parameter_base@DV?$stream_output_adapter@D@__crt_stdio_output@@@2@@__crt_stdio_output@@QAE@XZ 1003e07d f i libucrt:output.obj
 0001:0003d087       ??1?$output_processor@DV?$stream_output_adapter@D@__crt_stdio_output@@V?$standard_base@DV?$stream_output_adapter@D@__crt_stdio_output@@@2@@__crt_stdio_output@@QAE@XZ 1003e087 f i libucrt:output.obj
 0001:0003d091       ??1?$output_processor@DV?$string_output_adapter@D@__crt_stdio_output@@V?$format_validation_base@DV?$string_output_adapter@D@__crt_stdio_output@@@2@@__crt_stdio_output@@QAE@XZ 1003e091 f i libucrt:output.obj
 0001:0003d09b       ??1?$output_processor@DV?$string_output_adapter@D@__crt_stdio_output@@V?$positional_parameter_base@DV?$string_output_adapter@D@__crt_stdio_output@@@2@@__crt_stdio_output@@QAE@XZ 1003e09b f i libucrt:output.obj
 0001:0003d0a5       ??1?$output_processor@DV?$string_output_adapter@D@__crt_stdio_output@@V?$standard_base@DV?$string_output_adapter@D@__crt_stdio_output@@@2@@__crt_stdio_output@@QAE@XZ 1003e0a5 f i libucrt:output.obj
 0001:0003d0af       ??1?$output_processor@_WV?$stream_output_adapter@_W@__crt_stdio_output@@V?$format_validation_base@_WV?$stream_output_adapter@_W@__crt_stdio_output@@@2@@__crt_stdio_output@@QAE@XZ 1003e0af f i libucrt:output.obj
 0001:0003d0b9       ??1?$output_processor@_WV?$stream_output_adapter@_W@__crt_stdio_output@@V?$positional_parameter_base@_WV?$stream_output_adapter@_W@__crt_stdio_output@@@2@@__crt_stdio_output@@QAE@XZ 1003e0b9 f i libucrt:output.obj
 0001:0003d0c3       ??1?$output_processor@_WV?$stream_output_adapter@_W@__crt_stdio_output@@V?$standard_base@_WV?$stream_output_adapter@_W@__crt_stdio_output@@@2@@__crt_stdio_output@@QAE@XZ 1003e0c3 f i libucrt:output.obj
 0001:0003d0cd       ??1?$output_processor@_WV?$string_output_adapter@_W@__crt_stdio_output@@V?$format_validation_base@_WV?$string_output_adapter@_W@__crt_stdio_output@@@2@@__crt_stdio_output@@QAE@XZ 1003e0cd f i libucrt:output.obj
 0001:0003d0d7       ??1?$output_processor@_WV?$string_output_adapter@_W@__crt_stdio_output@@V?$positional_parameter_base@_WV?$string_output_adapter@_W@__crt_stdio_output@@@2@@__crt_stdio_output@@QAE@XZ 1003e0d7 f i libucrt:output.obj
 0001:0003d0e1       ??1?$output_processor@_WV?$string_output_adapter@_W@__crt_stdio_output@@V?$standard_base@_WV?$string_output_adapter@_W@__crt_stdio_output@@@2@@__crt_stdio_output@@QAE@XZ 1003e0e1 f i libucrt:output.obj
 0001:0003d0eb       ??1?$positional_parameter_base@DV?$stream_output_adapter@D@__crt_stdio_output@@@__crt_stdio_output@@QAE@XZ 1003e0eb f i libucrt:output.obj
 0001:0003d0f5       ??1?$positional_parameter_base@DV?$string_output_adapter@D@__crt_stdio_output@@@__crt_stdio_output@@QAE@XZ 1003e0f5 f i libucrt:output.obj
 0001:0003d0ff       ??1?$positional_parameter_base@_WV?$stream_output_adapter@_W@__crt_stdio_output@@@__crt_stdio_output@@QAE@XZ 1003e0ff f i libucrt:output.obj
 0001:0003d109       ??1?$positional_parameter_base@_WV?$string_output_adapter@_W@__crt_stdio_output@@@__crt_stdio_output@@QAE@XZ 1003e109 f i libucrt:output.obj
 0001:0003d113       ??1?$standard_base@DV?$stream_output_adapter@D@__crt_stdio_output@@@__crt_stdio_output@@QAE@XZ 1003e113 f i libucrt:output.obj
 0001:0003d11d       ??1?$standard_base@DV?$string_output_adapter@D@__crt_stdio_output@@@__crt_stdio_output@@QAE@XZ 1003e11d f i libucrt:output.obj
 0001:0003d127       ??1?$standard_base@_WV?$stream_output_adapter@_W@__crt_stdio_output@@@__crt_stdio_output@@QAE@XZ 1003e127 f i libucrt:output.obj
 0001:0003d131       ??1?$standard_base@_WV?$string_output_adapter@_W@__crt_stdio_output@@@__crt_stdio_output@@QAE@XZ 1003e131 f i libucrt:output.obj
 0001:0003d13b       ??1_LocaleUpdate@@QAE@XZ   1003e13b f i libucrt:output.obj
 0001:0003d14f       ??1__acrt_stdio_temporary_buffering_guard@@QAE@XZ 1003e14f f i libucrt:output.obj
 0001:0003d161       ??1__crt_errno_guard@@QAE@XZ 1003e161 f i libucrt:output.obj
 0001:0003d176       ??1formatting_buffer@__crt_stdio_output@@QAE@XZ 1003e176 f i libucrt:output.obj
 0001:0003d196       ??4?$__crt_unique_heap_ptr@DU__crt_internal_free_policy@@@@QAEAAV0@$$QAV0@@Z 1003e196 f i libucrt:output.obj
 0001:0003d879       ?GetLocaleT@_LocaleUpdate@@QAEPAU__crt_locale_pointers@@XZ 1003e879 f i libucrt:output.obj
 0001:0003d87d       ?__crt_interlocked_read_32@@YAHPDH@Z 1003e87d f i libucrt:output.obj
 0001:0003d88c       ?adjust_hexit@?$output_processor@DV?$stream_output_adapter@D@__crt_stdio_output@@V?$format_validation_base@DV?$stream_output_adapter@D@__crt_stdio_output@@@2@@__crt_stdio_output@@CADH_N@Z 1003e88c f i libucrt:output.obj
 0001:0003d8b1       ?adjust_hexit@?$output_processor@DV?$stream_output_adapter@D@__crt_stdio_output@@V?$positional_parameter_base@DV?$stream_output_adapter@D@__crt_stdio_output@@@2@@__crt_stdio_output@@CADH_N@Z 1003e8b1 f i libucrt:output.obj
 0001:0003d8d6       ?adjust_hexit@?$output_processor@DV?$stream_output_adapter@D@__crt_stdio_output@@V?$standard_base@DV?$stream_output_adapter@D@__crt_stdio_output@@@2@@__crt_stdio_output@@CADH_N@Z 1003e8d6 f i libucrt:output.obj
 0001:0003d8fb       ?adjust_hexit@?$output_processor@DV?$string_output_adapter@D@__crt_stdio_output@@V?$format_validation_base@DV?$string_output_adapter@D@__crt_stdio_output@@@2@@__crt_stdio_output@@CADH_N@Z 1003e8fb f i libucrt:output.obj
 0001:0003d920       ?adjust_hexit@?$output_processor@DV?$string_output_adapter@D@__crt_stdio_output@@V?$positional_parameter_base@DV?$string_output_adapter@D@__crt_stdio_output@@@2@@__crt_stdio_output@@CADH_N@Z 1003e920 f i libucrt:output.obj
 0001:0003d945       ?adjust_hexit@?$output_processor@DV?$string_output_adapter@D@__crt_stdio_output@@V?$standard_base@DV?$string_output_adapter@D@__crt_stdio_output@@@2@@__crt_stdio_output@@CADH_N@Z 1003e945 f i libucrt:output.obj
 0001:0003d96a       ?adjust_hexit@?$output_processor@_WV?$stream_output_adapter@_W@__crt_stdio_output@@V?$format_validation_base@_WV?$stream_output_adapter@_W@__crt_stdio_output@@@2@@__crt_stdio_output@@CADH_N@Z 1003e96a f i libucrt:output.obj
 0001:0003d98f       ?adjust_hexit@?$output_processor@_WV?$stream_output_adapter@_W@__crt_stdio_output@@V?$positional_parameter_base@_WV?$stream_output_adapter@_W@__crt_stdio_output@@@2@@__crt_stdio_output@@CADH_N@Z 1003e98f f i libucrt:output.obj
 0001:0003d9b4       ?adjust_hexit@?$output_processor@_WV?$stream_output_adapter@_W@__crt_stdio_output@@V?$standard_base@_WV?$stream_output_adapter@_W@__crt_stdio_output@@@2@@__crt_stdio_output@@CADH_N@Z 1003e9b4 f i libucrt:output.obj
 0001:0003d9d9       ?adjust_hexit@?$output_processor@_WV?$string_output_adapter@_W@__crt_stdio_output@@V?$format_validation_base@_WV?$string_output_adapter@_W@__crt_stdio_output@@@2@@__crt_stdio_output@@CADH_N@Z 1003e9d9 f i libucrt:output.obj
 0001:0003d9fe       ?adjust_hexit@?$output_processor@_WV?$string_output_adapter@_W@__crt_stdio_output@@V?$positional_parameter_base@_WV?$string_output_adapter@_W@__crt_stdio_output@@@2@@__crt_stdio_output@@CADH_N@Z 1003e9fe f i libucrt:output.obj
 0001:0003da23       ?adjust_hexit@?$output_processor@_WV?$string_output_adapter@_W@__crt_stdio_output@@V?$standard_base@_WV?$string_output_adapter@_W@__crt_stdio_output@@@2@@__crt_stdio_output@@CADH_N@Z 1003ea23 f i libucrt:output.obj
 0001:0003da48       ?advance_to_next_pass@?$positional_parameter_base@DV?$stream_output_adapter@D@__crt_stdio_output@@@__crt_stdio_output@@IAE_NXZ 1003ea48 f i libucrt:output.obj
 0001:0003daa7       ?advance_to_next_pass@?$positional_parameter_base@DV?$string_output_adapter@D@__crt_stdio_output@@@__crt_stdio_output@@IAE_NXZ 1003eaa7 f i libucrt:output.obj
 0001:0003db06       ?advance_to_next_pass@?$positional_parameter_base@_WV?$stream_output_adapter@_W@__crt_stdio_output@@@__crt_stdio_output@@IAE_NXZ 1003eb06 f i libucrt:output.obj
 0001:0003db65       ?advance_to_next_pass@?$positional_parameter_base@_WV?$string_output_adapter@_W@__crt_stdio_output@@@__crt_stdio_output@@IAE_NXZ 1003eb65 f i libucrt:output.obj
 0001:0003dbc4       ?advance_to_next_pass@?$standard_base@DV?$stream_output_adapter@D@__crt_stdio_output@@@__crt_stdio_output@@IAE_NXZ 1003ebc4 f i libucrt:output.obj
 0001:0003dbdb       ?advance_to_next_pass@?$standard_base@DV?$string_output_adapter@D@__crt_stdio_output@@@__crt_stdio_output@@IAE_NXZ 1003ebdb f i libucrt:output.obj
 0001:0003dbf2       ?advance_to_next_pass@?$standard_base@_WV?$stream_output_adapter@_W@__crt_stdio_output@@@__crt_stdio_output@@IAE_NXZ 1003ebf2 f i libucrt:output.obj
 0001:0003dc09       ?advance_to_next_pass@?$standard_base@_WV?$string_output_adapter@_W@__crt_stdio_output@@@__crt_stdio_output@@IAE_NXZ 1003ec09 f i libucrt:output.obj
 0001:0003dc20       ?crop_zeroes@__crt_stdio_output@@YAXPADQAU__crt_locale_pointers@@@Z 1003ec20 f i libucrt:output.obj
 0001:0003dc8c       ?find_next_state@?$output_processor@DV?$stream_output_adapter@D@__crt_stdio_output@@V?$format_validation_base@DV?$stream_output_adapter@D@__crt_stdio_output@@@2@@__crt_stdio_output@@ABE?AW4state@2@DW432@@Z 1003ec8c f i libucrt:output.obj
 0001:0003dcce       ?find_next_state@?$output_processor@DV?$stream_output_adapter@D@__crt_stdio_output@@V?$positional_parameter_base@DV?$stream_output_adapter@D@__crt_stdio_output@@@2@@__crt_stdio_output@@ABE?AW4state@2@DW432@@Z 1003ecce f i libucrt:output.obj
 0001:0003dd10       ?find_next_state@?$output_processor@DV?$stream_output_adapter@D@__crt_stdio_output@@V?$standard_base@DV?$stream_output_adapter@D@__crt_stdio_output@@@2@@__crt_stdio_output@@ABE?AW4state@2@DW432@@Z 1003ed10 f i libucrt:output.obj
 0001:0003dd4e       ?find_next_state@?$output_processor@DV?$string_output_adapter@D@__crt_stdio_output@@V?$format_validation_base@DV?$string_output_adapter@D@__crt_stdio_output@@@2@@__crt_stdio_output@@ABE?AW4state@2@DW432@@Z 1003ed4e f i libucrt:output.obj
 0001:0003dd90       ?find_next_state@?$output_processor@DV?$string_output_adapter@D@__crt_stdio_output@@V?$positional_parameter_base@DV?$string_output_adapter@D@__crt_stdio_output@@@2@@__crt_stdio_output@@ABE?AW4state@2@DW432@@Z 1003ed90 f i libucrt:output.obj
 0001:0003ddd2       ?find_next_state@?$output_processor@DV?$string_output_adapter@D@__crt_stdio_output@@V?$standard_base@DV?$string_output_adapter@D@__crt_stdio_output@@@2@@__crt_stdio_output@@ABE?AW4state@2@DW432@@Z 1003edd2 f i libucrt:output.obj
 0001:0003de10       ?find_next_state@?$output_processor@_WV?$stream_output_adapter@_W@__crt_stdio_output@@V?$format_validation_base@_WV?$stream_output_adapter@_W@__crt_stdio_output@@@2@@__crt_stdio_output@@ABE?AW4state@2@_WW432@@Z 1003ee10 f i libucrt:output.obj
 0001:0003de54       ?find_next_state@?$output_processor@_WV?$stream_output_adapter@_W@__crt_stdio_output@@V?$positional_parameter_base@_WV?$stream_output_adapter@_W@__crt_stdio_output@@@2@@__crt_stdio_output@@ABE?AW4state@2@_WW432@@Z 1003ee54 f i libucrt:output.obj
 0001:0003de98       ?find_next_state@?$output_processor@_WV?$stream_output_adapter@_W@__crt_stdio_output@@V?$standard_base@_WV?$stream_output_adapter@_W@__crt_stdio_output@@@2@@__crt_stdio_output@@ABE?AW4state@2@_WW432@@Z 1003ee98 f i libucrt:output.obj
 0001:0003ded9       ?find_next_state@?$output_processor@_WV?$string_output_adapter@_W@__crt_stdio_output@@V?$format_validation_base@_WV?$string_output_adapter@_W@__crt_stdio_output@@@2@@__crt_stdio_output@@ABE?AW4state@2@_WW432@@Z 1003eed9 f i libucrt:output.obj
 0001:0003df1d       ?find_next_state@?$output_processor@_WV?$string_output_adapter@_W@__crt_stdio_output@@V?$positional_parameter_base@_WV?$string_output_adapter@_W@__crt_stdio_output@@@2@@__crt_stdio_output@@ABE?AW4state@2@_WW432@@Z 1003ef1d f i libucrt:output.obj
 0001:0003df61       ?find_next_state@?$output_processor@_WV?$string_output_adapter@_W@__crt_stdio_output@@V?$standard_base@_WV?$string_output_adapter@_W@__crt_stdio_output@@@2@@__crt_stdio_output@@ABE?AW4state@2@_WW432@@Z 1003ef61 f i libucrt:output.obj
 0001:0003dfa2       ?force_decimal_point@__crt_stdio_output@@YAXPADQAU__crt_locale_pointers@@@Z 1003efa2 f i libucrt:output.obj
 0001:0003e015       ?get_flags@__crt_stdio_stream@@QBEJXZ 1003f015 f i libucrt:output.obj
 0001:0003e01b       ?get_parameter_type@?$positional_parameter_base@DV?$stream_output_adapter@D@__crt_stdio_output@@@__crt_stdio_output@@CA?AW4parameter_type@12@F@Z 1003f01b f i libucrt:output.obj
 0001:0003e01f       ?get_parameter_type@?$positional_parameter_base@DV?$stream_output_adapter@D@__crt_stdio_output@@@__crt_stdio_output@@CA?AW4parameter_type@12@G@Z 1003f01f f i libucrt:output.obj
 0001:0003e023       ?get_parameter_type@?$positional_parameter_base@DV?$stream_output_adapter@D@__crt_stdio_output@@@__crt_stdio_output@@CA?AW4parameter_type@12@H@Z 1003f023 f i libucrt:output.obj
 0001:0003e027       ?get_parameter_type@?$positional_parameter_base@DV?$stream_output_adapter@D@__crt_stdio_output@@@__crt_stdio_output@@CA?AW4parameter_type@12@I@Z 1003f027 f i libucrt:output.obj
 0001:0003e02b       ?get_parameter_type@?$positional_parameter_base@DV?$stream_output_adapter@D@__crt_stdio_output@@@__crt_stdio_output@@CA?AW4parameter_type@12@U_CRT_DOUBLE@@@Z 1003f02b f i libucrt:output.obj
 0001:0003e02f       ?get_parameter_type@?$positional_parameter_base@DV?$stream_output_adapter@D@__crt_stdio_output@@@__crt_stdio_output@@CA?AW4parameter_type@12@_J@Z 1003f02f f i libucrt:output.obj
 0001:0003e033       ?get_parameter_type@?$positional_parameter_base@DV?$stream_output_adapter@D@__crt_stdio_output@@@__crt_stdio_output@@CA?AW4parameter_type@12@_K@Z 1003f033 f i libucrt:output.obj
 0001:0003e037       ?get_parameter_type@?$positional_parameter_base@DV?$stream_output_adapter@D@__crt_stdio_output@@@__crt_stdio_output@@CA?AW4parameter_type@12@_W@Z 1003f037 f i libucrt:output.obj
 0001:0003e03b       ?get_parameter_type@?$positional_parameter_base@DV?$string_output_adapter@D@__crt_stdio_output@@@__crt_stdio_output@@CA?AW4parameter_type@12@F@Z 1003f03b f i libucrt:output.obj
 0001:0003e03f       ?get_parameter_type@?$positional_parameter_base@DV?$string_output_adapter@D@__crt_stdio_output@@@__crt_stdio_output@@CA?AW4parameter_type@12@G@Z 1003f03f f i libucrt:output.obj
 0001:0003e043       ?get_parameter_type@?$positional_parameter_base@DV?$string_output_adapter@D@__crt_stdio_output@@@__crt_stdio_output@@CA?AW4parameter_type@12@H@Z 1003f043 f i libucrt:output.obj
 0001:0003e047       ?get_parameter_type@?$positional_parameter_base@DV?$string_output_adapter@D@__crt_stdio_output@@@__crt_stdio_output@@CA?AW4parameter_type@12@I@Z 1003f047 f i libucrt:output.obj
 0001:0003e04b       ?get_parameter_type@?$positional_parameter_base@DV?$string_output_adapter@D@__crt_stdio_output@@@__crt_stdio_output@@CA?AW4parameter_type@12@U_CRT_DOUBLE@@@Z 1003f04b f i libucrt:output.obj
 0001:0003e04f       ?get_parameter_type@?$positional_parameter_base@DV?$string_output_adapter@D@__crt_stdio_output@@@__crt_stdio_output@@CA?AW4parameter_type@12@_J@Z 1003f04f f i libucrt:output.obj
 0001:0003e053       ?get_parameter_type@?$positional_parameter_base@DV?$string_output_adapter@D@__crt_stdio_output@@@__crt_stdio_output@@CA?AW4parameter_type@12@_K@Z 1003f053 f i libucrt:output.obj
 0001:0003e057       ?get_parameter_type@?$positional_parameter_base@DV?$string_output_adapter@D@__crt_stdio_output@@@__crt_stdio_output@@CA?AW4parameter_type@12@_W@Z 1003f057 f i libucrt:output.obj
 0001:0003e05b       ?get_parameter_type@?$positional_parameter_base@_WV?$stream_output_adapter@_W@__crt_stdio_output@@@__crt_stdio_output@@CA?AW4parameter_type@12@F@Z 1003f05b f i libucrt:output.obj
 0001:0003e05f       ?get_parameter_type@?$positional_parameter_base@_WV?$stream_output_adapter@_W@__crt_stdio_output@@@__crt_stdio_output@@CA?AW4parameter_type@12@G@Z 1003f05f f i libucrt:output.obj
 0001:0003e063       ?get_parameter_type@?$positional_parameter_base@_WV?$stream_output_adapter@_W@__crt_stdio_output@@@__crt_stdio_output@@CA?AW4parameter_type@12@H@Z 1003f063 f i libucrt:output.obj
 0001:0003e067       ?get_parameter_type@?$positional_parameter_base@_WV?$stream_output_adapter@_W@__crt_stdio_output@@@__crt_stdio_output@@CA?AW4parameter_type@12@I@Z 1003f067 f i libucrt:output.obj
 0001:0003e06b       ?get_parameter_type@?$positional_parameter_base@_WV?$stream_output_adapter@_W@__crt_stdio_output@@@__crt_stdio_output@@CA?AW4parameter_type@12@U_CRT_DOUBLE@@@Z 1003f06b f i libucrt:output.obj
 0001:0003e06f       ?get_parameter_type@?$positional_parameter_base@_WV?$stream_output_adapter@_W@__crt_stdio_output@@@__crt_stdio_output@@CA?AW4parameter_type@12@_J@Z 1003f06f f i libucrt:output.obj
 0001:0003e073       ?get_parameter_type@?$positional_parameter_base@_WV?$stream_output_adapter@_W@__crt_stdio_output@@@__crt_stdio_output@@CA?AW4parameter_type@12@_K@Z 1003f073 f i libucrt:output.obj
 0001:0003e077       ?get_parameter_type@?$positional_parameter_base@_WV?$stream_output_adapter@_W@__crt_stdio_output@@@__crt_stdio_output@@CA?AW4parameter_type@12@_W@Z 1003f077 f i libucrt:output.obj
 0001:0003e07b       ?get_parameter_type@?$positional_parameter_base@_WV?$string_output_adapter@_W@__crt_stdio_output@@@__crt_stdio_output@@CA?AW4parameter_type@12@F@Z 1003f07b f i libucrt:output.obj
 0001:0003e07f       ?get_parameter_type@?$positional_parameter_base@_WV?$string_output_adapter@_W@__crt_stdio_output@@@__crt_stdio_output@@CA?AW4parameter_type@12@G@Z 1003f07f f i libucrt:output.obj
 0001:0003e083       ?get_parameter_type@?$positional_parameter_base@_WV?$string_output_adapter@_W@__crt_stdio_output@@@__crt_stdio_output@@CA?AW4parameter_type@12@H@Z 1003f083 f i libucrt:output.obj
 0001:0003e087       ?get_parameter_type@?$positional_parameter_base@_WV?$string_output_adapter@_W@__crt_stdio_output@@@__crt_stdio_output@@CA?AW4parameter_type@12@I@Z 1003f087 f i libucrt:output.obj
 0001:0003e08b       ?get_parameter_type@?$positional_parameter_base@_WV?$string_output_adapter@_W@__crt_stdio_output@@@__crt_stdio_output@@CA?AW4parameter_type@12@U_CRT_DOUBLE@@@Z 1003f08b f i libucrt:output.obj
 0001:0003e08f       ?get_parameter_type@?$positional_parameter_base@_WV?$string_output_adapter@_W@__crt_stdio_output@@@__crt_stdio_output@@CA?AW4parameter_type@12@_J@Z 1003f08f f i libucrt:output.obj
 0001:0003e093       ?get_parameter_type@?$positional_parameter_base@_WV?$string_output_adapter@_W@__crt_stdio_output@@@__crt_stdio_output@@CA?AW4parameter_type@12@_K@Z 1003f093 f i libucrt:output.obj
 0001:0003e097       ?get_parameter_type@?$positional_parameter_base@_WV?$string_output_adapter@_W@__crt_stdio_output@@@__crt_stdio_output@@CA?AW4parameter_type@12@_W@Z 1003f097 f i libucrt:output.obj
 0001:0003e09b       ?has_flag@?$output_processor@DV?$stream_output_adapter@D@__crt_stdio_output@@V?$format_validation_base@DV?$stream_output_adapter@D@__crt_stdio_output@@@2@@__crt_stdio_output@@ABE_NI@Z 1003f09b f i libucrt:output.obj
 0001:0003e0b5       ?has_flag@?$output_processor@DV?$stream_output_adapter@D@__crt_stdio_output@@V?$positional_parameter_base@DV?$stream_output_adapter@D@__crt_stdio_output@@@2@@__crt_stdio_output@@ABE_NI@Z 1003f0b5 f i libucrt:output.obj
 0001:0003e0cf       ?has_flag@?$output_processor@DV?$stream_output_adapter@D@__crt_stdio_output@@V?$standard_base@DV?$stream_output_adapter@D@__crt_stdio_output@@@2@@__crt_stdio_output@@ABE_NI@Z 1003f0cf f i libucrt:output.obj
 0001:0003e0e9       ?has_flag@?$output_processor@DV?$string_output_adapter@D@__crt_stdio_output@@V?$format_validation_base@DV?$string_output_adapter@D@__crt_stdio_output@@@2@@__crt_stdio_output@@ABE_NI@Z 1003f0e9 f i libucrt:output.obj
 0001:0003e103       ?has_flag@?$output_processor@DV?$string_output_adapter@D@__crt_stdio_output@@V?$positional_parameter_base@DV?$string_output_adapter@D@__crt_stdio_output@@@2@@__crt_stdio_output@@ABE_NI@Z 1003f103 f i libucrt:output.obj
 0001:0003e11d       ?has_flag@?$output_processor@DV?$string_output_adapter@D@__crt_stdio_output@@V?$standard_base@DV?$string_output_adapter@D@__crt_stdio_output@@@2@@__crt_stdio_output@@ABE_NI@Z 1003f11d f i libucrt:output.obj
 0001:0003e137       ?has_flag@?$output_processor@_WV?$stream_output_adapter@_W@__crt_stdio_output@@V?$format_validation_base@_WV?$stream_output_adapter@_W@__crt_stdio_output@@@2@@__crt_stdio_output@@ABE_NI@Z 1003f137 f i libucrt:output.obj
 0001:0003e151       ?has_flag@?$output_processor@_WV?$stream_output_adapter@_W@__crt_stdio_output@@V?$positional_parameter_base@_WV?$stream_output_adapter@_W@__crt_stdio_output@@@2@@__crt_stdio_output@@ABE_NI@Z 1003f151 f i libucrt:output.obj
 0001:0003e16b       ?has_flag@?$output_processor@_WV?$stream_output_adapter@_W@__crt_stdio_output@@V?$standard_base@_WV?$stream_output_adapter@_W@__crt_stdio_output@@@2@@__crt_stdio_output@@ABE_NI@Z 1003f16b f i libucrt:output.obj
 0001:0003e185       ?has_flag@?$output_processor@_WV?$string_output_adapter@_W@__crt_stdio_output@@V?$format_validation_base@_WV?$string_output_adapter@_W@__crt_stdio_output@@@2@@__crt_stdio_output@@ABE_NI@Z 1003f185 f i libucrt:output.obj
 0001:0003e19f       ?has_flag@?$output_processor@_WV?$string_output_adapter@_W@__crt_stdio_output@@V?$positional_parameter_base@_WV?$string_output_adapter@_W@__crt_stdio_output@@@2@@__crt_stdio_output@@ABE_NI@Z 1003f19f f i libucrt:output.obj
 0001:0003e1b9       ?has_flag@?$output_processor@_WV?$string_output_adapter@_W@__crt_stdio_output@@V?$standard_base@_WV?$string_output_adapter@_W@__crt_stdio_output@@@2@@__crt_stdio_output@@ABE_NI@Z 1003f1b9 f i libucrt:output.obj
 0001:0003e1d3       ?is_positional_parameter_reappearance_consistent@?$positional_parameter_base@DV?$stream_output_adapter@D@__crt_stdio_output@@@__crt_stdio_output@@AAE_NABUparameter_data@12@W4parameter_type@12@DW4length_modifier@2@@Z 1003f1d3 f i libucrt:output.obj
 0001:0003e34c       ?is_positional_parameter_reappearance_consistent@?$positional_parameter_base@DV?$string_output_adapter@D@__crt_stdio_output@@@__crt_stdio_output@@AAE_NABUparameter_data@12@W4parameter_type@12@DW4length_modifier@2@@Z 1003f34c f i libucrt:output.obj
 0001:0003e4c5       ?is_positional_parameter_reappearance_consistent@?$positional_parameter_base@_WV?$stream_output_adapter@_W@__crt_stdio_output@@@__crt_stdio_output@@AAE_NABUparameter_data@12@W4parameter_type@12@_WW4length_modifier@2@@Z 1003f4c5 f i libucrt:output.obj
 0001:0003e630       ?is_positional_parameter_reappearance_consistent@?$positional_parameter_base@_WV?$string_output_adapter@_W@__crt_stdio_output@@@__crt_stdio_output@@AAE_NABUparameter_data@12@W4parameter_type@12@_WW4length_modifier@2@@Z 1003f630 f i libucrt:output.obj
 0001:0003e79b       ?is_string_backed@__crt_stdio_stream@@QBE_NXZ 1003f79b f i libucrt:output.obj
 0001:0003e7aa       ?narrow_null_string@?$output_processor@DV?$stream_output_adapter@D@__crt_stdio_output@@V?$format_validation_base@DV?$stream_output_adapter@D@__crt_stdio_output@@@2@@__crt_stdio_output@@CAPADXZ 1003f7aa f i libucrt:output.obj
 0001:0003e7b0       ?narrow_null_string@?$output_processor@DV?$stream_output_adapter@D@__crt_stdio_output@@V?$positional_parameter_base@DV?$stream_output_adapter@D@__crt_stdio_output@@@2@@__crt_stdio_output@@CAPADXZ 1003f7b0 f i libucrt:output.obj
 0001:0003e7b6       ?narrow_null_string@?$output_processor@DV?$stream_output_adapter@D@__crt_stdio_output@@V?$standard_base@DV?$stream_output_adapter@D@__crt_stdio_output@@@2@@__crt_stdio_output@@CAPADXZ 1003f7b6 f i libucrt:output.obj
 0001:0003e7bc       ?narrow_null_string@?$output_processor@DV?$string_output_adapter@D@__crt_stdio_output@@V?$format_validation_base@DV?$string_output_adapter@D@__crt_stdio_output@@@2@@__crt_stdio_output@@CAPADXZ 1003f7bc f i libucrt:output.obj
 0001:0003e7c2       ?narrow_null_string@?$output_processor@DV?$string_output_adapter@D@__crt_stdio_output@@V?$positional_parameter_base@DV?$string_output_adapter@D@__crt_stdio_output@@@2@@__crt_stdio_output@@CAPADXZ 1003f7c2 f i libucrt:output.obj
 0001:0003e7c8       ?narrow_null_string@?$output_processor@DV?$string_output_adapter@D@__crt_stdio_output@@V?$standard_base@DV?$string_output_adapter@D@__crt_stdio_output@@@2@@__crt_stdio_output@@CAPADXZ 1003f7c8 f i libucrt:output.obj
 0001:0003e7ce       ?narrow_null_string@?$output_processor@_WV?$stream_output_adapter@_W@__crt_stdio_output@@V?$format_validation_base@_WV?$stream_output_adapter@_W@__crt_stdio_output@@@2@@__crt_stdio_output@@CAPADXZ 1003f7ce f i libucrt:output.obj
 0001:0003e7d4       ?narrow_null_string@?$output_processor@_WV?$stream_output_adapter@_W@__crt_stdio_output@@V?$positional_parameter_base@_WV?$stream_output_adapter@_W@__crt_stdio_output@@@2@@__crt_stdio_output@@CAPADXZ 1003f7d4 f i libucrt:output.obj
 0001:0003e7da       ?narrow_null_string@?$output_processor@_WV?$stream_output_adapter@_W@__crt_stdio_output@@V?$standard_base@_WV?$stream_output_adapter@_W@__crt_stdio_output@@@2@@__crt_stdio_output@@CAPADXZ 1003f7da f i libucrt:output.obj
 0001:0003e7e0       ?narrow_null_string@?$output_processor@_WV?$string_output_adapter@_W@__crt_stdio_output@@V?$format_validation_base@_WV?$string_output_adapter@_W@__crt_stdio_output@@@2@@__crt_stdio_output@@CAPADXZ 1003f7e0 f i libucrt:output.obj
 0001:0003e7e6       ?narrow_null_string@?$output_processor@_WV?$string_output_adapter@_W@__crt_stdio_output@@V?$positional_parameter_base@_WV?$string_output_adapter@_W@__crt_stdio_output@@@2@@__crt_stdio_output@@CAPADXZ 1003f7e6 f i libucrt:output.obj
 0001:0003e7ec       ?narrow_null_string@?$output_processor@_WV?$string_output_adapter@_W@__crt_stdio_output@@V?$standard_base@_WV?$string_output_adapter@_W@__crt_stdio_output@@@2@@__crt_stdio_output@@CAPADXZ 1003f7ec f i libucrt:output.obj
 0001:0003e7f2       ?parse_int_from_format_string@?$output_processor@DV?$stream_output_adapter@D@__crt_stdio_output@@V?$format_validation_base@DV?$stream_output_adapter@D@__crt_stdio_output@@@2@@__crt_stdio_output@@AAE_NQAH@Z 1003f7f2 f i libucrt:output.obj
 0001:0003e865       ?parse_int_from_format_string@?$output_processor@DV?$stream_output_adapter@D@__crt_stdio_output@@V?$positional_parameter_base@DV?$stream_output_adapter@D@__crt_stdio_output@@@2@@__crt_stdio_output@@AAE_NQAH@Z 1003f865 f i libucrt:output.obj
 0001:0003e8d8       ?parse_int_from_format_string@?$output_processor@DV?$stream_output_adapter@D@__crt_stdio_output@@V?$standard_base@DV?$stream_output_adapter@D@__crt_stdio_output@@@2@@__crt_stdio_output@@AAE_NQAH@Z 1003f8d8 f i libucrt:output.obj
 0001:0003e94b       ?parse_int_from_format_string@?$output_processor@DV?$string_output_adapter@D@__crt_stdio_output@@V?$format_validation_base@DV?$string_output_adapter@D@__crt_stdio_output@@@2@@__crt_stdio_output@@AAE_NQAH@Z 1003f94b f i libucrt:output.obj
 0001:0003e9be       ?parse_int_from_format_string@?$output_processor@DV?$string_output_adapter@D@__crt_stdio_output@@V?$positional_parameter_base@DV?$string_output_adapter@D@__crt_stdio_output@@@2@@__crt_stdio_output@@AAE_NQAH@Z 1003f9be f i libucrt:output.obj
 0001:0003ea31       ?parse_int_from_format_string@?$output_processor@DV?$string_output_adapter@D@__crt_stdio_output@@V?$standard_base@DV?$string_output_adapter@D@__crt_stdio_output@@@2@@__crt_stdio_output@@AAE_NQAH@Z 1003fa31 f i libucrt:output.obj
 0001:0003eaa4       ?parse_int_from_format_string@?$output_processor@_WV?$stream_output_adapter@_W@__crt_stdio_output@@V?$format_validation_base@_WV?$stream_output_adapter@_W@__crt_stdio_output@@@2@@__crt_stdio_output@@AAE_NQAH@Z 1003faa4 f i libucrt:output.obj
 0001:0003eb19       ?parse_int_from_format_string@?$output_processor@_WV?$stream_output_adapter@_W@__crt_stdio_output@@V?$positional_parameter_base@_WV?$stream_output_adapter@_W@__crt_stdio_output@@@2@@__crt_stdio_output@@AAE_NQAH@Z 1003fb19 f i libucrt:output.obj
 0001:0003eb8e       ?parse_int_from_format_string@?$output_processor@_WV?$stream_output_adapter@_W@__crt_stdio_output@@V?$standard_base@_WV?$stream_output_adapter@_W@__crt_stdio_output@@@2@@__crt_stdio_output@@AAE_NQAH@Z 1003fb8e f i libucrt:output.obj
 0001:0003ec03       ?parse_int_from_format_string@?$output_processor@_WV?$string_output_adapter@_W@__crt_stdio_output@@V?$format_validation_base@_WV?$string_output_adapter@_W@__crt_stdio_output@@@2@@__crt_stdio_output@@AAE_NQAH@Z 1003fc03 f i libucrt:output.obj
 0001:0003ec78       ?parse_int_from_format_string@?$output_processor@_WV?$string_output_adapter@_W@__crt_stdio_output@@V?$positional_parameter_base@_WV?$string_output_adapter@_W@__crt_stdio_output@@@2@@__crt_stdio_output@@AAE_NQAH@Z 1003fc78 f i libucrt:output.obj
 0001:0003eced       ?parse_int_from_format_string@?$output_processor@_WV?$string_output_adapter@_W@__crt_stdio_output@@V?$standard_base@_WV?$string_output_adapter@_W@__crt_stdio_output@@@2@@__crt_stdio_output@@AAE_NQAH@Z 1003fced f i libucrt:output.obj
 0001:0003ed62       ?process@?$output_processor@DV?$stream_output_adapter@D@__crt_stdio_output@@V?$format_validation_base@DV?$stream_output_adapter@D@__crt_stdio_output@@@2@@__crt_stdio_output@@QAEHXZ 1003fd62 f i libucrt:output.obj
 0001:0003eed4       ?process@?$output_processor@DV?$stream_output_adapter@D@__crt_stdio_output@@V?$positional_parameter_base@DV?$stream_output_adapter@D@__crt_stdio_output@@@2@@__crt_stdio_output@@QAEHXZ 1003fed4 f i libucrt:output.obj
 0001:0003f087       ?process@?$output_processor@DV?$stream_output_adapter@D@__crt_stdio_output@@V?$standard_base@DV?$stream_output_adapter@D@__crt_stdio_output@@@2@@__crt_stdio_output@@QAEHXZ 10040087 f i libucrt:output.obj
 0001:0003f1ea       ?process@?$output_processor@DV?$string_output_adapter@D@__crt_stdio_output@@V?$format_validation_base@DV?$string_output_adapter@D@__crt_stdio_output@@@2@@__crt_stdio_output@@QAEHXZ 100401ea f i libucrt:output.obj
 0001:0003f35c       ?process@?$output_processor@DV?$string_output_adapter@D@__crt_stdio_output@@V?$positional_parameter_base@DV?$string_output_adapter@D@__crt_stdio_output@@@2@@__crt_stdio_output@@QAEHXZ 1004035c f i libucrt:output.obj
 0001:0003f50f       ?process@?$output_processor@DV?$string_output_adapter@D@__crt_stdio_output@@V?$standard_base@DV?$string_output_adapter@D@__crt_stdio_output@@@2@@__crt_stdio_output@@QAEHXZ 1004050f f i libucrt:output.obj
 0001:0003f672       ?process@?$output_processor@_WV?$stream_output_adapter@_W@__crt_stdio_output@@V?$format_validation_base@_WV?$stream_output_adapter@_W@__crt_stdio_output@@@2@@__crt_stdio_output@@QAEHXZ 10040672 f i libucrt:output.obj
 0001:0003f7ee       ?process@?$output_processor@_WV?$stream_output_adapter@_W@__crt_stdio_output@@V?$positional_parameter_base@_WV?$stream_output_adapter@_W@__crt_stdio_output@@@2@@__crt_stdio_output@@QAEHXZ 100407ee f i libucrt:output.obj
 0001:0003f9a6       ?process@?$output_processor@_WV?$stream_output_adapter@_W@__crt_stdio_output@@V?$standard_base@_WV?$stream_output_adapter@_W@__crt_stdio_output@@@2@@__crt_stdio_output@@QAEHXZ 100409a6 f i libucrt:output.obj
 0001:0003fb0e       ?process@?$output_processor@_WV?$string_output_adapter@_W@__crt_stdio_output@@V?$format_validation_base@_WV?$string_output_adapter@_W@__crt_stdio_output@@@2@@__crt_stdio_output@@QAEHXZ 10040b0e f i libucrt:output.obj
 0001:0003fc8a       ?process@?$output_processor@_WV?$string_output_adapter@_W@__crt_stdio_output@@V?$positional_parameter_base@_WV?$string_output_adapter@_W@__crt_stdio_output@@@2@@__crt_stdio_output@@QAEHXZ 10040c8a f i libucrt:output.obj
 0001:0003fe42       ?process@?$output_processor@_WV?$string_output_adapter@_W@__crt_stdio_output@@V?$standard_base@_WV?$string_output_adapter@_W@__crt_stdio_output@@@2@@__crt_stdio_output@@QAEHXZ 10040e42 f i libucrt:output.obj
 0001:0003ffaa       ?public_stream@__crt_stdio_stream@@QBEPAU_iobuf@@XZ 10040faa f i libucrt:output.obj
 0001:0003ffad       ?set_flag@?$output_processor@DV?$stream_output_adapter@D@__crt_stdio_output@@V?$format_validation_base@DV?$stream_output_adapter@D@__crt_stdio_output@@@2@@__crt_stdio_output@@AAEXI@Z 10040fad f i libucrt:output.obj
 0001:0003ffbf       ?set_flag@?$output_processor@DV?$stream_output_adapter@D@__crt_stdio_output@@V?$positional_parameter_base@DV?$stream_output_adapter@D@__crt_stdio_output@@@2@@__crt_stdio_output@@AAEXI@Z 10040fbf f i libucrt:output.obj
 0001:0003ffd1       ?set_flag@?$output_processor@DV?$stream_output_adapter@D@__crt_stdio_output@@V?$standard_base@DV?$stream_output_adapter@D@__crt_stdio_output@@@2@@__crt_stdio_output@@AAEXI@Z 10040fd1 f i libucrt:output.obj
 0001:0003ffe3       ?set_flag@?$output_processor@DV?$string_output_adapter@D@__crt_stdio_output@@V?$format_validation_base@DV?$string_output_adapter@D@__crt_stdio_output@@@2@@__crt_stdio_output@@AAEXI@Z 10040fe3 f i libucrt:output.obj
 0001:0003fff5       ?set_flag@?$output_processor@DV?$string_output_adapter@D@__crt_stdio_output@@V?$positional_parameter_base@DV?$string_output_adapter@D@__crt_stdio_output@@@2@@__crt_stdio_output@@AAEXI@Z 10040ff5 f i libucrt:output.obj
 0001:00040007       ?set_flag@?$output_processor@DV?$string_output_adapter@D@__crt_stdio_output@@V?$standard_base@DV?$string_output_adapter@D@__crt_stdio_output@@@2@@__crt_stdio_output@@AAEXI@Z 10041007 f i libucrt:output.obj
 0001:00040019       ?set_flag@?$output_processor@_WV?$stream_output_adapter@_W@__crt_stdio_output@@V?$format_validation_base@_WV?$stream_output_adapter@_W@__crt_stdio_output@@@2@@__crt_stdio_output@@AAEXI@Z 10041019 f i libucrt:output.obj
 0001:0004002b       ?set_flag@?$output_processor@_WV?$stream_output_adapter@_W@__crt_stdio_output@@V?$positional_parameter_base@_WV?$stream_output_adapter@_W@__crt_stdio_output@@@2@@__crt_stdio_output@@AAEXI@Z 1004102b f i libucrt:output.obj
 0001:0004003d       ?set_flag@?$output_processor@_WV?$stream_output_adapter@_W@__crt_stdio_output@@V?$standard_base@_WV?$stream_output_adapter@_W@__crt_stdio_output@@@2@@__crt_stdio_output@@AAEXI@Z 1004103d f i libucrt:output.obj
 0001:0004004f       ?set_flag@?$output_processor@_WV?$string_output_adapter@_W@__crt_stdio_output@@V?$format_validation_base@_WV?$string_output_adapter@_W@__crt_stdio_output@@@2@@__crt_stdio_output@@AAEXI@Z 1004104f f i libucrt:output.obj
 0001:00040061       ?set_flag@?$output_processor@_WV?$string_output_adapter@_W@__crt_stdio_output@@V?$positional_parameter_base@_WV?$string_output_adapter@_W@__crt_stdio_output@@@2@@__crt_stdio_output@@AAEXI@Z 10041061 f i libucrt:output.obj
 0001:00040073       ?set_flag@?$output_processor@_WV?$string_output_adapter@_W@__crt_stdio_output@@V?$standard_base@_WV?$string_output_adapter@_W@__crt_stdio_output@@@2@@__crt_stdio_output@@AAEXI@Z 10041073 f i libucrt:output.obj
 0001:00040085       ?should_format@?$positional_parameter_base@DV?$stream_output_adapter@D@__crt_stdio_output@@@__crt_stdio_output@@IAE_NXZ 10041085 f i libucrt:output.obj
 0001:000400a0       ?should_format@?$positional_parameter_base@DV?$string_output_adapter@D@__crt_stdio_output@@@__crt_stdio_output@@IAE_NXZ 100410a0 f i libucrt:output.obj
 0001:000400bb       ?should_format@?$positional_parameter_base@_WV?$stream_output_adapter@_W@__crt_stdio_output@@@__crt_stdio_output@@IAE_NXZ 100410bb f i libucrt:output.obj
 0001:000400d6       ?should_format@?$positional_parameter_base@_WV?$string_output_adapter@_W@__crt_stdio_output@@@__crt_stdio_output@@IAE_NXZ 100410d6 f i libucrt:output.obj
 0001:000400f1       ?should_format@?$standard_base@DV?$stream_output_adapter@D@__crt_stdio_output@@@__crt_stdio_output@@IAE_NXZ 100410f1 f i libucrt:output.obj
 0001:000400f4       ?should_format@?$standard_base@DV?$string_output_adapter@D@__crt_stdio_output@@@__crt_stdio_output@@IAE_NXZ 100410f4 f i libucrt:output.obj
 0001:000400f7       ?should_format@?$standard_base@_WV?$stream_output_adapter@_W@__crt_stdio_output@@@__crt_stdio_output@@IAE_NXZ 100410f7 f i libucrt:output.obj
 0001:000400fa       ?should_format@?$standard_base@_WV?$string_output_adapter@_W@__crt_stdio_output@@@__crt_stdio_output@@IAE_NXZ 100410fa f i libucrt:output.obj
 0001:000400fd       ?should_skip_normal_state_processing@?$positional_parameter_base@DV?$stream_output_adapter@D@__crt_stdio_output@@@__crt_stdio_output@@IAE_NXZ 100410fd f i libucrt:output.obj
 0001:0004012f       ?should_skip_normal_state_processing@?$positional_parameter_base@DV?$string_output_adapter@D@__crt_stdio_output@@@__crt_stdio_output@@IAE_NXZ 1004112f f i libucrt:output.obj
 0001:00040161       ?should_skip_normal_state_processing@?$positional_parameter_base@_WV?$stream_output_adapter@_W@__crt_stdio_output@@@__crt_stdio_output@@IAE_NXZ 10041161 f i libucrt:output.obj
 0001:00040193       ?should_skip_normal_state_processing@?$positional_parameter_base@_WV?$string_output_adapter@_W@__crt_stdio_output@@@__crt_stdio_output@@IAE_NXZ 10041193 f i libucrt:output.obj
 0001:000401c5       ?should_skip_normal_state_processing@?$standard_base@DV?$stream_output_adapter@D@__crt_stdio_output@@@__crt_stdio_output@@IAE_NXZ 100411c5 f i libucrt:output.obj
 0001:000401c8       ?should_skip_normal_state_processing@?$standard_base@DV?$string_output_adapter@D@__crt_stdio_output@@@__crt_stdio_output@@IAE_NXZ 100411c8 f i libucrt:output.obj
 0001:000401cb       ?should_skip_normal_state_processing@?$standard_base@_WV?$stream_output_adapter@_W@__crt_stdio_output@@@__crt_stdio_output@@IAE_NXZ 100411cb f i libucrt:output.obj
 0001:000401ce       ?should_skip_normal_state_processing@?$standard_base@_WV?$string_output_adapter@_W@__crt_stdio_output@@@__crt_stdio_output@@IAE_NXZ 100411ce f i libucrt:output.obj
 0001:000401d1       ?should_skip_type_state_output@?$positional_parameter_base@DV?$stream_output_adapter@D@__crt_stdio_output@@@__crt_stdio_output@@IBE_NXZ 100411d1 f i libucrt:output.obj
 0001:000401ed       ?should_skip_type_state_output@?$positional_parameter_base@DV?$string_output_adapter@D@__crt_stdio_output@@@__crt_stdio_output@@IBE_NXZ 100411ed f i libucrt:output.obj
 0001:00040209       ?should_skip_type_state_output@?$positional_parameter_base@_WV?$stream_output_adapter@_W@__crt_stdio_output@@@__crt_stdio_output@@IBE_NXZ 10041209 f i libucrt:output.obj
 0001:00040225       ?should_skip_type_state_output@?$positional_parameter_base@_WV?$string_output_adapter@_W@__crt_stdio_output@@@__crt_stdio_output@@IBE_NXZ 10041225 f i libucrt:output.obj
 0001:00040241       ?should_skip_type_state_output@?$standard_base@DV?$stream_output_adapter@D@__crt_stdio_output@@@__crt_stdio_output@@IBE_NXZ 10041241 f i libucrt:output.obj
 0001:00040244       ?should_skip_type_state_output@?$standard_base@DV?$string_output_adapter@D@__crt_stdio_output@@@__crt_stdio_output@@IBE_NXZ 10041244 f i libucrt:output.obj
 0001:00040247       ?should_skip_type_state_output@?$standard_base@_WV?$stream_output_adapter@_W@__crt_stdio_output@@@__crt_stdio_output@@IBE_NXZ 10041247 f i libucrt:output.obj
 0001:0004024a       ?should_skip_type_state_output@?$standard_base@_WV?$string_output_adapter@_W@__crt_stdio_output@@@__crt_stdio_output@@IBE_NXZ 1004124a f i libucrt:output.obj
 0001:0004024d       ?state_case_dot@?$output_processor@DV?$stream_output_adapter@D@__crt_stdio_output@@V?$format_validation_base@DV?$stream_output_adapter@D@__crt_stdio_output@@@2@@__crt_stdio_output@@AAE_NXZ 1004124d f i libucrt:output.obj
 0001:00040254       ?state_case_dot@?$output_processor@DV?$stream_output_adapter@D@__crt_stdio_output@@V?$positional_parameter_base@DV?$stream_output_adapter@D@__crt_stdio_output@@@2@@__crt_stdio_output@@AAE_NXZ 10041254 f i libucrt:output.obj
 0001:0004025b       ?state_case_dot@?$output_processor@DV?$stream_output_adapter@D@__crt_stdio_output@@V?$standard_base@DV?$stream_output_adapter@D@__crt_stdio_output@@@2@@__crt_stdio_output@@AAE_NXZ 1004125b f i libucrt:output.obj
 0001:00040262       ?state_case_dot@?$output_processor@DV?$string_output_adapter@D@__crt_stdio_output@@V?$format_validation_base@DV?$string_output_adapter@D@__crt_stdio_output@@@2@@__crt_stdio_output@@AAE_NXZ 10041262 f i libucrt:output.obj
 0001:00040269       ?state_case_dot@?$output_processor@DV?$string_output_adapter@D@__crt_stdio_output@@V?$positional_parameter_base@DV?$string_output_adapter@D@__crt_stdio_output@@@2@@__crt_stdio_output@@AAE_NXZ 10041269 f i libucrt:output.obj
 0001:00040270       ?state_case_dot@?$output_processor@DV?$string_output_adapter@D@__crt_stdio_output@@V?$standard_base@DV?$string_output_adapter@D@__crt_stdio_output@@@2@@__crt_stdio_output@@AAE_NXZ 10041270 f i libucrt:output.obj
 0001:00040277       ?state_case_dot@?$output_processor@_WV?$stream_output_adapter@_W@__crt_stdio_output@@V?$format_validation_base@_WV?$stream_output_adapter@_W@__crt_stdio_output@@@2@@__crt_stdio_output@@AAE_NXZ 10041277 f i libucrt:output.obj
 0001:0004027e       ?state_case_dot@?$output_processor@_WV?$stream_output_adapter@_W@__crt_stdio_output@@V?$positional_parameter_base@_WV?$stream_output_adapter@_W@__crt_stdio_output@@@2@@__crt_stdio_output@@AAE_NXZ 1004127e f i libucrt:output.obj
 0001:00040285       ?state_case_dot@?$output_processor@_WV?$stream_output_adapter@_W@__crt_stdio_output@@V?$standard_base@_WV?$stream_output_adapter@_W@__crt_stdio_output@@@2@@__crt_stdio_output@@AAE_NXZ 10041285 f i libucrt:output.obj
 0001:0004028c       ?state_case_dot@?$output_processor@_WV?$string_output_adapter@_W@__crt_stdio_output@@V?$format_validation_base@_WV?$string_output_adapter@_W@__crt_stdio_output@@@2@@__crt_stdio_output@@AAE_NXZ 1004128c f i libucrt:output.obj
 0001:00040293       ?state_case_dot@?$output_processor@_WV?$string_output_adapter@_W@__crt_stdio_output@@V?$positional_parameter_base@_WV?$string_output_adapter@_W@__crt_stdio_output@@@2@@__crt_stdio_output@@AAE_NXZ 10041293 f i libucrt:output.obj
 0001:0004029a       ?state_case_dot@?$output_processor@_WV?$string_output_adapter@_W@__crt_stdio_output@@V?$standard_base@_WV?$string_output_adapter@_W@__crt_stdio_output@@@2@@__crt_stdio_output@@AAE_NXZ 1004129a f i libucrt:output.obj
 0001:000402a1       ?state_case_flag@?$output_processor@DV?$stream_output_adapter@D@__crt_stdio_output@@V?$format_validation_base@DV?$stream_output_adapter@D@__crt_stdio_output@@@2@@__crt_stdio_output@@AAE_NXZ 100412a1 f i libucrt:output.obj
 0001:000402ed       ?state_case_flag@?$output_processor@DV?$stream_output_adapter@D@__crt_stdio_output@@V?$positional_parameter_base@DV?$stream_output_adapter@D@__crt_stdio_output@@@2@@__crt_stdio_output@@AAE_NXZ 100412ed f i libucrt:output.obj
 0001:00040339       ?state_case_flag@?$output_processor@DV?$stream_output_adapter@D@__crt_stdio_output@@V?$standard_base@DV?$stream_output_adapter@D@__crt_stdio_output@@@2@@__crt_stdio_output@@AAE_NXZ 10041339 f i libucrt:output.obj
 0001:00040385       ?state_case_flag@?$output_processor@DV?$string_output_adapter@D@__crt_stdio_output@@V?$format_validation_base@DV?$string_output_adapter@D@__crt_stdio_output@@@2@@__crt_stdio_output@@AAE_NXZ 10041385 f i libucrt:output.obj
 0001:000403d1       ?state_case_flag@?$output_processor@DV?$string_output_adapter@D@__crt_stdio_output@@V?$positional_parameter_base@DV?$string_output_adapter@D@__crt_stdio_output@@@2@@__crt_stdio_output@@AAE_NXZ 100413d1 f i libucrt:output.obj
 0001:0004041d       ?state_case_flag@?$output_processor@DV?$string_output_adapter@D@__crt_stdio_output@@V?$standard_base@DV?$string_output_adapter@D@__crt_stdio_output@@@2@@__crt_stdio_output@@AAE_NXZ 1004141d f i libucrt:output.obj
 0001:00040469       ?state_case_flag@?$output_processor@_WV?$stream_output_adapter@_W@__crt_stdio_output@@V?$format_validation_base@_WV?$stream_output_adapter@_W@__crt_stdio_output@@@2@@__crt_stdio_output@@AAE_NXZ 10041469 f i libucrt:output.obj
 0001:000404b5       ?state_case_flag@?$output_processor@_WV?$stream_output_adapter@_W@__crt_stdio_output@@V?$positional_parameter_base@_WV?$stream_output_adapter@_W@__crt_stdio_output@@@2@@__crt_stdio_output@@AAE_NXZ 100414b5 f i libucrt:output.obj
 0001:00040501       ?state_case_flag@?$output_processor@_WV?$stream_output_adapter@_W@__crt_stdio_output@@V?$standard_base@_WV?$stream_output_adapter@_W@__crt_stdio_output@@@2@@__crt_stdio_output@@AAE_NXZ 10041501 f i libucrt:output.obj
 0001:0004054d       ?state_case_flag@?$output_processor@_WV?$string_output_adapter@_W@__crt_stdio_output@@V?$format_validation_base@_WV?$string_output_adapter@_W@__crt_stdio_output@@@2@@__crt_stdio_output@@AAE_NXZ 1004154d f i libucrt:output.obj
 0001:00040599       ?state_case_flag@?$output_processor@_WV?$string_output_adapter@_W@__crt_stdio_output@@V?$positional_parameter_base@_WV?$string_output_adapter@_W@__crt_stdio_output@@@2@@__crt_stdio_output@@AAE_NXZ 10041599 f i libucrt:output.obj
 0001:000405e5       ?state_case_flag@?$output_processor@_WV?$string_output_adapter@_W@__crt_stdio_output@@V?$standard_base@_WV?$string_output_adapter@_W@__crt_stdio_output@@@2@@__crt_stdio_output@@AAE_NXZ 100415e5 f i libucrt:output.obj
 0001:00040631       ?state_case_normal@?$output_processor@DV?$stream_output_adapter@D@__crt_stdio_output@@V?$format_validation_base@DV?$stream_output_adapter@D@__crt_stdio_output@@@2@@__crt_stdio_output@@AAE_NXZ 10041631 f i libucrt:output.obj
 0001:00040657       ?state_case_normal@?$output_processor@DV?$stream_output_adapter@D@__crt_stdio_output@@V?$positional_parameter_base@DV?$stream_output_adapter@D@__crt_stdio_output@@@2@@__crt_stdio_output@@AAE_NXZ 10041657 f i libucrt:output.obj
 0001:00040694       ?state_case_normal@?$output_processor@DV?$stream_output_adapter@D@__crt_stdio_output@@V?$standard_base@DV?$stream_output_adapter@D@__crt_stdio_output@@@2@@__crt_stdio_output@@AAE_NXZ 10041694 f i libucrt:output.obj
 0001:000406ba       ?state_case_normal@?$output_processor@DV?$string_output_adapter@D@__crt_stdio_output@@V?$format_validation_base@DV?$string_output_adapter@D@__crt_stdio_output@@@2@@__crt_stdio_output@@AAE_NXZ 100416ba f i libucrt:output.obj
 0001:000406e0       ?state_case_normal@?$output_processor@DV?$string_output_adapter@D@__crt_stdio_output@@V?$positional_parameter_base@DV?$string_output_adapter@D@__crt_stdio_output@@@2@@__crt_stdio_output@@AAE_NXZ 100416e0 f i libucrt:output.obj
 0001:0004071d       ?state_case_normal@?$output_processor@DV?$string_output_adapter@D@__crt_stdio_output@@V?$standard_base@DV?$string_output_adapter@D@__crt_stdio_output@@@2@@__crt_stdio_output@@AAE_NXZ 1004171d f i libucrt:output.obj
 0001:00040743       ?state_case_normal@?$output_processor@_WV?$stream_output_adapter@_W@__crt_stdio_output@@V?$format_validation_base@_WV?$stream_output_adapter@_W@__crt_stdio_output@@@2@@__crt_stdio_output@@AAE_NXZ 10041743 f i libucrt:output.obj
 0001:00040769       ?state_case_normal@?$output_processor@_WV?$stream_output_adapter@_W@__crt_stdio_output@@V?$positional_parameter_base@_WV?$stream_output_adapter@_W@__crt_stdio_output@@@2@@__crt_stdio_output@@AAE_NXZ 10041769 f i libucrt:output.obj
 0001:000407a6       ?state_case_normal@?$output_processor@_WV?$stream_output_adapter@_W@__crt_stdio_output@@V?$standard_base@_WV?$stream_output_adapter@_W@__crt_stdio_output@@@2@@__crt_stdio_output@@AAE_NXZ 100417a6 f i libucrt:output.obj
 0001:000407cc       ?state_case_normal@?$output_processor@_WV?$string_output_adapter@_W@__crt_stdio_output@@V?$format_validation_base@_WV?$string_output_adapter@_W@__crt_stdio_output@@@2@@__crt_stdio_output@@AAE_NXZ 100417cc f i libucrt:output.obj
 0001:000407f2       ?state_case_normal@?$output_processor@_WV?$string_output_adapter@_W@__crt_stdio_output@@V?$positional_parameter_base@_WV?$string_output_adapter@_W@__crt_stdio_output@@@2@@__crt_stdio_output@@AAE_NXZ 100417f2 f i libucrt:output.obj
 0001:0004082f       ?state_case_normal@?$output_processor@_WV?$string_output_adapter@_W@__crt_stdio_output@@V?$standard_base@_WV?$string_output_adapter@_W@__crt_stdio_output@@@2@@__crt_stdio_output@@AAE_NXZ 1004182f f i libucrt:output.obj
 0001:00040855       ?state_case_normal_common@?$output_processor@DV?$stream_output_adapter@D@__crt_stdio_output@@V?$format_validation_base@DV?$stream_output_adapter@D@__crt_stdio_output@@@2@@__crt_stdio_output@@AAE_NXZ 10041855 f i libucrt:output.obj
 0001:00040889       ?state_case_normal_common@?$output_processor@DV?$stream_output_adapter@D@__crt_stdio_output@@V?$positional_parameter_base@DV?$stream_output_adapter@D@__crt_stdio_output@@@2@@__crt_stdio_output@@AAE_NXZ 10041889 f i libucrt:output.obj
 0001:000408bd       ?state_case_normal_common@?$output_processor@DV?$stream_output_adapter@D@__crt_stdio_output@@V?$standard_base@DV?$stream_output_adapter@D@__crt_stdio_output@@@2@@__crt_stdio_output@@AAE_NXZ 100418bd f i libucrt:output.obj
 0001:000408f1       ?state_case_normal_common@?$output_processor@DV?$string_output_adapter@D@__crt_stdio_output@@V?$format_validation_base@DV?$string_output_adapter@D@__crt_stdio_output@@@2@@__crt_stdio_output@@AAE_NXZ 100418f1 f i libucrt:output.obj
 0001:00040925       ?state_case_normal_common@?$output_processor@DV?$string_output_adapter@D@__crt_stdio_output@@V?$positional_parameter_base@DV?$string_output_adapter@D@__crt_stdio_output@@@2@@__crt_stdio_output@@AAE_NXZ 10041925 f i libucrt:output.obj
 0001:00040959       ?state_case_normal_common@?$output_processor@DV?$string_output_adapter@D@__crt_stdio_output@@V?$standard_base@DV?$string_output_adapter@D@__crt_stdio_output@@@2@@__crt_stdio_output@@AAE_NXZ 10041959 f i libucrt:output.obj
 0001:0004098d       ?state_case_normal_common@?$output_processor@_WV?$stream_output_adapter@_W@__crt_stdio_output@@V?$format_validation_base@_WV?$stream_output_adapter@_W@__crt_stdio_output@@@2@@__crt_stdio_output@@AAE_NXZ 1004198d f i libucrt:output.obj
 0001:000409ae       ?state_case_normal_common@?$output_processor@_WV?$stream_output_adapter@_W@__crt_stdio_output@@V?$positional_parameter_base@_WV?$stream_output_adapter@_W@__crt_stdio_output@@@2@@__crt_stdio_output@@AAE_NXZ 100419ae f i libucrt:output.obj
 0001:000409cf       ?state_case_normal_common@?$output_processor@_WV?$stream_output_adapter@_W@__crt_stdio_output@@V?$standard_base@_WV?$stream_output_adapter@_W@__crt_stdio_output@@@2@@__crt_stdio_output@@AAE_NXZ 100419cf f i libucrt:output.obj
 0001:000409f0       ?state_case_normal_common@?$output_processor@_WV?$string_output_adapter@_W@__crt_stdio_output@@V?$format_validation_base@_WV?$string_output_adapter@_W@__crt_stdio_output@@@2@@__crt_stdio_output@@AAE_NXZ 100419f0 f i libucrt:output.obj
 0001:00040a11       ?state_case_normal_common@?$output_processor@_WV?$string_output_adapter@_W@__crt_stdio_output@@V?$positional_parameter_base@_WV?$string_output_adapter@_W@__crt_stdio_output@@@2@@__crt_stdio_output@@AAE_NXZ 10041a11 f i libucrt:output.obj
 0001:00040a32       ?state_case_normal_common@?$output_processor@_WV?$string_output_adapter@_W@__crt_stdio_output@@V?$standard_base@_WV?$string_output_adapter@_W@__crt_stdio_output@@@2@@__crt_stdio_output@@AAE_NXZ 10041a32 f i libucrt:output.obj
 0001:00040a53       ?state_case_normal_tchar@?$output_processor@DV?$stream_output_adapter@D@__crt_stdio_output@@V?$format_validation_base@DV?$stream_output_adapter@D@__crt_stdio_output@@@2@@__crt_stdio_output@@AAE_ND@Z 10041a53 f i libucrt:output.obj
 0001:00040acc       ?state_case_normal_tchar@?$output_processor@DV?$stream_output_adapter@D@__crt_stdio_output@@V?$positional_parameter_base@DV?$stream_output_adapter@D@__crt_stdio_output@@@2@@__crt_stdio_output@@AAE_ND@Z 10041acc f i libucrt:output.obj
 0001:00040b45       ?state_case_normal_tchar@?$output_processor@DV?$stream_output_adapter@D@__crt_stdio_output@@V?$standard_base@DV?$stream_output_adapter@D@__crt_stdio_output@@@2@@__crt_stdio_output@@AAE_ND@Z 10041b45 f i libucrt:output.obj
 0001:00040bbe       ?state_case_normal_tchar@?$output_processor@DV?$string_output_adapter@D@__crt_stdio_output@@V?$format_validation_base@DV?$string_output_adapter@D@__crt_stdio_output@@@2@@__crt_stdio_output@@AAE_ND@Z 10041bbe f i libucrt:output.obj
 0001:00040c37       ?state_case_normal_tchar@?$output_processor@DV?$string_output_adapter@D@__crt_stdio_output@@V?$positional_parameter_base@DV?$string_output_adapter@D@__crt_stdio_output@@@2@@__crt_stdio_output@@AAE_ND@Z 10041c37 f i libucrt:output.obj
 0001:00040cb0       ?state_case_normal_tchar@?$output_processor@DV?$string_output_adapter@D@__crt_stdio_output@@V?$standard_base@DV?$string_output_adapter@D@__crt_stdio_output@@@2@@__crt_stdio_output@@AAE_ND@Z 10041cb0 f i libucrt:output.obj
 0001:00040d29       ?state_case_normal_tchar@?$output_processor@_WV?$stream_output_adapter@_W@__crt_stdio_output@@V?$format_validation_base@_WV?$stream_output_adapter@_W@__crt_stdio_output@@@2@@__crt_stdio_output@@AAE_N_W@Z 10041d29 f i libucrt:output.obj
 0001:00040d34       ?state_case_normal_tchar@?$output_processor@_WV?$stream_output_adapter@_W@__crt_stdio_output@@V?$positional_parameter_base@_WV?$stream_output_adapter@_W@__crt_stdio_output@@@2@@__crt_stdio_output@@AAE_N_W@Z 10041d34 f i libucrt:output.obj
 0001:00040d3f       ?state_case_normal_tchar@?$output_processor@_WV?$stream_output_adapter@_W@__crt_stdio_output@@V?$standard_base@_WV?$stream_output_adapter@_W@__crt_stdio_output@@@2@@__crt_stdio_output@@AAE_N_W@Z 10041d3f f i libucrt:output.obj
 0001:00040d4a       ?state_case_normal_tchar@?$output_processor@_WV?$string_output_adapter@_W@__crt_stdio_output@@V?$format_validation_base@_WV?$string_output_adapter@_W@__crt_stdio_output@@@2@@__crt_stdio_output@@AAE_N_W@Z 10041d4a f i libucrt:output.obj
 0001:00040d55       ?state_case_normal_tchar@?$output_processor@_WV?$string_output_adapter@_W@__crt_stdio_output@@V?$positional_parameter_base@_WV?$string_output_adapter@_W@__crt_stdio_output@@@2@@__crt_stdio_output@@AAE_N_W@Z 10041d55 f i libucrt:output.obj
 0001:00040d60       ?state_case_normal_tchar@?$output_processor@_WV?$string_output_adapter@_W@__crt_stdio_output@@V?$standard_base@_WV?$string_output_adapter@_W@__crt_stdio_output@@@2@@__crt_stdio_output@@AAE_N_W@Z 10041d60 f i libucrt:output.obj
 0001:00040d6b       ?state_case_percent@?$output_processor@DV?$stream_output_adapter@D@__crt_stdio_output@@V?$format_validation_base@DV?$stream_output_adapter@D@__crt_stdio_output@@@2@@__crt_stdio_output@@AAE_NXZ 10041d6b f i libucrt:output.obj
 0001:00040d89       ?state_case_percent@?$output_processor@DV?$stream_output_adapter@D@__crt_stdio_output@@V?$positional_parameter_base@DV?$stream_output_adapter@D@__crt_stdio_output@@@2@@__crt_stdio_output@@AAE_NXZ 10041d89 f i libucrt:output.obj
 0001:00040da7       ?state_case_percent@?$output_processor@DV?$stream_output_adapter@D@__crt_stdio_output@@V?$standard_base@DV?$stream_output_adapter@D@__crt_stdio_output@@@2@@__crt_stdio_output@@AAE_NXZ 10041da7 f i libucrt:output.obj
 0001:00040dc5       ?state_case_percent@?$output_processor@DV?$string_output_adapter@D@__crt_stdio_output@@V?$format_validation_base@DV?$string_output_adapter@D@__crt_stdio_output@@@2@@__crt_stdio_output@@AAE_NXZ 10041dc5 f i libucrt:output.obj
 0001:00040de3       ?state_case_percent@?$output_processor@DV?$string_output_adapter@D@__crt_stdio_output@@V?$positional_parameter_base@DV?$string_output_adapter@D@__crt_stdio_output@@@2@@__crt_stdio_output@@AAE_NXZ 10041de3 f i libucrt:output.obj
 0001:00040e01       ?state_case_percent@?$output_processor@DV?$string_output_adapter@D@__crt_stdio_output@@V?$standard_base@DV?$string_output_adapter@D@__crt_stdio_output@@@2@@__crt_stdio_output@@AAE_NXZ 10041e01 f i libucrt:output.obj
 0001:00040e1f       ?state_case_percent@?$output_processor@_WV?$stream_output_adapter@_W@__crt_stdio_output@@V?$format_validation_base@_WV?$stream_output_adapter@_W@__crt_stdio_output@@@2@@__crt_stdio_output@@AAE_NXZ 10041e1f f i libucrt:output.obj
 0001:00040e3d       ?state_case_percent@?$output_processor@_WV?$stream_output_adapter@_W@__crt_stdio_output@@V?$positional_parameter_base@_WV?$stream_output_adapter@_W@__crt_stdio_output@@@2@@__crt_stdio_output@@AAE_NXZ 10041e3d f i libucrt:output.obj
 0001:00040e5b       ?state_case_percent@?$output_processor@_WV?$stream_output_adapter@_W@__crt_stdio_output@@V?$standard_base@_WV?$stream_output_adapter@_W@__crt_stdio_output@@@2@@__crt_stdio_output@@AAE_NXZ 10041e5b f i libucrt:output.obj
 0001:00040e79       ?state_case_percent@?$output_processor@_WV?$string_output_adapter@_W@__crt_stdio_output@@V?$format_validation_base@_WV?$string_output_adapter@_W@__crt_stdio_output@@@2@@__crt_stdio_output@@AAE_NXZ 10041e79 f i libucrt:output.obj
 0001:00040e97       ?state_case_percent@?$output_processor@_WV?$string_output_adapter@_W@__crt_stdio_output@@V?$positional_parameter_base@_WV?$string_output_adapter@_W@__crt_stdio_output@@@2@@__crt_stdio_output@@AAE_NXZ 10041e97 f i libucrt:output.obj
 0001:00040eb5       ?state_case_percent@?$output_processor@_WV?$string_output_adapter@_W@__crt_stdio_output@@V?$standard_base@_WV?$string_output_adapter@_W@__crt_stdio_output@@@2@@__crt_stdio_output@@AAE_NXZ 10041eb5 f i libucrt:output.obj
 0001:00040ed3       ?state_case_precision@?$output_processor@DV?$stream_output_adapter@D@__crt_stdio_output@@V?$format_validation_base@DV?$stream_output_adapter@D@__crt_stdio_output@@@2@@__crt_stdio_output@@AAE_NXZ 10041ed3 f i libucrt:output.obj
 0001:00040f05       ?state_case_precision@?$output_processor@DV?$stream_output_adapter@D@__crt_stdio_output@@V?$positional_parameter_base@DV?$stream_output_adapter@D@__crt_stdio_output@@@2@@__crt_stdio_output@@AAE_NXZ 10041f05 f i libucrt:output.obj
 0001:00040f4d       ?state_case_precision@?$output_processor@DV?$stream_output_adapter@D@__crt_stdio_output@@V?$standard_base@DV?$stream_output_adapter@D@__crt_stdio_output@@@2@@__crt_stdio_output@@AAE_NXZ 10041f4d f i libucrt:output.obj
 0001:00040f7f       ?state_case_precision@?$output_processor@DV?$string_output_adapter@D@__crt_stdio_output@@V?$format_validation_base@DV?$string_output_adapter@D@__crt_stdio_output@@@2@@__crt_stdio_output@@AAE_NXZ 10041f7f f i libucrt:output.obj
 0001:00040fb1       ?state_case_precision@?$output_processor@DV?$string_output_adapter@D@__crt_stdio_output@@V?$positional_parameter_base@DV?$string_output_adapter@D@__crt_stdio_output@@@2@@__crt_stdio_output@@AAE_NXZ 10041fb1 f i libucrt:output.obj
 0001:00040ff9       ?state_case_precision@?$output_processor@DV?$string_output_adapter@D@__crt_stdio_output@@V?$standard_base@DV?$string_output_adapter@D@__crt_stdio_output@@@2@@__crt_stdio_output@@AAE_NXZ 10041ff9 f i libucrt:output.obj
 0001:0004102b       ?state_case_precision@?$output_processor@_WV?$stream_output_adapter@_W@__crt_stdio_output@@V?$format_validation_base@_WV?$stream_output_adapter@_W@__crt_stdio_output@@@2@@__crt_stdio_output@@AAE_NXZ 1004202b f i libucrt:output.obj
 0001:0004105e       ?state_case_precision@?$output_processor@_WV?$stream_output_adapter@_W@__crt_stdio_output@@V?$positional_parameter_base@_WV?$stream_output_adapter@_W@__crt_stdio_output@@@2@@__crt_stdio_output@@AAE_NXZ 1004205e f i libucrt:output.obj
 0001:000410a7       ?state_case_precision@?$output_processor@_WV?$stream_output_adapter@_W@__crt_stdio_output@@V?$standard_base@_WV?$stream_output_adapter@_W@__crt_stdio_output@@@2@@__crt_stdio_output@@AAE_NXZ 100420a7 f i libucrt:output.obj
 0001:000410da       ?state_case_precision@?$output_processor@_WV?$string_output_adapter@_W@__crt_stdio_output@@V?$format_validation_base@_WV?$string_output_adapter@_W@__crt_stdio_output@@@2@@__crt_stdio_output@@AAE_NXZ 100420da f i libucrt:output.obj
 0001:0004110d       ?state_case_precision@?$output_processor@_WV?$string_output_adapter@_W@__crt_stdio_output@@V?$positional_parameter_base@_WV?$string_output_adapter@_W@__crt_stdio_output@@@2@@__crt_stdio_output@@AAE_NXZ 1004210d f i libucrt:output.obj
 0001:00041156       ?state_case_precision@?$output_processor@_WV?$string_output_adapter@_W@__crt_stdio_output@@V?$standard_base@_WV?$string_output_adapter@_W@__crt_stdio_output@@@2@@__crt_stdio_output@@AAE_NXZ 10042156 f i libucrt:output.obj
 0001:00041189       ?state_case_size@?$output_processor@DV?$stream_output_adapter@D@__crt_stdio_output@@V?$format_validation_base@DV?$stream_output_adapter@D@__crt_stdio_output@@@2@@__crt_stdio_output@@AAE_NXZ 10042189 f i libucrt:output.obj
 0001:0004134c       ?state_case_size@?$output_processor@DV?$stream_output_adapter@D@__crt_stdio_output@@V?$positional_parameter_base@DV?$stream_output_adapter@D@__crt_stdio_output@@@2@@__crt_stdio_output@@AAE_NXZ 1004234c f i libucrt:output.obj
 0001:0004150f       ?state_case_size@?$output_processor@DV?$stream_output_adapter@D@__crt_stdio_output@@V?$standard_base@DV?$stream_output_adapter@D@__crt_stdio_output@@@2@@__crt_stdio_output@@AAE_NXZ 1004250f f i libucrt:output.obj
 0001:000416d2       ?state_case_size@?$output_processor@DV?$string_output_adapter@D@__crt_stdio_output@@V?$format_validation_base@DV?$string_output_adapter@D@__crt_stdio_output@@@2@@__crt_stdio_output@@AAE_NXZ 100426d2 f i libucrt:output.obj
 0001:00041895       ?state_case_size@?$output_processor@DV?$string_output_adapter@D@__crt_stdio_output@@V?$positional_parameter_base@DV?$string_output_adapter@D@__crt_stdio_output@@@2@@__crt_stdio_output@@AAE_NXZ 10042895 f i libucrt:output.obj
 0001:00041a58       ?state_case_size@?$output_processor@DV?$string_output_adapter@D@__crt_stdio_output@@V?$standard_base@DV?$string_output_adapter@D@__crt_stdio_output@@@2@@__crt_stdio_output@@AAE_NXZ 10042a58 f i libucrt:output.obj
 0001:00041c1b       ?state_case_size@?$output_processor@_WV?$stream_output_adapter@_W@__crt_stdio_output@@V?$format_validation_base@_WV?$stream_output_adapter@_W@__crt_stdio_output@@@2@@__crt_stdio_output@@AAE_NXZ 10042c1b f i libucrt:output.obj
 0001:00041df6       ?state_case_size@?$output_processor@_WV?$stream_output_adapter@_W@__crt_stdio_output@@V?$positional_parameter_base@_WV?$stream_output_adapter@_W@__crt_stdio_output@@@2@@__crt_stdio_output@@AAE_NXZ 10042df6 f i libucrt:output.obj
 0001:00041fd1       ?state_case_size@?$output_processor@_WV?$stream_output_adapter@_W@__crt_stdio_output@@V?$standard_base@_WV?$stream_output_adapter@_W@__crt_stdio_output@@@2@@__crt_stdio_output@@AAE_NXZ 10042fd1 f i libucrt:output.obj
 0001:000421ac       ?state_case_size@?$output_processor@_WV?$string_output_adapter@_W@__crt_stdio_output@@V?$format_validation_base@_WV?$string_output_adapter@_W@__crt_stdio_output@@@2@@__crt_stdio_output@@AAE_NXZ 100431ac f i libucrt:output.obj
 0001:00042387       ?state_case_size@?$output_processor@_WV?$string_output_adapter@_W@__crt_stdio_output@@V?$positional_parameter_base@_WV?$string_output_adapter@_W@__crt_stdio_output@@@2@@__crt_stdio_output@@AAE_NXZ 10043387 f i libucrt:output.obj
 0001:00042562       ?state_case_size@?$output_processor@_WV?$string_output_adapter@_W@__crt_stdio_output@@V?$standard_base@_WV?$string_output_adapter@_W@__crt_stdio_output@@@2@@__crt_stdio_output@@AAE_NXZ 10043562 f i libucrt:output.obj
 0001:0004273d       ?state_case_type@?$output_processor@DV?$stream_output_adapter@D@__crt_stdio_output@@V?$format_validation_base@DV?$stream_output_adapter@D@__crt_stdio_output@@@2@@__crt_stdio_output@@AAE_NXZ 1004373d f i libucrt:output.obj
 0001:000429f7       ?state_case_type@?$output_processor@DV?$stream_output_adapter@D@__crt_stdio_output@@V?$positional_parameter_base@DV?$stream_output_adapter@D@__crt_stdio_output@@@2@@__crt_stdio_output@@AAE_NXZ 100439f7 f i libucrt:output.obj
 0001:00042cbf       ?state_case_type@?$output_processor@DV?$stream_output_adapter@D@__crt_stdio_output@@V?$standard_base@DV?$stream_output_adapter@D@__crt_stdio_output@@@2@@__crt_stdio_output@@AAE_NXZ 10043cbf f i libucrt:output.obj
 0001:00042f79       ?state_case_type@?$output_processor@DV?$string_output_adapter@D@__crt_stdio_output@@V?$format_validation_base@DV?$string_output_adapter@D@__crt_stdio_output@@@2@@__crt_stdio_output@@AAE_NXZ 10043f79 f i libucrt:output.obj
 0001:00043233       ?state_case_type@?$output_processor@DV?$string_output_adapter@D@__crt_stdio_output@@V?$positional_parameter_base@DV?$string_output_adapter@D@__crt_stdio_output@@@2@@__crt_stdio_output@@AAE_NXZ 10044233 f i libucrt:output.obj
 0001:000434fb       ?state_case_type@?$output_processor@DV?$string_output_adapter@D@__crt_stdio_output@@V?$standard_base@DV?$string_output_adapter@D@__crt_stdio_output@@@2@@__crt_stdio_output@@AAE_NXZ 100444fb f i libucrt:output.obj
 0001:000437b5       ?state_case_type@?$output_processor@_WV?$stream_output_adapter@_W@__crt_stdio_output@@V?$format_validation_base@_WV?$stream_output_adapter@_W@__crt_stdio_output@@@2@@__crt_stdio_output@@AAE_NXZ 100447b5 f i libucrt:output.obj
 0001:00043aa9       ?state_case_type@?$output_processor@_WV?$stream_output_adapter@_W@__crt_stdio_output@@V?$positional_parameter_base@_WV?$stream_output_adapter@_W@__crt_stdio_output@@@2@@__crt_stdio_output@@AAE_NXZ 10044aa9 f i libucrt:output.obj
 0001:00043db0       ?state_case_type@?$output_processor@_WV?$stream_output_adapter@_W@__crt_stdio_output@@V?$standard_base@_WV?$stream_output_adapter@_W@__crt_stdio_output@@@2@@__crt_stdio_output@@AAE_NXZ 10044db0 f i libucrt:output.obj
 0001:000440a4       ?state_case_type@?$output_processor@_WV?$string_output_adapter@_W@__crt_stdio_output@@V?$format_validation_base@_WV?$string_output_adapter@_W@__crt_stdio_output@@@2@@__crt_stdio_output@@AAE_NXZ 100450a4 f i libucrt:output.obj
 0001:00044398       ?state_case_type@?$output_processor@_WV?$string_output_adapter@_W@__crt_stdio_output@@V?$positional_parameter_base@_WV?$string_output_adapter@_W@__crt_stdio_output@@@2@@__crt_stdio_output@@AAE_NXZ 10045398 f i libucrt:output.obj
 0001:0004469f       ?state_case_type@?$output_processor@_WV?$string_output_adapter@_W@__crt_stdio_output@@V?$standard_base@_WV?$string_output_adapter@_W@__crt_stdio_output@@@2@@__crt_stdio_output@@AAE_NXZ 1004569f f i libucrt:output.obj
 0001:00044993       ?state_case_width@?$output_processor@DV?$stream_output_adapter@D@__crt_stdio_output@@V?$format_validation_base@DV?$stream_output_adapter@D@__crt_stdio_output@@@2@@__crt_stdio_output@@AAE_NXZ 10045993 f i libucrt:output.obj
 0001:000449c8       ?state_case_width@?$output_processor@DV?$stream_output_adapter@D@__crt_stdio_output@@V?$positional_parameter_base@DV?$stream_output_adapter@D@__crt_stdio_output@@@2@@__crt_stdio_output@@AAE_NXZ 100459c8 f i libucrt:output.obj
 0001:00044a18       ?state_case_width@?$output_processor@DV?$stream_output_adapter@D@__crt_stdio_output@@V?$standard_base@DV?$stream_output_adapter@D@__crt_stdio_output@@@2@@__crt_stdio_output@@AAE_NXZ 10045a18 f i libucrt:output.obj
 0001:00044a4d       ?state_case_width@?$output_processor@DV?$string_output_adapter@D@__crt_stdio_output@@V?$format_validation_base@DV?$string_output_adapter@D@__crt_stdio_output@@@2@@__crt_stdio_output@@AAE_NXZ 10045a4d f i libucrt:output.obj
 0001:00044a82       ?state_case_width@?$output_processor@DV?$string_output_adapter@D@__crt_stdio_output@@V?$positional_parameter_base@DV?$string_output_adapter@D@__crt_stdio_output@@@2@@__crt_stdio_output@@AAE_NXZ 10045a82 f i libucrt:output.obj
 0001:00044ad2       ?state_case_width@?$output_processor@DV?$string_output_adapter@D@__crt_stdio_output@@V?$standard_base@DV?$string_output_adapter@D@__crt_stdio_output@@@2@@__crt_stdio_output@@AAE_NXZ 10045ad2 f i libucrt:output.obj
 0001:00044b07       ?state_case_width@?$output_processor@_WV?$stream_output_adapter@_W@__crt_stdio_output@@V?$format_validation_base@_WV?$stream_output_adapter@_W@__crt_stdio_output@@@2@@__crt_stdio_output@@AAE_NXZ 10045b07 f i libucrt:output.obj
 0001:00044b3e       ?state_case_width@?$output_processor@_WV?$stream_output_adapter@_W@__crt_stdio_output@@V?$positional_parameter_base@_WV?$stream_output_adapter@_W@__crt_stdio_output@@@2@@__crt_stdio_output@@AAE_NXZ 10045b3e f i libucrt:output.obj
 0001:00044b8f       ?state_case_width@?$output_processor@_WV?$stream_output_adapter@_W@__crt_stdio_output@@V?$standard_base@_WV?$stream_output_adapter@_W@__crt_stdio_output@@@2@@__crt_stdio_output@@AAE_NXZ 10045b8f f i libucrt:output.obj
 0001:00044bc6       ?state_case_width@?$output_processor@_WV?$string_output_adapter@_W@__crt_stdio_output@@V?$format_validation_base@_WV?$string_output_adapter@_W@__crt_stdio_output@@@2@@__crt_stdio_output@@AAE_NXZ 10045bc6 f i libucrt:output.obj
 0001:00044bfd       ?state_case_width@?$output_processor@_WV?$string_output_adapter@_W@__crt_stdio_output@@V?$positional_parameter_base@_WV?$string_output_adapter@_W@__crt_stdio_output@@@2@@__crt_stdio_output@@AAE_NXZ 10045bfd f i libucrt:output.obj
 0001:00044c4e       ?state_case_width@?$output_processor@_WV?$string_output_adapter@_W@__crt_stdio_output@@V?$standard_base@_WV?$string_output_adapter@_W@__crt_stdio_output@@@2@@__crt_stdio_output@@AAE_NXZ 10045c4e f i libucrt:output.obj
 0001:00044c85       ?state_count@?$format_validation_base@DV?$stream_output_adapter@D@__crt_stdio_output@@@__crt_stdio_output@@KAIXZ 10045c85 f i libucrt:output.obj
 0001:00044c89       ?state_count@?$format_validation_base@DV?$string_output_adapter@D@__crt_stdio_output@@@__crt_stdio_output@@KAIXZ 10045c89 f i libucrt:output.obj
 0001:00044c8d       ?state_count@?$format_validation_base@_WV?$stream_output_adapter@_W@__crt_stdio_output@@@__crt_stdio_output@@KAIXZ 10045c8d f i libucrt:output.obj
 0001:00044c91       ?state_count@?$format_validation_base@_WV?$string_output_adapter@_W@__crt_stdio_output@@@__crt_stdio_output@@KAIXZ 10045c91 f i libucrt:output.obj
 0001:00044c95       ?state_count@?$standard_base@DV?$stream_output_adapter@D@__crt_stdio_output@@@__crt_stdio_output@@KAIXZ 10045c95 f i libucrt:output.obj
 0001:00044c99       ?state_count@?$standard_base@DV?$string_output_adapter@D@__crt_stdio_output@@@__crt_stdio_output@@KAIXZ 10045c99 f i libucrt:output.obj
 0001:00044c9d       ?state_count@?$standard_base@_WV?$stream_output_adapter@_W@__crt_stdio_output@@@__crt_stdio_output@@KAIXZ 10045c9d f i libucrt:output.obj
 0001:00044ca1       ?state_count@?$standard_base@_WV?$string_output_adapter@_W@__crt_stdio_output@@@__crt_stdio_output@@KAIXZ 10045ca1 f i libucrt:output.obj
 0001:00044ca5       ?state_transition_table@?$format_validation_base@DV?$stream_output_adapter@D@__crt_stdio_output@@@__crt_stdio_output@@KAPBEXZ 10045ca5 f i libucrt:output.obj
 0001:00044cab       ?state_transition_table@?$format_validation_base@DV?$string_output_adapter@D@__crt_stdio_output@@@__crt_stdio_output@@KAPBEXZ 10045cab f i libucrt:output.obj
 0001:00044cb1       ?state_transition_table@?$format_validation_base@_WV?$stream_output_adapter@_W@__crt_stdio_output@@@__crt_stdio_output@@KAPBEXZ 10045cb1 f i libucrt:output.obj
 0001:00044cb7       ?state_transition_table@?$format_validation_base@_WV?$string_output_adapter@_W@__crt_stdio_output@@@__crt_stdio_output@@KAPBEXZ 10045cb7 f i libucrt:output.obj
 0001:00044cbd       ?state_transition_table@?$standard_base@DV?$stream_output_adapter@D@__crt_stdio_output@@@__crt_stdio_output@@KAPBEXZ 10045cbd f i libucrt:output.obj
 0001:00044cc3       ?state_transition_table@?$standard_base@DV?$string_output_adapter@D@__crt_stdio_output@@@__crt_stdio_output@@KAPBEXZ 10045cc3 f i libucrt:output.obj
 0001:00044cc9       ?state_transition_table@?$standard_base@_WV?$stream_output_adapter@_W@__crt_stdio_output@@@__crt_stdio_output@@KAPBEXZ 10045cc9 f i libucrt:output.obj
 0001:00044ccf       ?state_transition_table@?$standard_base@_WV?$string_output_adapter@_W@__crt_stdio_output@@@__crt_stdio_output@@KAPBEXZ 10045ccf f i libucrt:output.obj
 0001:00044cd5       ?to_integer_size@__crt_stdio_output@@YAIW4length_modifier@1@@Z 10045cd5 f i libucrt:output.obj
 0001:00044d48       ?type_case_X@?$output_processor@DV?$stream_output_adapter@D@__crt_stdio_output@@V?$format_validation_base@DV?$stream_output_adapter@D@__crt_stdio_output@@@2@@__crt_stdio_output@@AAE_NXZ 10045d48 f i libucrt:output.obj
 0001:00044d54       ?type_case_X@?$output_processor@DV?$stream_output_adapter@D@__crt_stdio_output@@V?$positional_parameter_base@DV?$stream_output_adapter@D@__crt_stdio_output@@@2@@__crt_stdio_output@@AAE_NXZ 10045d54 f i libucrt:output.obj
 0001:00044d60       ?type_case_X@?$output_processor@DV?$stream_output_adapter@D@__crt_stdio_output@@V?$standard_base@DV?$stream_output_adapter@D@__crt_stdio_output@@@2@@__crt_stdio_output@@AAE_NXZ 10045d60 f i libucrt:output.obj
 0001:00044d6c       ?type_case_X@?$output_processor@DV?$string_output_adapter@D@__crt_stdio_output@@V?$format_validation_base@DV?$string_output_adapter@D@__crt_stdio_output@@@2@@__crt_stdio_output@@AAE_NXZ 10045d6c f i libucrt:output.obj
 0001:00044d78       ?type_case_X@?$output_processor@DV?$string_output_adapter@D@__crt_stdio_output@@V?$positional_parameter_base@DV?$string_output_adapter@D@__crt_stdio_output@@@2@@__crt_stdio_output@@AAE_NXZ 10045d78 f i libucrt:output.obj
 0001:00044d84       ?type_case_X@?$output_processor@DV?$string_output_adapter@D@__crt_stdio_output@@V?$standard_base@DV?$string_output_adapter@D@__crt_stdio_output@@@2@@__crt_stdio_output@@AAE_NXZ 10045d84 f i libucrt:output.obj
 0001:00044d90       ?type_case_X@?$output_processor@_WV?$stream_output_adapter@_W@__crt_stdio_output@@V?$format_validation_base@_WV?$stream_output_adapter@_W@__crt_stdio_output@@@2@@__crt_stdio_output@@AAE_NXZ 10045d90 f i libucrt:output.obj
 0001:00044d9c       ?type_case_X@?$output_processor@_WV?$stream_output_adapter@_W@__crt_stdio_output@@V?$positional_parameter_base@_WV?$stream_output_adapter@_W@__crt_stdio_output@@@2@@__crt_stdio_output@@AAE_NXZ 10045d9c f i libucrt:output.obj
 0001:00044da8       ?type_case_X@?$output_processor@_WV?$stream_output_adapter@_W@__crt_stdio_output@@V?$standard_base@_WV?$stream_output_adapter@_W@__crt_stdio_output@@@2@@__crt_stdio_output@@AAE_NXZ 10045da8 f i libucrt:output.obj
 0001:00044db4       ?type_case_X@?$output_processor@_WV?$string_output_adapter@_W@__crt_stdio_output@@V?$format_validation_base@_WV?$string_output_adapter@_W@__crt_stdio_output@@@2@@__crt_stdio_output@@AAE_NXZ 10045db4 f i libucrt:output.obj
 0001:00044dc0       ?type_case_X@?$output_processor@_WV?$string_output_adapter@_W@__crt_stdio_output@@V?$positional_parameter_base@_WV?$string_output_adapter@_W@__crt_stdio_output@@@2@@__crt_stdio_output@@AAE_NXZ 10045dc0 f i libucrt:output.obj
 0001:00044dcc       ?type_case_X@?$output_processor@_WV?$string_output_adapter@_W@__crt_stdio_output@@V?$standard_base@_WV?$string_output_adapter@_W@__crt_stdio_output@@@2@@__crt_stdio_output@@AAE_NXZ 10045dcc f i libucrt:output.obj
 0001:00044dd8       ?type_case_Z@?$output_processor@DV?$stream_output_adapter@D@__crt_stdio_output@@V?$format_validation_base@DV?$stream_output_adapter@D@__crt_stdio_output@@@2@@__crt_stdio_output@@AAE_NXZ 10045dd8 f i libucrt:output.obj
 0001:00044e53       ?type_case_Z@?$output_processor@DV?$stream_output_adapter@D@__crt_stdio_output@@V?$positional_parameter_base@DV?$stream_output_adapter@D@__crt_stdio_output@@@2@@__crt_stdio_output@@AAE_NXZ 10045e53 f i libucrt:output.obj
 0001:00044ef1       ?type_case_Z@?$output_processor@DV?$stream_output_adapter@D@__crt_stdio_output@@V?$standard_base@DV?$stream_output_adapter@D@__crt_stdio_output@@@2@@__crt_stdio_output@@AAE_NXZ 10045ef1 f i libucrt:output.obj
 0001:00044f6c       ?type_case_Z@?$output_processor@DV?$string_output_adapter@D@__crt_stdio_output@@V?$format_validation_base@DV?$string_output_adapter@D@__crt_stdio_output@@@2@@__crt_stdio_output@@AAE_NXZ 10045f6c f i libucrt:output.obj
 0001:00044fe7       ?type_case_Z@?$output_processor@DV?$string_output_adapter@D@__crt_stdio_output@@V?$positional_parameter_base@DV?$string_output_adapter@D@__crt_stdio_output@@@2@@__crt_stdio_output@@AAE_NXZ 10045fe7 f i libucrt:output.obj
 0001:00045085       ?type_case_Z@?$output_processor@DV?$string_output_adapter@D@__crt_stdio_output@@V?$standard_base@DV?$string_output_adapter@D@__crt_stdio_output@@@2@@__crt_stdio_output@@AAE_NXZ 10046085 f i libucrt:output.obj
 0001:00045100       ?type_case_Z@?$output_processor@_WV?$stream_output_adapter@_W@__crt_stdio_output@@V?$format_validation_base@_WV?$stream_output_adapter@_W@__crt_stdio_output@@@2@@__crt_stdio_output@@AAE_NXZ 10046100 f i libucrt:output.obj
 0001:0004517b       ?type_case_Z@?$output_processor@_WV?$stream_output_adapter@_W@__crt_stdio_output@@V?$positional_parameter_base@_WV?$stream_output_adapter@_W@__crt_stdio_output@@@2@@__crt_stdio_output@@AAE_NXZ 1004617b f i libucrt:output.obj
 0001:00045219       ?type_case_Z@?$output_processor@_WV?$stream_output_adapter@_W@__crt_stdio_output@@V?$standard_base@_WV?$stream_output_adapter@_W@__crt_stdio_output@@@2@@__crt_stdio_output@@AAE_NXZ 10046219 f i libucrt:output.obj
 0001:00045294       ?type_case_Z@?$output_processor@_WV?$string_output_adapter@_W@__crt_stdio_output@@V?$format_validation_base@_WV?$string_output_adapter@_W@__crt_stdio_output@@@2@@__crt_stdio_output@@AAE_NXZ 10046294 f i libucrt:output.obj
 0001:0004530f       ?type_case_Z@?$output_processor@_WV?$string_output_adapter@_W@__crt_stdio_output@@V?$positional_parameter_base@_WV?$string_output_adapter@_W@__crt_stdio_output@@@2@@__crt_stdio_output@@AAE_NXZ 1004630f f i libucrt:output.obj
 0001:000453ad       ?type_case_Z@?$output_processor@_WV?$string_output_adapter@_W@__crt_stdio_output@@V?$standard_base@_WV?$string_output_adapter@_W@__crt_stdio_output@@@2@@__crt_stdio_output@@AAE_NXZ 100463ad f i libucrt:output.obj
 0001:00045428       ?type_case_a@?$output_processor@DV?$stream_output_adapter@D@__crt_stdio_output@@V?$format_validation_base@DV?$stream_output_adapter@D@__crt_stdio_output@@@2@@__crt_stdio_output@@AAE_NXZ 10046428 f i libucrt:output.obj
 0001:000455d8       ?type_case_a@?$output_processor@DV?$stream_output_adapter@D@__crt_stdio_output@@V?$positional_parameter_base@DV?$stream_output_adapter@D@__crt_stdio_output@@@2@@__crt_stdio_output@@AAE_NXZ 100465d8 f i libucrt:output.obj
 0001:000457af       ?type_case_a@?$output_processor@DV?$stream_output_adapter@D@__crt_stdio_output@@V?$standard_base@DV?$stream_output_adapter@D@__crt_stdio_output@@@2@@__crt_stdio_output@@AAE_NXZ 100467af f i libucrt:output.obj
 0001:0004595f       ?type_case_a@?$output_processor@DV?$string_output_adapter@D@__crt_stdio_output@@V?$format_validation_base@DV?$string_output_adapter@D@__crt_stdio_output@@@2@@__crt_stdio_output@@AAE_NXZ 1004695f f i libucrt:output.obj
 0001:00045b0f       ?type_case_a@?$output_processor@DV?$string_output_adapter@D@__crt_stdio_output@@V?$positional_parameter_base@DV?$string_output_adapter@D@__crt_stdio_output@@@2@@__crt_stdio_output@@AAE_NXZ 10046b0f f i libucrt:output.obj
 0001:00045ce6       ?type_case_a@?$output_processor@DV?$string_output_adapter@D@__crt_stdio_output@@V?$standard_base@DV?$string_output_adapter@D@__crt_stdio_output@@@2@@__crt_stdio_output@@AAE_NXZ 10046ce6 f i libucrt:output.obj
 0001:00045e96       ?type_case_a@?$output_processor@_WV?$stream_output_adapter@_W@__crt_stdio_output@@V?$format_validation_base@_WV?$stream_output_adapter@_W@__crt_stdio_output@@@2@@__crt_stdio_output@@AAE_NXZ 10046e96 f i libucrt:output.obj
 0001:00046064       ?type_case_a@?$output_processor@_WV?$stream_output_adapter@_W@__crt_stdio_output@@V?$positional_parameter_base@_WV?$stream_output_adapter@_W@__crt_stdio_output@@@2@@__crt_stdio_output@@AAE_NXZ 10047064 f i libucrt:output.obj
 0001:00046259       ?type_case_a@?$output_processor@_WV?$stream_output_adapter@_W@__crt_stdio_output@@V?$standard_base@_WV?$stream_output_adapter@_W@__crt_stdio_output@@@2@@__crt_stdio_output@@AAE_NXZ 10047259 f i libucrt:output.obj
 0001:00046427       ?type_case_a@?$output_processor@_WV?$string_output_adapter@_W@__crt_stdio_output@@V?$format_validation_base@_WV?$string_output_adapter@_W@__crt_stdio_output@@@2@@__crt_stdio_output@@AAE_NXZ 10047427 f i libucrt:output.obj
 0001:000465f5       ?type_case_a@?$output_processor@_WV?$string_output_adapter@_W@__crt_stdio_output@@V?$positional_parameter_base@_WV?$string_output_adapter@_W@__crt_stdio_output@@@2@@__crt_stdio_output@@AAE_NXZ 100475f5 f i libucrt:output.obj
 0001:000467ea       ?type_case_a@?$output_processor@_WV?$string_output_adapter@_W@__crt_stdio_output@@V?$standard_base@_WV?$string_output_adapter@_W@__crt_stdio_output@@@2@@__crt_stdio_output@@AAE_NXZ 100477ea f i libucrt:output.obj
 0001:000469b8       ?type_case_c@?$output_processor@DV?$stream_output_adapter@D@__crt_stdio_output@@V?$format_validation_base@DV?$stream_output_adapter@D@__crt_stdio_output@@@2@@__crt_stdio_output@@AAE_NXZ 100479b8 f i libucrt:output.obj
 0001:000469c2       ?type_case_c@?$output_processor@DV?$stream_output_adapter@D@__crt_stdio_output@@V?$positional_parameter_base@DV?$stream_output_adapter@D@__crt_stdio_output@@@2@@__crt_stdio_output@@AAE_NXZ 100479c2 f i libucrt:output.obj
 0001:000469cc       ?type_case_c@?$output_processor@DV?$stream_output_adapter@D@__crt_stdio_output@@V?$standard_base@DV?$stream_output_adapter@D@__crt_stdio_output@@@2@@__crt_stdio_output@@AAE_NXZ 100479cc f i libucrt:output.obj
 0001:000469d6       ?type_case_c@?$output_processor@DV?$string_output_adapter@D@__crt_stdio_output@@V?$format_validation_base@DV?$string_output_adapter@D@__crt_stdio_output@@@2@@__crt_stdio_output@@AAE_NXZ 100479d6 f i libucrt:output.obj
 0001:000469e0       ?type_case_c@?$output_processor@DV?$string_output_adapter@D@__crt_stdio_output@@V?$positional_parameter_base@DV?$string_output_adapter@D@__crt_stdio_output@@@2@@__crt_stdio_output@@AAE_NXZ 100479e0 f i libucrt:output.obj
 0001:000469ea       ?type_case_c@?$output_processor@DV?$string_output_adapter@D@__crt_stdio_output@@V?$standard_base@DV?$string_output_adapter@D@__crt_stdio_output@@@2@@__crt_stdio_output@@AAE_NXZ 100479ea f i libucrt:output.obj
 0001:000469f4       ?type_case_c@?$output_processor@_WV?$stream_output_adapter@_W@__crt_stdio_output@@V?$format_validation_base@_WV?$stream_output_adapter@_W@__crt_stdio_output@@@2@@__crt_stdio_output@@AAE_NXZ 100479f4 f i libucrt:output.obj
 0001:000469fe       ?type_case_c@?$output_processor@_WV?$stream_output_adapter@_W@__crt_stdio_output@@V?$positional_parameter_base@_WV?$stream_output_adapter@_W@__crt_stdio_output@@@2@@__crt_stdio_output@@AAE_NXZ 100479fe f i libucrt:output.obj
 0001:00046a08       ?type_case_c@?$output_processor@_WV?$stream_output_adapter@_W@__crt_stdio_output@@V?$standard_base@_WV?$stream_output_adapter@_W@__crt_stdio_output@@@2@@__crt_stdio_output@@AAE_NXZ 10047a08 f i libucrt:output.obj
 0001:00046a12       ?type_case_c@?$output_processor@_WV?$string_output_adapter@_W@__crt_stdio_output@@V?$format_validation_base@_WV?$string_output_adapter@_W@__crt_stdio_output@@@2@@__crt_stdio_output@@AAE_NXZ 10047a12 f i libucrt:output.obj
 0001:00046a1c       ?type_case_c@?$output_processor@_WV?$string_output_adapter@_W@__crt_stdio_output@@V?$positional_parameter_base@_WV?$string_output_adapter@_W@__crt_stdio_output@@@2@@__crt_stdio_output@@AAE_NXZ 10047a1c f i libucrt:output.obj
 0001:00046a26       ?type_case_c@?$output_processor@_WV?$string_output_adapter@_W@__crt_stdio_output@@V?$standard_base@_WV?$string_output_adapter@_W@__crt_stdio_output@@@2@@__crt_stdio_output@@AAE_NXZ 10047a26 f i libucrt:output.obj
 0001:00046a30       ?type_case_c_tchar@?$output_processor@DV?$stream_output_adapter@D@__crt_stdio_output@@V?$format_validation_base@DV?$stream_output_adapter@D@__crt_stdio_output@@@2@@__crt_stdio_output@@AAE_ND@Z 10047a30 f i libucrt:output.obj
 0001:00046ae4       ?type_case_c_tchar@?$output_processor@DV?$stream_output_adapter@D@__crt_stdio_output@@V?$positional_parameter_base@DV?$stream_output_adapter@D@__crt_stdio_output@@@2@@__crt_stdio_output@@AAE_ND@Z 10047ae4 f i libucrt:output.obj
 0001:00046bd4       ?type_case_c_tchar@?$output_processor@DV?$stream_output_adapter@D@__crt_stdio_output@@V?$standard_base@DV?$stream_output_adapter@D@__crt_stdio_output@@@2@@__crt_stdio_output@@AAE_ND@Z 10047bd4 f i libucrt:output.obj
 0001:00046c88       ?type_case_c_tchar@?$output_processor@DV?$string_output_adapter@D@__crt_stdio_output@@V?$format_validation_base@DV?$string_output_adapter@D@__crt_stdio_output@@@2@@__crt_stdio_output@@AAE_ND@Z 10047c88 f i libucrt:output.obj
 0001:00046d3c       ?type_case_c_tchar@?$output_processor@DV?$string_output_adapter@D@__crt_stdio_output@@V?$positional_parameter_base@DV?$string_output_adapter@D@__crt_stdio_output@@@2@@__crt_stdio_output@@AAE_ND@Z 10047d3c f i libucrt:output.obj
 0001:00046e2c       ?type_case_c_tchar@?$output_processor@DV?$string_output_adapter@D@__crt_stdio_output@@V?$standard_base@DV?$string_output_adapter@D@__crt_stdio_output@@@2@@__crt_stdio_output@@AAE_ND@Z 10047e2c f i libucrt:output.obj
 0001:00046ee0       ?type_case_c_tchar@?$output_processor@_WV?$stream_output_adapter@_W@__crt_stdio_output@@V?$format_validation_base@_WV?$stream_output_adapter@_W@__crt_stdio_output@@@2@@__crt_stdio_output@@AAE_N_W@Z 10047ee0 f i libucrt:output.obj
 0001:00046f9e       ?type_case_c_tchar@?$output_processor@_WV?$stream_output_adapter@_W@__crt_stdio_output@@V?$positional_parameter_base@_WV?$stream_output_adapter@_W@__crt_stdio_output@@@2@@__crt_stdio_output@@AAE_N_W@Z 10047f9e f i libucrt:output.obj
 0001:00047078       ?type_case_c_tchar@?$output_processor@_WV?$stream_output_adapter@_W@__crt_stdio_output@@V?$standard_base@_WV?$stream_output_adapter@_W@__crt_stdio_output@@@2@@__crt_stdio_output@@AAE_N_W@Z 10048078 f i libucrt:output.obj
 0001:00047136       ?type_case_c_tchar@?$output_processor@_WV?$string_output_adapter@_W@__crt_stdio_output@@V?$format_validation_base@_WV?$string_output_adapter@_W@__crt_stdio_output@@@2@@__crt_stdio_output@@AAE_N_W@Z 10048136 f i libucrt:output.obj
 0001:000471f4       ?type_case_c_tchar@?$output_processor@_WV?$string_output_adapter@_W@__crt_stdio_output@@V?$positional_parameter_base@_WV?$string_output_adapter@_W@__crt_stdio_output@@@2@@__crt_stdio_output@@AAE_N_W@Z 100481f4 f i libucrt:output.obj
 0001:000472ce       ?type_case_c_tchar@?$output_processor@_WV?$string_output_adapter@_W@__crt_stdio_output@@V?$standard_base@_WV?$string_output_adapter@_W@__crt_stdio_output@@@2@@__crt_stdio_output@@AAE_N_W@Z 100482ce f i libucrt:output.obj
 0001:0004738c       ?type_case_d@?$output_processor@DV?$stream_output_adapter@D@__crt_stdio_output@@V?$format_validation_base@DV?$stream_output_adapter@D@__crt_stdio_output@@@2@@__crt_stdio_output@@AAE_NXZ 1004838c f i libucrt:output.obj
 0001:0004739d       ?type_case_d@?$output_processor@DV?$stream_output_adapter@D@__crt_stdio_output@@V?$positional_parameter_base@DV?$stream_output_adapter@D@__crt_stdio_output@@@2@@__crt_stdio_output@@AAE_NXZ 1004839d f i libucrt:output.obj
 0001:000473ae       ?type_case_d@?$output_processor@DV?$stream_output_adapter@D@__crt_stdio_output@@V?$standard_base@DV?$stream_output_adapter@D@__crt_stdio_output@@@2@@__crt_stdio_output@@AAE_NXZ 100483ae f i libucrt:output.obj
 0001:000473bf       ?type_case_d@?$output_processor@DV?$string_output_adapter@D@__crt_stdio_output@@V?$format_validation_base@DV?$string_output_adapter@D@__crt_stdio_output@@@2@@__crt_stdio_output@@AAE_NXZ 100483bf f i libucrt:output.obj
 0001:000473d0       ?type_case_d@?$output_processor@DV?$string_output_adapter@D@__crt_stdio_output@@V?$positional_parameter_base@DV?$string_output_adapter@D@__crt_stdio_output@@@2@@__crt_stdio_output@@AAE_NXZ 100483d0 f i libucrt:output.obj
 0001:000473e1       ?type_case_d@?$output_processor@DV?$string_output_adapter@D@__crt_stdio_output@@V?$standard_base@DV?$string_output_adapter@D@__crt_stdio_output@@@2@@__crt_stdio_output@@AAE_NXZ 100483e1 f i libucrt:output.obj
 0001:000473f2       ?type_case_d@?$output_processor@_WV?$stream_output_adapter@_W@__crt_stdio_output@@V?$format_validation_base@_WV?$stream_output_adapter@_W@__crt_stdio_output@@@2@@__crt_stdio_output@@AAE_NXZ 100483f2 f i libucrt:output.obj
 0001:00047403       ?type_case_d@?$output_processor@_WV?$stream_output_adapter@_W@__crt_stdio_output@@V?$positional_parameter_base@_WV?$stream_output_adapter@_W@__crt_stdio_output@@@2@@__crt_stdio_output@@AAE_NXZ 10048403 f i libucrt:output.obj
 0001:00047414       ?type_case_d@?$output_processor@_WV?$stream_output_adapter@_W@__crt_stdio_output@@V?$standard_base@_WV?$stream_output_adapter@_W@__crt_stdio_output@@@2@@__crt_stdio_output@@AAE_NXZ 10048414 f i libucrt:output.obj
 0001:00047425       ?type_case_d@?$output_processor@_WV?$string_output_adapter@_W@__crt_stdio_output@@V?$format_validation_base@_WV?$string_output_adapter@_W@__crt_stdio_output@@@2@@__crt_stdio_output@@AAE_NXZ 10048425 f i libucrt:output.obj
 0001:00047436       ?type_case_d@?$output_processor@_WV?$string_output_adapter@_W@__crt_stdio_output@@V?$positional_parameter_base@_WV?$string_output_adapter@_W@__crt_stdio_output@@@2@@__crt_stdio_output@@AAE_NXZ 10048436 f i libucrt:output.obj
 0001:00047447       ?type_case_d@?$output_processor@_WV?$string_output_adapter@_W@__crt_stdio_output@@V?$standard_base@_WV?$string_output_adapter@_W@__crt_stdio_output@@@2@@__crt_stdio_output@@AAE_NXZ 10048447 f i libucrt:output.obj
 0001:00047458       ?type_case_integer@?$output_processor@DV?$stream_output_adapter@D@__crt_stdio_output@@V?$format_validation_base@DV?$stream_output_adapter@D@__crt_stdio_output@@@2@@__crt_stdio_output@@AAE_NI_N@Z 10048458 f i libucrt:output.obj
 0001:000475f4       ?type_case_integer@?$output_processor@DV?$stream_output_adapter@D@__crt_stdio_output@@V?$positional_parameter_base@DV?$stream_output_adapter@D@__crt_stdio_output@@@2@@__crt_stdio_output@@AAE_NI_N@Z 100485f4 f i libucrt:output.obj
 0001:000477d1       ?type_case_integer@?$output_processor@DV?$stream_output_adapter@D@__crt_stdio_output@@V?$standard_base@DV?$stream_output_adapter@D@__crt_stdio_output@@@2@@__crt_stdio_output@@AAE_NI_N@Z 100487d1 f i libucrt:output.obj
 0001:0004796d       ?type_case_integer@?$output_processor@DV?$string_output_adapter@D@__crt_stdio_output@@V?$format_validation_base@DV?$string_output_adapter@D@__crt_stdio_output@@@2@@__crt_stdio_output@@AAE_NI_N@Z 1004896d f i libucrt:output.obj
 0001:00047b09       ?type_case_integer@?$output_processor@DV?$string_output_adapter@D@__crt_stdio_output@@V?$positional_parameter_base@DV?$string_output_adapter@D@__crt_stdio_output@@@2@@__crt_stdio_output@@AAE_NI_N@Z 10048b09 f i libucrt:output.obj
 0001:00047ce6       ?type_case_integer@?$output_processor@DV?$string_output_adapter@D@__crt_stdio_output@@V?$standard_base@DV?$string_output_adapter@D@__crt_stdio_output@@@2@@__crt_stdio_output@@AAE_NI_N@Z 10048ce6 f i libucrt:output.obj
 0001:00047e82       ?type_case_integer@?$output_processor@_WV?$stream_output_adapter@_W@__crt_stdio_output@@V?$format_validation_base@_WV?$stream_output_adapter@_W@__crt_stdio_output@@@2@@__crt_stdio_output@@AAE_NI_N@Z 10048e82 f i libucrt:output.obj
 0001:0004801e       ?type_case_integer@?$output_processor@_WV?$stream_output_adapter@_W@__crt_stdio_output@@V?$positional_parameter_base@_WV?$stream_output_adapter@_W@__crt_stdio_output@@@2@@__crt_stdio_output@@AAE_NI_N@Z 1004901e f i libucrt:output.obj
 0001:000481fb       ?type_case_integer@?$output_processor@_WV?$stream_output_adapter@_W@__crt_stdio_output@@V?$standard_base@_WV?$stream_output_adapter@_W@__crt_stdio_output@@@2@@__crt_stdio_output@@AAE_NI_N@Z 100491fb f i libucrt:output.obj
 0001:00048397       ?type_case_integer@?$output_processor@_WV?$string_output_adapter@_W@__crt_stdio_output@@V?$format_validation_base@_WV?$string_output_adapter@_W@__crt_stdio_output@@@2@@__crt_stdio_output@@AAE_NI_N@Z 10049397 f i libucrt:output.obj
 0001:00048533       ?type_case_integer@?$output_processor@_WV?$string_output_adapter@_W@__crt_stdio_output@@V?$positional_parameter_base@_WV?$string_output_adapter@_W@__crt_stdio_output@@@2@@__crt_stdio_output@@AAE_NI_N@Z 10049533 f i libucrt:output.obj
 0001:00048710       ?type_case_integer@?$output_processor@_WV?$string_output_adapter@_W@__crt_stdio_output@@V?$standard_base@_WV?$string_output_adapter@_W@__crt_stdio_output@@@2@@__crt_stdio_output@@AAE_NI_N@Z 10049710 f i libucrt:output.obj
 0001:000488ac       ?type_case_n@?$output_processor@DV?$stream_output_adapter@D@__crt_stdio_output@@V?$format_validation_base@DV?$stream_output_adapter@D@__crt_stdio_output@@@2@@__crt_stdio_output@@AAE_NXZ 100498ac f i libucrt:output.obj
 0001:0004893d       ?type_case_n@?$output_processor@DV?$stream_output_adapter@D@__crt_stdio_output@@V?$positional_parameter_base@DV?$stream_output_adapter@D@__crt_stdio_output@@@2@@__crt_stdio_output@@AAE_NXZ 1004993d f i libucrt:output.obj
 0001:000489fc       ?type_case_n@?$output_processor@DV?$stream_output_adapter@D@__crt_stdio_output@@V?$standard_base@DV?$stream_output_adapter@D@__crt_stdio_output@@@2@@__crt_stdio_output@@AAE_NXZ 100499fc f i libucrt:output.obj
 0001:00048a8d       ?type_case_n@?$output_processor@DV?$string_output_adapter@D@__crt_stdio_output@@V?$format_validation_base@DV?$string_output_adapter@D@__crt_stdio_output@@@2@@__crt_stdio_output@@AAE_NXZ 10049a8d f i libucrt:output.obj
 0001:00048b1e       ?type_case_n@?$output_processor@DV?$string_output_adapter@D@__crt_stdio_output@@V?$positional_parameter_base@DV?$string_output_adapter@D@__crt_stdio_output@@@2@@__crt_stdio_output@@AAE_NXZ 10049b1e f i libucrt:output.obj
 0001:00048bdd       ?type_case_n@?$output_processor@DV?$string_output_adapter@D@__crt_stdio_output@@V?$standard_base@DV?$string_output_adapter@D@__crt_stdio_output@@@2@@__crt_stdio_output@@AAE_NXZ 10049bdd f i libucrt:output.obj
 0001:00048c6e       ?type_case_n@?$output_processor@_WV?$stream_output_adapter@_W@__crt_stdio_output@@V?$format_validation_base@_WV?$stream_output_adapter@_W@__crt_stdio_output@@@2@@__crt_stdio_output@@AAE_NXZ 10049c6e f i libucrt:output.obj
 0001:00048cff       ?type_case_n@?$output_processor@_WV?$stream_output_adapter@_W@__crt_stdio_output@@V?$positional_parameter_base@_WV?$stream_output_adapter@_W@__crt_stdio_output@@@2@@__crt_stdio_output@@AAE_NXZ 10049cff f i libucrt:output.obj
 0001:00048dbe       ?type_case_n@?$output_processor@_WV?$stream_output_adapter@_W@__crt_stdio_output@@V?$standard_base@_WV?$stream_output_adapter@_W@__crt_stdio_output@@@2@@__crt_stdio_output@@AAE_NXZ 10049dbe f i libucrt:output.obj
 0001:00048e4f       ?type_case_n@?$output_processor@_WV?$string_output_adapter@_W@__crt_stdio_output@@V?$format_validation_base@_WV?$string_output_adapter@_W@__crt_stdio_output@@@2@@__crt_stdio_output@@AAE_NXZ 10049e4f f i libucrt:output.obj
 0001:00048ee0       ?type_case_n@?$output_processor@_WV?$string_output_adapter@_W@__crt_stdio_output@@V?$positional_parameter_base@_WV?$string_output_adapter@_W@__crt_stdio_output@@@2@@__crt_stdio_output@@AAE_NXZ 10049ee0 f i libucrt:output.obj
 0001:00048f9f       ?type_case_n@?$output_processor@_WV?$string_output_adapter@_W@__crt_stdio_output@@V?$standard_base@_WV?$string_output_adapter@_W@__crt_stdio_output@@@2@@__crt_stdio_output@@AAE_NXZ 10049f9f f i libucrt:output.obj
 0001:00049030       ?type_case_o@?$output_processor@DV?$stream_output_adapter@D@__crt_stdio_output@@V?$format_validation_base@DV?$stream_output_adapter@D@__crt_stdio_output@@@2@@__crt_stdio_output@@AAE_NXZ 1004a030 f i libucrt:output.obj
 0001:00049056       ?type_case_o@?$output_processor@DV?$stream_output_adapter@D@__crt_stdio_output@@V?$positional_parameter_base@DV?$stream_output_adapter@D@__crt_stdio_output@@@2@@__crt_stdio_output@@AAE_NXZ 1004a056 f i libucrt:output.obj
 0001:0004907c       ?type_case_o@?$output_processor@DV?$stream_output_adapter@D@__crt_stdio_output@@V?$standard_base@DV?$stream_output_adapter@D@__crt_stdio_output@@@2@@__crt_stdio_output@@AAE_NXZ 1004a07c f i libucrt:output.obj
 0001:000490a2       ?type_case_o@?$output_processor@DV?$string_output_adapter@D@__crt_stdio_output@@V?$format_validation_base@DV?$string_output_adapter@D@__crt_stdio_output@@@2@@__crt_stdio_output@@AAE_NXZ 1004a0a2 f i libucrt:output.obj
 0001:000490c8       ?type_case_o@?$output_processor@DV?$string_output_adapter@D@__crt_stdio_output@@V?$positional_parameter_base@DV?$string_output_adapter@D@__crt_stdio_output@@@2@@__crt_stdio_output@@AAE_NXZ 1004a0c8 f i libucrt:output.obj
 0001:000490ee       ?type_case_o@?$output_processor@DV?$string_output_adapter@D@__crt_stdio_output@@V?$standard_base@DV?$string_output_adapter@D@__crt_stdio_output@@@2@@__crt_stdio_output@@AAE_NXZ 1004a0ee f i libucrt:output.obj
 0001:00049114       ?type_case_o@?$output_processor@_WV?$stream_output_adapter@_W@__crt_stdio_output@@V?$format_validation_base@_WV?$stream_output_adapter@_W@__crt_stdio_output@@@2@@__crt_stdio_output@@AAE_NXZ 1004a114 f i libucrt:output.obj
 0001:0004913a       ?type_case_o@?$output_processor@_WV?$stream_output_adapter@_W@__crt_stdio_output@@V?$positional_parameter_base@_WV?$stream_output_adapter@_W@__crt_stdio_output@@@2@@__crt_stdio_output@@AAE_NXZ 1004a13a f i libucrt:output.obj
 0001:00049160       ?type_case_o@?$output_processor@_WV?$stream_output_adapter@_W@__crt_stdio_output@@V?$standard_base@_WV?$stream_output_adapter@_W@__crt_stdio_output@@@2@@__crt_stdio_output@@AAE_NXZ 1004a160 f i libucrt:output.obj
 0001:00049186       ?type_case_o@?$output_processor@_WV?$string_output_adapter@_W@__crt_stdio_output@@V?$format_validation_base@_WV?$string_output_adapter@_W@__crt_stdio_output@@@2@@__crt_stdio_output@@AAE_NXZ 1004a186 f i libucrt:output.obj
 0001:000491ac       ?type_case_o@?$output_processor@_WV?$string_output_adapter@_W@__crt_stdio_output@@V?$positional_parameter_base@_WV?$string_output_adapter@_W@__crt_stdio_output@@@2@@__crt_stdio_output@@AAE_NXZ 1004a1ac f i libucrt:output.obj
 0001:000491d2       ?type_case_o@?$output_processor@_WV?$string_output_adapter@_W@__crt_stdio_output@@V?$standard_base@_WV?$string_output_adapter@_W@__crt_stdio_output@@@2@@__crt_stdio_output@@AAE_NXZ 1004a1d2 f i libucrt:output.obj
 0001:000491f8       ?type_case_p@?$output_processor@DV?$stream_output_adapter@D@__crt_stdio_output@@V?$format_validation_base@DV?$stream_output_adapter@D@__crt_stdio_output@@@2@@__crt_stdio_output@@AAE_NXZ 1004a1f8 f i libucrt:output.obj
 0001:00049216       ?type_case_p@?$output_processor@DV?$stream_output_adapter@D@__crt_stdio_output@@V?$positional_parameter_base@DV?$stream_output_adapter@D@__crt_stdio_output@@@2@@__crt_stdio_output@@AAE_NXZ 1004a216 f i libucrt:output.obj
 0001:00049234       ?type_case_p@?$output_processor@DV?$stream_output_adapter@D@__crt_stdio_output@@V?$standard_base@DV?$stream_output_adapter@D@__crt_stdio_output@@@2@@__crt_stdio_output@@AAE_NXZ 1004a234 f i libucrt:output.obj
 0001:00049252       ?type_case_p@?$output_processor@DV?$string_output_adapter@D@__crt_stdio_output@@V?$format_validation_base@DV?$string_output_adapter@D@__crt_stdio_output@@@2@@__crt_stdio_output@@AAE_NXZ 1004a252 f i libucrt:output.obj
 0001:00049270       ?type_case_p@?$output_processor@DV?$string_output_adapter@D@__crt_stdio_output@@V?$positional_parameter_base@DV?$string_output_adapter@D@__crt_stdio_output@@@2@@__crt_stdio_output@@AAE_NXZ 1004a270 f i libucrt:output.obj
 0001:0004928e       ?type_case_p@?$output_processor@DV?$string_output_adapter@D@__crt_stdio_output@@V?$standard_base@DV?$string_output_adapter@D@__crt_stdio_output@@@2@@__crt_stdio_output@@AAE_NXZ 1004a28e f i libucrt:output.obj
 0001:000492ac       ?type_case_p@?$output_processor@_WV?$stream_output_adapter@_W@__crt_stdio_output@@V?$format_validation_base@_WV?$stream_output_adapter@_W@__crt_stdio_output@@@2@@__crt_stdio_output@@AAE_NXZ 1004a2ac f i libucrt:output.obj
 0001:000492ca       ?type_case_p@?$output_processor@_WV?$stream_output_adapter@_W@__crt_stdio_output@@V?$positional_parameter_base@_WV?$stream_output_adapter@_W@__crt_stdio_output@@@2@@__crt_stdio_output@@AAE_NXZ 1004a2ca f i libucrt:output.obj
 0001:000492e8       ?type_case_p@?$output_processor@_WV?$stream_output_adapter@_W@__crt_stdio_output@@V?$standard_base@_WV?$stream_output_adapter@_W@__crt_stdio_output@@@2@@__crt_stdio_output@@AAE_NXZ 1004a2e8 f i libucrt:output.obj
 0001:00049306       ?type_case_p@?$output_processor@_WV?$string_output_adapter@_W@__crt_stdio_output@@V?$format_validation_base@_WV?$string_output_adapter@_W@__crt_stdio_output@@@2@@__crt_stdio_output@@AAE_NXZ 1004a306 f i libucrt:output.obj
 0001:00049324       ?type_case_p@?$output_processor@_WV?$string_output_adapter@_W@__crt_stdio_output@@V?$positional_parameter_base@_WV?$string_output_adapter@_W@__crt_stdio_output@@@2@@__crt_stdio_output@@AAE_NXZ 1004a324 f i libucrt:output.obj
 0001:00049342       ?type_case_p@?$output_processor@_WV?$string_output_adapter@_W@__crt_stdio_output@@V?$standard_base@_WV?$string_output_adapter@_W@__crt_stdio_output@@@2@@__crt_stdio_output@@AAE_NXZ 1004a342 f i libucrt:output.obj
 0001:00049360       ?type_case_s@?$output_processor@DV?$stream_output_adapter@D@__crt_stdio_output@@V?$format_validation_base@DV?$stream_output_adapter@D@__crt_stdio_output@@@2@@__crt_stdio_output@@AAE_NXZ 1004a360 f i libucrt:output.obj
 0001:000493ef       ?type_case_s@?$output_processor@DV?$stream_output_adapter@D@__crt_stdio_output@@V?$positional_parameter_base@DV?$stream_output_adapter@D@__crt_stdio_output@@@2@@__crt_stdio_output@@AAE_NXZ 1004a3ef f i libucrt:output.obj
 0001:0004948a       ?type_case_s@?$output_processor@DV?$stream_output_adapter@D@__crt_stdio_output@@V?$standard_base@DV?$stream_output_adapter@D@__crt_stdio_output@@@2@@__crt_stdio_output@@AAE_NXZ 1004a48a f i libucrt:output.obj
 0001:00049519       ?type_case_s@?$output_processor@DV?$string_output_adapter@D@__crt_stdio_output@@V?$format_validation_base@DV?$string_output_adapter@D@__crt_stdio_output@@@2@@__crt_stdio_output@@AAE_NXZ 1004a519 f i libucrt:output.obj
 0001:000495a8       ?type_case_s@?$output_processor@DV?$string_output_adapter@D@__crt_stdio_output@@V?$positional_parameter_base@DV?$string_output_adapter@D@__crt_stdio_output@@@2@@__crt_stdio_output@@AAE_NXZ 1004a5a8 f i libucrt:output.obj
 0001:00049643       ?type_case_s@?$output_processor@DV?$string_output_adapter@D@__crt_stdio_output@@V?$standard_base@DV?$string_output_adapter@D@__crt_stdio_output@@@2@@__crt_stdio_output@@AAE_NXZ 1004a643 f i libucrt:output.obj
 0001:000496d2       ?type_case_s@?$output_processor@_WV?$stream_output_adapter@_W@__crt_stdio_output@@V?$format_validation_base@_WV?$stream_output_adapter@_W@__crt_stdio_output@@@2@@__crt_stdio_output@@AAE_NXZ 1004a6d2 f i libucrt:output.obj
 0001:00049763       ?type_case_s@?$output_processor@_WV?$stream_output_adapter@_W@__crt_stdio_output@@V?$positional_parameter_base@_WV?$stream_output_adapter@_W@__crt_stdio_output@@@2@@__crt_stdio_output@@AAE_NXZ 1004a763 f i libucrt:output.obj
 0001:00049800       ?type_case_s@?$output_processor@_WV?$stream_output_adapter@_W@__crt_stdio_output@@V?$standard_base@_WV?$stream_output_adapter@_W@__crt_stdio_output@@@2@@__crt_stdio_output@@AAE_NXZ 1004a800 f i libucrt:output.obj
 0001:00049891       ?type_case_s@?$output_processor@_WV?$string_output_adapter@_W@__crt_stdio_output@@V?$format_validation_base@_WV?$string_output_adapter@_W@__crt_stdio_output@@@2@@__crt_stdio_output@@AAE_NXZ 1004a891 f i libucrt:output.obj
 0001:00049922       ?type_case_s@?$output_processor@_WV?$string_output_adapter@_W@__crt_stdio_output@@V?$positional_parameter_base@_WV?$string_output_adapter@_W@__crt_stdio_output@@@2@@__crt_stdio_output@@AAE_NXZ 1004a922 f i libucrt:output.obj
 0001:000499bf       ?type_case_s@?$output_processor@_WV?$string_output_adapter@_W@__crt_stdio_output@@V?$standard_base@_WV?$string_output_adapter@_W@__crt_stdio_output@@@2@@__crt_stdio_output@@AAE_NXZ 1004a9bf f i libucrt:output.obj
 0001:00049a50       ?type_case_s_compute_narrow_string_length@?$output_processor@DV?$stream_output_adapter@D@__crt_stdio_output@@V?$format_validation_base@DV?$stream_output_adapter@D@__crt_stdio_output@@@2@@__crt_stdio_output@@ABEHHD@Z 1004aa50 f i libucrt:output.obj
 0001:00049a6b       ?type_case_s_compute_narrow_string_length@?$output_processor@DV?$stream_output_adapter@D@__crt_stdio_output@@V?$positional_parameter_base@DV?$stream_output_adapter@D@__crt_stdio_output@@@2@@__crt_stdio_output@@ABEHHD@Z 1004aa6b f i libucrt:output.obj
 0001:00049a86       ?type_case_s_compute_narrow_string_length@?$output_processor@DV?$stream_output_adapter@D@__crt_stdio_output@@V?$standard_base@DV?$stream_output_adapter@D@__crt_stdio_output@@@2@@__crt_stdio_output@@ABEHHD@Z 1004aa86 f i libucrt:output.obj
 0001:00049aa1       ?type_case_s_compute_narrow_string_length@?$output_processor@DV?$string_output_adapter@D@__crt_stdio_output@@V?$format_validation_base@DV?$string_output_adapter@D@__crt_stdio_output@@@2@@__crt_stdio_output@@ABEHHD@Z 1004aaa1 f i libucrt:output.obj
 0001:00049abc       ?type_case_s_compute_narrow_string_length@?$output_processor@DV?$string_output_adapter@D@__crt_stdio_output@@V?$positional_parameter_base@DV?$string_output_adapter@D@__crt_stdio_output@@@2@@__crt_stdio_output@@ABEHHD@Z 1004aabc f i libucrt:output.obj
 0001:00049ad7       ?type_case_s_compute_narrow_string_length@?$output_processor@DV?$string_output_adapter@D@__crt_stdio_output@@V?$standard_base@DV?$string_output_adapter@D@__crt_stdio_output@@@2@@__crt_stdio_output@@ABEHHD@Z 1004aad7 f i libucrt:output.obj
 0001:00049af2       ?type_case_s_compute_narrow_string_length@?$output_processor@_WV?$stream_output_adapter@_W@__crt_stdio_output@@V?$format_validation_base@_WV?$stream_output_adapter@_W@__crt_stdio_output@@@2@@__crt_stdio_output@@ABEHH_W@Z 1004aaf2 f i libucrt:output.obj
 0001:00049b42       ?type_case_s_compute_narrow_string_length@?$output_processor@_WV?$stream_output_adapter@_W@__crt_stdio_output@@V?$positional_parameter_base@_WV?$stream_output_adapter@_W@__crt_stdio_output@@@2@@__crt_stdio_output@@ABEHH_W@Z 1004ab42 f i libucrt:output.obj
 0001:00049b92       ?type_case_s_compute_narrow_string_length@?$output_processor@_WV?$stream_output_adapter@_W@__crt_stdio_output@@V?$standard_base@_WV?$stream_output_adapter@_W@__crt_stdio_output@@@2@@__crt_stdio_output@@ABEHH_W@Z 1004ab92 f i libucrt:output.obj
 0001:00049be2       ?type_case_s_compute_narrow_string_length@?$output_processor@_WV?$string_output_adapter@_W@__crt_stdio_output@@V?$format_validation_base@_WV?$string_output_adapter@_W@__crt_stdio_output@@@2@@__crt_stdio_output@@ABEHH_W@Z 1004abe2 f i libucrt:output.obj
 0001:00049c32       ?type_case_s_compute_narrow_string_length@?$output_processor@_WV?$string_output_adapter@_W@__crt_stdio_output@@V?$positional_parameter_base@_WV?$string_output_adapter@_W@__crt_stdio_output@@@2@@__crt_stdio_output@@ABEHH_W@Z 1004ac32 f i libucrt:output.obj
 0001:00049c82       ?type_case_s_compute_narrow_string_length@?$output_processor@_WV?$string_output_adapter@_W@__crt_stdio_output@@V?$standard_base@_WV?$string_output_adapter@_W@__crt_stdio_output@@@2@@__crt_stdio_output@@ABEHH_W@Z 1004ac82 f i libucrt:output.obj
 0001:00049cd2       ?type_case_u@?$output_processor@DV?$stream_output_adapter@D@__crt_stdio_output@@V?$format_validation_base@DV?$stream_output_adapter@D@__crt_stdio_output@@@2@@__crt_stdio_output@@AAE_NXZ 1004acd2 f i libucrt:output.obj
 0001:00049cde       ?type_case_u@?$output_processor@DV?$stream_output_adapter@D@__crt_stdio_output@@V?$positional_parameter_base@DV?$stream_output_adapter@D@__crt_stdio_output@@@2@@__crt_stdio_output@@AAE_NXZ 1004acde f i libucrt:output.obj
 0001:00049cea       ?type_case_u@?$output_processor@DV?$stream_output_adapter@D@__crt_stdio_output@@V?$standard_base@DV?$stream_output_adapter@D@__crt_stdio_output@@@2@@__crt_stdio_output@@AAE_NXZ 1004acea f i libucrt:output.obj
 0001:00049cf6       ?type_case_u@?$output_processor@DV?$string_output_adapter@D@__crt_stdio_output@@V?$format_validation_base@DV?$string_output_adapter@D@__crt_stdio_output@@@2@@__crt_stdio_output@@AAE_NXZ 1004acf6 f i libucrt:output.obj
 0001:00049d02       ?type_case_u@?$output_processor@DV?$string_output_adapter@D@__crt_stdio_output@@V?$positional_parameter_base@DV?$string_output_adapter@D@__crt_stdio_output@@@2@@__crt_stdio_output@@AAE_NXZ 1004ad02 f i libucrt:output.obj
 0001:00049d0e       ?type_case_u@?$output_processor@DV?$string_output_adapter@D@__crt_stdio_output@@V?$standard_base@DV?$string_output_adapter@D@__crt_stdio_output@@@2@@__crt_stdio_output@@AAE_NXZ 1004ad0e f i libucrt:output.obj
 0001:00049d1a       ?type_case_u@?$output_processor@_WV?$stream_output_adapter@_W@__crt_stdio_output@@V?$format_validation_base@_WV?$stream_output_adapter@_W@__crt_stdio_output@@@2@@__crt_stdio_output@@AAE_NXZ 1004ad1a f i libucrt:output.obj
 0001:00049d26       ?type_case_u@?$output_processor@_WV?$stream_output_adapter@_W@__crt_stdio_output@@V?$positional_parameter_base@_WV?$stream_output_adapter@_W@__crt_stdio_output@@@2@@__crt_stdio_output@@AAE_NXZ 1004ad26 f i libucrt:output.obj
 0001:00049d32       ?type_case_u@?$output_processor@_WV?$stream_output_adapter@_W@__crt_stdio_output@@V?$standard_base@_WV?$stream_output_adapter@_W@__crt_stdio_output@@@2@@__crt_stdio_output@@AAE_NXZ 1004ad32 f i libucrt:output.obj
 0001:00049d3e       ?type_case_u@?$output_processor@_WV?$string_output_adapter@_W@__crt_stdio_output@@V?$format_validation_base@_WV?$string_output_adapter@_W@__crt_stdio_output@@@2@@__crt_stdio_output@@AAE_NXZ 1004ad3e f i libucrt:output.obj
 0001:00049d4a       ?type_case_u@?$output_processor@_WV?$string_output_adapter@_W@__crt_stdio_output@@V?$positional_parameter_base@_WV?$string_output_adapter@_W@__crt_stdio_output@@@2@@__crt_stdio_output@@AAE_NXZ 1004ad4a f i libucrt:output.obj
 0001:00049d56       ?type_case_u@?$output_processor@_WV?$string_output_adapter@_W@__crt_stdio_output@@V?$standard_base@_WV?$string_output_adapter@_W@__crt_stdio_output@@@2@@__crt_stdio_output@@AAE_NXZ 1004ad56 f i libucrt:output.obj
 0001:00049d62       ?type_case_x@?$output_processor@DV?$stream_output_adapter@D@__crt_stdio_output@@V?$format_validation_base@DV?$stream_output_adapter@D@__crt_stdio_output@@@2@@__crt_stdio_output@@AAE_NXZ 1004ad62 f i libucrt:output.obj
 0001:00049d6e       ?type_case_x@?$output_processor@DV?$stream_output_adapter@D@__crt_stdio_output@@V?$positional_parameter_base@DV?$stream_output_adapter@D@__crt_stdio_output@@@2@@__crt_stdio_output@@AAE_NXZ 1004ad6e f i libucrt:output.obj
 0001:00049d7a       ?type_case_x@?$output_processor@DV?$stream_output_adapter@D@__crt_stdio_output@@V?$standard_base@DV?$stream_output_adapter@D@__crt_stdio_output@@@2@@__crt_stdio_output@@AAE_NXZ 1004ad7a f i libucrt:output.obj
 0001:00049d86       ?type_case_x@?$output_processor@DV?$string_output_adapter@D@__crt_stdio_output@@V?$format_validation_base@DV?$string_output_adapter@D@__crt_stdio_output@@@2@@__crt_stdio_output@@AAE_NXZ 1004ad86 f i libucrt:output.obj
 0001:00049d92       ?type_case_x@?$output_processor@DV?$string_output_adapter@D@__crt_stdio_output@@V?$positional_parameter_base@DV?$string_output_adapter@D@__crt_stdio_output@@@2@@__crt_stdio_output@@AAE_NXZ 1004ad92 f i libucrt:output.obj
 0001:00049d9e       ?type_case_x@?$output_processor@DV?$string_output_adapter@D@__crt_stdio_output@@V?$standard_base@DV?$string_output_adapter@D@__crt_stdio_output@@@2@@__crt_stdio_output@@AAE_NXZ 1004ad9e f i libucrt:output.obj
 0001:00049daa       ?type_case_x@?$output_processor@_WV?$stream_output_adapter@_W@__crt_stdio_output@@V?$format_validation_base@_WV?$stream_output_adapter@_W@__crt_stdio_output@@@2@@__crt_stdio_output@@AAE_NXZ 1004adaa f i libucrt:output.obj
 0001:00049db6       ?type_case_x@?$output_processor@_WV?$stream_output_adapter@_W@__crt_stdio_output@@V?$positional_parameter_base@_WV?$stream_output_adapter@_W@__crt_stdio_output@@@2@@__crt_stdio_output@@AAE_NXZ 1004adb6 f i libucrt:output.obj
 0001:00049dc2       ?type_case_x@?$output_processor@_WV?$stream_output_adapter@_W@__crt_stdio_output@@V?$standard_base@_WV?$stream_output_adapter@_W@__crt_stdio_output@@@2@@__crt_stdio_output@@AAE_NXZ 1004adc2 f i libucrt:output.obj
 0001:00049dce       ?type_case_x@?$output_processor@_WV?$string_output_adapter@_W@__crt_stdio_output@@V?$format_validation_base@_WV?$string_output_adapter@_W@__crt_stdio_output@@@2@@__crt_stdio_output@@AAE_NXZ 1004adce f i libucrt:output.obj
 0001:00049dda       ?type_case_x@?$output_processor@_WV?$string_output_adapter@_W@__crt_stdio_output@@V?$positional_parameter_base@_WV?$string_output_adapter@_W@__crt_stdio_output@@@2@@__crt_stdio_output@@AAE_NXZ 1004adda f i libucrt:output.obj
 0001:00049de6       ?type_case_x@?$output_processor@_WV?$string_output_adapter@_W@__crt_stdio_output@@V?$standard_base@_WV?$string_output_adapter@_W@__crt_stdio_output@@@2@@__crt_stdio_output@@AAE_NXZ 1004ade6 f i libucrt:output.obj
 0001:00049df2       ?unset_flag@?$output_processor@DV?$stream_output_adapter@D@__crt_stdio_output@@V?$format_validation_base@DV?$stream_output_adapter@D@__crt_stdio_output@@@2@@__crt_stdio_output@@AAEXI@Z 1004adf2 f i libucrt:output.obj
 0001:00049e07       ?unset_flag@?$output_processor@DV?$stream_output_adapter@D@__crt_stdio_output@@V?$positional_parameter_base@DV?$stream_output_adapter@D@__crt_stdio_output@@@2@@__crt_stdio_output@@AAEXI@Z 1004ae07 f i libucrt:output.obj
 0001:00049e1c       ?unset_flag@?$output_processor@DV?$stream_output_adapter@D@__crt_stdio_output@@V?$standard_base@DV?$stream_output_adapter@D@__crt_stdio_output@@@2@@__crt_stdio_output@@AAEXI@Z 1004ae1c f i libucrt:output.obj
 0001:00049e31       ?unset_flag@?$output_processor@DV?$string_output_adapter@D@__crt_stdio_output@@V?$format_validation_base@DV?$string_output_adapter@D@__crt_stdio_output@@@2@@__crt_stdio_output@@AAEXI@Z 1004ae31 f i libucrt:output.obj
 0001:00049e46       ?unset_flag@?$output_processor@DV?$string_output_adapter@D@__crt_stdio_output@@V?$positional_parameter_base@DV?$string_output_adapter@D@__crt_stdio_output@@@2@@__crt_stdio_output@@AAEXI@Z 1004ae46 f i libucrt:output.obj
 0001:00049e5b       ?unset_flag@?$output_processor@DV?$string_output_adapter@D@__crt_stdio_output@@V?$standard_base@DV?$string_output_adapter@D@__crt_stdio_output@@@2@@__crt_stdio_output@@AAEXI@Z 1004ae5b f i libucrt:output.obj
 0001:00049e70       ?unset_flag@?$output_processor@_WV?$stream_output_adapter@_W@__crt_stdio_output@@V?$format_validation_base@_WV?$stream_output_adapter@_W@__crt_stdio_output@@@2@@__crt_stdio_output@@AAEXI@Z 1004ae70 f i libucrt:output.obj
 0001:00049e85       ?unset_flag@?$output_processor@_WV?$stream_output_adapter@_W@__crt_stdio_output@@V?$positional_parameter_base@_WV?$stream_output_adapter@_W@__crt_stdio_output@@@2@@__crt_stdio_output@@AAEXI@Z 1004ae85 f i libucrt:output.obj
 0001:00049e9a       ?unset_flag@?$output_processor@_WV?$stream_output_adapter@_W@__crt_stdio_output@@V?$standard_base@_WV?$stream_output_adapter@_W@__crt_stdio_output@@@2@@__crt_stdio_output@@AAEXI@Z 1004ae9a f i libucrt:output.obj
 0001:00049eaf       ?unset_flag@?$output_processor@_WV?$string_output_adapter@_W@__crt_stdio_output@@V?$format_validation_base@_WV?$string_output_adapter@_W@__crt_stdio_output@@@2@@__crt_stdio_output@@AAEXI@Z 1004aeaf f i libucrt:output.obj
 0001:00049ec4       ?unset_flag@?$output_processor@_WV?$string_output_adapter@_W@__crt_stdio_output@@V?$positional_parameter_base@_WV?$string_output_adapter@_W@__crt_stdio_output@@@2@@__crt_stdio_output@@AAEXI@Z 1004aec4 f i libucrt:output.obj
 0001:00049ed9       ?unset_flag@?$output_processor@_WV?$string_output_adapter@_W@__crt_stdio_output@@V?$standard_base@_WV?$string_output_adapter@_W@__crt_stdio_output@@@2@@__crt_stdio_output@@AAEXI@Z 1004aed9 f i libucrt:output.obj
 0001:00049eee       ?update_field_width@?$positional_parameter_base@DV?$stream_output_adapter@D@__crt_stdio_output@@@__crt_stdio_output@@IAE_NXZ 1004aeee f i libucrt:output.obj
 0001:00049fd1       ?update_field_width@?$positional_parameter_base@DV?$string_output_adapter@D@__crt_stdio_output@@@__crt_stdio_output@@IAE_NXZ 1004afd1 f i libucrt:output.obj
 0001:0004a0b4       ?update_field_width@?$positional_parameter_base@_WV?$stream_output_adapter@_W@__crt_stdio_output@@@__crt_stdio_output@@IAE_NXZ 1004b0b4 f i libucrt:output.obj
 0001:0004a198       ?update_field_width@?$positional_parameter_base@_WV?$string_output_adapter@_W@__crt_stdio_output@@@__crt_stdio_output@@IAE_NXZ 1004b198 f i libucrt:output.obj
 0001:0004a27c       ?update_field_width@?$standard_base@DV?$stream_output_adapter@D@__crt_stdio_output@@@__crt_stdio_output@@IAE_NXZ 1004b27c f i libucrt:output.obj
 0001:0004a290       ?update_field_width@?$standard_base@DV?$string_output_adapter@D@__crt_stdio_output@@@__crt_stdio_output@@IAE_NXZ 1004b290 f i libucrt:output.obj
 0001:0004a2a4       ?update_field_width@?$standard_base@_WV?$stream_output_adapter@_W@__crt_stdio_output@@@__crt_stdio_output@@IAE_NXZ 1004b2a4 f i libucrt:output.obj
 0001:0004a2b8       ?update_field_width@?$standard_base@_WV?$string_output_adapter@_W@__crt_stdio_output@@@__crt_stdio_output@@IAE_NXZ 1004b2b8 f i libucrt:output.obj
 0001:0004a2cc       ?update_precision@?$positional_parameter_base@DV?$stream_output_adapter@D@__crt_stdio_output@@@__crt_stdio_output@@IAE_NXZ 1004b2cc f i libucrt:output.obj
 0001:0004a3af       ?update_precision@?$positional_parameter_base@DV?$string_output_adapter@D@__crt_stdio_output@@@__crt_stdio_output@@IAE_NXZ 1004b3af f i libucrt:output.obj
 0001:0004a492       ?update_precision@?$positional_parameter_base@_WV?$stream_output_adapter@_W@__crt_stdio_output@@@__crt_stdio_output@@IAE_NXZ 1004b492 f i libucrt:output.obj
 0001:0004a576       ?update_precision@?$positional_parameter_base@_WV?$string_output_adapter@_W@__crt_stdio_output@@@__crt_stdio_output@@IAE_NXZ 1004b576 f i libucrt:output.obj
 0001:0004a65a       ?update_precision@?$standard_base@DV?$stream_output_adapter@D@__crt_stdio_output@@@__crt_stdio_output@@IAE_NXZ 1004b65a f i libucrt:output.obj
 0001:0004a66e       ?update_precision@?$standard_base@DV?$string_output_adapter@D@__crt_stdio_output@@@__crt_stdio_output@@IAE_NXZ 1004b66e f i libucrt:output.obj
 0001:0004a682       ?update_precision@?$standard_base@_WV?$stream_output_adapter@_W@__crt_stdio_output@@@__crt_stdio_output@@IAE_NXZ 1004b682 f i libucrt:output.obj
 0001:0004a696       ?update_precision@?$standard_base@_WV?$string_output_adapter@_W@__crt_stdio_output@@@__crt_stdio_output@@IAE_NXZ 1004b696 f i libucrt:output.obj
 0001:0004a6aa       ?valid@__crt_stdio_stream@@QBE_NXZ 1004b6aa f i libucrt:output.obj
 0001:0004a6b4       ?validate@?$stream_output_adapter@D@__crt_stdio_output@@QBE_NXZ 1004b6b4 f i libucrt:output.obj
 0001:0004a6dd       ?validate@?$stream_output_adapter@_W@__crt_stdio_output@@QBE_NXZ 1004b6dd f i libucrt:output.obj
 0001:0004a6fe       ?validate@?$string_output_adapter@D@__crt_stdio_output@@QBE_NXZ 1004b6fe f i libucrt:output.obj
 0001:0004a71f       ?validate@?$string_output_adapter@_W@__crt_stdio_output@@QBE_NXZ 1004b71f f i libucrt:output.obj
 0001:0004a740       ?validate_and_store_parameter_data@?$positional_parameter_base@DV?$stream_output_adapter@D@__crt_stdio_output@@@__crt_stdio_output@@AAE_NAAUparameter_data@12@W4parameter_type@12@DW4length_modifier@2@@Z 1004b740 f i libucrt:output.obj
 0001:0004a79d       ?validate_and_store_parameter_data@?$positional_parameter_base@DV?$string_output_adapter@D@__crt_stdio_output@@@__crt_stdio_output@@AAE_NAAUparameter_data@12@W4parameter_type@12@DW4length_modifier@2@@Z 1004b79d f i libucrt:output.obj
 0001:0004a7fa       ?validate_and_store_parameter_data@?$positional_parameter_base@_WV?$stream_output_adapter@_W@__crt_stdio_output@@@__crt_stdio_output@@AAE_NAAUparameter_data@12@W4parameter_type@12@_WW4length_modifier@2@@Z 1004b7fa f i libucrt:output.obj
 0001:0004a85a       ?validate_and_store_parameter_data@?$positional_parameter_base@_WV?$string_output_adapter@_W@__crt_stdio_output@@@__crt_stdio_output@@AAE_NAAUparameter_data@12@W4parameter_type@12@_WW4length_modifier@2@@Z 1004b85a f i libucrt:output.obj
 0001:0004a8ba       ?validate_and_update_state_at_beginning_of_format_character@?$positional_parameter_base@DV?$stream_output_adapter@D@__crt_stdio_output@@@__crt_stdio_output@@IAE_NXZ 1004b8ba f i libucrt:output.obj
 0001:0004a9f0       ?validate_and_update_state_at_beginning_of_format_character@?$positional_parameter_base@DV?$string_output_adapter@D@__crt_stdio_output@@@__crt_stdio_output@@IAE_NXZ 1004b9f0 f i libucrt:output.obj
 0001:0004ab26       ?validate_and_update_state_at_beginning_of_format_character@?$positional_parameter_base@_WV?$stream_output_adapter@_W@__crt_stdio_output@@@__crt_stdio_output@@IAE_NXZ 1004bb26 f i libucrt:output.obj
 0001:0004ac68       ?validate_and_update_state_at_beginning_of_format_character@?$positional_parameter_base@_WV?$string_output_adapter@_W@__crt_stdio_output@@@__crt_stdio_output@@IAE_NXZ 1004bc68 f i libucrt:output.obj
 0001:0004adaa       ?validate_and_update_state_at_beginning_of_format_character@?$standard_base@DV?$stream_output_adapter@D@__crt_stdio_output@@@__crt_stdio_output@@IAE_NXZ 1004bdaa f i libucrt:output.obj
 0001:0004adad       ?validate_and_update_state_at_beginning_of_format_character@?$standard_base@DV?$string_output_adapter@D@__crt_stdio_output@@@__crt_stdio_output@@IAE_NXZ 1004bdad f i libucrt:output.obj
 0001:0004adb0       ?validate_and_update_state_at_beginning_of_format_character@?$standard_base@_WV?$stream_output_adapter@_W@__crt_stdio_output@@@__crt_stdio_output@@IAE_NXZ 1004bdb0 f i libucrt:output.obj
 0001:0004adb3       ?validate_and_update_state_at_beginning_of_format_character@?$standard_base@_WV?$string_output_adapter@_W@__crt_stdio_output@@@__crt_stdio_output@@IAE_NXZ 1004bdb3 f i libucrt:output.obj
 0001:0004adb6       ?validate_and_update_state_at_end_of_format_string@?$format_validation_base@DV?$stream_output_adapter@D@__crt_stdio_output@@@__crt_stdio_output@@IBE_NXZ 1004bdb6 f i libucrt:output.obj
 0001:0004ade0       ?validate_and_update_state_at_end_of_format_string@?$format_validation_base@DV?$string_output_adapter@D@__crt_stdio_output@@@__crt_stdio_output@@IBE_NXZ 1004bde0 f i libucrt:output.obj
 0001:0004ae0a       ?validate_and_update_state_at_end_of_format_string@?$format_validation_base@_WV?$stream_output_adapter@_W@__crt_stdio_output@@@__crt_stdio_output@@IBE_NXZ 1004be0a f i libucrt:output.obj
 0001:0004ae34       ?validate_and_update_state_at_end_of_format_string@?$format_validation_base@_WV?$string_output_adapter@_W@__crt_stdio_output@@@__crt_stdio_output@@IBE_NXZ 1004be34 f i libucrt:output.obj
 0001:0004ae5e       ?validate_and_update_state_at_end_of_format_string@?$positional_parameter_base@DV?$stream_output_adapter@D@__crt_stdio_output@@@__crt_stdio_output@@IAE_NXZ 1004be5e f i libucrt:output.obj
 0001:0004aefe       ?validate_and_update_state_at_end_of_format_string@?$positional_parameter_base@DV?$string_output_adapter@D@__crt_stdio_output@@@__crt_stdio_output@@IAE_NXZ 1004befe f i libucrt:output.obj
 0001:0004af9e       ?validate_and_update_state_at_end_of_format_string@?$positional_parameter_base@_WV?$stream_output_adapter@_W@__crt_stdio_output@@@__crt_stdio_output@@IAE_NXZ 1004bf9e f i libucrt:output.obj
 0001:0004b03e       ?validate_and_update_state_at_end_of_format_string@?$positional_parameter_base@_WV?$string_output_adapter@_W@__crt_stdio_output@@@__crt_stdio_output@@IAE_NXZ 1004c03e f i libucrt:output.obj
 0001:0004b0de       ?validate_and_update_state_at_end_of_format_string@?$standard_base@DV?$stream_output_adapter@D@__crt_stdio_output@@@__crt_stdio_output@@IBE_NXZ 1004c0de f i libucrt:output.obj
 0001:0004b0e1       ?validate_and_update_state_at_end_of_format_string@?$standard_base@DV?$string_output_adapter@D@__crt_stdio_output@@@__crt_stdio_output@@IBE_NXZ 1004c0e1 f i libucrt:output.obj
 0001:0004b0e4       ?validate_and_update_state_at_end_of_format_string@?$standard_base@_WV?$stream_output_adapter@_W@__crt_stdio_output@@@__crt_stdio_output@@IBE_NXZ 1004c0e4 f i libucrt:output.obj
 0001:0004b0e7       ?validate_and_update_state_at_end_of_format_string@?$standard_base@_WV?$string_output_adapter@_W@__crt_stdio_output@@@__crt_stdio_output@@IBE_NXZ 1004c0e7 f i libucrt:output.obj
 0001:0004b0ea       ?validate_state_for_type_case_a@?$positional_parameter_base@DV?$stream_output_adapter@D@__crt_stdio_output@@@__crt_stdio_output@@IAE_NXZ 1004c0ea f i libucrt:output.obj
 0001:0004b151       ?validate_state_for_type_case_a@?$positional_parameter_base@DV?$string_output_adapter@D@__crt_stdio_output@@@__crt_stdio_output@@IAE_NXZ 1004c151 f i libucrt:output.obj
 0001:0004b1b8       ?validate_state_for_type_case_a@?$positional_parameter_base@_WV?$stream_output_adapter@_W@__crt_stdio_output@@@__crt_stdio_output@@IAE_NXZ 1004c1b8 f i libucrt:output.obj
 0001:0004b21f       ?validate_state_for_type_case_a@?$positional_parameter_base@_WV?$string_output_adapter@_W@__crt_stdio_output@@@__crt_stdio_output@@IAE_NXZ 1004c21f f i libucrt:output.obj
 0001:0004b286       ?validate_state_for_type_case_a@?$standard_base@DV?$stream_output_adapter@D@__crt_stdio_output@@@__crt_stdio_output@@IBE_NXZ 1004c286 f i libucrt:output.obj
 0001:0004b289       ?validate_state_for_type_case_a@?$standard_base@DV?$string_output_adapter@D@__crt_stdio_output@@@__crt_stdio_output@@IBE_NXZ 1004c289 f i libucrt:output.obj
 0001:0004b28c       ?validate_state_for_type_case_a@?$standard_base@_WV?$stream_output_adapter@_W@__crt_stdio_output@@@__crt_stdio_output@@IBE_NXZ 1004c28c f i libucrt:output.obj
 0001:0004b28f       ?validate_state_for_type_case_a@?$standard_base@_WV?$string_output_adapter@_W@__crt_stdio_output@@@__crt_stdio_output@@IBE_NXZ 1004c28f f i libucrt:output.obj
 0001:0004b292       ?validate_stream_is_ansi_if_required@?$__acrt_stdio_char_traits@D@@SA_NQAU_iobuf@@@Z 1004c292 f i libucrt:output.obj
 0001:0004b334       ?validate_stream_is_ansi_if_required@?$__acrt_stdio_char_traits@_W@@SA_NQAU_iobuf@@@Z 1004c334 f i libucrt:output.obj
 0001:0004b337       ?wide_null_string@?$output_processor@DV?$stream_output_adapter@D@__crt_stdio_output@@V?$format_validation_base@DV?$stream_output_adapter@D@__crt_stdio_output@@@2@@__crt_stdio_output@@CAPA_WXZ 1004c337 f i libucrt:output.obj
 0001:0004b33d       ?wide_null_string@?$output_processor@DV?$stream_output_adapter@D@__crt_stdio_output@@V?$positional_parameter_base@DV?$stream_output_adapter@D@__crt_stdio_output@@@2@@__crt_stdio_output@@CAPA_WXZ 1004c33d f i libucrt:output.obj
 0001:0004b343       ?wide_null_string@?$output_processor@DV?$stream_output_adapter@D@__crt_stdio_output@@V?$standard_base@DV?$stream_output_adapter@D@__crt_stdio_output@@@2@@__crt_stdio_output@@CAPA_WXZ 1004c343 f i libucrt:output.obj
 0001:0004b349       ?wide_null_string@?$output_processor@DV?$string_output_adapter@D@__crt_stdio_output@@V?$format_validation_base@DV?$string_output_adapter@D@__crt_stdio_output@@@2@@__crt_stdio_output@@CAPA_WXZ 1004c349 f i libucrt:output.obj
 0001:0004b34f       ?wide_null_string@?$output_processor@DV?$string_output_adapter@D@__crt_stdio_output@@V?$positional_parameter_base@DV?$string_output_adapter@D@__crt_stdio_output@@@2@@__crt_stdio_output@@CAPA_WXZ 1004c34f f i libucrt:output.obj
 0001:0004b355       ?wide_null_string@?$output_processor@DV?$string_output_adapter@D@__crt_stdio_output@@V?$standard_base@DV?$string_output_adapter@D@__crt_stdio_output@@@2@@__crt_stdio_output@@CAPA_WXZ 1004c355 f i libucrt:output.obj
 0001:0004b35b       ?wide_null_string@?$output_processor@_WV?$stream_output_adapter@_W@__crt_stdio_output@@V?$format_validation_base@_WV?$stream_output_adapter@_W@__crt_stdio_output@@@2@@__crt_stdio_output@@CAPA_WXZ 1004c35b f i libucrt:output.obj
 0001:0004b361       ?wide_null_string@?$output_processor@_WV?$stream_output_adapter@_W@__crt_stdio_output@@V?$positional_parameter_base@_WV?$stream_output_adapter@_W@__crt_stdio_output@@@2@@__crt_stdio_output@@CAPA_WXZ 1004c361 f i libucrt:output.obj
 0001:0004b367       ?wide_null_string@?$output_processor@_WV?$stream_output_adapter@_W@__crt_stdio_output@@V?$standard_base@_WV?$stream_output_adapter@_W@__crt_stdio_output@@@2@@__crt_stdio_output@@CAPA_WXZ 1004c367 f i libucrt:output.obj
 0001:0004b36d       ?wide_null_string@?$output_processor@_WV?$string_output_adapter@_W@__crt_stdio_output@@V?$format_validation_base@_WV?$string_output_adapter@_W@__crt_stdio_output@@@2@@__crt_stdio_output@@CAPA_WXZ 1004c36d f i libucrt:output.obj
 0001:0004b373       ?wide_null_string@?$output_processor@_WV?$string_output_adapter@_W@__crt_stdio_output@@V?$positional_parameter_base@_WV?$string_output_adapter@_W@__crt_stdio_output@@@2@@__crt_stdio_output@@CAPA_WXZ 1004c373 f i libucrt:output.obj
 0001:0004b379       ?wide_null_string@?$output_processor@_WV?$string_output_adapter@_W@__crt_stdio_output@@V?$standard_base@_WV?$string_output_adapter@_W@__crt_stdio_output@@@2@@__crt_stdio_output@@CAPA_WXZ 1004c379 f i libucrt:output.obj
 0001:0004b37f       ?write_character@?$stream_output_adapter@D@__crt_stdio_output@@QBEXDQAH@Z 1004c37f f i libucrt:output.obj
 0001:0004b3cb       ?write_character@?$stream_output_adapter@_W@__crt_stdio_output@@QBEX_WQAH@Z 1004c3cb f i libucrt:output.obj
 0001:0004b41b       ?write_character@?$string_output_adapter@D@__crt_stdio_output@@QBE_NDQAH@Z 1004c41b f i libucrt:output.obj
 0001:0004b46d       ?write_character@?$string_output_adapter@_W@__crt_stdio_output@@QBE_N_WQAH@Z 1004c46d f i libucrt:output.obj
 0001:0004b4c3       ?write_stored_string_tchar@?$output_processor@DV?$stream_output_adapter@D@__crt_stdio_output@@V?$format_validation_base@DV?$stream_output_adapter@D@__crt_stdio_output@@@2@@__crt_stdio_output@@AAE_ND@Z 1004c4c3 f i libucrt:output.obj
 0001:0004b593       ?write_stored_string_tchar@?$output_processor@DV?$stream_output_adapter@D@__crt_stdio_output@@V?$positional_parameter_base@DV?$stream_output_adapter@D@__crt_stdio_output@@@2@@__crt_stdio_output@@AAE_ND@Z 1004c593 f i libucrt:output.obj
 0001:0004b663       ?write_stored_string_tchar@?$output_processor@DV?$stream_output_adapter@D@__crt_stdio_output@@V?$standard_base@DV?$stream_output_adapter@D@__crt_stdio_output@@@2@@__crt_stdio_output@@AAE_ND@Z 1004c663 f i libucrt:output.obj
 0001:0004b733       ?write_stored_string_tchar@?$output_processor@DV?$string_output_adapter@D@__crt_stdio_output@@V?$format_validation_base@DV?$string_output_adapter@D@__crt_stdio_output@@@2@@__crt_stdio_output@@AAE_ND@Z 1004c733 f i libucrt:output.obj
 0001:0004b803       ?write_stored_string_tchar@?$output_processor@DV?$string_output_adapter@D@__crt_stdio_output@@V?$positional_parameter_base@DV?$string_output_adapter@D@__crt_stdio_output@@@2@@__crt_stdio_output@@AAE_ND@Z 1004c803 f i libucrt:output.obj
 0001:0004b8d3       ?write_stored_string_tchar@?$output_processor@DV?$string_output_adapter@D@__crt_stdio_output@@V?$standard_base@DV?$string_output_adapter@D@__crt_stdio_output@@@2@@__crt_stdio_output@@AAE_ND@Z 1004c8d3 f i libucrt:output.obj
 0001:0004b9a3       ?write_stored_string_tchar@?$output_processor@_WV?$stream_output_adapter@_W@__crt_stdio_output@@V?$format_validation_base@_WV?$stream_output_adapter@_W@__crt_stdio_output@@@2@@__crt_stdio_output@@AAE_N_W@Z 1004c9a3 f i libucrt:output.obj
 0001:0004ba50       ?write_stored_string_tchar@?$output_processor@_WV?$stream_output_adapter@_W@__crt_stdio_output@@V?$positional_parameter_base@_WV?$stream_output_adapter@_W@__crt_stdio_output@@@2@@__crt_stdio_output@@AAE_N_W@Z 1004ca50 f i libucrt:output.obj
 0001:0004bafd       ?write_stored_string_tchar@?$output_processor@_WV?$stream_output_adapter@_W@__crt_stdio_output@@V?$standard_base@_WV?$stream_output_adapter@_W@__crt_stdio_output@@@2@@__crt_stdio_output@@AAE_N_W@Z 1004cafd f i libucrt:output.obj
 0001:0004bbaa       ?write_stored_string_tchar@?$output_processor@_WV?$string_output_adapter@_W@__crt_stdio_output@@V?$format_validation_base@_WV?$string_output_adapter@_W@__crt_stdio_output@@@2@@__crt_stdio_output@@AAE_N_W@Z 1004cbaa f i libucrt:output.obj
 0001:0004bc57       ?write_stored_string_tchar@?$output_processor@_WV?$string_output_adapter@_W@__crt_stdio_output@@V?$positional_parameter_base@_WV?$string_output_adapter@_W@__crt_stdio_output@@@2@@__crt_stdio_output@@AAE_N_W@Z 1004cc57 f i libucrt:output.obj
 0001:0004bd04       ?write_stored_string_tchar@?$output_processor@_WV?$string_output_adapter@_W@__crt_stdio_output@@V?$standard_base@_WV?$string_output_adapter@_W@__crt_stdio_output@@@2@@__crt_stdio_output@@AAE_N_W@Z 1004cd04 f i libucrt:output.obj
 0001:0004bdb1       ?write_string@?$stream_output_adapter@D@__crt_stdio_output@@QBEXQBDHQAH1@Z 1004cdb1 f i libucrt:output.obj
 0001:0004be5d       ?write_string@?$stream_output_adapter@_W@__crt_stdio_output@@QBEXQB_WHQAH1@Z 1004ce5d f i libucrt:output.obj
 0001:0004bf0d       ?write_string@?$string_output_adapter@D@__crt_stdio_output@@QBEXQBDHQAH1@Z 1004cf0d f i libucrt:output.obj
 0001:0004bfc4       ?write_string@?$string_output_adapter@_W@__crt_stdio_output@@QBEXQB_WHQAH1@Z 1004cfc4 f i libucrt:output.obj
 0001:0004c084       ___acrt_isleadbyte_l_noupdate 1004d084 f i libucrt:output.obj
 0001:0004c0a5       ___acrt_locale_changed     1004d0a5 f i libucrt:output.obj
 0001:0004c0b6       ___stdio_common_vfprintf   1004d0b6 f   libucrt:output.obj
 0001:0004c14a       ___stdio_common_vfprintf_p 1004d14a f   libucrt:output.obj
 0001:0004c1de       ___stdio_common_vfprintf_s 1004d1de f   libucrt:output.obj
 0001:0004c272       ___stdio_common_vfwprintf  1004d272 f   libucrt:output.obj
 0001:0004c306       ___stdio_common_vfwprintf_p 1004d306 f   libucrt:output.obj
 0001:0004c39a       ___stdio_common_vfwprintf_s 1004d39a f   libucrt:output.obj
 0001:0004c42e       ___stdio_common_vsnprintf_s 1004d42e f   libucrt:output.obj
 0001:0004c45e       ___stdio_common_vsnwprintf_s 1004d45e f   libucrt:output.obj
 0001:0004c48e       ___stdio_common_vsprintf   1004d48e f   libucrt:output.obj
 0001:0004c4bb       ___stdio_common_vsprintf_p 1004d4bb f   libucrt:output.obj
 0001:0004c4e8       ___stdio_common_vsprintf_s 1004d4e8 f   libucrt:output.obj
 0001:0004c515       ___stdio_common_vswprintf  1004d515 f   libucrt:output.obj
 0001:0004c542       ___stdio_common_vswprintf_p 1004d542 f   libucrt:output.obj
 0001:0004c56f       ___stdio_common_vswprintf_s 1004d56f f   libucrt:output.obj
 0001:0004c59c       ___libm_sse2_pow           1004d59c f   libucrt:pow_sse2.obj
 0001:0004d2b2       _calloc                    1004e2b2 f   libucrt:calloc.obj
 0001:0004d2bf       _free                      1004e2bf f   libucrt:free.obj
 0001:0004d2c4       ??$__vcrt_va_start_verify_argument_type@QB_W@@YAXXZ 1004e2c4 f i libucrt:assert.obj
 0001:0004e261       ??$ftprintf@PAU_iobuf@@PBDABQBDABQBDABI@?$__crt_char_traits@D@@SAH$$QAPAU_iobuf@@$$QAPBDABQBD2ABI@Z 1004f261 f i libucrt:assert.obj
 0001:0004e293       ??$ftprintf@PAU_iobuf@@PB_WABQB_WABQB_WABI@?$__crt_char_traits@_W@@SAH$$QAPAU_iobuf@@$$QAPB_WABQB_W2ABI@Z 1004f293 f i libucrt:assert.obj
 0001:0004e2c5       ??$get_module_file_name@AAPAUHINSTANCE__@@AAY0BAF@DK@?$__crt_char_traits@D@@SAKAAPAUHINSTANCE__@@AAY0BAF@D$$QAK@Z 1004f2c5 f i libucrt:assert.obj
 0001:0004e2e5       ??$get_module_file_name@AAPAUHINSTANCE__@@AAY0BAF@_WK@?$__crt_char_traits@_W@@SAKAAPAUHINSTANCE__@@AAY0BAF@_W$$QAK@Z 1004f2e5 f i libucrt:assert.obj
 0001:0004e305       ??$itot_s@ABIQAD$$CBIH@?$__crt_char_traits@D@@SAHABI$$QBQAD$$QBI$$QAH@Z 1004f305 f i libucrt:assert.obj
 0001:0004e330       ??$itot_s@ABIQA_W$$CBIH@?$__crt_char_traits@_W@@SAHABI$$QBQA_W$$QBI$$QAH@Z 1004f330 f i libucrt:assert.obj
 0001:0004e35b       ??$show_message_box@AAY0CEA@DPBDJ@?$__crt_char_traits@D@@SAHAAY0CEA@D$$QAPBD$$QAJ@Z 1004f35b f i libucrt:assert.obj
 0001:0004e37e       ??$show_message_box@AAY0CEA@_WPB_WJ@?$__crt_char_traits@_W@@SAHAAY0CEA@_W$$QAPB_W$$QAJ@Z 1004f37e f i libucrt:assert.obj
 0001:0004e3a1       ??$tcscat_s@ABQADABIAAPAD@?$__crt_char_traits@D@@SAHABQADABIAAPAD@Z 1004f3a1 f i libucrt:assert.obj
 0001:0004e3c6       ??$tcscat_s@ABQADABIABQBD@?$__crt_char_traits@D@@SAHABQADABIABQBD@Z 1004f3c6 f i libucrt:assert.obj
 0001:0004e3eb       ??$tcscat_s@ABQADABIPBD@?$__crt_char_traits@D@@SAHABQADABI$$QAPBD@Z 1004f3eb f i libucrt:assert.obj
 0001:0004e410       ??$tcscat_s@ABQA_WABIAAPA_W@?$__crt_char_traits@_W@@SAHABQA_WABIAAPA_W@Z 1004f410 f i libucrt:assert.obj
 0001:0004e435       ??$tcscat_s@ABQA_WABIABQB_W@?$__crt_char_traits@_W@@SAHABQA_WABIABQB_W@Z 1004f435 f i libucrt:assert.obj
 0001:0004e45a       ??$tcscat_s@ABQA_WABIPB_W@?$__crt_char_traits@_W@@SAHABQA_WABI$$QAPB_W@Z 1004f45a f i libucrt:assert.obj
 0001:0004e47f       ??$tcscpy_s@AAY0BAF@DIPBD@?$__crt_char_traits@D@@SAHAAY0BAF@D$$QAI$$QAPBD@Z 1004f47f f i libucrt:assert.obj
 0001:0004e4a2       ??$tcscpy_s@AAY0BAF@_WIPB_W@?$__crt_char_traits@_W@@SAHAAY0BAF@_W$$QAI$$QAPB_W@Z 1004f4a2 f i libucrt:assert.obj
 0001:0004e4c5       ??$tcscpy_s@ABQADABIPBD@?$__crt_char_traits@D@@SAHABQADABI$$QAPBD@Z 1004f4c5 f i libucrt:assert.obj
 0001:0004e4ea       ??$tcscpy_s@ABQA_WABIPB_W@?$__crt_char_traits@_W@@SAHABQA_WABI$$QAPB_W@Z 1004f4ea f i libucrt:assert.obj
 0001:0004e50f       ??$tcslen@AAY0BAF@D@?$__crt_char_traits@D@@SAIAAY0BAF@D@Z 1004f50f f i libucrt:assert.obj
 0001:0004e52a       ??$tcslen@AAY0BAF@_W@?$__crt_char_traits@_W@@SAIAAY0BAF@_W@Z 1004f52a f i libucrt:assert.obj
 0001:0004e54d       ??$tcslen@ABQAD@?$__crt_char_traits@D@@SAIABQAD@Z 1004f54d f i libucrt:assert.obj
 0001:0004e56b       ??$tcslen@ABQA_W@?$__crt_char_traits@_W@@SAIABQA_W@Z 1004f56b f i libucrt:assert.obj
 0001:0004e590       ??$tcslen@ABQBD@?$__crt_char_traits@D@@SAIABQBD@Z 1004f590 f i libucrt:assert.obj
 0001:0004e5ae       ??$tcslen@ABQB_W@?$__crt_char_traits@_W@@SAIABQB_W@Z 1004f5ae f i libucrt:assert.obj
 0001:0004e5d3       ??$tcsncat_s@ABQADABIAAPBD$$CBI@?$__crt_char_traits@D@@SAHABQADABIAAPBD$$QBI@Z 1004f5d3 f i libucrt:assert.obj
 0001:0004e5fe       ??$tcsncat_s@ABQADABIABQBDABI@?$__crt_char_traits@D@@SAHABQADABIABQBD1@Z 1004f5fe f i libucrt:assert.obj
 0001:0004e629       ??$tcsncat_s@ABQADABIPBD$$CBI@?$__crt_char_traits@D@@SAHABQADABI$$QAPBD$$QBI@Z 1004f629 f i libucrt:assert.obj
 0001:0004e654       ??$tcsncat_s@ABQA_WABIAAPB_W$$CBI@?$__crt_char_traits@_W@@SAHABQA_WABIAAPB_W$$QBI@Z 1004f654 f i libucrt:assert.obj
 0001:0004e67f       ??$tcsncat_s@ABQA_WABIABQB_WABI@?$__crt_char_traits@_W@@SAHABQA_WABIABQB_W1@Z 1004f67f f i libucrt:assert.obj
 0001:0004e6aa       ??$tcsncat_s@ABQA_WABIPB_W$$CBI@?$__crt_char_traits@_W@@SAHABQA_WABI$$QAPB_W$$QBI@Z 1004f6aa f i libucrt:assert.obj
 0001:0004e84f       ?has_any_buffer@__crt_stdio_stream@@QBE_NXZ 1004f84f f i libucrt:assert.obj
 0001:0004e864       ?has_any_of@__crt_stdio_stream@@QBE_NJ@Z 1004f864 f i libucrt:assert.obj
 0001:0004e880       __assert                   1004f880 f   libucrt:assert.obj
 0001:0004e8da       __invoke_watson_if_error   1004f8da f i libucrt:assert.obj
 0001:0004e904       __vfwprintf_l              1004f904 f i libucrt:assert.obj
 0001:0004e932       __vswprintf_c_l            1004f932 f i libucrt:assert.obj
 0001:0004e96c       __wassert                  1004f96c f   libucrt:assert.obj
 0001:0004e9c6       _fwprintf                  1004f9c6 f i libucrt:assert.obj
 0001:0004ea88       _swprintf                  1004fa88 f i libucrt:assert.obj
 0001:0004eaad       _realloc                   1004faad f   libucrt:realloc.obj
 0001:0004eaba       ??$?B$$A6GXPAXK0@Z@__crt_fast_encoded_nullptr_t@@QBEP6GXPAXK0@ZXZ 1004faba f i libucrt:exit.obj
 0001:0004ead8       ??$__crt_fast_decode_pointer@P6GXPAXK0@Z@@YAP6GXPAXK0@ZQ6GX0K0@Z@Z 1004fad8 f i libucrt:exit.obj
 0001:0004eaf3       ??$__crt_fast_encode_pointer@P6GXPAXK0@Z@@YAP6GXPAXK0@ZQ6GX0K0@Z@Z 1004faf3 f i libucrt:exit.obj
 0001:0004eb19       ??$__crt_get_proc_address@P6GXI@Z@@YAP6GXI@ZQAUHINSTANCE__@@QBD@Z 1004fb19 f i libucrt:exit.obj
 0001:0004eb30       ??0?$__crt_unique_handle_t@U__crt_hmodule_traits@@@@QAE@QAUHINSTANCE__@@@Z 1004fb30 f i libucrt:exit.obj
 0001:0004eb44       ??1?$__crt_unique_handle_t@U__crt_hmodule_traits@@@@QAE@XZ 1004fb44 f i libucrt:exit.obj
 0001:0004eb77       ?close@?$__crt_unique_handle_t@U__crt_hmodule_traits@@@@QAEXXZ 1004fb77 f i libucrt:exit.obj
 0001:0004eb93       ?close@__crt_hmodule_traits@@SA_NPAUHINSTANCE__@@@Z 1004fb93 f i libucrt:exit.obj
 0001:0004ed5e       ?get@?$__crt_unique_handle_t@U__crt_hmodule_traits@@@@QBEPAUHINSTANCE__@@XZ 1004fd5e f i libucrt:exit.obj
 0001:0004ed61       ?get_address_of@?$__crt_unique_handle_t@U__crt_hmodule_traits@@@@QAEPAPAUHINSTANCE__@@XZ 1004fd61 f i libucrt:exit.obj
 0001:0004ed64       ?get_invalid_value@__crt_hmodule_traits@@SAPAUHINSTANCE__@@XZ 1004fd64 f i libucrt:exit.obj
 0001:0004ee61       __Exit                     1004fe61 f   libucrt:exit.obj
 0001:0004ee7c       ___acrt_initialize_thread_local_exit_callback 1004fe7c f   libucrt:exit.obj
 0001:0004ee8e       __c_exit                   1004fe8e f   libucrt:exit.obj
 0001:0004eea0       __cexit                    1004fea0 f   libucrt:exit.obj
 0001:0004eeb2       __exit                     1004feb2 f   libucrt:exit.obj
 0001:0004eecd       __is_c_termination_complete 1004fecd f   libucrt:exit.obj
 0001:0004eed3       __register_thread_local_exe_atexit_callback 1004fed3 f   libucrt:exit.obj
 0001:0004ef19       _exit                      1004ff19 f   libucrt:exit.obj
 0001:0004ef34       _quick_exit                1004ff34 f   libucrt:exit.obj
 0001:0004ef50       _strncat                   1004ff50 f   libucrt:strncat.obj
 0001:0004f0e0       _strncpy                   100500e0 f   libucrt:strncpy.obj
 0001:0004f24d       ?is_in_use@__crt_stdio_stream@@QBE_NXZ 1005024d f i libucrt:fclose.obj
 0001:0004f25c       __fclose_nolock            1005025c f   libucrt:fclose.obj
 0001:0004f2ef       _fclose                    100502ef f   libucrt:fclose.obj
 0001:0004f621       ??$open_file@ABQBDABQBDABHPAU_iobuf@@@?$__crt_char_traits@D@@SAPAU_iobuf@@ABQBD0ABH$$QAPAU1@@Z 10050621 f i libucrt:fopen.obj
 0001:0004f64c       ??$open_file@ABQB_WABQB_WABHPAU_iobuf@@@?$__crt_char_traits@_W@@SAPAU_iobuf@@ABQB_W0ABH$$QAPAU1@@Z 1005064c f i libucrt:fopen.obj
 0001:0004f677       ?unlock@__crt_stdio_stream@@QBEXXZ 10050677 f i libucrt:fopen.obj
 0001:0004f682       __fsopen                   10050682 f   libucrt:fopen.obj
 0001:0004f68f       __wfopen                   1005068f f   libucrt:fopen.obj
 0001:0004f6ab       __wfopen_s                 100506ab f   libucrt:fopen.obj
 0001:0004f703       __wfsopen                  10050703 f   libucrt:fopen.obj
 0001:0004f710       _fopen                     10050710 f   libucrt:fopen.obj
 0001:0004f72c       _fopen_s                   1005072c f   libucrt:fopen.obj
 0001:0004f784       ?set_flags@__crt_stdio_stream@@QBE_NJ@Z 10050784 f i libucrt:fread.obj
 0001:0004f7b4       __fread_nolock             100507b4 f   libucrt:fread.obj
 0001:0004f7d8       __fread_nolock_s           100507d8 f   libucrt:fread.obj
 0001:0004fa17       _fread                     10050a17 f   libucrt:fread.obj
 0001:0004fa3b       _fread_s                   10050a3b f   libucrt:fread.obj
 0001:0004fb93       ??$?RV<lambda_11b4f7b0d3157825a5656a18eba1ae27>@@AAV<lambda_b51c0495177f500e782686251704ae76>@@V<lambda_cf89b47920b5017557bfe891e78aca36>@@@?$__crt_seh_guarded_call@I@@QAEI$$QAV<lambda_11b4f7b0d3157825a5656a18eba1ae27>@@AAV<lambda_b51c0495177f500e782686251704ae76>@@$$QAV<lambda_cf89b47920b5017557bfe891e78aca36>@@@Z 10050b93 f i libucrt:fwrite.obj
 0001:0004fbf8       ??$__acrt_lock_stream_and_call@V<lambda_b51c0495177f500e782686251704ae76>@@@@YAIQAU_iobuf@@$$QAV<lambda_b51c0495177f500e782686251704ae76>@@@Z 10050bf8 f i libucrt:fwrite.obj
 0001:0004fced       ?has_big_buffer@__crt_stdio_stream@@QBE_NXZ 10050ced f i libucrt:fwrite.obj
 0001:0004fcfe       __fwrite_nolock            10050cfe f   libucrt:fwrite.obj
 0001:0004fed5       _fwrite                    10050ed5 f   libucrt:fwrite.obj
 0001:0004ff43       ??$?R_W@__crt_internal_free_policy@@QBEXQB_W@Z 10050f43 f i libucrt:unlink.obj
 0001:0004ff59       ??0?$__crt_unique_heap_ptr@_WU__crt_internal_free_policy@@@@QAE@QA_W@Z 10050f59 f i libucrt:unlink.obj
 0001:0004ff6d       ??1?$__crt_unique_heap_ptr@_WU__crt_internal_free_policy@@@@QAE@XZ 10050f6d f i libucrt:unlink.obj
 0001:0004ff83       ?get@?$__crt_unique_heap_ptr@_WU__crt_internal_free_policy@@@@QBEPA_WXZ 10050f83 f i libucrt:unlink.obj
 0001:0004ff86       ?get_address_of@?$__crt_unique_heap_ptr@_WU__crt_internal_free_policy@@@@QAEPAPA_WXZ 10050f86 f i libucrt:unlink.obj
 0001:0004ff89       ?release@?$__crt_unique_heap_ptr@_WU__crt_internal_free_policy@@@@QAEXXZ 10050f89 f i libucrt:unlink.obj
 0001:0004ff9f       __unlink                   10050f9f f   libucrt:unlink.obj
 0001:0004ffac       _remove                    10050fac f   libucrt:unlink.obj
 0001:0005000c       ?__acrt_stdio_reset_buffer@@YAXV__crt_stdio_stream@@@Z 1005100c f i libucrt:rewind.obj
 0001:00050027       ?has_all_of@__crt_stdio_stream@@QBE_NJ@Z 10051027 f i libucrt:rewind.obj
 0001:00050046       ?unset_flags@__crt_stdio_stream@@QBE_NJ@Z 10051046 f i libucrt:rewind.obj
 0001:0005007a       _rewind                    1005107a f   libucrt:rewind.obj
 0001:0005017b       _ldexp                     1005117b f   libucrt:ldexp.obj
 0001:000503e0       _strncmp                   100513e0 f   libucrt:strncmp.obj
 0001:00050476       __errcode                  10051476 f   libucrt:fpexcept.obj
 0001:000504b7       __except1                  100514b7 f   libucrt:fpexcept.obj
 0001:000505b8       __except2                  100515b8 f   libucrt:fpexcept.obj
 0001:00050701       __handle_exc               10051701 f   libucrt:fpexcept.obj
 0001:00050959       __handle_qnan2             10051959 f   libucrt:fpexcept.obj
 0001:00050969       __raise_exc                10051969 f   libucrt:fpexcept.obj
 0001:00050994       __raise_exc_ex             10051994 f   libucrt:fpexcept.obj
 0001:00050d41       __raise_excf               10051d41 f   libucrt:fpexcept.obj
 0001:00050d6c       __set_errno_from_matherr   10051d6c f   libucrt:fpexcept.obj
 0001:00050da6       __umatherr                 10051da6 f   libucrt:fpexcept.obj
 0001:00050e70       __initterm                 10051e70 f   libucrt:initterm.obj
 0001:00050ee3       __initterm_e               10051ee3 f   libucrt:initterm.obj
 0001:00050f66       __seh_filter_dll           10051f66 f   libucrt:exception_filter.obj
 0001:00050f8e       __seh_filter_exe           10051f8e f   libucrt:exception_filter.obj
 0001:0005115d       ??$?RPAD@__crt_internal_free_policy@@QBEXQBQAD@Z 1005215d f i libucrt:environment_initialization.obj
 0001:00051173       ??$?RPA_W@__crt_internal_free_policy@@QBEXQBQA_W@Z 10052173 f i libucrt:environment_initialization.obj
 0001:00051651       ??$get_environment_from_os@$$$V@?$__crt_char_traits@D@@SAPADXZ 10052651 f i libucrt:environment_initialization.obj
 0001:00051656       ??$get_environment_from_os@$$$V@?$__crt_char_traits@_W@@SAPA_WXZ 10052656 f i libucrt:environment_initialization.obj
 0001:00051790       ??$set_variable_in_environment_nolock@PADH@?$__crt_char_traits@D@@SAH$$QAPAD$$QAH@Z 10052790 f i libucrt:environment_initialization.obj
 0001:000517ae       ??$set_variable_in_environment_nolock@PA_WH@?$__crt_char_traits@_W@@SAH$$QAPA_W$$QAH@Z 100527ae f i libucrt:environment_initialization.obj
 0001:000517cc       ??$tcscpy_s@PADABIAAPAD@?$__crt_char_traits@D@@SAH$$QAPADABIAAPAD@Z 100527cc f i libucrt:environment_initialization.obj
 0001:000517f1       ??$tcscpy_s@PA_WABIAAPA_W@?$__crt_char_traits@_W@@SAH$$QAPA_WABIAAPA_W@Z 100527f1 f i libucrt:environment_initialization.obj
 0001:00051816       ??$tcslen@AAPAD@?$__crt_char_traits@D@@SAIAAPAD@Z 10052816 f i libucrt:environment_initialization.obj
 0001:00051834       ??$tcslen@AAPA_W@?$__crt_char_traits@_W@@SAIAAPA_W@Z 10052834 f i libucrt:environment_initialization.obj
 0001:00051859       ??$uninitialize@A6AXAAPAPAD@Z@?$dual_state_global@PAPAD@__crt_state_management@@QAEXA6AXAAPAPAD@Z@Z 10052859 f i libucrt:environment_initialization.obj
 0001:000518a9       ??$uninitialize@A6AXAAPAPA_W@Z@?$dual_state_global@PAPA_W@__crt_state_management@@QAEXA6AXAAPAPA_W@Z@Z 100528a9 f i libucrt:environment_initialization.obj
 0001:0005193b       ??0?$__crt_unique_heap_ptr@PADU__crt_internal_free_policy@@@@QAE@QAPAD@Z 1005293b f i libucrt:environment_initialization.obj
 0001:0005194f       ??0?$__crt_unique_heap_ptr@PA_WU__crt_internal_free_policy@@@@QAE@QAPA_W@Z 1005294f f i libucrt:environment_initialization.obj
 0001:00051963       ??1?$__crt_unique_heap_ptr@PADU__crt_internal_free_policy@@@@QAE@XZ 10052963 f i libucrt:environment_initialization.obj
 0001:00051979       ??1?$__crt_unique_heap_ptr@PA_WU__crt_internal_free_policy@@@@QAE@XZ 10052979 f i libucrt:environment_initialization.obj
 0001:0005198f       ??B?$__crt_unique_heap_ptr@PADU__crt_internal_free_policy@@@@QBE_NXZ 1005298f f i libucrt:environment_initialization.obj
 0001:00051999       ??B?$__crt_unique_heap_ptr@PA_WU__crt_internal_free_policy@@@@QBE_NXZ 10052999 f i libucrt:environment_initialization.obj
 0001:000519a3       ??B?$__crt_unique_heap_ptr@_WU__crt_internal_free_policy@@@@QBE_NXZ 100529a3 f i libucrt:environment_initialization.obj
 0001:000519ad       ?__crt_compute_required_transform_buffer_count@@YAIIQBD@Z 100529ad f i libucrt:environment_initialization.obj
 0001:000519cd       ?__crt_compute_required_transform_buffer_count@@YAIIQB_W@Z 100529cd f i libucrt:environment_initialization.obj
 0001:000519f0       ?__crt_transform_string@@YAIIQBDQA_WI@Z 100529f0 f i libucrt:environment_initialization.obj
 0001:00051a14       ?__crt_transform_string@@YAIIQB_WQADI@Z 10052a14 f i libucrt:environment_initialization.obj
 0001:00051a3c       ?detach@?$__crt_unique_heap_ptr@DU__crt_internal_free_policy@@@@QAEPADXZ 10052a3c f i libucrt:environment_initialization.obj
 0001:00051a42       ?detach@?$__crt_unique_heap_ptr@PADU__crt_internal_free_policy@@@@QAEPAPADXZ 10052a42 f i libucrt:environment_initialization.obj
 0001:00051a48       ?detach@?$__crt_unique_heap_ptr@PA_WU__crt_internal_free_policy@@@@QAEPAPA_WXZ 10052a48 f i libucrt:environment_initialization.obj
 0001:00051a4e       ?detach@?$__crt_unique_heap_ptr@_WU__crt_internal_free_policy@@@@QAEPA_WXZ 10052a4e f i libucrt:environment_initialization.obj
 0001:00051a54       ?get@?$__crt_unique_heap_ptr@PADU__crt_internal_free_policy@@@@QBEPAPADXZ 10052a54 f i libucrt:environment_initialization.obj
 0001:00051a57       ?get@?$__crt_unique_heap_ptr@PA_WU__crt_internal_free_policy@@@@QBEPAPA_WXZ 10052a57 f i libucrt:environment_initialization.obj
 0001:00051a5a       ?get_current_state_index@__crt_state_management@@YAIXZ 10052a5a f i libucrt:environment_initialization.obj
 0001:00051a81       ?initialize@?$dual_state_global@PAPAD@__crt_state_management@@QAEXQAPAD@Z 10052a81 f i libucrt:environment_initialization.obj
 0001:00051abe       ?initialize@?$dual_state_global@PAPA_W@__crt_state_management@@QAEXQAPA_W@Z 10052abe f i libucrt:environment_initialization.obj
 0001:00051afb       ?is_valid@?$__crt_unique_heap_ptr@PADU__crt_internal_free_policy@@@@QBE_NXZ 10052afb f i libucrt:environment_initialization.obj
 0001:00051b05       ?is_valid@?$__crt_unique_heap_ptr@PA_WU__crt_internal_free_policy@@@@QBE_NXZ 10052b05 f i libucrt:environment_initialization.obj
 0001:00051b0f       ?is_valid@?$__crt_unique_heap_ptr@_WU__crt_internal_free_policy@@@@QBE_NXZ 10052b0f f i libucrt:environment_initialization.obj
 0001:00051b1f       ?release@?$__crt_unique_heap_ptr@PADU__crt_internal_free_policy@@@@QAEXXZ 10052b1f f i libucrt:environment_initialization.obj
 0001:00051b35       ?release@?$__crt_unique_heap_ptr@PA_WU__crt_internal_free_policy@@@@QAEXXZ 10052b35 f i libucrt:environment_initialization.obj
 0001:00051b4b       ?value@?$dual_state_global@PAPAD@__crt_state_management@@QAEAAPAPADXZ 10052b4b f i libucrt:environment_initialization.obj
 0001:00051b4e       ?value@?$dual_state_global@PAPA_W@__crt_state_management@@QAEAAPAPA_WXZ 10052b4e f i libucrt:environment_initialization.obj
 0001:00051b51       ___dcrt_get_or_create_narrow_environment_nolock 10052b51 f   libucrt:environment_initialization.obj
 0001:00051b56       ___dcrt_get_or_create_wide_environment_nolock 10052b56 f   libucrt:environment_initialization.obj
 0001:00051b5b       ___dcrt_uninitialize_environments_nolock 10052b5b f   libucrt:environment_initialization.obj
 0001:00051b9f       ___p__environ              10052b9f f   libucrt:environment_initialization.obj
 0001:00051ba5       ___p__wenviron             10052ba5 f   libucrt:environment_initialization.obj
 0001:00051bab       __get_initial_narrow_environment 10052bab f   libucrt:environment_initialization.obj
 0001:00051bc4       __get_initial_wide_environment 10052bc4 f   libucrt:environment_initialization.obj
 0001:00051bdd       __initialize_narrow_environment 10052bdd f   libucrt:environment_initialization.obj
 0001:00051be2       __initialize_wide_environment 10052be2 f   libucrt:environment_initialization.obj
 0001:00051be7       ??$?BP6AXXZ@__crt_fast_encoded_nullptr_t@@QBEPAP6AXXZXZ 10052be7 f i libucrt:onexit.obj
 0001:00051c05       ??$?RP6AXXZ@__crt_internal_free_policy@@QBEXQBQ6AXXZ@Z 10052c05 f i libucrt:onexit.obj
 0001:00051c1b       ??$?RV<lambda_800076c951b434888f4765a74a194fcc>@@AAV<lambda_4e60a939b0d047cfe11ddc22648dfba9>@@V<lambda_6dbb1268764f43b569ce7b67e331d33a>@@@?$__crt_seh_guarded_call@H@@QAEH$$QAV<lambda_800076c951b434888f4765a74a194fcc>@@AAV<lambda_4e60a939b0d047cfe11ddc22648dfba9>@@$$QAV<lambda_6dbb1268764f43b569ce7b67e331d33a>@@@Z 10052c1b f i libucrt:onexit.obj
 0001:00051c80       ??$?RV<lambda_995298e7d72eb4c2aab26c0585b3abe5>@@AAV<lambda_275893d493268fdec8709772e3fcec0e>@@V<lambda_293819299cbf9a7022e18b56a874bb5c>@@@?$__crt_seh_guarded_call@H@@QAEH$$QAV<lambda_995298e7d72eb4c2aab26c0585b3abe5>@@AAV<lambda_275893d493268fdec8709772e3fcec0e>@@$$QAV<lambda_293819299cbf9a7022e18b56a874bb5c>@@@Z 10052c80 f i libucrt:onexit.obj
 0001:00051ce5       ??$__acrt_lock_and_call@V<lambda_275893d493268fdec8709772e3fcec0e>@@@@YAHW4__acrt_lock_id@@$$QAV<lambda_275893d493268fdec8709772e3fcec0e>@@@Z 10052ce5 f i libucrt:onexit.obj
 0001:00051d17       ??$__acrt_lock_and_call@V<lambda_4e60a939b0d047cfe11ddc22648dfba9>@@@@YAHW4__acrt_lock_id@@$$QAV<lambda_4e60a939b0d047cfe11ddc22648dfba9>@@@Z 10052d17 f i libucrt:onexit.obj
 0001:00051d49       ??$__crt_fast_encode_pointer@P6AHXZ@@YAP6AHXZQ6AHXZ@Z 10052d49 f i libucrt:onexit.obj
 0001:00051df6       ??0?$__crt_unique_heap_ptr@P6AXXZU__crt_internal_free_policy@@@@QAE@QAP6AXXZ@Z 10052df6 f i libucrt:onexit.obj
 0001:00051e0a       ??1?$__crt_unique_heap_ptr@P6AXXZU__crt_internal_free_policy@@@@QAE@XZ 10052e0a f i libucrt:onexit.obj
 0001:00052145       ?detach@?$__crt_unique_heap_ptr@P6AXXZU__crt_internal_free_policy@@@@QAEPAP6AXXZXZ 10053145 f i libucrt:onexit.obj
 0001:0005214b       ?release@?$__crt_unique_heap_ptr@P6AXXZU__crt_internal_free_policy@@@@QAEXXZ 1005314b f i libucrt:onexit.obj
 0001:00052161       __crt_at_quick_exit        10053161 f   libucrt:onexit.obj
 0001:0005217c       __crt_atexit               1005317c f   libucrt:onexit.obj
 0001:00052197       __execute_onexit_table     10053197 f   libucrt:onexit.obj
 0001:000521bb       __initialize_onexit_table  100531bb f   libucrt:onexit.obj
 0001:00052207       __register_onexit_function 10053207 f   libucrt:onexit.obj
 0001:0005236e       ?initialize@?$dual_state_global@PAU__crt_locale_data@@@__crt_state_management@@QAEXQAU__crt_locale_data@@@Z 1005336e f i libucrt:initialization.obj
 0001:000523ab       ___acrt_initialize         100533ab f   libucrt:initialization.obj
 0001:000523c1       ___acrt_thread_attach      100533c1 f   libucrt:initialization.obj
 0001:000523ce       ___acrt_thread_detach      100533ce f   libucrt:initialization.obj
 0001:000523d8       ___acrt_uninitialize       100533d8 f   libucrt:initialization.obj
 0001:000523ee       ___acrt_uninitialize_critical 100533ee f   libucrt:initialization.obj
 0001:0005241f       __get_terminate            1005341f f   libucrt:terminate.obj
 0001:00052435       _set_terminate             10053435 f   libucrt:terminate.obj
 0001:0005245d       _terminate                 1005345d f   libucrt:terminate.obj
 0001:000524a8       ??$__crt_interlocked_exchange_pointer@X$$T@@YAPAXPDSAX$$T@Z 100534a8 f i libucrt:free_base.obj
 0001:000524c0       ___acrt_get_msvcrt_heap_handle 100534c0 f   libucrt:free_base.obj
 0001:00052551       __free_base                10053551 f   libucrt:free_base.obj
 0001:00052599       __malloc_base              10053599 f   libucrt:malloc_base.obj
 0001:0005266a       _strcpy_s                  1005366a f   libucrt:strcpy_s.obj
 0001:000526da       __set_abort_behavior       100536da f   libucrt:abort.obj
 0001:00052703       _abort                     10053703 f   libucrt:abort.obj
 0001:00052756       __calloc_base              10053756 f   libucrt:calloc_base.obj
 0001:000527ca       ??$is_overflow_condition@K@__crt_strtox@@YA_NIK@Z 100537ca f i libucrt:atox.obj
 0001:00052809       ??$is_overflow_condition@_K@__crt_strtox@@YA_NI_K@Z 10053809 f i libucrt:atox.obj
 0001:0005285c       ??$make_c_string_character_source@D$$T@__crt_strtox@@YA?AV?$c_string_character_source@D@0@QBD$$T@Z 1005385c f i libucrt:atox.obj
 0001:0005287d       ??$make_c_string_character_source@_W$$T@__crt_strtox@@YA?AV?$c_string_character_source@_W@0@QB_W$$T@Z 1005387d f i libucrt:atox.obj
 0001:0005289e       ??$parse_integer@KV?$c_string_character_source@D@__crt_strtox@@@__crt_strtox@@YAKQAU__crt_locale_pointers@@V?$c_string_character_source@D@0@H_N@Z 1005389e f i libucrt:atox.obj
 0001:00052b50       ??$parse_integer@KV?$c_string_character_source@_W@__crt_strtox@@@__crt_strtox@@YAKQAU__crt_locale_pointers@@V?$c_string_character_source@_W@0@H_N@Z 10053b50 f i libucrt:atox.obj
 0001:000533ee       ??$parse_integer@_KV?$c_string_character_source@D@__crt_strtox@@@__crt_strtox@@YA_KQAU__crt_locale_pointers@@V?$c_string_character_source@D@0@H_N@Z 100543ee f i libucrt:atox.obj
 0001:0005373d       ??$parse_integer@_KV?$c_string_character_source@_W@__crt_strtox@@@__crt_strtox@@YA_KQAU__crt_locale_pointers@@V?$c_string_character_source@_W@0@H_N@Z 1005473d f i libucrt:atox.obj
 0001:00053eaf       ??$parse_integer_from_string@JD$$T@__crt_strtox@@YAJQBD$$THQAU__crt_locale_pointers@@@Z 10054eaf f i libucrt:atox.obj
 0001:00053ee7       ??$parse_integer_from_string@J_W$$T@__crt_strtox@@YAJQB_W$$THQAU__crt_locale_pointers@@@Z 10054ee7 f i libucrt:atox.obj
 0001:00053f1f       ??$parse_integer_from_string@_JD$$T@__crt_strtox@@YA_JQBD$$THQAU__crt_locale_pointers@@@Z 10054f1f f i libucrt:atox.obj
 0001:00053f57       ??$parse_integer_from_string@_J_W$$T@__crt_strtox@@YA_JQB_W$$THQAU__crt_locale_pointers@@@Z 10054f57 f i libucrt:atox.obj
 0001:00053f8f       ??0?$c_string_character_source@D@__crt_strtox@@QAE@QBDQAPBD@Z 10054f8f f i libucrt:atox.obj
 0001:00053fb2       ??0?$c_string_character_source@_W@__crt_strtox@@QAE@QB_WQAPB_W@Z 10054fb2 f i libucrt:atox.obj
 0001:00053fd5       ??1?$c_string_character_source@D@__crt_strtox@@QAE@XZ 10054fd5 f i libucrt:atox.obj
 0001:00053fe4       ??1?$c_string_character_source@_W@__crt_strtox@@QAE@XZ 10054fe4 f i libucrt:atox.obj
 0001:00053ff3       ?get@?$c_string_character_source@D@__crt_strtox@@QAEDXZ 10054ff3 f i libucrt:atox.obj
 0001:00053ffd       ?get@?$c_string_character_source@_W@__crt_strtox@@QAE_WXZ 10054ffd f i libucrt:atox.obj
 0001:0005400a       ?is_space@__crt_strtox@@YA_NDQAU__crt_locale_pointers@@@Z 1005500a f i libucrt:atox.obj
 0001:00054030       ?is_space@__crt_strtox@@YA_N_WPAU__crt_locale_pointers@@@Z 10055030 f i libucrt:atox.obj
 0001:0005404f       ?maximum_signed_value@__crt_strtox@@YAJK@Z 1005504f f i libucrt:atox.obj
 0001:00054055       ?maximum_signed_value@__crt_strtox@@YA_J_K@Z 10055055 f i libucrt:atox.obj
 0001:00054060       ?minimum_signed_value@__crt_strtox@@YAJK@Z 10055060 f i libucrt:atox.obj
 0001:00054066       ?minimum_signed_value@__crt_strtox@@YA_J_K@Z 10055066 f i libucrt:atox.obj
 0001:00054070       ?parse_digit@__crt_strtox@@YAID@Z 10055070 f i libucrt:atox.obj
 0001:000540b8       ?parse_digit@__crt_strtox@@YAI_W@Z 100550b8 f i libucrt:atox.obj
 0001:00054315       ?restore_state@?$c_string_character_source@D@__crt_strtox@@QAE_NQBD@Z 10055315 f i libucrt:atox.obj
 0001:00054329       ?restore_state@?$c_string_character_source@_W@__crt_strtox@@QAE_NQB_W@Z 10055329 f i libucrt:atox.obj
 0001:0005433d       ?save_state@?$c_string_character_source@D@__crt_strtox@@QBEPBDXZ 1005533d f i libucrt:atox.obj
 0001:00054340       ?save_state@?$c_string_character_source@_W@__crt_strtox@@QBEPB_WXZ 10055340 f i libucrt:atox.obj
 0001:00054343       ?unget@?$c_string_character_source@D@__crt_strtox@@QAEXD@Z 10055343 f i libucrt:atox.obj
 0001:00054375       ?unget@?$c_string_character_source@_W@__crt_strtox@@QAEX_W@Z 10055375 f i libucrt:atox.obj
 0001:000543ac       ?validate@?$c_string_character_source@D@__crt_strtox@@QBE_NXZ 100553ac f i libucrt:atox.obj
 0001:000543cd       ?validate@?$c_string_character_source@_W@__crt_strtox@@QBE_NXZ 100553cd f i libucrt:atox.obj
 0001:000543ee       ?wide_character_to_digit@__crt_strtox@@YAH_W@Z 100553ee f i libucrt:atox.obj
 0001:000545f7       ___acrt_get_locale_data_prefix 100555f7 f i libucrt:atox.obj
 0001:00054606       __atoi64                   10055606 f   libucrt:atox.obj
 0001:0005463a       __atoi64_l                 1005563a f   libucrt:atox.obj
 0001:0005466f       __atoi_l                   1005566f f   libucrt:atox.obj
 0001:000546a4       __atol_l                   100556a4 f   libucrt:atox.obj
 0001:000546d9       __atoll_l                  100556d9 f   libucrt:atox.obj
 0001:0005470e       __chvalidchk_l             1005570e f i libucrt:atox.obj
 0001:00054742       __ischartype_l             10055742 f i libucrt:atox.obj
 0001:00054781       __wtoi                     10055781 f   libucrt:atox.obj
 0001:000547b5       __wtoi64                   100557b5 f   libucrt:atox.obj
 0001:000547e9       __wtoi64_l                 100557e9 f   libucrt:atox.obj
 0001:0005481e       __wtoi_l                   1005581e f   libucrt:atox.obj
 0001:00054853       __wtol                     10055853 f   libucrt:atox.obj
 0001:00054887       __wtol_l                   10055887 f   libucrt:atox.obj
 0001:000548bc       __wtoll                    100558bc f   libucrt:atox.obj
 0001:000548f0       __wtoll_l                  100558f0 f   libucrt:atox.obj
 0001:00054925       _atoi                      10055925 f   libucrt:atox.obj
 0001:00054959       _atol                      10055959 f   libucrt:atox.obj
 0001:0005498d       _atoll                     1005598d f   libucrt:atox.obj
 0001:000549c1       ??$__crt_fast_decode_pointer@P6AXPB_W00II@Z@@YAP6AXPB_W00II@ZQ6AX000II@Z@Z 100559c1 f i libucrt:invalid_parameter.obj
 0001:000549dc       ??$__crt_fast_encode_pointer@P6AXPB_W00II@Z@@YAP6AXPB_W00II@ZQ6AX000II@Z@Z 100559dc f i libucrt:invalid_parameter.obj
 0001:00054a02       ?initialize@?$dual_state_global@P6AXPB_W00II@Z@__crt_state_management@@QAEXQ6AXPB_W00II@Z@Z 10055a02 f i libucrt:invalid_parameter.obj
 0001:00054a3f       ?value@?$dual_state_global@P6AXPB_W00II@Z@__crt_state_management@@QAEAAP6AXPB_W00II@ZXZ 10055a3f f i libucrt:invalid_parameter.obj
 0001:00054a42       ___acrt_call_reportfault   10055a42 f   libucrt:invalid_parameter.obj
 0001:00054bcb       ___acrt_initialize_invalid_parameter_handler 10055bcb f   libucrt:invalid_parameter.obj
 0001:00054be4       __get_invalid_parameter_handler 10055be4 f   libucrt:invalid_parameter.obj
 0001:00054bfb       __get_thread_local_invalid_parameter_handler 10055bfb f   libucrt:invalid_parameter.obj
 0001:00054c10       __invalid_parameter        10055c10 f   libucrt:invalid_parameter.obj
 0001:00054ca9       __invalid_parameter_noinfo 10055ca9 f   libucrt:invalid_parameter.obj
 0001:00054cbd       __invalid_parameter_noinfo_noreturn 10055cbd f   libucrt:invalid_parameter.obj
 0001:00054ce1       __invoke_watson            10055ce1 f   libucrt:invalid_parameter.obj
 0001:00054d20       __set_invalid_parameter_handler 10055d20 f   libucrt:invalid_parameter.obj
 0001:00054d5c       __set_thread_local_invalid_parameter_handler 10055d5c f   libucrt:invalid_parameter.obj
 0001:00054d80       ___acrt_errno_from_os_error 10055d80 f   libucrt:errno.obj
 0001:00054dd3       ___acrt_errno_map_os_error 10055dd3 f   libucrt:errno.obj
 0001:00054dfe       ___doserrno                10055dfe f   libucrt:errno.obj
 0001:00054e15       __errno                    10055e15 f   libucrt:errno.obj
 0001:00054e2c       __get_doserrno             10055e2c f   libucrt:errno.obj
 0001:00054e5a       __get_errno                10055e5a f   libucrt:errno.obj
 0001:00054e88       __set_doserrno             10055e88 f   libucrt:errno.obj
 0001:00054eb1       __set_errno                10055eb1 f   libucrt:errno.obj
 0001:00054f31       ??$?B$$A6GHPA_WKJ@Z@__crt_fast_encoded_nullptr_t@@QBEP6GHPA_WKJ@ZXZ 10055f31 f i libucrt:winapi_thunks.obj
 0001:00054f4f       ??$?RV<lambda_9227be29367c048ad7fd93a717dcb1a1>@@AAV<lambda_a463b7b0560cfcaf9b17f27c6ef46564>@@V<lambda_ccea11b5727ccf69be64f5f5d9a08d9f>@@@?$__crt_seh_guarded_call@H@@QAEH$$QAV<lambda_9227be29367c048ad7fd93a717dcb1a1>@@AAV<lambda_a463b7b0560cfcaf9b17f27c6ef46564>@@$$QAV<lambda_ccea11b5727ccf69be64f5f5d9a08d9f>@@@Z 10055f4f f i libucrt:winapi_thunks.obj
 0001:00054ff4       ??$__acrt_lock_and_call@V<lambda_a463b7b0560cfcaf9b17f27c6ef46564>@@@@YAHW4__acrt_lock_id@@$$QAV<lambda_a463b7b0560cfcaf9b17f27c6ef46564>@@@Z 10055ff4 f i libucrt:winapi_thunks.obj
 0001:00055026       ??$__crt_fast_decode_pointer@P6GHPA_WKJ@Z@@YAP6GHPA_WKJ@ZQ6GH0KJ@Z@Z 10056026 f i libucrt:winapi_thunks.obj
 0001:00055041       ??$__crt_fast_encode_pointer@P6GHPA_WKJ@Z@@YAP6GHPA_WKJ@ZQ6GH0KJ@Z@Z 10056041 f i libucrt:winapi_thunks.obj
 0001:0005576e       ___acrt_AreFileApisANSI@0  1005676e f   libucrt:winapi_thunks.obj
 0001:000557cf       ___acrt_CompareStringEx@36 100567cf f   libucrt:winapi_thunks.obj
 0001:00055860       ___acrt_EnumSystemLocalesEx@16 10056860 f   libucrt:winapi_thunks.obj
 0001:000558e8       ___acrt_FlsAlloc@4         100568e8 f   libucrt:winapi_thunks.obj
 0001:00055953       ___acrt_FlsFree@4          10056953 f   libucrt:winapi_thunks.obj
 0001:000559be       ___acrt_FlsGetValue@4      100569be f   libucrt:winapi_thunks.obj
 0001:00055a29       ___acrt_FlsSetValue@8      10056a29 f   libucrt:winapi_thunks.obj
 0001:00055a98       ___acrt_GetDateFormatEx@28 10056a98 f   libucrt:winapi_thunks.obj
 0001:00055b3a       ___acrt_GetEnabledXStateFeatures@0 10056b3a f   libucrt:winapi_thunks.obj
 0001:00055b9c       ___acrt_GetFileInformationByHandleEx@16 10056b9c f   libucrt:winapi_thunks.obj
 0001:00055c17       ___acrt_GetLocaleInfoEx@16 10056c17 f   libucrt:winapi_thunks.obj
 0001:00055c9b       ___acrt_GetSystemTimePreciseAsFileTime@4 10056c9b f   libucrt:winapi_thunks.obj
 0001:00055d06       ___acrt_GetTimeFormatEx@24 10056d06 f   libucrt:winapi_thunks.obj
 0001:00055d92       ___acrt_GetUserDefaultLocaleName@8 10056d92 f   libucrt:winapi_thunks.obj
 0001:00055e12       ___acrt_GetXStateFeaturesMask@8 10056e12 f   libucrt:winapi_thunks.obj
 0001:00055e7e       ___acrt_InitializeCriticalSectionEx@12 10056e7e f   libucrt:winapi_thunks.obj
 0001:00055ef8       ___acrt_IsValidLocaleName@4 10056ef8 f   libucrt:winapi_thunks.obj
 0001:00055f73       ___acrt_LCIDToLocaleName@16 10056f73 f   libucrt:winapi_thunks.obj
 0001:00055ff7       ___acrt_LCMapStringEx@36   10056ff7 f   libucrt:winapi_thunks.obj
 0001:000560a1       ___acrt_LocaleNameToLCID@8 100570a1 f   libucrt:winapi_thunks.obj
 0001:00056114       ___acrt_LocateXStateFeature@12 10057114 f   libucrt:winapi_thunks.obj
 0001:0005616b       ___acrt_MessageBoxA@16     1005716b f   libucrt:winapi_thunks.obj
 0001:000561c6       ___acrt_MessageBoxW@16     100571c6 f   libucrt:winapi_thunks.obj
 0001:00056221       ___acrt_RoInitialize@4     10057221 f   libucrt:winapi_thunks.obj
 0001:00056287       ___acrt_RoUninitialize@0   10057287 f   libucrt:winapi_thunks.obj
 0001:000562e2       ___acrt_RtlGenRandom@8     100572e2 f   libucrt:winapi_thunks.obj
 0001:0005634e       ___acrt_SetThreadStackGuarantee@4 1005734e f   libucrt:winapi_thunks.obj
 0001:000563b4       ___acrt_can_show_message_box 100573b4 f   libucrt:winapi_thunks.obj
 0001:000563d3       ___acrt_can_use_vista_locale_apis 100573d3 f   libucrt:winapi_thunks.obj
 0001:000563e2       ___acrt_can_use_xstate_apis 100573e2 f   libucrt:winapi_thunks.obj
 0001:000563f1       ___acrt_get_parent_window  100573f1 f   libucrt:winapi_thunks.obj
 0001:0005648f       ___acrt_initialize_winapi_thunks 1005748f f   libucrt:winapi_thunks.obj
 0001:000564be       ___acrt_is_interactive     100574be f   libucrt:winapi_thunks.obj
 0001:0005658d       ___acrt_is_packaged_app    1005758d f   libucrt:winapi_thunks.obj
 0001:00056635       ___acrt_uninitialize_winapi_thunks 10057635 f   libucrt:winapi_thunks.obj
 0001:00056678       ??0__crt_stdio_stream@@QAE@QAU__crt_stdio_stream_data@@@Z 10057678 f i libucrt:closeall.obj
 0001:0005668c       __fcloseall                1005768c f   libucrt:closeall.obj
 0001:00056754       ___acrt_stdio_flush_nolock 10057754 f   libucrt:fflush.obj
 0001:000567d3       __fflush_nolock            100577d3 f   libucrt:fflush.obj
 0001:0005682b       __flushall                 1005782b f   libucrt:fflush.obj
 0001:00056944       _fflush                    10057944 f   libucrt:fflush.obj
 0001:000569b3       ?has_crt_buffer@__crt_stdio_stream@@QBE_NXZ 100579b3 f i libucrt:_freebuf.obj
 0001:000569c2       ___acrt_stdio_free_buffer_nolock 100579c2 f   libucrt:_freebuf.obj
 0001:00056bff       ___acrt_initialize_lowio   10057bff f   libucrt:ioinit.obj
 0001:00056c6a       ___acrt_uninitialize_lowio 10057c6a f   libucrt:ioinit.obj
 0001:00056cbc       ___isascii                 10057cbc f i libucrt:_ctype.obj
 0001:00056cd2       ___iscsym                  10057cd2 f i libucrt:_ctype.obj
 0001:00056cfc       ___iscsymf                 10057cfc f i libucrt:_ctype.obj
 0001:00056d22       ___toascii                 10057d22 f i libucrt:_ctype.obj
 0001:00056d32       __isalnum_l                10057d32 f i libucrt:_ctype.obj
 0001:00056d7b       __isalpha_l                10057d7b f i libucrt:_ctype.obj
 0001:00056dc4       __isblank_l                10057dc4 f i libucrt:_ctype.obj
 0001:00056e17       __iscntrl_l                10057e17 f i libucrt:_ctype.obj
 0001:00056e5d       __iscsym_l                 10057e5d f i libucrt:_ctype.obj
 0001:00056e88       __iscsymf_l                10057e88 f i libucrt:_ctype.obj
 0001:00056eb3       __isdigit_l                10057eb3 f i libucrt:_ctype.obj
 0001:00056ef9       __isgraph_l                10057ef9 f i libucrt:_ctype.obj
 0001:00056f42       __islower_l                10057f42 f i libucrt:_ctype.obj
 0001:00056f88       __isprint_l                10057f88 f i libucrt:_ctype.obj
 0001:00056fd1       __ispunct_l                10057fd1 f i libucrt:_ctype.obj
 0001:00057017       __isspace_l                10058017 f i libucrt:_ctype.obj
 0001:0005705d       __isupper_l                1005805d f i libucrt:_ctype.obj
 0001:000570a3       __isxdigit_l               100580a3 f i libucrt:_ctype.obj
 0001:000570ec       _isalnum                   100580ec f i libucrt:_ctype.obj
 0001:00057126       _isalpha                   10058126 f i libucrt:_ctype.obj
 0001:00057160       _isblank                   10058160 f i libucrt:_ctype.obj
 0001:000571a4       _iscntrl                   100581a4 f i libucrt:_ctype.obj
 0001:000571dc       _isdigit                   100581dc f i libucrt:_ctype.obj
 0001:00057214       _isgraph                   10058214 f i libucrt:_ctype.obj
 0001:0005724e       _islower                   1005824e f i libucrt:_ctype.obj
 0001:00057286       _isprint                   10058286 f i libucrt:_ctype.obj
 0001:000572c0       _ispunct                   100582c0 f i libucrt:_ctype.obj
 0001:000572f8       _isspace                   100582f8 f i libucrt:_ctype.obj
 0001:00057330       _isupper                   10058330 f i libucrt:_ctype.obj
 0001:00057368       _isxdigit                  10058368 f i libucrt:_ctype.obj
 0001:00057760       __tolower                  10058760 f   libucrt:tolower_toupper.obj
 0001:00057770       __tolower_l                10058770 f   libucrt:tolower_toupper.obj
 0001:00057790       __toupper                  10058790 f   libucrt:tolower_toupper.obj
 0001:000577a0       __toupper_l                100587a0 f   libucrt:tolower_toupper.obj
 0001:000577c0       _tolower                   100587c0 f   libucrt:tolower_toupper.obj
 0001:000577fc       _toupper                   100587fc f   libucrt:tolower_toupper.obj
 0001:00057838       ??$make_c_string_character_source@DPAPAD@__crt_strtox@@YA?AV?$c_string_character_source@D@0@QBDQAPAD@Z 10058838 f i libucrt:strtox.obj
 0001:00057859       ??$make_c_string_character_source@_WPAPA_W@__crt_strtox@@YA?AV?$c_string_character_source@_W@0@QB_WQAPA_W@Z 10058859 f i libucrt:strtox.obj
 0001:0005787a       ??$parse_integer_from_string@JDPAPAD@__crt_strtox@@YAJQBDQAPADHQAU__crt_locale_pointers@@@Z 1005887a f i libucrt:strtox.obj
 0001:000578b2       ??$parse_integer_from_string@J_WPAPA_W@__crt_strtox@@YAJQB_WQAPA_WHQAU__crt_locale_pointers@@@Z 100588b2 f i libucrt:strtox.obj
 0001:000578ea       ??$parse_integer_from_string@KDPAPAD@__crt_strtox@@YAKQBDQAPADHQAU__crt_locale_pointers@@@Z 100588ea f i libucrt:strtox.obj
 0001:00057922       ??$parse_integer_from_string@K_WPAPA_W@__crt_strtox@@YAKQB_WQAPA_WHQAU__crt_locale_pointers@@@Z 10058922 f i libucrt:strtox.obj
 0001:0005795a       ??$parse_integer_from_string@_JDPAPAD@__crt_strtox@@YA_JQBDQAPADHQAU__crt_locale_pointers@@@Z 1005895a f i libucrt:strtox.obj
 0001:00057992       ??$parse_integer_from_string@_J_WPAPA_W@__crt_strtox@@YA_JQB_WQAPA_WHQAU__crt_locale_pointers@@@Z 10058992 f i libucrt:strtox.obj
 0001:000579ca       ??$parse_integer_from_string@_KDPAPAD@__crt_strtox@@YA_KQBDQAPADHQAU__crt_locale_pointers@@@Z 100589ca f i libucrt:strtox.obj
 0001:00057a02       ??$parse_integer_from_string@_K_WPAPA_W@__crt_strtox@@YA_KQB_WQAPA_WHQAU__crt_locale_pointers@@@Z 10058a02 f i libucrt:strtox.obj
 0001:00057a3a       __strtoi64                 10058a3a f   libucrt:strtox.obj
 0001:00057a71       __strtoi64_l               10058a71 f   libucrt:strtox.obj
 0001:00057aa9       __strtoimax_l              10058aa9 f   libucrt:strtox.obj
 0001:00057ae1       __strtol_l                 10058ae1 f   libucrt:strtox.obj
 0001:00057b19       __strtoll_l                10058b19 f   libucrt:strtox.obj
 0001:00057b51       __strtoui64                10058b51 f   libucrt:strtox.obj
 0001:00057b88       __strtoui64_l              10058b88 f   libucrt:strtox.obj
 0001:00057bc0       __strtoul_l                10058bc0 f   libucrt:strtox.obj
 0001:00057bf8       __strtoull_l               10058bf8 f   libucrt:strtox.obj
 0001:00057c30       __strtoumax_l              10058c30 f   libucrt:strtox.obj
 0001:00057c68       __wcstoi64                 10058c68 f   libucrt:strtox.obj
 0001:00057c9f       __wcstoi64_l               10058c9f f   libucrt:strtox.obj
 0001:00057cd7       __wcstoimax_l              10058cd7 f   libucrt:strtox.obj
 0001:00057d0f       __wcstol_l                 10058d0f f   libucrt:strtox.obj
 0001:00057d47       __wcstoll_l                10058d47 f   libucrt:strtox.obj
 0001:00057d7f       __wcstoui64                10058d7f f   libucrt:strtox.obj
 0001:00057db6       __wcstoui64_l              10058db6 f   libucrt:strtox.obj
 0001:00057dee       __wcstoul_l                10058dee f   libucrt:strtox.obj
 0001:00057e26       __wcstoull_l               10058e26 f   libucrt:strtox.obj
 0001:00057e5e       __wcstoumax_l              10058e5e f   libucrt:strtox.obj
 0001:00057e96       _strtoimax                 10058e96 f   libucrt:strtox.obj
 0001:00057ecd       _strtol                    10058ecd f   libucrt:strtox.obj
 0001:00057f04       _strtoll                   10058f04 f   libucrt:strtox.obj
 0001:00057f3b       _strtoul                   10058f3b f   libucrt:strtox.obj
 0001:00057f72       _strtoull                  10058f72 f   libucrt:strtox.obj
 0001:00057fa9       _strtoumax                 10058fa9 f   libucrt:strtox.obj
 0001:00057fe0       _wcstoimax                 10058fe0 f   libucrt:strtox.obj
 0001:00058017       _wcstol                    10059017 f   libucrt:strtox.obj
 0001:0005804e       _wcstoll                   1005904e f   libucrt:strtox.obj
 0001:00058085       _wcstoul                   10059085 f   libucrt:strtox.obj
 0001:000580bc       _wcstoull                  100590bc f   libucrt:strtox.obj
 0001:000580f3       _wcstoumax                 100590f3 f   libucrt:strtox.obj
 0001:0005812a       __mbtowc_l                 1005912a f   libucrt:mbtowc.obj
 0001:00058262       _mbtowc                    10059262 f   libucrt:mbtowc.obj
 0001:00058282       __wctomb_l                 10059282 f   libucrt:wctomb.obj
 0001:000582e9       __wctomb_s_l               100592e9 f   libucrt:wctomb.obj
 0001:00058452       _wctomb                    10059452 f   libucrt:wctomb.obj
 0001:00058493       _wctomb_s                  10059493 f   libucrt:wctomb.obj
 0001:00058bab       ??1?$__crt_simd_cleanup_guard@$00@@QAE@XZ 10059bab f i libucrt:strnlen.obj
 0001:00058baf       ??1?$__crt_simd_cleanup_guard@$0A@@@QAE@XZ 10059baf f i libucrt:strnlen.obj
 0001:00058bb0       ?compare_equals@?$__crt_simd_traits@$00E@@SA?AT__m256i@@T2@0@Z 10059bb0 f i libucrt:strnlen.obj
 0001:00058bb5       ?compare_equals@?$__crt_simd_traits@$00G@@SA?AT__m256i@@T2@0@Z 10059bb5 f i libucrt:strnlen.obj
 0001:00058bba       ?compare_equals@?$__crt_simd_traits@$0A@E@@SA?AT__m128i@@T2@0@Z 10059bba f i libucrt:strnlen.obj
 0001:00058bbf       ?compare_equals@?$__crt_simd_traits@$0A@G@@SA?AT__m128i@@T2@0@Z 10059bbf f i libucrt:strnlen.obj
 0001:00058bc4       ?compute_byte_mask@?$__crt_simd_pack_traits@$00@@SAHT__m256i@@@Z 10059bc4 f i libucrt:strnlen.obj
 0001:00058bc9       ?compute_byte_mask@?$__crt_simd_pack_traits@$0A@@@SAHT__m128i@@@Z 10059bc9 f i libucrt:strnlen.obj
 0001:00058bce       ?get_zero_pack@?$__crt_simd_pack_traits@$00@@SA?AT__m256i@@XZ 10059bce f i libucrt:strnlen.obj
 0001:00058bd3       ?get_zero_pack@?$__crt_simd_pack_traits@$0A@@@SA?AT__m128i@@XZ 10059bd3 f i libucrt:strnlen.obj
 0001:00058bd8       _strnlen                   10059bd8 f   libucrt:strnlen.obj
 0001:00058d48       _wcsnlen                   10059d48 f   libucrt:strnlen.obj
 0001:00058f6c       ??$?RU__acrt_ptd@@@__crt_internal_free_policy@@QBEXQBU__acrt_ptd@@@Z 10059f6c f i libucrt:per_thread_data.obj
 0001:00058f82       ??$?RV<lambda_3518db117f0e7cdb002338c5d3c47b6c>@@AAV<lambda_b2ea41f6bbb362cd97d94c6828d90b61>@@V<lambda_abdedf541bb04549bc734292b4a045d4>@@@?$__crt_seh_guarded_call@X@@QAEX$$QAV<lambda_3518db117f0e7cdb002338c5d3c47b6c>@@AAV<lambda_b2ea41f6bbb362cd97d94c6828d90b61>@@$$QAV<lambda_abdedf541bb04549bc734292b4a045d4>@@@Z 10059f82 f i libucrt:per_thread_data.obj
 0001:00058fe6       ??$?RV<lambda_51b6e8b1eb166f2a3faf91f424b38130>@@AAV<lambda_6250bd4b2a391816dd638c3bf72b0bcb>@@V<lambda_0b5a4a3e68152e1d9b943535f5f47bed>@@@?$__crt_seh_guarded_call@X@@QAEX$$QAV<lambda_51b6e8b1eb166f2a3faf91f424b38130>@@AAV<lambda_6250bd4b2a391816dd638c3bf72b0bcb>@@$$QAV<lambda_0b5a4a3e68152e1d9b943535f5f47bed>@@@Z 10059fe6 f i libucrt:per_thread_data.obj
 0001:0005905f       ??$?RV<lambda_5b71d36f03204c0beab531769a5b5694>@@AAV<lambda_be2b3da3f62db62e9dad5dc70221a656>@@V<lambda_8f9ce462984622f9bf76b59e2aaaf805>@@@?$__crt_seh_guarded_call@X@@QAEX$$QAV<lambda_5b71d36f03204c0beab531769a5b5694>@@AAV<lambda_be2b3da3f62db62e9dad5dc70221a656>@@$$QAV<lambda_8f9ce462984622f9bf76b59e2aaaf805>@@@Z 1005a05f f i libucrt:per_thread_data.obj
 0001:000590bc       ??$?RV<lambda_9df27f884b057bc3edfc946cb5b7cf47>@@AAV<lambda_e69574bed617af4e071282c136b37893>@@V<lambda_cc0d902bcbbeb830f749456577db4721>@@@?$__crt_seh_guarded_call@X@@QAEX$$QAV<lambda_9df27f884b057bc3edfc946cb5b7cf47>@@AAV<lambda_e69574bed617af4e071282c136b37893>@@$$QAV<lambda_cc0d902bcbbeb830f749456577db4721>@@@Z 1005a0bc f i libucrt:per_thread_data.obj
 0001:00059116       ??$__acrt_lock_and_call@V<lambda_6250bd4b2a391816dd638c3bf72b0bcb>@@@@YAXW4__acrt_lock_id@@$$QAV<lambda_6250bd4b2a391816dd638c3bf72b0bcb>@@@Z 1005a116 f i libucrt:per_thread_data.obj
 0001:00059148       ??$__acrt_lock_and_call@V<lambda_b2ea41f6bbb362cd97d94c6828d90b61>@@@@YAXW4__acrt_lock_id@@$$QAV<lambda_b2ea41f6bbb362cd97d94c6828d90b61>@@@Z 1005a148 f i libucrt:per_thread_data.obj
 0001:0005917a       ??$__acrt_lock_and_call@V<lambda_be2b3da3f62db62e9dad5dc70221a656>@@@@YAXW4__acrt_lock_id@@$$QAV<lambda_be2b3da3f62db62e9dad5dc70221a656>@@@Z 1005a17a f i libucrt:per_thread_data.obj
 0001:000591ac       ??$__acrt_lock_and_call@V<lambda_e69574bed617af4e071282c136b37893>@@@@YAXW4__acrt_lock_id@@$$QAV<lambda_e69574bed617af4e071282c136b37893>@@@Z 1005a1ac f i libucrt:per_thread_data.obj
 0001:000592e5       ??0?$__crt_unique_heap_ptr@U__acrt_ptd@@U__crt_internal_free_policy@@@@QAE@QAU__acrt_ptd@@@Z 1005a2e5 f i libucrt:per_thread_data.obj
 0001:000592f9       ??0__crt_scoped_get_last_error_reset@@QAE@XZ 1005a2f9 f i libucrt:per_thread_data.obj
 0001:0005930e       ??1?$__crt_unique_heap_ptr@U__acrt_ptd@@U__crt_internal_free_policy@@@@QAE@XZ 1005a30e f i libucrt:per_thread_data.obj
 0001:00059324       ??1__crt_scoped_get_last_error_reset@@QAE@XZ 1005a324 f i libucrt:per_thread_data.obj
 0001:0005932f       ??B?$__crt_unique_heap_ptr@U__acrt_ptd@@U__crt_internal_free_policy@@@@QBE_NXZ 1005a32f f i libucrt:per_thread_data.obj
 0001:000594a5       ?dangerous_get_state_array@?$dual_state_global@PAU__crt_locale_data@@@__crt_state_management@@QAEPAPAU__crt_locale_data@@XZ 1005a4a5 f i libucrt:per_thread_data.obj
 0001:000595a9       ?detach@?$__crt_unique_heap_ptr@U__acrt_ptd@@U__crt_internal_free_policy@@@@QAEPAU__acrt_ptd@@XZ 1005a5a9 f i libucrt:per_thread_data.obj
 0001:000595af       ?get@?$__crt_unique_heap_ptr@U__acrt_ptd@@U__crt_internal_free_policy@@@@QBEPAU__acrt_ptd@@XZ 1005a5af f i libucrt:per_thread_data.obj
 0001:000596be       ?is_valid@?$__crt_unique_heap_ptr@U__acrt_ptd@@U__crt_internal_free_policy@@@@QBE_NXZ 1005a6be f i libucrt:per_thread_data.obj
 0001:000596c8       ?release@?$__crt_unique_heap_ptr@U__acrt_ptd@@U__crt_internal_free_policy@@@@QAEXXZ 1005a6c8 f i libucrt:per_thread_data.obj
 0001:00059754       ?value@?$dual_state_global@PAU__crt_locale_data@@@__crt_state_management@@QAEAAPAU__crt_locale_data@@XZ 1005a754 f i libucrt:per_thread_data.obj
 0001:00059757       ___acrt_freeptd            1005a757 f   libucrt:per_thread_data.obj
 0001:0005978e       ___acrt_getptd             1005a78e f   libucrt:per_thread_data.obj
 0001:00059833       ___acrt_getptd_noexit      1005a833 f   libucrt:per_thread_data.obj
 0001:000598d9       ___acrt_initialize_ptd     1005a8d9 f   libucrt:per_thread_data.obj
 0001:00059910       ___acrt_uninitialize_ptd   1005a910 f   libucrt:per_thread_data.obj
 0001:00059930       ___threadhandle            1005a930 f   libucrt:per_thread_data.obj
 0001:00059936       ___threadid                1005a936 f   libucrt:per_thread_data.obj
 0001:0005993c       ___acrt_update_locale_info 1005a93c f   libucrt:locale_update.obj
 0001:00059974       ___acrt_update_multibyte_info 1005a974 f   libucrt:locale_update.obj
 0001:000599ac       ?__acrt_fp_classify@@YA?AW4__acrt_fp_class@@ABN@Z 1005a9ac f i libucrt:cvt.obj
 0001:00059a33       ?__acrt_fp_is_negative@@YA_NABN@Z 1005aa33 f i libucrt:cvt.obj
 0001:0005a4a6       ?strrchr@@YAPADQADH@Z      1005b4a6 f i libucrt:cvt.obj
 0001:0005a4b3       ___acrt_fp_format          1005b4b3 f   libucrt:cvt.obj
 0001:0005a68d       __fputwc_nolock            1005b68d f   libucrt:fputwc.obj
 0001:0005a7fc       __fputwchar                1005b7fc f   libucrt:fputwc.obj
 0001:0005a81c       __putwc_nolock             1005b81c f   libucrt:fputwc.obj
 0001:0005a829       _fputwc                    1005b829 f   libucrt:fputwc.obj
 0001:0005a8c2       _putwc                     1005b8c2 f   libucrt:fputwc.obj
 0001:0005a8cf       _putwchar                  1005b8cf f   libucrt:fputwc.obj
 0001:0005a8dc       ?lowio_handle@__crt_stdio_stream@@QBEHXZ 1005b8dc f i libucrt:fileno.obj
 0001:0005a8e2       __fileno                   1005b8e2 f   libucrt:fileno.obj
 0001:0005a911       __fputc_nolock             1005b911 f   libucrt:fputc.obj
 0001:0005a944       __fputchar                 1005b944 f   libucrt:fputc.obj
 0001:0005a964       __putc_nolock              1005b964 f   libucrt:fputc.obj
 0001:0005a971       _fputc                     1005b971 f   libucrt:fputc.obj
 0001:0005aab6       _putc                      1005bab6 f   libucrt:fputc.obj
 0001:0005aac3       _putchar                   1005bac3 f   libucrt:fputc.obj
 0001:0005aad0       __get_printf_count_output  1005bad0 f   libucrt:printf_count_output.obj
 0001:0005aaea       __set_printf_count_output  1005baea f   libucrt:printf_count_output.obj
 0001:0005ab1e       ?has_temporary_buffer@__crt_stdio_stream@@QBE_NXZ 1005bb1e f i libucrt:_sftbuf.obj
 0001:0005ab2d       ___acrt_stdio_begin_temporary_buffering_nolock 1005bb2d f   libucrt:_sftbuf.obj
 0001:0005ac0f       ___acrt_stdio_end_temporary_buffering_nolock 1005bc0f f   libucrt:_sftbuf.obj
 0001:0005ac59       ??$?RU__crt_locale_data@@@__crt_internal_free_policy@@QBEXQBU__crt_locale_data@@@Z 1005bc59 f i libucrt:wsetlocale.obj
 0001:0005ac6f       ??$?RU__crt_locale_pointers@@@__crt_internal_free_policy@@QBEXQBU__crt_locale_pointers@@@Z 1005bc6f f i libucrt:wsetlocale.obj
 0001:0005ac85       ??$?RU__crt_multibyte_data@@@__crt_internal_free_policy@@QBEXQBU__crt_multibyte_data@@@Z 1005bc85 f i libucrt:wsetlocale.obj
 0001:0005ac9b       ??$?RV<lambda_70818de7b02deff9841e8b0962a60ed9>@@AAV<lambda_2af78c5f5901b1372d98f9ab3177dfa6>@@AAV<lambda_f51fe5fd7c79a33db34fc9310f277369>@@@?$__crt_seh_guarded_call@X@@QAEX$$QAV<lambda_70818de7b02deff9841e8b0962a60ed9>@@AAV<lambda_2af78c5f5901b1372d98f9ab3177dfa6>@@AAV<lambda_f51fe5fd7c79a33db34fc9310f277369>@@@Z 1005bc9b f i libucrt:wsetlocale.obj
 0001:0005ace4       ??$?RV<lambda_76aaead6e312921abc834cb00a638bdd>@@AAV<lambda_176e34f99554166dd2fac165c457248c>@@V<lambda_998ee1c9f4290b119b936bcd6215875a>@@@?$__crt_seh_guarded_call@X@@QAEX$$QAV<lambda_76aaead6e312921abc834cb00a638bdd>@@AAV<lambda_176e34f99554166dd2fac165c457248c>@@$$QAV<lambda_998ee1c9f4290b119b936bcd6215875a>@@@Z 1005bce4 f i libucrt:wsetlocale.obj
 0001:0005ad40       ??$?RV<lambda_c76fdea48760d5f9368b465f31df4405>@@AAV<lambda_e378711a6f6581bf7f0efd7cdf97f5d9>@@V<lambda_e927a58b2a85c081d733e8c6192ae2d2>@@@?$__crt_seh_guarded_call@X@@QAEX$$QAV<lambda_c76fdea48760d5f9368b465f31df4405>@@AAV<lambda_e378711a6f6581bf7f0efd7cdf97f5d9>@@$$QAV<lambda_e927a58b2a85c081d733e8c6192ae2d2>@@@Z 1005bd40 f i libucrt:wsetlocale.obj
 0001:0005ad93       ??$?RV<lambda_c9469061b39d205f0f236529d4a41659>@@AAV<lambda_b7fb1a997d3ebc0cc0186c5835178808>@@V<lambda_14b92c79d699846b5cc916cd4cf280e4>@@@?$__crt_seh_guarded_call@X@@QAEX$$QAV<lambda_c9469061b39d205f0f236529d4a41659>@@AAV<lambda_b7fb1a997d3ebc0cc0186c5835178808>@@$$QAV<lambda_14b92c79d699846b5cc916cd4cf280e4>@@@Z 1005bd93 f i libucrt:wsetlocale.obj
 0001:0005aded       ??$__acrt_lock_and_call@V<lambda_176e34f99554166dd2fac165c457248c>@@@@YAXW4__acrt_lock_id@@$$QAV<lambda_176e34f99554166dd2fac165c457248c>@@@Z 1005bded f i libucrt:wsetlocale.obj
 0001:0005ae1f       ??$__acrt_lock_and_call@V<lambda_b7fb1a997d3ebc0cc0186c5835178808>@@@@YAXW4__acrt_lock_id@@$$QAV<lambda_b7fb1a997d3ebc0cc0186c5835178808>@@@Z 1005be1f f i libucrt:wsetlocale.obj
 0001:0005ae51       ??$__acrt_lock_and_call@V<lambda_e378711a6f6581bf7f0efd7cdf97f5d9>@@@@YAXW4__acrt_lock_id@@$$QAV<lambda_e378711a6f6581bf7f0efd7cdf97f5d9>@@@Z 1005be51 f i libucrt:wsetlocale.obj
 0001:0005ae83       ??$__crt_call_and_cleanup@V<lambda_2af78c5f5901b1372d98f9ab3177dfa6>@@V<lambda_f51fe5fd7c79a33db34fc9310f277369>@@@@YAX$$QAV<lambda_2af78c5f5901b1372d98f9ab3177dfa6>@@$$QAV<lambda_f51fe5fd7c79a33db34fc9310f277369>@@@Z 1005be83 f i libucrt:wsetlocale.obj
 0001:0005aea6       ??$__vcrt_va_start_verify_argument_type@H@@YAXXZ 1005bea6 f i libucrt:wsetlocale.obj
 0001:0005afcb       ??0?$__crt_unique_heap_ptr@U__crt_locale_data@@U__crt_internal_free_policy@@@@QAE@QAU__crt_locale_data@@@Z 1005bfcb f i libucrt:wsetlocale.obj
 0001:0005afdf       ??0?$__crt_unique_heap_ptr@U__crt_locale_pointers@@U__crt_internal_free_policy@@@@QAE@QAU__crt_locale_pointers@@@Z 1005bfdf f i libucrt:wsetlocale.obj
 0001:0005aff3       ??0?$__crt_unique_heap_ptr@U__crt_multibyte_data@@U__crt_internal_free_policy@@@@QAE@QAU__crt_multibyte_data@@@Z 1005bff3 f i libucrt:wsetlocale.obj
 0001:0005b007       ??1?$__crt_unique_heap_ptr@U__crt_locale_data@@U__crt_internal_free_policy@@@@QAE@XZ 1005c007 f i libucrt:wsetlocale.obj
 0001:0005b01d       ??1?$__crt_unique_heap_ptr@U__crt_locale_pointers@@U__crt_internal_free_policy@@@@QAE@XZ 1005c01d f i libucrt:wsetlocale.obj
 0001:0005b033       ??1?$__crt_unique_heap_ptr@U__crt_multibyte_data@@U__crt_internal_free_policy@@@@QAE@XZ 1005c033 f i libucrt:wsetlocale.obj
 0001:0005b049       ??B?$__crt_unique_heap_ptr@U__crt_locale_data@@U__crt_internal_free_policy@@@@QBE_NXZ 1005c049 f i libucrt:wsetlocale.obj
 0001:0005b053       ??B?$__crt_unique_heap_ptr@U__crt_locale_pointers@@U__crt_internal_free_policy@@@@QBE_NXZ 1005c053 f i libucrt:wsetlocale.obj
 0001:0005b05d       ??B?$__crt_unique_heap_ptr@U__crt_multibyte_data@@U__crt_internal_free_policy@@@@QBE_NXZ 1005c05d f i libucrt:wsetlocale.obj
 0001:0005b286       ?detach@?$__crt_unique_heap_ptr@U__crt_locale_data@@U__crt_internal_free_policy@@@@QAEPAU__crt_locale_data@@XZ 1005c286 f i libucrt:wsetlocale.obj
 0001:0005b28c       ?detach@?$__crt_unique_heap_ptr@U__crt_locale_pointers@@U__crt_internal_free_policy@@@@QAEPAU__crt_locale_pointers@@XZ 1005c28c f i libucrt:wsetlocale.obj
 0001:0005b292       ?detach@?$__crt_unique_heap_ptr@U__crt_multibyte_data@@U__crt_internal_free_policy@@@@QAEPAU__crt_multibyte_data@@XZ 1005c292 f i libucrt:wsetlocale.obj
 0001:0005b298       ?get@?$__crt_unique_heap_ptr@U__crt_locale_data@@U__crt_internal_free_policy@@@@QBEPAU__crt_locale_data@@XZ 1005c298 f i libucrt:wsetlocale.obj
 0001:0005b29b       ?get@?$__crt_unique_heap_ptr@U__crt_locale_pointers@@U__crt_internal_free_policy@@@@QBEPAU__crt_locale_pointers@@XZ 1005c29b f i libucrt:wsetlocale.obj
 0001:0005b29e       ?get@?$__crt_unique_heap_ptr@U__crt_multibyte_data@@U__crt_internal_free_policy@@@@QBEPAU__crt_multibyte_data@@XZ 1005c29e f i libucrt:wsetlocale.obj
 0001:0005b2a1       ?is_valid@?$__crt_unique_heap_ptr@U__crt_locale_data@@U__crt_internal_free_policy@@@@QBE_NXZ 1005c2a1 f i libucrt:wsetlocale.obj
 0001:0005b2ab       ?is_valid@?$__crt_unique_heap_ptr@U__crt_locale_pointers@@U__crt_internal_free_policy@@@@QBE_NXZ 1005c2ab f i libucrt:wsetlocale.obj
 0001:0005b2b5       ?is_valid@?$__crt_unique_heap_ptr@U__crt_multibyte_data@@U__crt_internal_free_policy@@@@QBE_NXZ 1005c2b5 f i libucrt:wsetlocale.obj
 0001:0005b2bf       ?release@?$__crt_unique_heap_ptr@U__crt_locale_data@@U__crt_internal_free_policy@@@@QAEXXZ 1005c2bf f i libucrt:wsetlocale.obj
 0001:0005b2d5       ?release@?$__crt_unique_heap_ptr@U__crt_locale_pointers@@U__crt_internal_free_policy@@@@QAEXXZ 1005c2d5 f i libucrt:wsetlocale.obj
 0001:0005b2eb       ?release@?$__crt_unique_heap_ptr@U__crt_multibyte_data@@U__crt_internal_free_policy@@@@QAEXXZ 1005c2eb f i libucrt:wsetlocale.obj
 0001:0005b301       ___acrt_copy_locale_name   1005c301 f   libucrt:wsetlocale.obj
 0001:0005b380       ___acrt_set_locale_changed 1005c380 f   libucrt:wsetlocale.obj
 0001:0005b38d       ___acrt_uninitialize_locale 1005c38d f   libucrt:wsetlocale.obj
 0001:0005b3f3       ___lc_lctowcs              1005c3f3 f   libucrt:wsetlocale.obj
 0001:0005b47f       ___lc_wcstolc              1005c47f f   libucrt:wsetlocale.obj
 0001:0005b5f9       __configthreadlocale       1005c5f9 f   libucrt:wsetlocale.obj
 0001:0005b6ad       __create_locale            1005c6ad f   libucrt:wsetlocale.obj
 0001:0005b72a       __expandlocale             1005c72a f   libucrt:wsetlocale.obj
 0001:0005bb7e       __free_locale              1005cb7e f   libucrt:wsetlocale.obj
 0001:0005bc64       __get_current_locale       1005cc64 f   libucrt:wsetlocale.obj
 0001:0005bcfd       __wcreate_locale           1005ccfd f   libucrt:wsetlocale.obj
 0001:0005be48       __wcscats                  1005ce48 f   libucrt:wsetlocale.obj
 0001:0005be99       __wsetlocale               1005ce99 f   libucrt:wsetlocale.obj
 0001:0005c9bf       ___p___mb_cur_max          1005d9bf f   libucrt:nlsdata.obj
 0001:0005cab6       ___acrt_report_runtime_error 1005dab6 f   libucrt:report_runtime_error.obj
 0001:0005cc1c       __query_app_type           1005dc1c f   libucrt:report_runtime_error.obj
 0001:0005cc22       __set_app_type             1005dc22 f   libucrt:report_runtime_error.obj
 0001:0005d10e       __i64toa                   1005e10e f   libucrt:xtoa.obj
 0001:0005d161       __i64toa_s                 1005e161 f   libucrt:xtoa.obj
 0001:0005d1b2       __i64tow                   1005e1b2 f   libucrt:xtoa.obj
 0001:0005d205       __i64tow_s                 1005e205 f   libucrt:xtoa.obj
 0001:0005d256       __itoa                     1005e256 f   libucrt:xtoa.obj
 0001:0005d29a       __itoa_s                   1005e29a f   libucrt:xtoa.obj
 0001:0005d2dc       __itow                     1005e2dc f   libucrt:xtoa.obj
 0001:0005d320       __itow_s                   1005e320 f   libucrt:xtoa.obj
 0001:0005d362       __ltoa                     1005e362 f   libucrt:xtoa.obj
 0001:0005d3a6       __ltoa_s                   1005e3a6 f   libucrt:xtoa.obj
 0001:0005d3e8       __ltow                     1005e3e8 f   libucrt:xtoa.obj
 0001:0005d42c       __ltow_s                   1005e42c f   libucrt:xtoa.obj
 0001:0005d46e       __ui64toa                  1005e46e f   libucrt:xtoa.obj
 0001:0005d498       __ui64toa_s                1005e498 f   libucrt:xtoa.obj
 0001:0005d4c0       __ui64tow                  1005e4c0 f   libucrt:xtoa.obj
 0001:0005d4ea       __ui64tow_s                1005e4ea f   libucrt:xtoa.obj
 0001:0005d512       __ultoa                    1005e512 f   libucrt:xtoa.obj
 0001:0005d538       __ultoa_s                  1005e538 f   libucrt:xtoa.obj
 0001:0005d55c       __ultow                    1005e55c f   libucrt:xtoa.obj
 0001:0005d582       __ultow_s                  1005e582 f   libucrt:xtoa.obj
 0001:0005d5a6       __set_error_mode           1005e5a6 f   libucrt:set_error_mode.obj
 0001:0005d682       _wcscat_s                  1005e682 f   libucrt:wcscat_s.obj
 0001:0005d78c       _wcscpy_s                  1005e78c f   libucrt:wcscpy_s.obj
 0001:0005d92c       _wcsncat_s                 1005e92c f   libucrt:wcsncat_s.obj
 0001:0005d9bc       _strcat_s                  1005e9bc f   libucrt:strcat_s.obj
 0001:0005db43       _strncat_s                 1005eb43 f   libucrt:strncat_s.obj
 0001:0005dd6e       ??$message_box@$$TAAPBDAAPBDAAI@?$__crt_char_traits@D@@SAH$$QA$$TAAPBD1AAI@Z 1005ed6e f i libucrt:crtmbox.obj
 0001:0005dd96       ??$message_box@$$TAAPB_WAAPB_WAAI@?$__crt_char_traits@_W@@SAH$$QA$$TAAPB_W1AAI@Z 1005ed96 f i libucrt:crtmbox.obj
 0001:0005ddbe       ??$message_box@$$TABQBDABQBDK@?$__crt_char_traits@D@@SAH$$QA$$TABQBD1$$QAK@Z 1005edbe f i libucrt:crtmbox.obj
 0001:0005dde6       ??$message_box@$$TABQB_WABQB_WK@?$__crt_char_traits@_W@@SAH$$QA$$TABQB_W1$$QAK@Z 1005ede6 f i libucrt:crtmbox.obj
 0001:0005de0e       ??$message_box@PAUHWND__@@ABQBDABQBDABI@?$__crt_char_traits@D@@SAH$$QAPAUHWND__@@ABQBD1ABI@Z 1005ee0e f i libucrt:crtmbox.obj
 0001:0005de36       ??$message_box@PAUHWND__@@ABQB_WABQB_WABI@?$__crt_char_traits@_W@@SAH$$QAPAUHWND__@@ABQB_W1ABI@Z 1005ee36 f i libucrt:crtmbox.obj
 0001:0005deb2       ??$output_debug_string@ABQBD@?$__crt_char_traits@D@@SAXABQBD@Z 1005eeb2 f i libucrt:crtmbox.obj
 0001:0005dec8       ??$output_debug_string@ABQB_W@?$__crt_char_traits@_W@@SAXABQB_W@Z 1005eec8 f i libucrt:crtmbox.obj
 0001:0005dede       ??0?$__crt_unique_handle_t@U__crt_handle_traits@@@@QAE@QAX@Z 1005eede f i libucrt:crtmbox.obj
 0001:0005def2       ??1?$__crt_unique_handle_t@U__crt_handle_traits@@@@QAE@XZ 1005eef2 f i libucrt:crtmbox.obj
 0001:0005df0e       ??B?$__crt_unique_handle_t@U__crt_handle_traits@@@@QBE_NXZ 1005ef0e f i libucrt:crtmbox.obj
 0001:0005df19       ?close@?$__crt_unique_handle_t@U__crt_handle_traits@@@@QAEXXZ 1005ef19 f i libucrt:crtmbox.obj
 0001:0005df35       ?close@__crt_handle_traits@@SA_NPAX@Z 1005ef35 f i libucrt:crtmbox.obj
 0001:0005df50       ?get@?$__crt_unique_handle_t@U__crt_handle_traits@@@@QBEPAXXZ 1005ef50 f i libucrt:crtmbox.obj
 0001:0005df53       ?get_invalid_value@__crt_handle_traits@@SAPAXXZ 1005ef53 f i libucrt:crtmbox.obj
 0001:0005df57       ?is_valid@?$__crt_unique_handle_t@U__crt_handle_traits@@@@QBE_NXZ 1005ef57 f i libucrt:crtmbox.obj
 0001:0005df62       ___acrt_show_narrow_message_box 1005ef62 f   libucrt:crtmbox.obj
 0001:0005df6f       ___acrt_show_wide_message_box 1005ef6f f   libucrt:crtmbox.obj
 0001:0005df7c       ??$?RV<lambda_d92cfe8357b99225085016881b624cb0>@@AAV<lambda_b721fa326cdb32351d23dfa67958c160>@@V<lambda_42d75b0848218ec137fa420c8ba9fdf9>@@@?$__crt_seh_guarded_call@H@@QAEH$$QAV<lambda_d92cfe8357b99225085016881b624cb0>@@AAV<lambda_b721fa326cdb32351d23dfa67958c160>@@$$QAV<lambda_42d75b0848218ec137fa420c8ba9fdf9>@@@Z 1005ef7c f i libucrt:setvbuf.obj
 0001:0005dfe1       ??$__acrt_lock_stream_and_call@V<lambda_b721fa326cdb32351d23dfa67958c160>@@@@YAHQAU_iobuf@@$$QAV<lambda_b721fa326cdb32351d23dfa67958c160>@@@Z 1005efe1 f i libucrt:setvbuf.obj
 0001:0005e17e       _setvbuf                   1005f17e f   libucrt:setvbuf.obj
 0001:0005e211       ??$?B$$A6AXH@Z@__crt_fast_encoded_nullptr_t@@QBEP6AXH@ZXZ 1005f211 f i libucrt:signal.obj
 0001:0005e22f       ??$?RV<lambda_a048d3beccc847880fc8490e18b82769>@@AAV<lambda_ec61778202f4f5fc7e7711acc23c3bca>@@V<lambda_f7496a158712204296dd6628a163878e>@@@?$__crt_seh_guarded_call@P6AXH@Z@@QAEP6AXH@Z$$QAV<lambda_a048d3beccc847880fc8490e18b82769>@@AAV<lambda_ec61778202f4f5fc7e7711acc23c3bca>@@$$QAV<lambda_f7496a158712204296dd6628a163878e>@@@Z 1005f22f f i libucrt:signal.obj
 0001:0005e29f       ??$__acrt_lock_and_call@V<lambda_ec61778202f4f5fc7e7711acc23c3bca>@@@@YAP6AXH@ZW4__acrt_lock_id@@$$QAV<lambda_ec61778202f4f5fc7e7711acc23c3bca>@@@Z 1005f29f f i libucrt:signal.obj
 0001:0005e2d1       ??$__crt_fast_decode_pointer@P6AXH@Z@@YAP6AXH@ZQ6AXH@Z@Z 1005f2d1 f i libucrt:signal.obj
 0001:0005e2ec       ??$__crt_fast_encode_pointer@P6AXH@Z@@YAP6AXH@ZQ6AXH@Z@Z 1005f2ec f i libucrt:signal.obj
 0001:0005e496       ?initialize@?$dual_state_global@P6AXH@Z@__crt_state_management@@QAEXQ6AXH@Z@Z 1005f496 f i libucrt:signal.obj
 0001:0005e542       ?value@?$dual_state_global@P6AXH@Z@__crt_state_management@@QAEAAP6AXH@ZXZ 1005f542 f i libucrt:signal.obj
 0001:0005e545       ___acrt_get_sigabrt_handler 1005f545 f   libucrt:signal.obj
 0001:0005e561       ___acrt_initialize_signal_handlers 1005f561 f   libucrt:signal.obj
 0001:0005e5aa       ___fpecode                 1005f5aa f   libucrt:signal.obj
 0001:0005e5b5       ___pxcptinfoptrs           1005f5b5 f   libucrt:signal.obj
 0001:0005e5c0       _raise                     1005f5c0 f   libucrt:signal.obj
 0001:0005e84a       _signal                    1005f84a f   libucrt:signal.obj
 0001:0005ea68       __realloc_base             1005fa68 f   libucrt:realloc_base.obj
 0001:0005eaeb       ___acrt_initialize_locks   1005faeb f   libucrt:locks.obj
 0001:0005eb3c       ___acrt_lock               1005fb3c f   libucrt:locks.obj
 0001:0005eb58       ___acrt_uninitialize_locks 1005fb58 f   libucrt:locks.obj
 0001:0005eb95       ___acrt_unlock             1005fb95 f   libucrt:locks.obj
 0001:0005ebb1       __lock_locales             1005fbb1 f   libucrt:locks.obj
 0001:0005ebbc       __unlock_locales           1005fbbc f   libucrt:locks.obj
 0001:0005ebc7       ??$?RV<lambda_123407a5e2ac06da108355a851863b7a>@@AAV<lambda_2fe9b910cf3cbf4a0ab98a02ba45b3ec>@@V<lambda_ae55bdf541ad94d75914d381c370e64d>@@@?$__crt_seh_guarded_call@H@@QAEH$$QAV<lambda_123407a5e2ac06da108355a851863b7a>@@AAV<lambda_2fe9b910cf3cbf4a0ab98a02ba45b3ec>@@$$QAV<lambda_ae55bdf541ad94d75914d381c370e64d>@@@Z 1005fbc7 f i libucrt:close.obj
 0001:0005ec69       ??$__acrt_lowio_lock_fh_and_call@V<lambda_2fe9b910cf3cbf4a0ab98a02ba45b3ec>@@@@YAHH$$QAV<lambda_2fe9b910cf3cbf4a0ab98a02ba45b3ec>@@@Z 1005fc69 f i libucrt:close.obj
 0001:0005edbc       __close                    1005fdbc f   libucrt:close.obj
 0001:0005ee5a       __close_nolock             1005fe5a f   libucrt:close.obj
 0001:0005ef1d       ??$?RU__crt_stdio_stream_data@@@__crt_internal_free_policy@@QBEXQBU__crt_stdio_stream_data@@@Z 1005ff1d f i libucrt:stream.obj
 0001:0005ef33       ??0?$__crt_unique_heap_ptr@U__crt_stdio_stream_data@@U__crt_internal_free_policy@@@@QAE@QAU__crt_stdio_stream_data@@@Z 1005ff33 f i libucrt:stream.obj
 0001:0005ef47       ??0__crt_stdio_stream@@QAE@XZ 1005ff47 f i libucrt:stream.obj
 0001:0005ef4d       ??1?$__crt_unique_heap_ptr@U__crt_stdio_stream_data@@U__crt_internal_free_policy@@@@QAE@XZ 1005ff4d f i libucrt:stream.obj
 0001:0005ef63       ?__acrt_stdio_allocate_stream@@YA?AV__crt_stdio_stream@@XZ 1005ff63 f   libucrt:stream.obj
 0001:0005efd9       ?__acrt_stdio_free_stream@@YAXV__crt_stdio_stream@@@Z 1005ffd9 f   libucrt:stream.obj
 0001:0005f022       ?deallocate@__crt_stdio_stream@@QAEXXZ 10060022 f i libucrt:stream.obj
 0001:0005f02e       ?detach@?$__crt_unique_heap_ptr@U__crt_stdio_stream_data@@U__crt_internal_free_policy@@@@QAEPAU__crt_stdio_stream_data@@XZ 1006002e f i libucrt:stream.obj
 0001:0005f127       ?lock@__crt_stdio_stream@@QBEXXZ 10060127 f i libucrt:stream.obj
 0001:0005f132       ?release@?$__crt_unique_heap_ptr@U__crt_stdio_stream_data@@U__crt_internal_free_policy@@@@QAEXXZ 10060132 f i libucrt:stream.obj
 0001:0005f148       ?try_allocate@__crt_stdio_stream@@QAE_NXZ 10060148 f i libucrt:stream.obj
 0001:0005f171       ??$__acrt_stdio_parse_mode@D@@YA?AU__acrt_stdio_stream_mode@@QBD@Z 10060171 f i libucrt:openfile.obj
 0001:0005f42f       ??$__acrt_stdio_parse_mode@_W@@YA?AU__acrt_stdio_stream_mode@@QB_W@Z 1006042f f i libucrt:openfile.obj
 0001:0005f850       ??$tcsncmp@AAPBDAAY02$$CBDI@?$__crt_char_traits@D@@SAHAAPBDAAY02$$CBD$$QAI@Z 10060850 f i libucrt:openfile.obj
 0001:0005f873       ??$tcsncmp@AAPB_WAAY02$$CB_WI@?$__crt_char_traits@_W@@SAHAAPB_WAAY02$$CB_W$$QAI@Z 10060873 f i libucrt:openfile.obj
 0001:0005f896       ??$tcsnicmp@AAPBDAAY04$$CBDI@?$__crt_char_traits@D@@SAHAAPBDAAY04$$CBD$$QAI@Z 10060896 f i libucrt:openfile.obj
 0001:0005f8b9       ??$tcsnicmp@AAPBDAAY06$$CBDI@?$__crt_char_traits@D@@SAHAAPBDAAY06$$CBD$$QAI@Z 100608b9 f i libucrt:openfile.obj
 0001:0005f8dc       ??$tcsnicmp@AAPBDAAY07$$CBDI@?$__crt_char_traits@D@@SAHAAPBDAAY07$$CBD$$QAI@Z 100608dc f i libucrt:openfile.obj
 0001:0005f8ff       ??$tcsnicmp@AAPB_WAAY04$$CB_WI@?$__crt_char_traits@_W@@SAHAAPB_WAAY04$$CB_W$$QAI@Z 100608ff f i libucrt:openfile.obj
 0001:0005f922       ??$tcsnicmp@AAPB_WAAY06$$CB_WI@?$__crt_char_traits@_W@@SAHAAPB_WAAY06$$CB_W$$QAI@Z 10060922 f i libucrt:openfile.obj
 0001:0005f945       ??$tcsnicmp@AAPB_WAAY07$$CB_WI@?$__crt_char_traits@_W@@SAHAAPB_WAAY07$$CB_W$$QAI@Z 10060945 f i libucrt:openfile.obj
 0001:0005f968       ??$tsopen_s@PAHABQBDABHABHH@?$__crt_char_traits@D@@SAH$$QAPAHABQBDABH2$$QAH@Z 10060968 f i libucrt:openfile.obj
 0001:0005f99a       ??$tsopen_s@PAHABQB_WABHABHH@?$__crt_char_traits@_W@@SAH$$QAPAHABQB_WABH2$$QAH@Z 1006099a f i libucrt:openfile.obj
 0001:0005f9cc       ?__acrt_stdio_parse_mode_D@@YA_NAAU__acrt_stdio_stream_mode@@@Z 100609cc f i libucrt:openfile.obj
 0001:0005f9ed       ?__acrt_stdio_parse_mode_N@@YA_NAAU__acrt_stdio_stream_mode@@@Z 100609ed f i libucrt:openfile.obj
 0001:0005fa03       ?__acrt_stdio_parse_mode_R@@YA_NAAU__acrt_stdio_stream_mode@@AA_N@Z 10060a03 f i libucrt:openfile.obj
 0001:0005fa28       ?__acrt_stdio_parse_mode_S@@YA_NAAU__acrt_stdio_stream_mode@@AA_N@Z 10060a28 f i libucrt:openfile.obj
 0001:0005fa4d       ?__acrt_stdio_parse_mode_T@@YA_NAAU__acrt_stdio_stream_mode@@@Z 10060a4d f i libucrt:openfile.obj
 0001:0005fa73       ?__acrt_stdio_parse_mode_b@@YA_NAAU__acrt_stdio_stream_mode@@@Z 10060a73 f i libucrt:openfile.obj
 0001:0005fa9b       ?__acrt_stdio_parse_mode_c@@YA_NAAU__acrt_stdio_stream_mode@@AA_N@Z 10060a9b f i libucrt:openfile.obj
 0001:0005fac5       ?__acrt_stdio_parse_mode_n@@YA_NAAU__acrt_stdio_stream_mode@@AA_N@Z 10060ac5 f i libucrt:openfile.obj
 0001:0005faef       ?__acrt_stdio_parse_mode_plus@@YA_NAAU__acrt_stdio_stream_mode@@AA_N@Z 10060aef f i libucrt:openfile.obj
 0001:0005fb31       ?__acrt_stdio_parse_mode_t@@YA_NAAU__acrt_stdio_stream_mode@@@Z 10060b31 f i libucrt:openfile.obj
 0001:0005fb59       __openfile                 10060b59 f   libucrt:openfile.obj
 0001:0005fb66       __wopenfile                10060b66 f   libucrt:openfile.obj
 0001:0006020b       __read                     1006120b f   libucrt:read.obj
 0001:00060362       __read_nolock              10061362 f   libucrt:read.obj
 0001:00060cfa       ___acrt_stdio_refill_and_read_narrow_nolock 10061cfa f   libucrt:_filbuf.obj
 0001:00060d07       ___acrt_stdio_refill_and_read_wide_nolock 10061d07 f   libucrt:_filbuf.obj
 0001:00061466       __write                    10062466 f   libucrt:write.obj
 0001:0006158b       __write_nolock             1006258b f   libucrt:write.obj
 0001:00061cd1       ___acrt_stdio_flush_and_write_narrow_nolock 10062cd1 f   libucrt:_flsbuf.obj
 0001:00061cde       ___acrt_stdio_flush_and_write_wide_nolock 10062cde f   libucrt:_flsbuf.obj
 0001:00061ceb       ___acrt_copy_path_to_wide_string 10062ceb f   libucrt:string_utilities.obj
 0001:00061de3       ___acrt_copy_to_char       10062de3 f   libucrt:string_utilities.obj
 0001:00061ece       __wremove                  10062ece f   libucrt:wunlink.obj
 0001:00061f00       __wunlink                  10062f00 f   libucrt:wunlink.obj
 0001:00062374       __lseek                    10063374 f   libucrt:lseek.obj
 0001:00062381       __lseek_nolock             10063381 f   libucrt:lseek.obj
 0001:0006238e       __lseeki64                 1006338e f   libucrt:lseek.obj
 0001:000623af       __lseeki64_nolock          100633af f   libucrt:lseek.obj
 0001:000623d0       __chgsign                  100633d0 f   libucrt:ieeemisc.obj
 0001:0006240a       __chgsignf                 1006340a f   libucrt:ieeemisc.obj
 0001:00062435       __copysign                 10063435 f   libucrt:ieeemisc.obj
 0001:00062469       __copysignf                10063469 f   libucrt:ieeemisc.obj
 0001:0006248e       __finite                   1006348e f   libucrt:ieeemisc.obj
 0001:000624ae       __fpclass                  100634ae f   libucrt:ieeemisc.obj
 0001:0006257b       __isnan                    1006357b f   libucrt:ieeemisc.obj
 0001:000625be       __logb                     100635be f   libucrt:ieeemisc.obj
 0001:000626c3       __nextafter                100636c3 f   libucrt:ieeemisc.obj
 0001:000626e9       __scalb                    100636e9 f   libucrt:ieeemisc.obj
 0001:00062709       __add_exp                  10063709 f   libucrt:util.obj
 0001:00062743       __decomp                   10063743 f   libucrt:util.obj
 0001:0006284c       __get_exp                  1006384c f   libucrt:util.obj
 0001:0006286b       __set_bexp                 1006386b f   libucrt:util.obj
 0001:0006289e       __set_exp                  1006389e f   libucrt:util.obj
 0001:000628d8       __sptype                   100638d8 f   libucrt:util.obj
 0001:0006294d       ___clrfp_sse2              1006394d f   libucrt:fpctrl.obj
 0001:00062976       ___ctrlfp_sse2             10063976 f   libucrt:fpctrl.obj
 0001:000629bf       ___fclrf_sse2              100639bf f   libucrt:fpctrl.obj
 0001:000629e5       ___get_fpsr_sse2           100639e5 f   libucrt:fpctrl.obj
 0001:00062a0a       ___set_fpsr_sse2           10063a0a f   libucrt:fpctrl.obj
 0001:00062a9d       ___set_statfp_sse2         10063a9d f   libucrt:fpctrl.obj
 0001:00062abe       ___statfp_sse2             10063abe f   libucrt:fpctrl.obj
 0001:00062ad8       __clrfp                    10063ad8 f   libucrt:fpctrl.obj
 0001:00062aef       __ctrlfp                   10063aef f   libucrt:fpctrl.obj
 0001:00062b26       __set_statfp               10063b26 f   libucrt:fpctrl.obj
 0001:00062b97       __statfp                   10063b97 f   libucrt:fpctrl.obj
 0001:00062bad       ??$__crt_fast_decode_pointer@P6AHPAU_exception@@@Z@@YAP6AHPAU_exception@@@ZQ6AH0@Z@Z 10063bad f i libucrt:matherr.obj
 0001:00062bc8       ??$__crt_fast_encode_pointer@P6AHPAU_exception@@@Z@@YAP6AHPAU_exception@@@ZQ6AH0@Z@Z 10063bc8 f i libucrt:matherr.obj
 0001:00062bee       ?initialize@?$dual_state_global@P6AHPAU_exception@@@Z@__crt_state_management@@QAEXQ6AHPAU_exception@@@Z@Z 10063bee f i libucrt:matherr.obj
 0001:00062c2b       ?value@?$dual_state_global@P6AHPAU_exception@@@Z@__crt_state_management@@QAEAAP6AHPAU_exception@@@ZXZ 10063c2b f i libucrt:matherr.obj
 0001:00062c2e       ___acrt_has_user_matherr   10063c2e f   libucrt:matherr.obj
 0001:00062c4d       ___acrt_initialize_user_matherr 10063c4d f   libucrt:matherr.obj
 0001:00062c66       ___acrt_invoke_user_matherr 10063c66 f   libucrt:matherr.obj
 0001:00062cc1       ___setusermatherr          10063cc1 f   libucrt:matherr.obj
 0001:00062cdb       ??$?RV<lambda_978dc153c237d78434369da87b74ff60>@@AAV<lambda_ad1ced32f4ac17aa236e5ef05d6b3b7c>@@V<lambda_4a8533e2866a575feecb8298ce776b0d>@@@?$__crt_seh_guarded_call@X@@QAEX$$QAV<lambda_978dc153c237d78434369da87b74ff60>@@AAV<lambda_ad1ced32f4ac17aa236e5ef05d6b3b7c>@@$$QAV<lambda_4a8533e2866a575feecb8298ce776b0d>@@@Z 10063cdb f i libucrt:mbctype.obj
 0001:00062d2e       ??$__acrt_lock_and_call@V<lambda_ad1ced32f4ac17aa236e5ef05d6b3b7c>@@@@YAXW4__acrt_lock_id@@$$QAV<lambda_ad1ced32f4ac17aa236e5ef05d6b3b7c>@@@Z 10063d2e f i libucrt:mbctype.obj
 0001:0006333f       ___acrt_initialize_multibyte 1006433f f   libucrt:mbctype.obj
 0001:00063364       ___acrt_update_thread_multibyte_data 10064364 f   libucrt:mbctype.obj
 0001:0006342e       ___p__mbcasemap            1006442e f   libucrt:mbctype.obj
 0001:00063434       ___p__mbctype              10064434 f   libucrt:mbctype.obj
 0001:0006343a       __getmbcp                  1006443a f   libucrt:mbctype.obj
 0001:0006347d       __setmbcp                  1006447d f   libucrt:mbctype.obj
 0001:00063494       __setmbcp_nolock           10064494 f   libucrt:mbctype.obj
 0001:000637a2       ??0?$__crt_unique_handle_t@Uenvironment_strings_traits@?A0x29f97c20@@@@QAE@QA_W@Z 100647a2 f i libucrt:get_environment_from_os.obj
 0001:000637b6       ??1?$__crt_unique_handle_t@Uenvironment_strings_traits@?A0x29f97c20@@@@QAE@XZ 100647b6 f i libucrt:get_environment_from_os.obj
 0001:000637d2       ??B?$__crt_unique_handle_t@Uenvironment_strings_traits@?A0x29f97c20@@@@QBE_NXZ 100647d2 f i libucrt:get_environment_from_os.obj
 0001:000637dc       ?close@?$__crt_unique_handle_t@Uenvironment_strings_traits@?A0x29f97c20@@@@QAEXXZ 100647dc f i libucrt:get_environment_from_os.obj
 0001:000637f8       ?close@environment_strings_traits@?A0x29f97c20@@SA_NPA_W@Z 100647f8 f i libucrt:get_environment_from_os.obj
 0001:00063852       ?get@?$__crt_unique_handle_t@Uenvironment_strings_traits@?A0x29f97c20@@@@QBEPA_WXZ 10064852 f i libucrt:get_environment_from_os.obj
 0001:00063855       ?get_invalid_value@environment_strings_traits@?A0x29f97c20@@SAPA_WXZ 10064855 f i libucrt:get_environment_from_os.obj
 0001:00063858       ?is_valid@?$__crt_unique_handle_t@Uenvironment_strings_traits@?A0x29f97c20@@@@QBE_NXZ 10064858 f i libucrt:get_environment_from_os.obj
 0001:00063862       ___dcrt_get_narrow_environment_from_os 10064862 f   libucrt:get_environment_from_os.obj
 0001:00063905       ___dcrt_get_wide_environment_from_os 10064905 f   libucrt:get_environment_from_os.obj
 0001:0006419d       ??$get_or_create_environment_nolock@$$$V@?$__crt_char_traits@D@@SAPAPADXZ 1006519d f i libucrt:setenv.obj
 0001:000641a2       ??$get_or_create_environment_nolock@$$$V@?$__crt_char_traits@_W@@SAPAPA_WXZ 100651a2 f i libucrt:setenv.obj
 0001:000641a7       ??$set_environment_variable@ABQADQAD@?$__crt_char_traits@D@@SAHABQAD$$QBQAD@Z 100651a7 f i libucrt:setenv.obj
 0001:000641c3       ??$set_environment_variable@ABQA_WQA_W@?$__crt_char_traits@_W@@SAHABQA_W$$QBQA_W@Z 100651c3 f i libucrt:setenv.obj
 0001:000641df       ??$tcschr@ABQADD@?$__crt_char_traits@D@@SAPADABQAD$$QAD@Z 100651df f i libucrt:setenv.obj
 0001:000641ff       ??$tcschr@ABQA_WD@?$__crt_char_traits@_W@@SAPA_WABQA_W$$QAD@Z 100651ff f i libucrt:setenv.obj
 0001:00064224       ??$tcscpy_s@AAPADABIAAPAD@?$__crt_char_traits@D@@SAHAAPADABI0@Z 10065224 f i libucrt:setenv.obj
 0001:00064249       ??$tcscpy_s@AAPA_WABIAAPA_W@?$__crt_char_traits@_W@@SAHAAPA_WABI0@Z 10065249 f i libucrt:setenv.obj
 0001:0006426e       ??$tcscpy_s@ABQADABIABQAD@?$__crt_char_traits@D@@SAHABQADABI0@Z 1006526e f i libucrt:setenv.obj
 0001:00064293       ??$tcscpy_s@ABQA_WABIABQA_W@?$__crt_char_traits@_W@@SAHABQA_WABI0@Z 10065293 f i libucrt:setenv.obj
 0001:000642b8       ??$tcsnicoll@ABQBDAAPADABI@?$__crt_char_traits@D@@SAHABQBDAAPADABI@Z 100652b8 f i libucrt:setenv.obj
 0001:000642dd       ??$tcsnicoll@ABQB_WAAPA_WABI@?$__crt_char_traits@_W@@SAHABQB_WAAPA_WABI@Z 100652dd f i libucrt:setenv.obj
 0001:00064326       ?strchr@@YAPADQADH@Z       10065326 f i libucrt:setenv.obj
 0001:00064333       ?wcschr@@YAPA_WPA_W_W@Z    10065333 f i libucrt:setenv.obj
 0001:00064340       ___dcrt_set_variable_in_narrow_environment_nolock 10065340 f   libucrt:setenv.obj
 0001:0006434d       ___dcrt_set_variable_in_wide_environment_nolock 1006534d f   libucrt:setenv.obj
 0001:0006435a       __recalloc                 1006535a f   libucrt:recalloc.obj
 0001:00064367       __recalloc_base            10065367 f   libucrt:recalloc.obj
 0001:000643ef       ___acrt_getheap            100653ef f   libucrt:heap_handle.obj
 0001:000643f5       ___acrt_initialize_heap    100653f5 f   libucrt:heap_handle.obj
 0001:0006440a       ___acrt_uninitialize_heap  1006540a f   libucrt:heap_handle.obj
 0001:00064416       __get_heap_handle          10065416 f   libucrt:heap_handle.obj
 0001:0006441c       ___acrt_initialize_command_line 1006541c f   libucrt:argv_data.obj
 0001:0006443b       ___acrt_uninitialize_command_line 1006543b f   libucrt:argv_data.obj
 0001:0006443e       ___p___argc                1006543e f   libucrt:argv_data.obj
 0001:00064444       ___p___argv                10065444 f   libucrt:argv_data.obj
 0001:0006444a       ___p___wargv               1006544a f   libucrt:argv_data.obj
 0001:00064450       ___p__acmdln               10065450 f   libucrt:argv_data.obj
 0001:00064456       ___p__pgmptr               10065456 f   libucrt:argv_data.obj
 0001:0006445c       ___p__wcmdln               1006545c f   libucrt:argv_data.obj
 0001:00064462       ___p__wpgmptr              10065462 f   libucrt:argv_data.obj
 0001:00064468       __get_pgmptr               10065468 f   libucrt:argv_data.obj
 0001:000644a5       __get_wpgmptr              100654a5 f   libucrt:argv_data.obj
 0001:000644e2       ___acrt_execute_initializers 100654e2 f   libucrt:shared_initialization.obj
 0001:00064585       ___acrt_execute_uninitializers 10065585 f   libucrt:shared_initialization.obj
 0001:000645e5       ??$?B$$A6AHI@Z@__crt_fast_encoded_nullptr_t@@QBEP6AHI@ZXZ 100655e5 f i libucrt:new_handler.obj
 0001:00064603       ??$__crt_fast_decode_pointer@P6AHI@Z@@YAP6AHI@ZQ6AHI@Z@Z 10065603 f i libucrt:new_handler.obj
 0001:0006461e       ??$__crt_fast_encode_pointer@P6AHI@Z@@YAP6AHI@ZQ6AHI@Z@Z 1006561e f i libucrt:new_handler.obj
 0001:00064644       ?_set_new_handler@@YAP6AHI@ZH@Z 10065644 f   libucrt:new_handler.obj
 0001:0006466a       ?initialize@?$dual_state_global@P6AHI@Z@__crt_state_management@@QAEXQ6AHI@Z@Z 1006566a f i libucrt:new_handler.obj
 0001:000646a7       ?value@?$dual_state_global@P6AHI@Z@__crt_state_management@@QAEAAP6AHI@ZXZ 100656a7 f i libucrt:new_handler.obj
 0001:000646aa       ___acrt_initialize_new_handler 100656aa f   libucrt:new_handler.obj
 0001:000646c3       __callnewh                 100656c3 f   libucrt:new_handler.obj
 0001:00064718       __query_new_handler        10065718 f   libucrt:new_handler.obj
 0001:0006477e       __set_new_handler          1006577e f   libucrt:new_handler.obj
 0001:000647f6       ?value@?$dual_state_global@J@__crt_state_management@@QAEAAJXZ 100657f6 f i libucrt:new_mode.obj
 0001:000647f9       __query_new_mode           100657f9 f   libucrt:new_mode.obj
 0001:000647ff       __set_new_mode             100657ff f   libucrt:new_mode.obj
 0001:00064839       ___pctype_func             10065839 f   libucrt:ctype.obj
 0001:00064868       ___pwctype_func            10065868 f   libucrt:ctype.obj
 0001:0006486e       __iswctype_l               1006586e f   libucrt:iswctype.obj
 0001:00064887       _iswctype                  10065887 f   libucrt:iswctype.obj
 0001:000648fd       __isctype                  100658fd f   libucrt:isctype.obj
 0001:0006493a       __isctype_l                1006593a f   libucrt:isctype.obj
 0001:00064c01       ___acrt_DownlevelLCIDToLocaleName 10065c01 f   libucrt:lcidtoname_downlevel.obj
 0001:00064cd5       ___acrt_DownlevelLocaleNameToLCID 10065cd5 f   libucrt:lcidtoname_downlevel.obj
 0001:00064d0c       ??$?RV<lambda_61cee617f5178ae960314fd4d05640a0>@@AAV<lambda_6978c1fb23f02e42e1d9e99668cc68aa>@@V<lambda_9cd88cf8ad10232537feb2133f08c833>@@@?$__crt_seh_guarded_call@H@@QAEH$$QAV<lambda_61cee617f5178ae960314fd4d05640a0>@@AAV<lambda_6978c1fb23f02e42e1d9e99668cc68aa>@@$$QAV<lambda_9cd88cf8ad10232537feb2133f08c833>@@@Z 10065d0c f i libucrt:commit.obj
 0001:00064dca       ??$__acrt_lowio_lock_fh_and_call@V<lambda_6978c1fb23f02e42e1d9e99668cc68aa>@@@@YAHH$$QAV<lambda_6978c1fb23f02e42e1d9e99668cc68aa>@@@Z 10065dca f i libucrt:commit.obj
 0001:00064ebc       __commit                   10065ebc f   libucrt:commit.obj
 0001:00064f46       ??$?RU__crt_lowio_handle_data@@@__crt_internal_free_policy@@QBEXQBU__crt_lowio_handle_data@@@Z 10065f46 f i libucrt:osfinfo.obj
 0001:00064f5c       ??0?$__crt_unique_heap_ptr@U__crt_lowio_handle_data@@U__crt_internal_free_policy@@@@QAE@QAU__crt_lowio_handle_data@@@Z 10065f5c f i libucrt:osfinfo.obj
 0001:00064f70       ??1?$__crt_unique_heap_ptr@U__crt_lowio_handle_data@@U__crt_internal_free_policy@@@@QAE@XZ 10065f70 f i libucrt:osfinfo.obj
 0001:00064f86       ??B?$__crt_unique_heap_ptr@U__crt_lowio_handle_data@@U__crt_internal_free_policy@@@@QBE_NXZ 10065f86 f i libucrt:osfinfo.obj
 0001:00064f90       ?detach@?$__crt_unique_heap_ptr@U__crt_lowio_handle_data@@U__crt_internal_free_policy@@@@QAEPAU__crt_lowio_handle_data@@XZ 10065f90 f i libucrt:osfinfo.obj
 0001:00064f96       ?get@?$__crt_unique_heap_ptr@U__crt_lowio_handle_data@@U__crt_internal_free_policy@@@@QBEPAU__crt_lowio_handle_data@@XZ 10065f96 f i libucrt:osfinfo.obj
 0001:00064f99       ?is_valid@?$__crt_unique_heap_ptr@U__crt_lowio_handle_data@@U__crt_internal_free_policy@@@@QBE_NXZ 10065f99 f i libucrt:osfinfo.obj
 0001:00064fa3       ?release@?$__crt_unique_heap_ptr@U__crt_lowio_handle_data@@U__crt_internal_free_policy@@@@QAEXXZ 10065fa3 f i libucrt:osfinfo.obj
 0001:00064fb9       ___acrt_lowio_create_handle_array 10065fb9 f   libucrt:osfinfo.obj
 0001:00065051       ___acrt_lowio_destroy_handle_array 10066051 f   libucrt:osfinfo.obj
 0001:00065093       ___acrt_lowio_ensure_fh_exists 10066093 f   libucrt:osfinfo.obj
 0001:00065151       ___acrt_lowio_lock_fh      10066151 f   libucrt:osfinfo.obj
 0001:0006517c       ___acrt_lowio_set_os_handle 1006617c f   libucrt:osfinfo.obj
 0001:00065235       ___acrt_lowio_unlock_fh    10066235 f   libucrt:osfinfo.obj
 0001:00065260       __alloc_osfhnd             10066260 f   libucrt:osfinfo.obj
 0001:000653b6       __free_osfhnd              100663b6 f   libucrt:osfinfo.obj
 0001:0006546b       __get_osfhandle            1006646b f   libucrt:osfinfo.obj
 0001:000654ef       __open_osfhandle           100664ef f   libucrt:osfinfo.obj
 0001:00065640       ___iswcsym                 10066640 f i libucrt:_wctype.obj
 0001:0006566f       ___iswcsymf                1006666f f i libucrt:_wctype.obj
 0001:0006569e       __isleadbyte_l             1006669e f i libucrt:_wctype.obj
 0001:000656e5       __iswalnum_l               100666e5 f i libucrt:_wctype.obj
 0001:00065700       __iswalpha_l               10066700 f i libucrt:_wctype.obj
 0001:0006571b       __iswblank_l               1006671b f i libucrt:_wctype.obj
 0001:0006573f       __iswcntrl_l               1006673f f i libucrt:_wctype.obj
 0001:00065756       __iswcsym_l                10066756 f i libucrt:_wctype.obj
 0001:00065785       __iswcsymf_l               10066785 f i libucrt:_wctype.obj
 0001:000657b4       __iswdigit_l               100667b4 f i libucrt:_wctype.obj
 0001:000657cb       __iswgraph_l               100667cb f i libucrt:_wctype.obj
 0001:000657e6       __iswlower_l               100667e6 f i libucrt:_wctype.obj
 0001:000657fd       __iswprint_l               100667fd f i libucrt:_wctype.obj
 0001:00065818       __iswpunct_l               10066818 f i libucrt:_wctype.obj
 0001:0006582f       __iswspace_l               1006682f f i libucrt:_wctype.obj
 0001:00065846       __iswupper_l               10066846 f i libucrt:_wctype.obj
 0001:0006585d       __iswxdigit_l              1006685d f i libucrt:_wctype.obj
 0001:00065878       _isleadbyte                10066878 f i libucrt:_wctype.obj
 0001:0006588f       _iswalnum                  1006688f f i libucrt:_wctype.obj
 0001:000658aa       _iswalpha                  100668aa f i libucrt:_wctype.obj
 0001:000658c5       _iswascii                  100668c5 f i libucrt:_wctype.obj
 0001:000658de       _iswblank                  100668de f i libucrt:_wctype.obj
 0001:00065902       _iswcntrl                  10066902 f i libucrt:_wctype.obj
 0001:00065919       _iswdigit                  10066919 f i libucrt:_wctype.obj
 0001:00065930       _iswgraph                  10066930 f i libucrt:_wctype.obj
 0001:0006594b       _iswlower                  1006694b f i libucrt:_wctype.obj
 0001:00065962       _iswprint                  10066962 f i libucrt:_wctype.obj
 0001:0006597d       _iswpunct                  1006697d f i libucrt:_wctype.obj
 0001:00065994       _iswspace                  10066994 f i libucrt:_wctype.obj
 0001:000659ab       _iswupper                  100669ab f i libucrt:_wctype.obj
 0001:000659c2       _iswxdigit                 100669c2 f i libucrt:_wctype.obj
 0001:000659dd       ??0?$__crt_scoped_stack_ptr@_W@@QAE@U?$__crt_scoped_stack_ptr_tag@_W@@@Z 100669dd f i libucrt:lcmapstringa.obj
 0001:000659f1       ??0?$__crt_scoped_stack_ptr_tag@_W@@QAE@QA_W@Z 100669f1 f i libucrt:lcmapstringa.obj
 0001:00065a05       ??1?$__crt_scoped_stack_ptr@_W@@QAE@XZ 10066a05 f i libucrt:lcmapstringa.obj
 0001:00065a10       ??B?$__crt_scoped_stack_ptr@_W@@QBE_NXZ 10066a10 f i libucrt:lcmapstringa.obj
 0001:00065cbe       ?get@?$__crt_scoped_stack_ptr@_W@@QBEPA_WXZ 10066cbe f i libucrt:lcmapstringa.obj
 0001:00065cc1       __MallocaComputeSize       10066cc1 f i libucrt:lcmapstringa.obj
 0001:00065cd8       __MarkAllocaS              10066cd8 f i libucrt:lcmapstringa.obj
 0001:00065cf3       ___acrt_LCMapStringA       10066cf3 f   libucrt:lcmapstringa.obj
 0001:00065d50       __freea_crt                10066d50 f i libucrt:lcmapstringa.obj
 0001:00065d78       ??$?RE@__crt_internal_free_policy@@QBEXQBE@Z 10066d78 f i libucrt:initctype.obj
 0001:00065d8e       ??$?RG@__crt_internal_free_policy@@QBEXQBG@Z 10066d8e f i libucrt:initctype.obj
 0001:00065da4       ??$?RJ@__crt_internal_free_policy@@QBEXQBJ@Z 10066da4 f i libucrt:initctype.obj
 0001:00065dba       ??0?$__crt_unique_heap_ptr@EU__crt_internal_free_policy@@@@QAE@QAE@Z 10066dba f i libucrt:initctype.obj
 0001:00065dce       ??0?$__crt_unique_heap_ptr@GU__crt_internal_free_policy@@@@QAE@QAG@Z 10066dce f i libucrt:initctype.obj
 0001:00065de2       ??0?$__crt_unique_heap_ptr@JU__crt_internal_free_policy@@@@QAE@QAJ@Z 10066de2 f i libucrt:initctype.obj
 0001:00065df6       ??1?$__crt_unique_heap_ptr@EU__crt_internal_free_policy@@@@QAE@XZ 10066df6 f i libucrt:initctype.obj
 0001:00065e0c       ??1?$__crt_unique_heap_ptr@GU__crt_internal_free_policy@@@@QAE@XZ 10066e0c f i libucrt:initctype.obj
 0001:00065e22       ??1?$__crt_unique_heap_ptr@JU__crt_internal_free_policy@@@@QAE@XZ 10066e22 f i libucrt:initctype.obj
 0001:00065e38       ?detach@?$__crt_unique_heap_ptr@EU__crt_internal_free_policy@@@@QAEPAEXZ 10066e38 f i libucrt:initctype.obj
 0001:00065e3e       ?detach@?$__crt_unique_heap_ptr@GU__crt_internal_free_policy@@@@QAEPAGXZ 10066e3e f i libucrt:initctype.obj
 0001:00065e44       ?detach@?$__crt_unique_heap_ptr@JU__crt_internal_free_policy@@@@QAEPAJXZ 10066e44 f i libucrt:initctype.obj
 0001:00065e4a       ?release@?$__crt_unique_heap_ptr@EU__crt_internal_free_policy@@@@QAEXXZ 10066e4a f i libucrt:initctype.obj
 0001:00065e60       ?release@?$__crt_unique_heap_ptr@GU__crt_internal_free_policy@@@@QAEXXZ 10066e60 f i libucrt:initctype.obj
 0001:00065e76       ?release@?$__crt_unique_heap_ptr@JU__crt_internal_free_policy@@@@QAEXXZ 10066e76 f i libucrt:initctype.obj
 0001:00065e8c       ____lc_codepage_func       10066e8c f   libucrt:initctype.obj
 0001:00065ebc       ____lc_collate_cp_func     10066ebc f   libucrt:initctype.obj
 0001:00065eec       ____lc_locale_name_func    10066eec f   libucrt:initctype.obj
 0001:00065f1f       ____mb_cur_max_func        10066f1f f   libucrt:initctype.obj
 0001:00065f4f       ____mb_cur_max_l_func      10066f4f f   libucrt:initctype.obj
 0001:00065f6e       ___acrt_locale_initialize_ctype 10066f6e f   libucrt:initctype.obj
 0001:000663f3       ___acrt_add_locale_ref     100673f3 f   libucrt:locale_refcounting.obj
 0001:0006648f       ___acrt_free_locale        1006748f f   libucrt:locale_refcounting.obj
 0001:0006662b       ___acrt_locale_add_lc_time_reference 1006762b f   libucrt:locale_refcounting.obj
 0001:0006665e       ___acrt_locale_free_lc_time_if_unreferenced 1006765e f   libucrt:locale_refcounting.obj
 0001:0006669a       ___acrt_locale_release_lc_time_reference 1006769a f   libucrt:locale_refcounting.obj
 0001:000666cd       ___acrt_release_locale_ref 100676cd f   libucrt:locale_refcounting.obj
 0001:0006676e       ___acrt_update_thread_locale_data 1006776e f   libucrt:locale_refcounting.obj
 0001:00066802       __updatetlocinfoEx_nolock  10067802 f   libucrt:locale_refcounting.obj
 0001:00066866       ___acrt_fp_strflt_to_string 10067866 f   libucrt:_fptostr.obj
 0001:00068090       ??0big_integer@__crt_strtox@@QAE@ABU01@@Z 10069090 f i libucrt:cfout.obj
 0001:000680d0       ??0big_integer@__crt_strtox@@QAE@XZ 100690d0 f i libucrt:cfout.obj
 0001:000680db       ??0scoped_fp_state_reset@?A0x3568b024@@QAE@XZ 100690db f i libucrt:cfout.obj
 0001:0006810f       ??1scoped_fp_state_reset@?A0x3568b024@@QAE@XZ 1006910f f i libucrt:cfout.obj
 0001:00068120       ??4big_integer@__crt_strtox@@QAEAAU01@ABU01@@Z 10069120 f i libucrt:cfout.obj
 0001:00068160       ??8__crt_strtox@@YA_NABUbig_integer@0@0@Z 10069160 f i libucrt:cfout.obj
 0001:000681b0       ??9__crt_strtox@@YA_NABUbig_integer@0@0@Z 100691b0 f i libucrt:cfout.obj
 0001:00068210       ?add_carry@__crt_strtox@@YAIAAIII@Z 10069210 f i libucrt:cfout.obj
 0001:00068240       ?add_multiply_carry@__crt_strtox@@YAIAAIIII@Z 10069240 f i libucrt:cfout.obj
 0001:00068270       ?bit_scan_reverse@__crt_strtox@@YAII@Z 10069270 f i libucrt:cfout.obj
 0001:000682a0       ?count_sequential_high_zeroes@__crt_strtox@@YAII@Z 100692a0 f i libucrt:cfout.obj
 0001:000682d0       ?divide@__crt_strtox@@YA_KAAUbig_integer@1@ABU21@@Z 100692d0 f i libucrt:cfout.obj
 0001:000688b0       ?is_zero@__crt_strtox@@YA_NABUbig_integer@1@@Z 100698b0 f i libucrt:cfout.obj
 0001:000688d0       ?make_big_integer@__crt_strtox@@YA?AUbig_integer@1@_K@Z 100698d0 f i libucrt:cfout.obj
 0001:00068900       ?make_big_integer_power_of_two@__crt_strtox@@YA?AUbig_integer@1@I@Z 10069900 f i libucrt:cfout.obj
 0001:00068960       ?multiply@__crt_strtox@@YA_NAAUbig_integer@1@ABU21@@Z 10069960 f i libucrt:cfout.obj
 0001:00068e10       ?multiply@__crt_strtox@@YA_NAAUbig_integer@1@I@Z 10069e10 f i libucrt:cfout.obj
 0001:00068f10       ?multiply_64_32@__crt_strtox@@YA_K_KI@Z 10069f10 f i libucrt:cfout.obj
 0001:00068f30       ?multiply_by_power_of_ten@__crt_strtox@@YA_NAAUbig_integer@1@I@Z 10069f30 f i libucrt:cfout.obj
 0001:00069630       ?multiply_core@__crt_strtox@@YAIQAIII@Z 1006a630 f i libucrt:cfout.obj
 0001:00069680       ?shift_left@__crt_strtox@@YA_NAAUbig_integer@1@I@Z 1006a680 f i libucrt:cfout.obj
 0001:00069822       ___acrt_fltout             1006a822 f   libucrt:cfout.obj
 0001:0006b146       __isatty                   1006c146 f   libucrt:isatty.obj
 0001:0006b1b1       ??$?RUlconv@@@__crt_internal_free_policy@@QBEXQBUlconv@@@Z 1006c1b1 f i libucrt:initmon.obj
 0001:0006b1c7       ??0?$__crt_unique_heap_ptr@Ulconv@@U__crt_internal_free_policy@@@@QAE@QAUlconv@@@Z 1006c1c7 f i libucrt:initmon.obj
 0001:0006b1db       ??1?$__crt_unique_heap_ptr@Ulconv@@U__crt_internal_free_policy@@@@QAE@XZ 1006c1db f i libucrt:initmon.obj
 0001:0006b1f1       ?detach@?$__crt_unique_heap_ptr@Ulconv@@U__crt_internal_free_policy@@@@QAEPAUlconv@@XZ 1006c1f1 f i libucrt:initmon.obj
 0001:0006b1f7       ?release@?$__crt_unique_heap_ptr@Ulconv@@U__crt_internal_free_policy@@@@QAEXXZ 1006c1f7 f i libucrt:initmon.obj
 0001:0006b20d       ___acrt_locale_free_monetary 1006c20d f   libucrt:initmon.obj
 0001:0006b34a       ___acrt_locale_initialize_monetary 1006c34a f   libucrt:initmon.obj
 0001:0006b83d       ___acrt_locale_free_numeric 1006c83d f   libucrt:initnum.obj
 0001:0006b8c0       ___acrt_locale_initialize_numeric 1006c8c0 f   libucrt:initnum.obj
 0001:0006bbab       ??$?RU__crt_lc_time_data@@@__crt_internal_free_policy@@QBEXQBU__crt_lc_time_data@@@Z 1006cbab f i libucrt:inittime.obj
 0001:0006bc4b       ??0?$__crt_unique_heap_ptr@U__crt_lc_time_data@@U__crt_internal_free_policy@@@@QAE@QAU__crt_lc_time_data@@@Z 1006cc4b f i libucrt:inittime.obj
 0001:0006bc5f       ??1?$__crt_unique_heap_ptr@U__crt_lc_time_data@@U__crt_internal_free_policy@@@@QAE@XZ 1006cc5f f i libucrt:inittime.obj
 0001:0006bc75       ??B?$__crt_unique_heap_ptr@U__crt_lc_time_data@@U__crt_internal_free_policy@@@@QBE_NXZ 1006cc75 f i libucrt:inittime.obj
 0001:0006bc7f       ?detach@?$__crt_unique_heap_ptr@U__crt_lc_time_data@@U__crt_internal_free_policy@@@@QAEPAU__crt_lc_time_data@@XZ 1006cc7f f i libucrt:inittime.obj
 0001:0006bcd0       ?get@?$__crt_unique_heap_ptr@U__crt_lc_time_data@@U__crt_internal_free_policy@@@@QBEPAU__crt_lc_time_data@@XZ 1006ccd0 f i libucrt:inittime.obj
 0001:0006c068       ?is_valid@?$__crt_unique_heap_ptr@U__crt_lc_time_data@@U__crt_internal_free_policy@@@@QBE_NXZ 1006d068 f i libucrt:inittime.obj
 0001:0006c072       ?release@?$__crt_unique_heap_ptr@U__crt_lc_time_data@@U__crt_internal_free_policy@@@@QAEXXZ 1006d072 f i libucrt:inittime.obj
 0001:0006c088       ___acrt_locale_free_time   1006d088 f   libucrt:inittime.obj
 0001:0006c1a5       ___acrt_locale_initialize_time 1006d1a5 f   libucrt:inittime.obj
 0001:0006c343       _wcsncpy_s                 1006d343 f   libucrt:wcsncpy_s.obj
 0001:0006c350       _wcscspn                   1006d350 f   libucrt:wcscspn.obj
 0001:0006c3b4       _wcsncmp                   1006d3b4 f   libucrt:wcsncmp.obj
 0001:0006c3fc       _wcspbrk                   1006d3fc f   libucrt:wcspbrk.obj
 0001:0006c452       ___acrt_GetStringTypeA     1006d452 f   libucrt:getstringtypea.obj
 0001:0006cec6       ___acrt_get_qualified_locale 1006dec6 f   libucrt:get_qualified_locale.obj
 0001:0006da6d       ___acrt_get_qualified_locale_downlevel 1006ea6d f   libucrt:getqloc_downlevel.obj
 0001:0006dcf5       _localeconv                1006ecf5 f   libucrt:localeconv.obj
 0001:0006dd29       __wcsnicmp                 1006ed29 f   libucrt:wcsnicmp.obj
 0001:0006de0f       __wcsnicmp_l               1006ee0f f   libucrt:wcsnicmp.obj
 0001:0006df50       __strnicmp                 1006ef50 f   libucrt:strnicmp.obj
 0001:0006dfd7       __strnicmp_l               1006efd7 f   libucrt:strnicmp.obj
 0001:0006e0bb       ??$__vcrt_va_start_verify_argument_type@$$CBH@@YAXXZ 1006f0bb f i libucrt:open.obj
 0001:0006e472       ??$tsopen_nolock@PAHABQAHABQBDABHABHABHABH@?$__crt_char_traits@D@@SAH$$QAPAHABQAHABQBDABH333@Z 1006f472 f i libucrt:open.obj
 0001:0006e4b0       ??$tsopen_nolock@PAHABQAHABQB_WABHABHABHABH@?$__crt_char_traits@_W@@SAH$$QAPAHABQAHABQB_WABH333@Z 1006f4b0 f i libucrt:open.obj
 0001:0006e4ee       ??$tsopen_nolock@PAHPAHABQBDABHHABHH@?$__crt_char_traits@D@@SAH$$QAPAH0ABQBDABH$$QAH23@Z 1006f4ee f i libucrt:open.obj
 0001:0006e52c       ??$tsopen_nolock@PAHPAHABQB_WABHHABHH@?$__crt_char_traits@_W@@SAH$$QAPAH0ABQB_WABH$$QAH23@Z 1006f52c f i libucrt:open.obj
 0001:0006ecfa       __open                     1006fcfa f   libucrt:open.obj
 0001:0006ed18       __sopen                    1006fd18 f   libucrt:open.obj
 0001:0006ed5a       __sopen_dispatch           1006fd5a f   libucrt:open.obj
 0001:0006ed67       __sopen_nolock             1006fd67 f   libucrt:open.obj
 0001:0006edcc       __sopen_s                  1006fdcc f   libucrt:open.obj
 0001:0006edf4       __wopen                    1006fdf4 f   libucrt:open.obj
 0001:0006ee12       __wsopen                   1006fe12 f   libucrt:open.obj
 0001:0006ee54       __wsopen_dispatch          1006fe54 f   libucrt:open.obj
 0001:0006ee61       __wsopen_nolock            1006fe61 f   libucrt:open.obj
 0001:0006f254       __wsopen_s                 10070254 f   libucrt:open.obj
 0001:0006f27c       ___p__commode              1007027c f   libucrt:ncommode.obj
 0001:0006f282       ___acrt_stdio_allocate_buffer_nolock 10070282 f   libucrt:_getbuf.obj
 0001:0006f2f6       ??$?RV<lambda_4980db0136e49a56f91ef52c46ca659a>@@AAV<lambda_6e3e78bb6855d1e4040e022c1b427e22>@@V<lambda_9c074eaf62197b4fd0274ed9e7824161>@@@?$__crt_seh_guarded_call@G@@QAEG$$QAV<lambda_4980db0136e49a56f91ef52c46ca659a>@@AAV<lambda_6e3e78bb6855d1e4040e022c1b427e22>@@$$QAV<lambda_9c074eaf62197b4fd0274ed9e7824161>@@@Z 100702f6 f i libucrt:putwch.obj
 0001:0006f36b       ??$__acrt_lock_and_call@V<lambda_6e3e78bb6855d1e4040e022c1b427e22>@@@@YAGW4__acrt_lock_id@@$$QAV<lambda_6e3e78bb6855d1e4040e022c1b427e22>@@@Z 1007036b f i libucrt:putwch.obj
 0001:0006f403       __putwch                   10070403 f   libucrt:putwch.obj
 0001:0006f427       __putwch_nolock            10070427 f   libucrt:putwch.obj
 0001:0006f47d       _nextafter                 1007047d f   libucrt:nextafter.obj
 0001:0006f4b5       __wcsnicoll                100704b5 f   libucrt:wcsnicol.obj
 0001:0006f5b9       __wcsnicoll_l              100705b9 f   libucrt:wcsnicol.obj
 0001:0006f731       __strnicoll                10070731 f   libucrt:strnicol.obj
 0001:0006f764       __strnicoll_l              10070764 f   libucrt:strnicol.obj
 0001:0006f89f       __msize                    1007089f f   libucrt:msize.obj
 0001:0006f8de       ___strncnt                 100708de f   libucrt:strncnt.obj
 0001:0006fa3a       ___acrt_GetLocaleInfoA     10070a3a f   libucrt:getlocaleinfoa.obj
 0001:0006fc58       _fegetenv                  10070c58 f   libucrt:fegetenv.obj
 0001:0006fc7c       _fesetenv                  10070c7c f   libucrt:fesetenv.obj
 0001:0006fcd7       _feholdexcept              10070cd7 f   libucrt:feholdexcept.obj
 0001:0006fd40       _log10                     10070d40 f   libucrt:log10.obj
 0001:0006fd80       __CIlog10                  10070d80 f   libucrt:log10.obj
 0001:0006fdbb       __CIlog10_default          10070dbb f   libucrt:log10.obj
 0001:0006fdcf       __log10_default            10070dcf     libucrt:log10.obj
 0001:0006fef0       _ceil                      10070ef0 f   libucrt:ceil_pentium4.obj
 0001:0006ff30       __ceil_pentium4            10070f30 f   libucrt:ceil_pentium4.obj
 0001:00070054       __wcsicmp                  10071054 f   libucrt:wcsicmp.obj
 0001:0007010e       __wcsicmp_l                1007110e f   libucrt:wcsicmp.obj
 0001:00070226       __towlower_l               10071226 f   libucrt:towlower.obj
 0001:00070321       _towlower                  10071321 f   libucrt:towlower.obj
 0001:00070340       ___ascii_strnicmp          10071340 f   libucrt:_strnicm.obj
 0001:000703b9       ??$__crt_interlocked_read@H@@YAHPDH@Z 100713b9 f i libucrt:setmode.obj
 0001:000703c8       __get_fmode                100713c8 f   libucrt:setmode.obj
 0001:000703ff       __set_fmode                100713ff f   libucrt:setmode.obj
 0001:0007044b       __setmode                  1007144b f   libucrt:setmode.obj
 0001:0007059c       __setmode_nolock           1007159c f   libucrt:setmode.obj
 0001:000706a1       ??$?RV<lambda_4cfda81533ccf5a03113a1ca40a30445>@@AAV<lambda_1cffa78e445b1da5fba1a2e0e533226f>@@V<lambda_68c952aa1b860373b2109ef12d0bba9d>@@@?$__crt_seh_guarded_call@H@@QAEH$$QAV<lambda_4cfda81533ccf5a03113a1ca40a30445>@@AAV<lambda_1cffa78e445b1da5fba1a2e0e533226f>@@$$QAV<lambda_68c952aa1b860373b2109ef12d0bba9d>@@@Z 100716a1 f i libucrt:chsize.obj
 0001:0007074b       ??$__acrt_lowio_lock_fh_and_call@V<lambda_1cffa78e445b1da5fba1a2e0e533226f>@@@@YAHH$$QAV<lambda_1cffa78e445b1da5fba1a2e0e533226f>@@@Z 1007174b f i libucrt:chsize.obj
 0001:0007082d       __chsize                   1007182d f   libucrt:chsize.obj
 0001:00070850       __chsize_nolock            10071850 f   libucrt:chsize.obj
 0001:00070a45       __chsize_s                 10071a45 f   libucrt:chsize.obj
 0001:00070b06       __umask                    10071b06 f   libucrt:umask.obj
 0001:00070b34       __umask_s                  10071b34 f   libucrt:umask.obj
 0001:00070b7d       ___dcrt_lowio_initialize_console_output 10071b7d f   libucrt:initcon.obj
 0001:00070ba3       ___dcrt_terminate_console_output 10071ba3 f   libucrt:initcon.obj
 0001:00070bbf       _nexttoward                10071bbf f   libucrt:nexttoward.obj
 0001:00070d70       ___acrt_CompareStringW     10071d70 f   libucrt:comparestringw.obj
 0001:00071144       ___acrt_CompareStringA     10072144 f   libucrt:comparestringa.obj
 0001:0007127b       _strncpy_s                 1007227b f   libucrt:strncpy_s.obj
 0001:00071288       ___acrt_fenv_get_fp_status_word_from_exception_mask 10072288 f   libucrt:_fenvutils.obj
 0001:000716cb       __getfpcontrolword         100726cb f   libucrt:_fenvutils.obj
 0001:0007171e       __getfpstatusword          1007271e f   libucrt:_fenvutils.obj
 0001:000717f0       __setfpcontrolword         100727f0 f   libucrt:_fenvutils.obj
 0001:00071890       __setfpstatusword          10072890 f   libucrt:_fenvutils.obj
 0001:00071ac6       ___control87_2             10072ac6 f   libucrt:ieee87.obj
 0001:0007209a       ___fpreset_sse2            1007309a f   libucrt:ieee87.obj
 0001:000722ed       __clearfp                  100732ed f   libucrt:ieee87.obj
 0001:00072402       __control87                10073402 f   libucrt:ieee87.obj
 0001:000727c4       __controlfp                100737c4 f   libucrt:ieee87.obj
 0001:000727e4       __fpreset                  100737e4 f   libucrt:ieee87.obj
 0001:000728e1       __set_controlfp            100738e1 f   libucrt:ieee87.obj
 0001:00072977       __statusfp                 10073977 f   libucrt:ieee87.obj
 0001:00072a3a       __statusfp2                10073a3a f   libucrt:ieee87.obj
 0001:00072ab7       ___acrt_initialize_sse2    10073ab7 f   libucrt:mathfcns.obj
 0001:00072ac9       __set_SSE2_enable          10073ac9 f   libucrt:mathfcns.obj
 0001:00072b00       __CIlog10_pentium4         10073b00 f   libucrt:log10_pentium4.obj
 0001:00072b18       __log10_pentium4           10073b18     libucrt:log10_pentium4.obj
 0001:00072e51       __fFEXP                    10073e51     libucrt:87tran.obj
 0001:00072ea8       __rtinfpopse               10073ea8     libucrt:87tran.obj
 0001:00072eaa       __rtinfnpopse              10073eaa     libucrt:87tran.obj
 0001:00072eba       __fFLN                     10073eba     libucrt:87tran.obj
 0001:00072f6f       __rtinfpop                 10073f6f     libucrt:87tran.obj
 0001:00072f71       __rtinfnpop                10073f71     libucrt:87tran.obj
 0001:00072f8e       __ffexpm1                  10073f8e     libucrt:87tran.obj
 0001:000730c0       __trandisp1                100740c0 f   libucrt:87disp.obj
 0001:00073127       __trandisp2                10074127 f   libucrt:87disp.obj
 0001:000731b3       __rttospopde               100741b3     libucrt:87disp.obj
 0001:000731b8       __rttospop                 100741b8     libucrt:87disp.obj
 0001:000731ba       __rtnospop                 100741ba     libucrt:87disp.obj
 0001:000731bc       __rttosnpop                100741bc     libucrt:87disp.obj
 0001:000731bd       __rtnospopde               100741bd     libucrt:87disp.obj
 0001:000731c4       __rtzeropop                100741c4     libucrt:87disp.obj
 0001:000731c6       __rtzeronpop               100741c6     libucrt:87disp.obj
 0001:000731cb       __rtzerospop               100741cb     libucrt:87disp.obj
 0001:000731d8       __rtonepop                 100741d8     libucrt:87disp.obj
 0001:000731da       __rtonenpop                100741da     libucrt:87disp.obj
 0001:000731df       __tosnan1                  100741df     libucrt:87disp.obj
 0001:0007320a       __nosnan2                  1007420a     libucrt:87disp.obj
 0001:0007320c       __tosnan2                  1007420c     libucrt:87disp.obj
 0001:00073234       __nan2                     10074234     libucrt:87disp.obj
 0001:00073273       __rtindfpop                10074273     libucrt:87disp.obj
 0001:00073275       __rtindfnpop               10074275     libucrt:87disp.obj
 0001:00073286       __rttosnpopde              10074286     libucrt:87disp.obj
 0001:00073290       __rtatan2inf               10074290     libucrt:87disp.obj
 0001:000732ad       __rtchsifneg               100742ad     libucrt:87disp.obj
 0001:00073331       ___setfflag                10074331 f   libucrt:fp_flags.obj
 0001:00073350       __twoToTOS                 10074350 f   libucrt:common.obj
 0001:00073365       __load_CW                  10074365 f   libucrt:common.obj
 0001:0007337c       __convertTOStoQNaN         1007437c f   libucrt:common.obj
 0001:00073395       __fload_withFB             10074395 f   libucrt:common.obj
 0001:000733d8       __checkTOS_withFB          100743d8 f   libucrt:common.obj
 0001:000733ee       __fast_exit                100743ee f   libucrt:common.obj
 0001:000733fb       __math_exit                100743fb f   libucrt:common.obj
 0001:00073425       __check_overflow_exit      10074425 f   libucrt:common.obj
 0001:00073439       __check_range_exit         10074439 f   libucrt:common.obj
 0001:00073540       __startTwoArgErrorHandling 10074540 f   libucrt:genexcep.obj
 0001:00073557       __startOneArgErrorHandling 10074557 f   libucrt:genexcep.obj
 0001:000735a7       ___libm_error_support      100745a7 f   libucrt:libm_error.obj
 0001:00073845       ___libm_setusermatherr     10074845 f   libucrt:libm_error.obj
 0001:0007387e       __ceil_default             1007487e f   libucrt:ceil.obj
 0001:00073965       ___acrt_LCMapStringW       10074965 f   libucrt:lcmapstringw.obj
 0001:000739b2       ___p__fmode                100749b2 f   libucrt:txtmode.obj
 0001:000739b8       __d_int                    100749b8 f   libucrt:_test.obj
 0001:00073b00       __dtest                    10074b00 f   libucrt:_test.obj
 0001:00073b7d       __fd_int                   10074b7d f   libucrt:_test.obj
 0001:00073c7f       __fdtest                   10074c7f f   libucrt:_test.obj
 0001:00073ce0       __fperrraise               10074ce0 f   libucrt:_test.obj
 0001:00073d0b       __ld_int                   10074d0b f   libucrt:_test.obj
 0001:00073d18       __ldtest                   10074d18 f   libucrt:_test.obj
 0001:00073dbd       __controlfp_s              10074dbd f   libucrt:contrlfp.obj
 0001:00073e33       __d_inttype                10074e33 f   libucrt:powhlp.obj
 0001:00073eb7       __powhlp                   10074eb7 f   libucrt:powhlp.obj
 0001:0007402c       __87except                 1007502c f   libucrt:87except.obj
 0001:00074179       __frnd                     10075179 f   libucrt:frnd.obj
 0001:00074194       _fegetexceptflag           10075194 f   libucrt:fegetexceptflag.obj
 0001:000741d1       _fesetexceptflag           100751d1 f   libucrt:fesetexceptflag.obj
 0001:00074232       _fetestexcept              10075232 f   libucrt:fetestexcept.obj
 0001:00074260       __FindPESection            10075260 f   LIBCMT:pesect.obj
 0001:000742c0       __IsNonwritableInCurrentImage 100752c0 f   LIBCMT:pesect.obj
 0001:000743b0       __ValidateImageBase        100753b0 f   LIBCMT:pesect.obj
 0001:000743f0       __aulldvrm                 100753f0 f   LIBCMT:ulldvrm.obj
 0001:000744aa       ??1type_info@@UAE@XZ       100754aa f   LIBCMT:std_type_info_static.obj
 0001:000744b1       ??_Gtype_info@@UAEPAXI@Z   100754b1 f i LIBCMT:std_type_info_static.obj
 0001:000744b1       ??_Etype_info@@UAEPAXI@Z   100754b1 f i LIBCMT:std_type_info_static.obj
 0001:000744e0       __SEH_prolog4_GS           100754e0 f   LIBCMT:_sehprolg4gs_.obj
 0001:00074529       __SEH_epilog4_GS           10075529 f   LIBCMT:_sehprolg4gs_.obj
 0001:00074550       __allmul                   10075550 f   LIBCMT:llmul.obj
 0001:000745a0       __alldvrm                  100755a0 f   LIBCMT:lldvrm.obj
 0001:000746c0       __aullshr                  100756c0 f   LIBCMT:ullshr.obj
 0001:000746f0       __chkstk                   100756f0 f   LIBCMT:chkstk.obj
 0001:000746f0       __alloca_probe             100756f0 f   LIBCMT:chkstk.obj
 0001:00074730       __alloca_probe_16          10075730 f   LIBCMT:alloca16.obj
 0001:00074746       __alloca_probe_8           10075746     LIBCMT:alloca16.obj
 0001:00074770       __allshl                   10075770 f   LIBCMT:llshl.obj
 0001:000747a0       __ftol2_sse                100757a0 f   LIBCMT:_ftol2_.obj
 0001:000747a9       __ftol2_pentium4           100757a9 f   LIBCMT:_ftol2_.obj
 0001:000747bc       __ftol2_sse_excpt          100757bc f   LIBCMT:_ftol2_.obj
 0001:000747e0       __ftol2                    100757e0 f   LIBCMT:_ftol2_.obj
 0001:00074882       __initialize_default_precision 10075882 f   LIBCMT:default_precision.obj
 0001:000748ab       ??3@YAXPAXI@Z              100758ab f   LIBCMT:delete_scalar_size.obj
 0001:000748bc       ??3@YAXPAX@Z               100758bc f   LIBCMT:delete_scalar.obj
 0001:000748c2       _GetLastError@0            100758c2 f   kernel32:KERNEL32.dll
 0001:000748c8       _GetModuleFileNameW@12     100758c8 f   kernel32:KERNEL32.dll
 0001:000748ce       _InterlockedPushEntrySList@8 100758ce f   kernel32:KERNEL32.dll
 0001:000748d4       _InterlockedFlushSList@4   100758d4 f   kernel32:KERNEL32.dll
 0001:000748da       _InitializeCriticalSectionAndSpinCount@8 100758da f   kernel32:KERNEL32.dll
 0001:000748e0       _TlsAlloc@0                100758e0 f   kernel32:KERNEL32.dll
 0001:000748e6       _TlsGetValue@4             100758e6 f   kernel32:KERNEL32.dll
 0001:000748ec       _TlsSetValue@8             100758ec f   kernel32:KERNEL32.dll
 0001:000748f2       _TlsFree@4                 100758f2 f   kernel32:KERNEL32.dll
 0001:000748f8       _FreeLibrary@4             100758f8 f   kernel32:KERNEL32.dll
 0001:000748fe       _LoadLibraryExW@12         100758fe f   kernel32:KERNEL32.dll
 0001:00074904       _RtlUnwind@16              10075904 f   kernel32:KERNEL32.dll
 0001:0007490a       _SetLastError@4            1007590a f   kernel32:KERNEL32.dll
 0001:00074910       _EnterCriticalSection@4    10075910 f   kernel32:KERNEL32.dll
 0001:00074916       _LeaveCriticalSection@4    10075916 f   kernel32:KERNEL32.dll
 0001:0007491c       _DeleteCriticalSection@4   1007591c f   kernel32:KERNEL32.dll
 0001:00074922       _GetStdHandle@4            10075922 f   kernel32:KERNEL32.dll
 0001:00074928       _GetFileType@4             10075928 f   kernel32:KERNEL32.dll
 0001:0007492e       _GetModuleFileNameA@12     1007592e f   kernel32:KERNEL32.dll
 0001:00074934       _GetModuleHandleExW@12     10075934 f   kernel32:KERNEL32.dll
 0001:0007493a       _WriteConsoleW@20          1007593a f   kernel32:KERNEL32.dll
 0001:00074940       _ExitProcess@4             10075940 f   kernel32:KERNEL32.dll
 0001:00074946       _RaiseException@16         10075946 f   kernel32:KERNEL32.dll
 0001:0007494c       _MultiByteToWideChar@24    1007594c f   kernel32:KERNEL32.dll
 0001:00074952       _WideCharToMultiByte@32    10075952 f   kernel32:KERNEL32.dll
 0001:00074958       _HeapFree@12               10075958 f   kernel32:KERNEL32.dll
 0001:0007495e       _HeapAlloc@12              1007595e f   kernel32:KERNEL32.dll
 0001:00074964       _GetDateFormatW@24         10075964 f   kernel32:KERNEL32.dll
 0001:0007496a       _GetTimeFormatW@24         1007596a f   kernel32:KERNEL32.dll
 0001:00074970       _CompareStringW@24         10075970 f   kernel32:KERNEL32.dll
 0001:00074976       _LCMapStringW@24           10075976 f   kernel32:KERNEL32.dll
 0001:0007497c       _GetLocaleInfoW@16         1007597c f   kernel32:KERNEL32.dll
 0001:00074982       _IsValidLocale@8           10075982 f   kernel32:KERNEL32.dll
 0001:00074988       _GetUserDefaultLCID@0      10075988 f   kernel32:KERNEL32.dll
 0001:0007498e       _EnumSystemLocalesW@8      1007598e f   kernel32:KERNEL32.dll
 0001:00074994       _GetCurrentThread@0        10075994 f   kernel32:KERNEL32.dll
 0001:0007499a       _GetACP@0                  1007599a f   kernel32:KERNEL32.dll
 0001:000749a0       _WriteFile@20              100759a0 f   kernel32:KERNEL32.dll
 0001:000749a6       _OutputDebugStringA@4      100759a6 f   kernel32:KERNEL32.dll
 0001:000749ac       _OutputDebugStringW@4      100759ac f   kernel32:KERNEL32.dll
 0001:000749b2       _CloseHandle@4             100759b2 f   kernel32:KERNEL32.dll
 0001:000749b8       _WaitForSingleObjectEx@12  100759b8 f   kernel32:KERNEL32.dll
 0001:000749be       _CreateThread@24           100759be f   kernel32:KERNEL32.dll
 0001:000749c4       _SetConsoleCtrlHandler@8   100759c4 f   kernel32:KERNEL32.dll
 0001:000749ca       _HeapReAlloc@16            100759ca f   kernel32:KERNEL32.dll
 0001:000749d0       _ReadFile@20               100759d0 f   kernel32:KERNEL32.dll
 0001:000749d6       _GetConsoleMode@8          100759d6 f   kernel32:KERNEL32.dll
 0001:000749dc       _ReadConsoleW@20           100759dc f   kernel32:KERNEL32.dll
 0001:000749e2       _GetConsoleCP@0            100759e2 f   kernel32:KERNEL32.dll
 0001:000749e8       _DeleteFileW@4             100759e8 f   kernel32:KERNEL32.dll
 0001:000749ee       _SetFilePointerEx@20       100759ee f   kernel32:KERNEL32.dll
 0001:000749f4       _IsValidCodePage@4         100759f4 f   kernel32:KERNEL32.dll
 0001:000749fa       _GetOEMCP@0                100759fa f   kernel32:KERNEL32.dll
 0001:00074a00       _GetCPInfo@8               10075a00 f   kernel32:KERNEL32.dll
 0001:00074a06       _GetEnvironmentStringsW@0  10075a06 f   kernel32:KERNEL32.dll
 0001:00074a0c       _FreeEnvironmentStringsW@4 10075a0c f   kernel32:KERNEL32.dll
 0001:00074a12       _SetEnvironmentVariableA@8 10075a12 f   kernel32:KERNEL32.dll
 0001:00074a18       _SetEnvironmentVariableW@8 10075a18 f   kernel32:KERNEL32.dll
 0001:00074a1e       _GetProcessHeap@0          10075a1e f   kernel32:KERNEL32.dll
 0001:00074a24       _GetCommandLineA@0         10075a24 f   kernel32:KERNEL32.dll
 0001:00074a2a       _GetCommandLineW@0         10075a2a f   kernel32:KERNEL32.dll
 0001:00074a30       _GetStringTypeW@16         10075a30 f   kernel32:KERNEL32.dll
 0001:00074a36       _FlushFileBuffers@4        10075a36 f   kernel32:KERNEL32.dll
 0001:00074a3c       _SetStdHandle@8            10075a3c f   kernel32:KERNEL32.dll
 0001:00074a42       _CreateFileW@28            10075a42 f   kernel32:KERNEL32.dll
 0001:00074a48       _HeapSize@12               10075a48 f   kernel32:KERNEL32.dll
 0001:00074a4e       _SetEndOfFile@4            10075a4e f   kernel32:KERNEL32.dll
 0001:00074a54       _EncodePointer@4           10075a54 f   kernel32:KERNEL32.dll
 0001:00074a5a       _DecodePointer@4           10075a5a f   kernel32:KERNEL32.dll
 0001:00074a60       _SystemFunction036@8       10075a60 f   advapi32:ADVAPI32.dll
 0001:00074a70       _strrchr                   10075a70 f   libvcruntime:strrchr.obj
 0001:00074d57       _memcmp                    10075d57 f   libvcruntime:_memcmp_.obj
 0001:0007883f       _wcschr                    1007983f f   libvcruntime:wcschr.obj
 0002:00000000       ___xc_a                    1007c000     LIBCMT:initializers.obj
 0002:00000104       ___xc_z                    1007c104     LIBCMT:initializers.obj
 0002:00000208       ___xi_a                    1007c208     LIBCMT:initializers.obj
 0002:0000030c       ___acrt_stdio_initializer  1007c30c     libucrt:stdio_initializer.obj
 0002:00000310       ___acrt_multibyte_initializer 1007c310     libucrt:multibyte_initializer.obj
 0002:00000314       ___acrt_tran_sse2_initializer 1007c314     libucrt:sse2_initializer.obj
 0002:0000041c       ___xi_z                    1007c41c     LIBCMT:initializers.obj
 0002:00000520       ___xp_a                    1007c520     LIBCMT:initializers.obj
 0002:00000624       ___acrt_locale_terminator  1007c624     libucrt:locale_initializer.obj
 0002:00000628       ___dcrt_console_output_terminator 1007c628     libucrt:console_output_initializer.obj
 0002:00000730       ___acrt_stdio_terminator   1007c730     libucrt:stdio_initializer.obj
 0002:00000834       ___xp_z                    1007c834     LIBCMT:initializers.obj
 0002:00000938       ___xt_a                    1007c938     LIBCMT:initializers.obj
 0002:00000a3c       ___xt_z                    1007ca3c     LIBCMT:initializers.obj
 0002:00000b40       _Analog_Solution_RGND      1007cb40     Analog_Solution.obj
 0002:00000b48       _Analog_Solution_M         1007cb48     Analog_Solution.obj
 0002:00000b50       ??_C@_0BI@PBFPDHLE@Error?5creating?5scope?54?6?$AA@ 1007cb50     Analog_Solution.obj
 0002:00000b6c       ??_C@_0CB@ICPKBJDP@Logging?1Data?5Type?5Conversion1?1s1@ 1007cb6c     Analog_Solution.obj
 0002:00000b94       ??_C@_0CB@KJNHEKPM@Logging?1Data?5Type?5Conversion1?1s2@ 1007cb94     Analog_Solution.obj
 0002:00000bbc       ??_C@_0CB@LAMMHLLN@Logging?1Data?5Type?5Conversion1?1s3@ 1007cbbc     Analog_Solution.obj
 0002:00000be4       ??_C@_0CB@PPINONHK@Logging?1Data?5Type?5Conversion1?1s4@ 1007cbe4     Analog_Solution.obj
 0002:00000c0c       ??_C@_0CB@OGJGNMDL@Logging?1Data?5Type?5Conversion1?1s5@ 1007cc0c     Analog_Solution.obj
 0002:00000c34       ??_C@_0CB@MNLLIPPI@Logging?1Data?5Type?5Conversion1?1s6@ 1007cc34     Analog_Solution.obj
 0002:00000c5c       ??_C@_0CD@PABKEHBL@Logging?1Time_Scope_trigger?1Switc@ 1007cc5c     Analog_Solution.obj
 0002:00000c88       ??_C@_0N@JOPDLDLD@Var_Time?4dat?$AA@ 1007cc88     Analog_Solution.obj
 0002:00000c98       ??_C@_0BI@PHJEPFFP@Error?5creating?5scope?51?6?$AA@ 1007cc98     Analog_Solution.obj
 0002:00000cb4       ??_C@_0N@JGBBFACG@Var_MVLK?4dat?$AA@ 1007ccb4     Analog_Solution.obj
 0002:00000cc4       ??_C@_0BI@PEBACBDB@Error?5creating?5scope?53?6?$AA@ 1007ccc4     Analog_Solution.obj
 0002:00000ce0       ??_C@_0CM@PCIJLOAC@Logging?1Log_conditioning?1Rate?5Tr@ 1007cce0     Analog_Solution.obj
 0002:00000d14       ??_C@_0CM@NJKEONMB@Logging?1Log_conditioning?1Rate?5Tr@ 1007cd14     Analog_Solution.obj
 0002:00000d48       ??_C@_0CM@MALPNMIA@Logging?1Log_conditioning?1Rate?5Tr@ 1007cd48     Analog_Solution.obj
 0002:00000d7c       ??_C@_0CM@IPPOEKEH@Logging?1Log_conditioning?1Rate?5Tr@ 1007cd7c     Analog_Solution.obj
 0002:00000db0       ??_C@_0CM@JGOFHLAG@Logging?1Log_conditioning?1Rate?5Tr@ 1007cdb0     Analog_Solution.obj
 0002:00000de4       ??_C@_0CM@LNMICIMF@Logging?1Log_conditioning?1Rate?5Tr@ 1007cde4     Analog_Solution.obj
 0002:00000e18       ??_C@_0CM@KENDBJIE@Logging?1Log_conditioning?1Rate?5Tr@ 1007ce18     Analog_Solution.obj
 0002:00000e4c       ??_C@_0CM@CDELAFEL@Logging?1Log_conditioning?1Rate?5Tr@ 1007ce4c     Analog_Solution.obj
 0002:00000e80       ??_C@_0CM@DKFADEAK@Logging?1Log_conditioning?1Rate?5Tr@ 1007ce80     Analog_Solution.obj
 0002:00000eb4       ??_C@_0CN@DBLKNOGB@Logging?1Log_conditioning?1Rate?5Tr@ 1007ceb4     Analog_Solution.obj
 0002:00000eec       ??_C@_0CN@CIKBOPCA@Logging?1Log_conditioning?1Rate?5Tr@ 1007ceec     Analog_Solution.obj
 0002:00000f24       ??_C@_0CN@DIMLMOD@Logging?1Log_conditioning?1Rate?5Tr@ 1007cf24     Analog_Solution.obj
 0002:00000f5c       ??_C@_0CN@BKJHINKC@Logging?1Log_conditioning?1Rate?5Tr@ 1007cf5c     Analog_Solution.obj
 0002:00000f94       ??_C@_0CN@FFNGBLGF@Logging?1Log_conditioning?1Rate?5Tr@ 1007cf94     Analog_Solution.obj
 0002:00000fcc       ??_C@_0CN@EMMNCKCE@Logging?1Log_conditioning?1Rate?5Tr@ 1007cfcc     Analog_Solution.obj
 0002:00001004       ??_C@_0CN@GHOAHJOH@Logging?1Log_conditioning?1Rate?5Tr@ 1007d004     Analog_Solution.obj
 0002:0000103c       ??_C@_0CN@HOPLEIKG@Logging?1Log_conditioning?1Rate?5Tr@ 1007d03c     Analog_Solution.obj
 0002:00001074       ??_C@_0CN@PJGDFEGJ@Logging?1Log_conditioning?1Rate?5Tr@ 1007d074     Analog_Solution.obj
 0002:000010ac       ??_C@_0CN@OAHIGFCI@Logging?1Log_conditioning?1Rate?5Tr@ 1007d0ac     Analog_Solution.obj
 0002:000010e4       ??_C@_0CN@DDPMGADI@Logging?1Log_conditioning?1Rate?5Tr@ 1007d0e4     Analog_Solution.obj
 0002:0000111c       ??_C@_0CN@CKOHFBHJ@Logging?1Log_conditioning?1Rate?5Tr@ 1007d11c     Analog_Solution.obj
 0002:00001154       ??_C@_0CN@BMKACLK@Logging?1Log_conditioning?1Rate?5Tr@ 1007d154     Analog_Solution.obj
 0002:0000118c       ??_C@_0M@LEOMEJEO@Var_100?4dat?$AA@ 1007d18c     Analog_Solution.obj
 0002:0000119c       ??_C@_0BI@PFNCELAG@Error?5creating?5scope?52?6?$AA@ 1007d19c     Analog_Solution.obj
 0002:000011b8       ??_C@_0DH@CHJBJNOH@Inputs?1RS232_read?1GPS_read?1Embed@ 1007d1b8     Analog_Solution.obj
 0002:000011fc       ??_C@_0DH@MLMMOCE@Inputs?1RS232_read?1GPS_read?1Embed@ 1007d1fc     Analog_Solution.obj
 0002:00001240       ??_C@_0DH@BFKHPPGF@Inputs?1RS232_read?1GPS_read?1Embed@ 1007d240     Analog_Solution.obj
 0002:00001284       ??_C@_0DH@FKOGGJKC@Inputs?1RS232_read?1GPS_read?1Embed@ 1007d284     Analog_Solution.obj
 0002:000012c8       ??_C@_09NPFKMDAO@Var_1?4dat?$AA@ 1007d2c8     Analog_Solution.obj
 0002:000012d4       ??_C@_0BI@PAJNFNID@Error?5creating?5scope?55?6?$AA@ 1007d2d4     Analog_Solution.obj
 0002:000012f0       ??_C@_0BA@COPADBPC@Outputs?1Switch2?$AA@ 1007d2f0     Analog_Solution.obj
 0002:00001304       ??_C@_06KFNFIEK@?$CF15?46f?$AA@ 1007d304     Analog_Solution.obj
 0002:0000130c       ??_C@_0BI@PCNLODNK@Error?5creating?5scope?56?6?$AA@ 1007d30c     Analog_Solution.obj
 0002:00001328       ??_C@_0BA@FNNGCDB@Outputs?1Switch1?$AA@ 1007d328     Analog_Solution.obj
 0002:0000133c       ??_C@_0BI@PDBJIJON@Error?5creating?5scope?57?6?$AA@ 1007d33c     Analog_Solution.obj
 0002:00001358       ??_C@_0CC@ONIJLNCO@Spooling_Speed_Controlled?1Switch@ 1007d358     Analog_Solution.obj
 0002:00001380       ??_C@_0BJ@CPDJPIIA@Error?5creating?5scope?514?6?$AA@ 1007d380     Analog_Solution.obj
 0002:000013a0       ??_C@_0CC@PEJCIMGP@Spooling_Speed_Controlled?1Switch@ 1007d3a0     Analog_Solution.obj
 0002:000013c8       ??_C@_0BJ@COPLJCLH@Error?5creating?5scope?515?6?$AA@ 1007d3c8     Analog_Solution.obj
 0002:000013e8       ??_C@_0BK@KKPAHNBI@Winch_Conrtol?1damper?1Sum1?$AA@ 1007d3e8     Analog_Solution.obj
 0002:00001408       ??_C@_0BJ@CMLNCMOO@Error?5creating?5scope?516?6?$AA@ 1007d408     Analog_Solution.obj
 0002:00001428       ??_C@_0CE@ICDHHNKK@Inputs?1Analog?5Inputs?1PCI?96221?5AD@ 1007d428     Analog_Solution.obj
 0002:00001454       ??_C@_0CL@JGOJNICA@Interrupting?5board?5at?5?$FL0?0?5?91?$FN?3?5N@ 1007d454     Analog_Solution.obj
 0002:00001488       ??_C@_0CG@MEGHGBEC@ISR?5reg?5failed?5for?5IRQ?5?$CFd?5at?5?$FL0?0@ 1007d488     Analog_Solution.obj
 0002:000014b8       ??_C@_0BC@OJJPBDHH@FixedStepDiscrete?$AA@ 1007d4b8     Analog_Solution.obj
 0002:000014cd       ??_C@_00CNPNBAHC@?$AA@     1007d4cd     Analog_Solution.obj
 0002:000014d0       ??_C@_03HBFGMJOD@rt_?$AA@  1007d4d0     Analog_Solution.obj
 0002:000014d4       ??_C@_0BB@CEKNGLLH@Read?5Int?5Status1?$AA@ 1007d4d4     Analog_Solution.obj
 0002:000014e8       ??_C@_0GA@NOEJMAJB@Analog_Solution?1Inputs?1RS232_rea@ 1007d4e8     Analog_Solution.obj
 0002:0000155c       ??_C@_0BD@CMNGIDGM@Filter?5Int?5Reason5?$AA@ 1007d55c     Analog_Solution.obj
 0002:00001578       ??_C@_0GC@KOAMIAMM@Analog_Solution?1Inputs?1RS232_rea@ 1007d578     Analog_Solution.obj
 0002:000015f0       ??_C@_0M@FAEAPFJN@FIFO?5read?51?$AA@ 1007d5f0     Analog_Solution.obj
 0002:00001600       ??_C@_0FL@NKGKKDHI@Analog_Solution?1Inputs?1RS232_rea@ 1007d600     Analog_Solution.obj
 0002:00001670       ??_C@_0P@IMFDEIPE@Write?5HW?5FIFO1?$AA@ 1007d670     Analog_Solution.obj
 0002:00001688       ??_C@_0FO@BECAGJDB@Analog_Solution?1Inputs?1RS232_rea@ 1007d688     Analog_Solution.obj
 0002:000016f8       ??_C@_0BD@HPLNAKP@Filter?5Int?5Reason6?$AA@ 1007d6f8     Analog_Solution.obj
 0002:00001710       ??_C@_0GC@IFCBNDAP@Analog_Solution?1Inputs?1RS232_rea@ 1007d710     Analog_Solution.obj
 0002:00001788       ??_C@_0M@HLGNKGFO@FIFO?5read?52?$AA@ 1007d788     Analog_Solution.obj
 0002:00001798       ??_C@_0FL@PBEHPALL@Analog_Solution?1Inputs?1RS232_rea@ 1007d798     Analog_Solution.obj
 0002:00001808       ??_C@_0P@KHHOBLDH@Write?5HW?5FIFO2?$AA@ 1007d808     Analog_Solution.obj
 0002:00001820       ??_C@_0FO@DPANDKPC@Analog_Solution?1Inputs?1RS232_rea@ 1007d820     Analog_Solution.obj
 0002:00001890       ??_C@_0BD@BOOAOBOO@Filter?5Int?5Reason7?$AA@ 1007d890     Analog_Solution.obj
 0002:000018a8       ??_C@_0GC@JMDKOCEO@Analog_Solution?1Inputs?1RS232_rea@ 1007d8a8     Analog_Solution.obj
 0002:00001920       ??_C@_0M@GCHGJHBP@FIFO?5read?53?$AA@ 1007d920     Analog_Solution.obj
 0002:00001930       ??_C@_0FL@OIFMMBPK@Analog_Solution?1Inputs?1RS232_rea@ 1007d930     Analog_Solution.obj
 0002:000019a0       ??_C@_0P@LOGFCKHG@Write?5HW?5FIFO3?$AA@ 1007d9a0     Analog_Solution.obj
 0002:000019b8       ??_C@_0FO@CGBGALLD@Analog_Solution?1Inputs?1RS232_rea@ 1007d9b8     Analog_Solution.obj
 0002:00001a28       ??_C@_0BD@JJHIPNCB@Filter?5Int?5Reason8?$AA@ 1007da28     Analog_Solution.obj
 0002:00001a40       ??_C@_0GC@BLKCPOIB@Analog_Solution?1Inputs?1RS232_rea@ 1007da40     Analog_Solution.obj
 0002:00001ab8       ??_C@_0M@CNDHABNI@FIFO?5read?54?$AA@ 1007dab8     Analog_Solution.obj
 0002:00001ac8       ??_C@_0FL@KHBNFHDN@Analog_Solution?1Inputs?1RS232_rea@ 1007dac8     Analog_Solution.obj
 0002:00001b38       ??_C@_0P@PBCELMLB@Write?5HW?5FIFO4?$AA@ 1007db38     Analog_Solution.obj
 0002:00001b50       ??_C@_0FO@GJFHJNHE@Analog_Solution?1Inputs?1RS232_rea@ 1007db50     Analog_Solution.obj
 0002:00001bc0       ??_C@_0BD@EILKEGGI@Filter?5Int?5Reason1?$AA@ 1007dbc0     Analog_Solution.obj
 0002:00001bd8       ??_C@_0GC@MKGAEFMI@Analog_Solution?1Inputs?1RS232_rea@ 1007dbd8     Analog_Solution.obj
 0002:00001c50       ??_C@_0O@JNEIFNPD@Read?5HW?5FIFO1?$AA@ 1007dc50     Analog_Solution.obj
 0002:00001c60       ??_C@_0FN@DMEJCELB@Analog_Solution?1Inputs?1RS232_rea@ 1007dc60     Analog_Solution.obj
 0002:00001cd0       ??_C@_0N@JPLHHADN@FIFO?5write?51?$AA@ 1007dcd0     Analog_Solution.obj
 0002:00001ce0       ??_C@_0FM@EPFNEMJM@Analog_Solution?1Inputs?1RS232_rea@ 1007dce0     Analog_Solution.obj
 0002:00001d50       ??_C@_0BD@GDJHBFKL@Filter?5Int?5Reason2?$AA@ 1007dd50     Analog_Solution.obj
 0002:00001d68       ??_C@_0GC@OBENBGAL@Analog_Solution?1Inputs?1RS232_rea@ 1007dd68     Analog_Solution.obj
 0002:00001de0       ??_C@_0O@LGGFAODA@Read?5HW?5FIFO2?$AA@ 1007dde0     Analog_Solution.obj
 0002:00001df0       ??_C@_0FN@BHGEHHHC@Analog_Solution?1Inputs?1RS232_rea@ 1007ddf0     Analog_Solution.obj
 0002:00001e60       ??_C@_0N@LEJKCDPO@FIFO?5write?52?$AA@ 1007de60     Analog_Solution.obj
 0002:00001e70       ??_C@_0FM@GEHABPFP@Analog_Solution?1Inputs?1RS232_rea@ 1007de70     Analog_Solution.obj
 0002:00001ee0       ??_C@_0BD@HKIMCEOK@Filter?5Int?5Reason3?$AA@ 1007dee0     Analog_Solution.obj
 0002:00001ef8       ??_C@_0GC@PIFGCHEK@Analog_Solution?1Inputs?1RS232_rea@ 1007def8     Analog_Solution.obj
 0002:00001f70       ??_C@_0O@KPHODPHB@Read?5HW?5FIFO3?$AA@ 1007df70     Analog_Solution.obj
 0002:00001f80       ??_C@_0FN@OHPEGDD@Analog_Solution?1Inputs?1RS232_rea@ 1007df80     Analog_Solution.obj
 0002:00001ff0       ??_C@_0N@KNIBBCLP@FIFO?5write?53?$AA@ 1007dff0     Analog_Solution.obj
 0002:00002000       ??_C@_0FM@HNGLCOBO@Analog_Solution?1Inputs?1RS232_rea@ 1007e000     Analog_Solution.obj
 0002:00002070       ??_C@_0BD@DFMNLCCN@Filter?5Int?5Reason4?$AA@ 1007e070     Analog_Solution.obj
 0002:00002088       ??_C@_0GC@LHBHLBIN@Analog_Solution?1Inputs?1RS232_rea@ 1007e088     Analog_Solution.obj
 0002:00002100       ??_C@_0O@OADPKJLG@Read?5HW?5FIFO4?$AA@ 1007e100     Analog_Solution.obj
 0002:00002110       ??_C@_0FN@EBDONAPE@Analog_Solution?1Inputs?1RS232_rea@ 1007e110     Analog_Solution.obj
 0002:00002180       ??_C@_0N@OCMAIEHI@FIFO?5write?54?$AA@ 1007e180     Analog_Solution.obj
 0002:00002190       ??_C@_0FM@DCCKLINJ@Analog_Solution?1Inputs?1RS232_rea@ 1007e190     Analog_Solution.obj
 0002:00002200       ??_C@_0M@LOECFBFK@Wall?5Time?51?$AA@ 1007e200     Analog_Solution.obj
 0002:00002210       ??_C@_0CE@GJACPMMH@Analog_Solution?1Logging?1Wall?5Tim@ 1007e210     Analog_Solution.obj
 0002:0000223c       ??_C@_0M@KDIEODF@PCI?96221?5AD?$AA@ 1007e23c     Analog_Solution.obj
 0002:0000224c       ??_C@_0DB@GGMGOINC@Analog_Solution?1Inputs?1Analog?5In@ 1007e24c     Analog_Solution.obj
 0002:00002288       ??_C@_0M@LJFNPCJD@PCI?96221?5DI?$AA@ 1007e288     Analog_Solution.obj
 0002:00002298       ??_C@_0DC@LFIGJJEE@Analog_Solution?1Inputs?1Digital?5I@ 1007e298     Analog_Solution.obj
 0002:000022d4       ??_C@_0BB@EFMGDNLK@PCI?56221?5PFI?5DI?5?$AA@ 1007e2d4     Analog_Solution.obj
 0002:000022e8       ??_C@_0DH@LPFNHLCM@Analog_Solution?1Inputs?1Digital?5I@ 1007e2e8     Analog_Solution.obj
 0002:0000232c       ??_C@_0BC@HOGJCGBE@FIFO?5ASCII?5read?51?$AA@ 1007e32c     Analog_Solution.obj
 0002:00002348       ??_C@_0EB@NOJEDJFM@Analog_Solution?1Inputs?1RS232_rea@ 1007e348     Analog_Solution.obj
 0002:00002398       ??_C@_0DN@IDACCLKD@Analog_Solution?1Inputs?1RS232_rea@ 1007e398     Analog_Solution.obj
 0002:000023e4       ??_C@_0BB@IJIEKJDH@FIFO?5ASCII?5read?5?$AA@ 1007e3e4     Analog_Solution.obj
 0002:000023f8       ??_C@_0DM@HAJAKIFM@Analog_Solution?1Inputs?1RS232_rea@ 1007e3f8     Analog_Solution.obj
 0002:00002440       ??_C@_0DJ@HGOFNBDA@Analog_Solution?1Inputs?1RS232_rea@ 1007e440     Analog_Solution.obj
 0002:00002484       ??_C@_0M@GKEFOLG@Enable?5TX?51?$AA@ 1007e484     Analog_Solution.obj
 0002:00002494       ??_C@_0DI@DHKAGGLA@Analog_Solution?1Inputs?1RS232_rea@ 1007e494     Analog_Solution.obj
 0002:000024d8       ??_C@_0DJ@FNMIICPD@Analog_Solution?1Inputs?1RS232_rea@ 1007e4d8     Analog_Solution.obj
 0002:0000251c       ??_C@_0M@CNIJANHF@Enable?5TX?52?$AA@ 1007e51c     Analog_Solution.obj
 0002:0000252c       ??_C@_0DI@BMINDFHD@Analog_Solution?1Inputs?1RS232_rea@ 1007e52c     Analog_Solution.obj
 0002:00002570       ??_C@_0DJ@EENDLDLC@Analog_Solution?1Inputs?1RS232_rea@ 1007e570     Analog_Solution.obj
 0002:000025b4       ??_C@_0M@DEJCDMDE@Enable?5TX?53?$AA@ 1007e5b4     Analog_Solution.obj
 0002:000025c4       ??_C@_0DI@FJGAEDC@Analog_Solution?1Inputs?1RS232_rea@ 1007e5c4     Analog_Solution.obj
 0002:00002608       ??_C@_0DJ@LJCCFHF@Analog_Solution?1Inputs?1RS232_rea@ 1007e608     Analog_Solution.obj
 0002:0000264c       ??_C@_0M@HLNDKKPD@Enable?5TX?54?$AA@ 1007e64c     Analog_Solution.obj
 0002:0000265c       ??_C@_0DI@EKNHJCPF@Analog_Solution?1Inputs?1RS232_rea@ 1007e65c     Analog_Solution.obj
 0002:000026a0       ??_C@_06OKIIDEAB@Setup1?$AA@ 1007e6a0     Analog_Solution.obj
 0002:000026a8       ??_C@_0DD@DKPDLPBG@Analog_Solution?1Inputs?1RS232_rea@ 1007e6a8     Analog_Solution.obj
 0002:000026e8       ??_C@_06MBKFGHMC@Setup2?$AA@ 1007e6e8     Analog_Solution.obj
 0002:000026f0       ??_C@_0DD@BBNOOMNF@Analog_Solution?1Inputs?1RS232_rea@ 1007e6f0     Analog_Solution.obj
 0002:00002730       ??_C@_06NILOFGID@Setup3?$AA@ 1007e730     Analog_Solution.obj
 0002:00002738       ??_C@_0DD@IMFNNJE@Analog_Solution?1Inputs?1RS232_rea@ 1007e738     Analog_Solution.obj
 0002:00002778       ??_C@_06JHPPMAEE@Setup4?$AA@ 1007e778     Analog_Solution.obj
 0002:00002780       ??_C@_0DD@EHIEELFD@Analog_Solution?1Inputs?1RS232_rea@ 1007e780     Analog_Solution.obj
 0002:000027c0       ??_C@_0BB@EBELEBAI@PCI?56221?5PFI?5DO?5?$AA@ 1007e7c0     Analog_Solution.obj
 0002:000027d4       ??_C@_0CJ@KCCAGNBE@Analog_Solution?1Outputs?1PCI?56221@ 1007e7d4     Analog_Solution.obj
 0002:00002808       ??_C@_0M@HBIEHIJL@PCI?96221?5DA?$AA@ 1007e808     Analog_Solution.obj
 0002:00002818       ??_C@_0CE@IJKKGAIG@Analog_Solution?1Outputs?1PCI?96221@ 1007e818     Analog_Solution.obj
 0002:00002844       ??_C@_0M@OPAHFFBF@PCI?96221?5DO?$AA@ 1007e844     Analog_Solution.obj
 0002:00002854       ??_C@_0CE@BHCJENAI@Analog_Solution?1Outputs?1PCI?96221@ 1007e854     Analog_Solution.obj
 0002:00002880       __real@0000000000000000    1007e880     Analog_Solution.obj
 0002:00002890       __real@0010000000000000    1007e890     Analog_Solution.obj
 0002:000028a0       __real@3f1a36e2eb1c432d    1007e8a0     Analog_Solution.obj
 0002:000028b0       __real@3f50624dd2f1a9fc    1007e8b0     Analog_Solution.obj
 0002:000028c0       __real@3f76c16c16c16c17    1007e8c0     Analog_Solution.obj
 0002:000028d0       __real@3f80000000000000    1007e8d0     Analog_Solution.obj
 0002:000028e0       __real@3f847ae147ae147b    1007e8e0     Analog_Solution.obj
 0002:000028f0       __real@3f91111111111111    1007e8f0     Analog_Solution.obj
 0002:00002900       __real@3f947ae147ae147b    1007e900     Analog_Solution.obj
 0002:00002910       __real@3fb999999999999a    1007e910     Analog_Solution.obj
 0002:00002920       __real@3fe0000000000000    1007e920     Analog_Solution.obj
 0002:00002930       __real@3ff0000000000000    1007e930     Analog_Solution.obj
 0002:00002940       __real@4000000000000000    1007e940     Analog_Solution.obj
 0002:00002950       __real@400921fb54442d18    1007e950     Analog_Solution.obj
 0002:00002960       __real@4020000000000000    1007e960     Analog_Solution.obj
 0002:00002970       __real@4024000000000000    1007e970     Analog_Solution.obj
 0002:00002980       __real@4026000000000000    1007e980     Analog_Solution.obj
 0002:00002990       __real@4028000000000000    1007e990     Analog_Solution.obj
 0002:000029a0       __real@4030000000000000    1007e9a0     Analog_Solution.obj
 0002:000029b0       __real@403f000000000000    1007e9b0     Analog_Solution.obj
 0002:000029c0       __real@4040000000000000    1007e9c0     Analog_Solution.obj
 0002:000029d0       __real@4048000000000000    1007e9d0     Analog_Solution.obj
 0002:000029e0       __real@4059000000000000    1007e9e0     Analog_Solution.obj
 0002:000029f0       __real@405fc00000000000    1007e9f0     Analog_Solution.obj
 0002:00002a00       __real@406f400000000000    1007ea00     Analog_Solution.obj
 0002:00002a10       __real@408f400000000000    1007ea10     Analog_Solution.obj
 0002:00002a20       __real@408ff80000000000    1007ea20     Analog_Solution.obj
 0002:00002a30       __real@4090000000000000    1007ea30     Analog_Solution.obj
 0002:00002a40       __real@41e0000000000000    1007ea40     Analog_Solution.obj
 0002:00002a50       __real@41f0000000000000    1007ea50     Analog_Solution.obj
 0002:00002a60       __real@4330000000000000    1007ea60     Analog_Solution.obj
 0002:00002a70       __real@8000000000000000    1007ea70     Analog_Solution.obj
 0002:00002a80       __real@bff0000000000000    1007ea80     Analog_Solution.obj
 0002:00002a90       __real@c000000000000000    1007ea90     Analog_Solution.obj
 0002:00002aa0       __real@c024000000000000    1007eaa0     Analog_Solution.obj
 0002:00002ab0       __real@c08ff80000000000    1007eab0     Analog_Solution.obj
 0002:00002ac0       __xmm@00000003000000020000000100000000 1007eac0     Analog_Solution.obj
 0002:00002ae0       __xmm@000004fc0000012a000001cb00000004 1007eae0     Analog_Solution.obj
 0002:00002b00       __xmm@01010101010101010101010101010101 1007eb00     Analog_Solution.obj
 0002:00002b20       __xmm@2c2c2c2c2c2c2c2c2c2c2c2c2c2c2c2c 1007eb20     Analog_Solution.obj
 0002:00002b40       __xmm@3f847ae147ae147b3f50624dd2f1a9fc 1007eb40     Analog_Solution.obj
 0002:00002b60       __xmm@3ff00000000000003f947ae147ae147b 1007eb60     Analog_Solution.obj
 0002:00002b80       __xmm@41f00000000000000000000000000000 1007eb80     Analog_Solution.obj
 0002:00002ba0       __xmm@7fffffffffffffff7fffffffffffffff 1007eba0     Analog_Solution.obj
 0002:00002bc0       __xmm@80000000000000008000000000000000 1007ebc0     Analog_Solution.obj
 0002:00002bd8       __real@3cb0000000000000    1007ebd8     rt_matrx.obj
 0002:00007f34       ??_C@_0BI@DDEJKAKC@Auxiliary?5variables?1Sum?$AA@ 10083f34     Analog_Solution_capi.obj
 0002:00007f50       ??_C@_0BP@PAOGGCCM@Auxiliary?5variables?1Unit?5Delay?$AA@ 10083f50     Analog_Solution_capi.obj
 0002:00007f78       ??_C@_0BO@DAFHKAPG@Logging?1Data?5Type?5Conversion1?$AA@ 10083f78     Analog_Solution_capi.obj
 0002:00007f9c       ??_C@_0BE@GHGEBBCA@Logging?1Wall?5Time?51?$AA@ 10083f9c     Analog_Solution_capi.obj
 0002:00007fb4       ??_C@_0BC@IPDNNMJF@Outputs?1Constant1?$AA@ 10083fb4     Analog_Solution_capi.obj
 0002:00007fcc       ??_C@_0BC@LNALLOBH@Outputs?1Constant3?$AA@ 10083fcc     Analog_Solution_capi.obj
 0002:00007fe4       ??_C@_0BN@JNNGEKHD@Outputs?1Relational?5Operator5?$AA@ 10083fe4     Analog_Solution_capi.obj
 0002:00008008       ??_C@_0BE@MNDPCDIM@Outputs?1Saturation1?$AA@ 10084008     Analog_Solution_capi.obj
 0002:00008020       ??_C@_0P@IAPJIMON@SpoolingOutput?$AA@ 10084020     Analog_Solution_capi.obj
 0002:00008034       ??_C@_0BE@OGBCHAEP@Outputs?1Saturation2?$AA@ 10084034     Analog_Solution_capi.obj
 0002:0000804c       ??_C@_0P@MEPHPGK@Siemens_Output?$AA@ 1008404c     Analog_Solution_capi.obj
 0002:00008060       ??_C@_0P@IMOLCCPN@Outputs?1Switch?$AA@ 10084060     Analog_Solution_capi.obj
 0002:00008074       ??_C@_0M@MIEDNFIA@SpoolingOut?$AA@ 10084074     Analog_Solution_capi.obj
 0002:00008084       ??_C@_0L@IKNAGCFI@SiemensOut?$AA@ 10084084     Analog_Solution_capi.obj
 0002:00008094       ??_C@_0BA@GBLBKHDF@Outputs?1Switch5?$AA@ 10084094     Analog_Solution_capi.obj
 0002:000080a8       ??_C@_0BP@BJKFECA@Spooling_Speed_Controlled?1Gain?$AA@ 100840a8     Analog_Solution_capi.obj
 0002:000080d0       ??_C@_0CA@PNDCLNCO@Spooling_Speed_Controlled?1Gain1?$AA@ 100840d0     Analog_Solution_capi.obj
 0002:000080f8       ??_C@_0CF@MKLGADDD@Spooling_Speed_Controlled?1Umrech@ 100840f8     Analog_Solution_capi.obj
 0002:00008124       ??_C@_0BC@JJKFLMGA@WinchSpeed?$CIrad?1s?$CJ?$AA@ 10084124     Analog_Solution_capi.obj
 0002:0000813c       ??_C@_0DB@KKKKJDHN@Spooling_Speed_Controlled?1zweite@ 1008413c     Analog_Solution_capi.obj
 0002:00008178       ??_C@_0CL@DFNNNEHA@Spooling_Speed_Controlled?1Logica@ 10084178     Analog_Solution_capi.obj
 0002:000081ac       ??_C@_0CM@JGGNKLFK@Spooling_Speed_Controlled?1Logica@ 100841ac     Analog_Solution_capi.obj
 0002:000081e0       ??_C@_0CM@LNEAPIJJ@Spooling_Speed_Controlled?1Logica@ 100841e0     Analog_Solution_capi.obj
 0002:00008214       ??_C@_0CM@KEFLMJNI@Spooling_Speed_Controlled?1Logica@ 10084214     Analog_Solution_capi.obj
 0002:00008248       ??_C@_0CO@JIBIPMIM@Spooling_Speed_Controlled?1Relati@ 10084248     Analog_Solution_capi.obj
 0002:00008280       ??_C@_0CP@CCMLNAEF@Spooling_Speed_Controlled?1Relati@ 10084280     Analog_Solution_capi.obj
 0002:000082b8       ??_C@_0CP@JOGIDIG@Spooling_Speed_Controlled?1Relati@ 100842b8     Analog_Solution_capi.obj
 0002:000082f0       ??_C@_0CP@BAPNLCMH@Spooling_Speed_Controlled?1Relati@ 100842f0     Analog_Solution_capi.obj
 0002:00008328       ??_C@_0CP@EGKHBFEB@Spooling_Speed_Controlled?1Relati@ 10084328     Analog_Solution_capi.obj
 0002:00008360       ??_C@_0CP@GNIKEGIC@Spooling_Speed_Controlled?1Relati@ 10084360     Analog_Solution_capi.obj
 0002:00008398       ??_C@_0CP@HEJBHHMD@Spooling_Speed_Controlled?1Relati@ 10084398     Analog_Solution_capi.obj
 0002:000083d0       ??_C@_0CP@PDAJGLAM@Spooling_Speed_Controlled?1Relati@ 100843d0     Analog_Solution_capi.obj
 0002:00008408       ??_C@_0CB@GHINMKKD@Spooling_Speed_Controlled?1Switch@ 10084408     Analog_Solution_capi.obj
 0002:00008430       ??_C@_0CC@IJOFHICK@Spooling_Speed_Controlled?1Switch@ 10084430     Analog_Solution_capi.obj
 0002:00008458       ??_C@_0CP@CHOGCKDN@1?$DNobere?5Grenze?60?$DNkeine?5Grenze?6?91@ 10084458     Analog_Solution_capi.obj
 0002:00008490       ??_C@_0CC@KCMICLOJ@Spooling_Speed_Controlled?1Switch@ 10084490     Analog_Solution_capi.obj
 0002:000084b8       ??_C@_0CC@LLNDBKKI@Spooling_Speed_Controlled?1Switch@ 100844b8     Analog_Solution_capi.obj
 0002:000084e0       ??_C@_0O@MAHFHJF@SpoolingEbene?$AA@ 100844e0     Analog_Solution_capi.obj
 0002:000084f0       ??_C@_0BA@HGCJHLIA@Spooling_Grenze?$AA@ 100844f0     Analog_Solution_capi.obj
 0002:00008504       ??_C@_0CC@MGKEOOON@Spooling_Speed_Controlled?1Switch@ 10084504     Analog_Solution_capi.obj
 0002:0000852c       ??_C@_0CC@NPLPNPKM@Spooling_Speed_Controlled?1Switch@ 1008452c     Analog_Solution_capi.obj
 0002:00008554       ??_C@_0CC@FICHMDGD@Spooling_Speed_Controlled?1Switch@ 10084554     Analog_Solution_capi.obj
 0002:0000857c       ??_C@_0CA@IKAEBLEC@Spooling_Speed_Controlled?1Delay?$AA@ 1008457c     Analog_Solution_capi.obj
 0002:000085a4       ??_C@_0CB@FOAFCDBF@Spooling_Speed_Controlled?1Delay1@ 100845a4     Analog_Solution_capi.obj
 0002:000085cc       ??_C@_0P@ECKBPGEN@Startup?1Switch?$AA@ 100845cc     Analog_Solution_capi.obj
 0002:000085e0       ??_C@_0BA@MOHCJLGJ@Startup?1Switch1?$AA@ 100845e0     Analog_Solution_capi.obj
 0002:000085f4       ??_C@_0BC@IDHBPBHB@Winch_Conrtol?1Sum?$AA@ 100845f4     Analog_Solution_capi.obj
 0002:0000860c       ??_C@_0BD@MKPBGECK@Winch_Conrtol?1Sum2?$AA@ 1008460c     Analog_Solution_capi.obj
 0002:00008624       ??_C@_0BF@MEDGDHGE@Winch_Conrtol?1Switch?$AA@ 10084624     Analog_Solution_capi.obj
 0002:00008640       ??_C@_0BG@IMEGJEME@Winch_Conrtol?1Switch1?$AA@ 10084640     Analog_Solution_capi.obj
 0002:0000865c       ??_C@_0BH@EDMDHGMO@Winch_Conrtol?1Switch10?$AA@ 1008465c     Analog_Solution_capi.obj
 0002:00008678       ??_C@_0BH@FKNIEHIP@Winch_Conrtol?1Switch11?$AA@ 10084678     Analog_Solution_capi.obj
 0002:00008694       ??_C@_0BG@KHGLMHAH@Winch_Conrtol?1Switch2?$AA@ 10084694     Analog_Solution_capi.obj
 0002:000086b0       ??_C@_0BG@FNIECPIN@Winch_Conrtol?1Switch8?$AA@ 100846b0     Analog_Solution_capi.obj
 0002:000086cc       ??_C@_0BG@EEJPBOMM@Winch_Conrtol?1Switch9?$AA@ 100846cc     Analog_Solution_capi.obj
 0002:000086e8       ??_C@_0BE@INPJKICA@Winch_Conrtol?1Delay?$AA@ 100846e8     Analog_Solution_capi.obj
 0002:00008700       ??_C@_0DB@OMDCEFGE@Input?5conditioning?5and?5estimator@ 10084700     Analog_Solution_capi.obj
 0002:0000873c       ??_C@_0DC@IMGOJALG@Input?5conditioning?5and?5estimator@ 1008473c     Analog_Solution_capi.obj
 0002:00008778       ??_C@_0DH@NBALJFMG@Input?5conditioning?5and?5estimator@ 10084778     Analog_Solution_capi.obj
 0002:000087bc       ??_C@_07KKDEJFOF@CI_JoyS?$AA@ 100847bc     Analog_Solution_capi.obj
 0002:000087c8       ??_C@_0DI@LEILGLKC@Input?5conditioning?5and?5estimator@ 100847c8     Analog_Solution_capi.obj
 0002:0000880c       ??_C@_07MOFIFAOB@CI_JoyW?$AA@ 1008480c     Analog_Solution_capi.obj
 0002:00008818       ??_C@_0DA@FLIFAAPO@Input?5conditioning?5and?5estimator@ 10084818     Analog_Solution_capi.obj
 0002:00008854       ??_C@_0DB@JMADFNKJ@Input?5conditioning?5and?5estimator@ 10084854     Analog_Solution_capi.obj
 0002:00008890       ??_C@_0EC@KEBGAAFI@Input?5conditioning?5and?5estimator@ 10084890     Analog_Solution_capi.obj
 0002:000088e0       ??_C@_0ED@KDEJMIHE@Input?5conditioning?5and?5estimator@ 100848e0     Analog_Solution_capi.obj
 0002:00008930       ??_C@_0DC@OMHBFPEH@Input?5conditioning?5and?5estimator@ 10084930     Analog_Solution_capi.obj
 0002:0000896c       ??_C@_0DC@NNJJEFNK@Input?5conditioning?5and?5estimator@ 1008496c     Analog_Solution_capi.obj
 0002:000089a8       ??_C@_0DD@KAIGKFDN@Input?5conditioning?5and?5estimator@ 100849a8     Analog_Solution_capi.obj
 0002:000089e8       ??_C@_09MNDCALJE@CI_PotSpd?$AA@ 100849e8     Analog_Solution_capi.obj
 0002:000089f4       ??_C@_0DI@EOAIPGGA@Input?5conditioning?5and?5estimator@ 100849f4     Analog_Solution_capi.obj
 0002:00008a38       ??_C@_09MNHOMEKB@CI_PotPos?$AA@ 10084a38     Analog_Solution_capi.obj
 0002:00008a44       ??_C@_0DB@JOALFBFA@Input?5conditioning?5and?5estimator@ 10084a44     Analog_Solution_capi.obj
 0002:00008a80       ??_C@_0DC@KNKIFNBH@Input?5conditioning?5and?5estimator@ 10084a80     Analog_Solution_capi.obj
 0002:00008abc       ??_C@_0DD@NHLAADFB@Input?5conditioning?5and?5estimator@ 10084abc     Analog_Solution_capi.obj
 0002:00008b00       ??_C@_0EE@DKPBPFJ@Input?5conditioning?5and?5estimator@ 10084b00     Analog_Solution_capi.obj
 0002:00008b54       ??_C@_0CE@OGFLLIKO@Inputs?1Analog?5Inputs?1PCI?96221?5AD@ 10084b54     Analog_Solution_capi.obj
 0002:00008b80       ??_C@_08CNMDIBD@AI_Joy_W?$AA@ 10084b80     Analog_Solution_capi.obj
 0002:00008b8c       ??_C@_0CE@MNHGOLGN@Inputs?1Analog?5Inputs?1PCI?96221?5AD@ 10084b8c     Analog_Solution_capi.obj
 0002:00008bb8       ??_C@_08GGLAPNBH@AI_Joy_S?$AA@ 10084bb8     Analog_Solution_capi.obj
 0002:00008bc4       ??_C@_0CE@NEGNNKCM@Inputs?1Analog?5Inputs?1PCI?96221?5AD@ 10084bc4     Analog_Solution_capi.obj
 0002:00008bf0       ??_C@_0BK@BECEGJHD@AI_mot_SiemensMotor_Speed?$AA@ 10084bf0     Analog_Solution_capi.obj
 0002:00008c10       ??_C@_0CE@JLCMEMOL@Inputs?1Analog?5Inputs?1PCI?96221?5AD@ 10084c10     Analog_Solution_capi.obj
 0002:00008c3c       ??_C@_0BB@PCGCICHI@AI_mot_winch_pos?$AA@ 10084c3c     Analog_Solution_capi.obj
 0002:00008c50       ??_C@_0P@MAHDEDNG@AI_Kraftsensor?$AA@ 10084c50     Analog_Solution_capi.obj
 0002:00008c64       ??_C@_0CH@EKKGEFJM@Inputs?1Digital?5Inputs?1PCI?56221?5P@ 10084c64     Analog_Solution_capi.obj
 0002:00008c94       ??_C@_0P@BGIIHCNM@DI_SlideLimitB?$AA@ 10084c94     Analog_Solution_capi.obj
 0002:00008ca8       ??_C@_0CF@JHGEOEHD@Inputs?1Digital?5Inputs?1PCI?96221?5D@ 10084ca8     Analog_Solution_capi.obj
 0002:00008cd4       ??_C@_09DNOEJMEC@DI_Enable?$AA@ 10084cd4     Analog_Solution_capi.obj
 0002:00008ce0       ??_C@_0CF@LMEJLHLA@Inputs?1Digital?5Inputs?1PCI?96221?5D@ 10084ce0     Analog_Solution_capi.obj
 0002:00008d0c       ??_C@_0N@GPNBKCHI@DI_WinchMode?$AA@ 10084d0c     Analog_Solution_capi.obj
 0002:00008d1c       ??_C@_0CF@KFFCIGPB@Inputs?1Digital?5Inputs?1PCI?96221?5D@ 10084d1c     Analog_Solution_capi.obj
 0002:00008d48       ??_C@_0L@OOFJKHJM@DI_Takeoff?$AA@ 10084d48     Analog_Solution_capi.obj
 0002:00008d58       ??_C@_0CF@OKBDBADG@Inputs?1Digital?5Inputs?1PCI?96221?5D@ 10084d58     Analog_Solution_capi.obj
 0002:00008d84       ??_C@_0L@BOMJAKCE@DI_Landing?$AA@ 10084d84     Analog_Solution_capi.obj
 0002:00008d94       ??_C@_0CF@PDAICBHH@Inputs?1Digital?5Inputs?1PCI?96221?5D@ 10084d94     Analog_Solution_capi.obj
 0002:00008dc0       ??_C@_0M@HOMHCDCB@DI_Operator?$AA@ 10084dc0     Analog_Solution_capi.obj
 0002:00008dd0       ??_C@_0CF@NICFHCLE@Inputs?1Digital?5Inputs?1PCI?96221?5D@ 10084dd0     Analog_Solution_capi.obj
 0002:00008dfc       ??_C@_0BD@DBKACN@DI_SpoolingGrenze1?$AA@ 10084dfc     Analog_Solution_capi.obj
 0002:00008e14       ??_C@_0CF@MBDOEDPF@Inputs?1Digital?5Inputs?1PCI?96221?5D@ 10084e14     Analog_Solution_capi.obj
 0002:00008e40       ??_C@_0BD@CLBMPDOO@DI_SpoolingGrenze2?$AA@ 10084e40     Analog_Solution_capi.obj
 0002:00008e58       ??_C@_0BL@EAFAIOGN@Inputs?1RS232_read?1Constant?$AA@ 10084e58     Analog_Solution_capi.obj
 0002:00008e78       ??_C@_0BM@PFBOEKNJ@Inputs?1RS232_read?1Constant1?$AA@ 10084e78     Analog_Solution_capi.obj
 0002:00008e9c       ??_C@_0BM@NODDBJBK@Inputs?1RS232_read?1Constant2?$AA@ 10084e9c     Analog_Solution_capi.obj
 0002:00008ec0       ??_C@_0BM@MHCICIFL@Inputs?1RS232_read?1Constant3?$AA@ 10084ec0     Analog_Solution_capi.obj
 0002:00008ee4       ??_C@_0CJ@BCFOLFA@Logging?1Log_conditioning?1Rate?5Tr@ 10084ee4     Analog_Solution_capi.obj
 0002:00008f18       ??_C@_0CC@EEAKFPKK@Logging?1Time_Scope_trigger?1Switc@ 10084f18     Analog_Solution_capi.obj
 0002:00008f40       ??_C@_0N@NNLEEMMA@Trigger_time?$AA@ 10084f40     Analog_Solution_capi.obj
 0002:00008f50       ??_C@_0CG@NANNOIPK@Outputs?1Subsystem?1Relational?5Ope@ 10084f50     Analog_Solution_capi.obj
 0002:00008f80       ??_C@_0CH@JLOFMBFI@Outputs?1Subsystem?1Relational?5Ope@ 10084f80     Analog_Solution_capi.obj
 0002:00008fb0       ??_C@_0CH@LAMIJCJL@Outputs?1Subsystem?1Relational?5Ope@ 10084fb0     Analog_Solution_capi.obj
 0002:00008fe0       ??_C@_0CH@KJNDKDNK@Outputs?1Subsystem?1Relational?5Ope@ 10084fe0     Analog_Solution_capi.obj
 0002:00009010       ??_C@_0CH@OGJCDFBN@Outputs?1Subsystem?1Relational?5Ope@ 10085010     Analog_Solution_capi.obj
 0002:00009040       ??_C@_0BJ@HAGNDENA@Outputs?1Subsystem?1Switch?$AA@ 10085040     Analog_Solution_capi.obj
 0002:00009060       ??_C@_0O@JBKPLLEM@Siemens_Motor?$AA@ 10085060     Analog_Solution_capi.obj
 0002:00009070       ??_C@_0BK@EAPOLIFC@Outputs?1Subsystem?1Switch1?$AA@ 10085070     Analog_Solution_capi.obj
 0002:00009090       ??_C@_0BK@GLNDOLJB@Outputs?1Subsystem?1Switch2?$AA@ 10085090     Analog_Solution_capi.obj
 0002:000090b0       ??_C@_0BK@HCMINKNA@Outputs?1Subsystem?1Switch3?$AA@ 100850b0     Analog_Solution_capi.obj
 0002:000090d0       ??_C@_0BK@DNIJEMBH@Outputs?1Subsystem?1Switch4?$AA@ 100850d0     Analog_Solution_capi.obj
 0002:000090f0       ??_C@_0CI@GFNNNEKJ@Spooling_Speed_Controlled?1Subsys@ 100850f0     Analog_Solution_capi.obj
 0002:00009120       ??_C@_0CJ@GJDCMBCK@Spooling_Speed_Controlled?1Subsys@ 10085120     Analog_Solution_capi.obj
 0002:00009154       ??_C@_0DA@IOJBAEFH@Spooling_Speed_Controlled?1Subsys@ 10085154     Analog_Solution_capi.obj
 0002:00009190       ??_C@_0BF@OEGDHOMB@Umdrehung?1SampleTime?$AA@ 10085190     Analog_Solution_capi.obj
 0002:000091ac       ??_C@_0DI@GOPKNGLH@Spooling_Speed_Controlled?1Subsys@ 100851ac     Analog_Solution_capi.obj
 0002:000091f0       ??_C@_0DJ@JDDGNLEL@Spooling_Speed_Controlled?1Subsys@ 100851f0     Analog_Solution_capi.obj
 0002:00009234       ??_C@_0CI@FCOFMBJH@Spooling_Speed_Controlled?1Subsys@ 10085234     Analog_Solution_capi.obj
 0002:00009264       ??_C@_0CL@EBHNPKAJ@Spooling_Speed_Controlled?1Subsys@ 10085264     Analog_Solution_capi.obj
 0002:00009298       ??_C@_0CM@LPMAMCOM@Spooling_Speed_Controlled?1Subsys@ 10085298     Analog_Solution_capi.obj
 0002:000092cc       ??_C@_0CM@JEONJBCP@Spooling_Speed_Controlled?1Subsys@ 100852cc     Analog_Solution_capi.obj
 0002:00009300       ??_C@_0CK@KDAEBNHC@Spooling_Speed_Controlled?1Subsys@ 10085300     Analog_Solution_capi.obj
 0002:00009334       ??_C@_0CL@HIPFBDLP@Spooling_Speed_Controlled?1Subsys@ 10085334     Analog_Solution_capi.obj
 0002:00009368       ??_C@_0CK@FGEBEFDM@Startup?1Initialize?5Spooling?5Posi@ 10085368     Analog_Solution_capi.obj
 0002:0000939c       ??_C@_0BN@IFJAKLJJ@Winch_Conrtol?1Emergency?1Gain?$AA@ 1008539c     Analog_Solution_capi.obj
 0002:000093c0       ??_C@_0CM@KFMGAGB@Winch_Conrtol?1Emergency?1Relation@ 100853c0     Analog_Solution_capi.obj
 0002:000093f4       ??_C@_0CN@PMOCAKBM@Winch_Conrtol?1Emergency?1Relation@ 100853f4     Analog_Solution_capi.obj
 0002:0000942c       ??_C@_0BM@PPKJADGN@Winch_Conrtol?1Emergency?1Sum?$AA@ 1008542c     Analog_Solution_capi.obj
 0002:00009450       ??_C@_0BN@PFKBLDFE@Winch_Conrtol?1Emergency?1Sum1?$AA@ 10085450     Analog_Solution_capi.obj
 0002:00009474       ??_C@_0BP@HPIILENF@Winch_Conrtol?1Emergency?1Switch?$AA@ 10085474     Analog_Solution_capi.obj
 0002:0000949c       ??_C@_0CA@DAJLKJFN@Winch_Conrtol?1Emergency?1Switch1?$AA@ 1008549c     Analog_Solution_capi.obj
 0002:000094c4       ??_C@_0CH@BIMNDDFM@Winch_Conrtol?1Joystick?5Regelung1@ 100854c4     Analog_Solution_capi.obj
 0002:000094f4       ??_C@_0CJ@HLMFOKPH@Winch_Conrtol?1Subsystem?1Logical?5@ 100854f4     Analog_Solution_capi.obj
 0002:00009528       ??_C@_0CK@OFPPKFOH@Winch_Conrtol?1Subsystem?1Logical?5@ 10085528     Analog_Solution_capi.obj
 0002:0000955c       ??_C@_0BB@OEANHHD@TractionAdvanced?$AA@ 1008555c     Analog_Solution_capi.obj
 0002:00009570       ??_C@_0CK@MONCPGCE@Winch_Conrtol?1Subsystem?1Logical?5@ 10085570     Analog_Solution_capi.obj
 0002:000095a4       ??_C@_0CK@NHMJMHGF@Winch_Conrtol?1Subsystem?1Logical?5@ 100855a4     Analog_Solution_capi.obj
 0002:000095d8       ??_C@_0CK@JIIIFBKC@Winch_Conrtol?1Subsystem?1Logical?5@ 100855d8     Analog_Solution_capi.obj
 0002:0000960c       ??_C@_0CK@IBJDGAOD@Winch_Conrtol?1Subsystem?1Logical?5@ 1008560c     Analog_Solution_capi.obj
 0002:00009640       ??_C@_0CK@KKLODDCA@Winch_Conrtol?1Subsystem?1Logical?5@ 10085640     Analog_Solution_capi.obj
 0002:00009674       ??_C@_0CK@LDKFACGB@Winch_Conrtol?1Subsystem?1Logical?5@ 10085674     Analog_Solution_capi.obj
 0002:000096a8       ??_C@_0BP@EBHIMIBO@Winch_Conrtol?1Subsystem?1Switch?$AA@ 100856a8     Analog_Solution_capi.obj
 0002:000096d0       ??_C@_0CA@DMBDECBJ@Winch_Conrtol?1Subsystem?1Switch1?$AA@ 100856d0     Analog_Solution_capi.obj
 0002:000096f8       ??_C@_0CA@BHDOBBNK@Winch_Conrtol?1Subsystem?1Switch2?$AA@ 100856f8     Analog_Solution_capi.obj
 0002:00009720       ??_C@_0CA@OCFCAJL@Winch_Conrtol?1Subsystem?1Switch3?$AA@ 10085720     Analog_Solution_capi.obj
 0002:00009748       ??_C@_0CA@EBGELGFM@Winch_Conrtol?1Subsystem?1Switch4?$AA@ 10085748     Analog_Solution_capi.obj
 0002:00009770       ??_C@_0CA@FIHPIHBN@Winch_Conrtol?1Subsystem?1Switch5?$AA@ 10085770     Analog_Solution_capi.obj
 0002:00009798       ??_C@_0CA@HDFCNENO@Winch_Conrtol?1Subsystem?1Switch6?$AA@ 10085798     Analog_Solution_capi.obj
 0002:000097c0       ??_C@_0CA@GKEJOFJP@Winch_Conrtol?1Subsystem?1Switch7?$AA@ 100857c0     Analog_Solution_capi.obj
 0002:000097e8       ??_C@_0BP@HIPACBKI@Winch_Conrtol?1Subsystem?1Delay1?$AA@ 100857e8     Analog_Solution_capi.obj
 0002:00009810       ??_C@_0BP@FDNNHCGL@Winch_Conrtol?1Subsystem?1Delay2?$AA@ 10085810     Analog_Solution_capi.obj
 0002:00009838       ??_C@_0BP@EKMGEDCK@Winch_Conrtol?1Subsystem?1Delay3?$AA@ 10085838     Analog_Solution_capi.obj
 0002:00009860       ??_C@_0BP@FIHNFON@Winch_Conrtol?1Subsystem?1Delay4?$AA@ 10085860     Analog_Solution_capi.obj
 0002:00009888       ??_C@_0BK@NKMBGFNF@Winch_Conrtol?1damper?1Gain?$AA@ 10085888     Analog_Solution_capi.obj
 0002:000098a8       ??_C@_0BJ@KLOPEHFE@Winch_Conrtol?1damper?1Sum?$AA@ 100858a8     Analog_Solution_capi.obj
 0002:000098c8       ??_C@_0BM@FPJIAEDK@Winch_Conrtol?1damper?1Switch?$AA@ 100858c8     Analog_Solution_capi.obj
 0002:000098ec       ??_C@_0BN@OEGAE@Winch_Conrtol?1damper?1Switch1?$AA@ 100858ec     Analog_Solution_capi.obj
 0002:00009910       ??_C@_0BL@EHAIEGOA@Winch_Conrtol?1damper?1Delay?$AA@ 10085910     Analog_Solution_capi.obj
 0002:00009930       ??_C@_0BM@GGBAONIM@Winch_Conrtol?1damper?1Delay1?$AA@ 10085930     Analog_Solution_capi.obj
 0002:00009954       ??_C@_0DM@NFPGIDGN@Input?5conditioning?5and?5estimator@ 10085954     Analog_Solution_capi.obj
 0002:0000999c       ??_C@_0DL@JMPAMLBN@Input?5conditioning?5and?5estimator@ 1008599c     Analog_Solution_capi.obj
 0002:000099e4       ??_C@_0DM@KFMHJLKA@Input?5conditioning?5and?5estimator@ 100859e4     Analog_Solution_capi.obj
 0002:00009a30       ??_C@_0EO@HNDCILK@Input?5conditioning?5and?5estimator@ 10085a30     Analog_Solution_capi.obj
 0002:00009a90       ??_C@_0M@IPGFOOFK@CI_WinchPos?$AA@ 10085a90     Analog_Solution_capi.obj
 0002:00009aa0       ??_C@_0EN@MKMBEFJH@Input?5conditioning?5and?5estimator@ 10085aa0     Analog_Solution_capi.obj
 0002:00009afc       ??_C@_0DN@KEHMDJLI@Input?5conditioning?5and?5estimator@ 10085afc     Analog_Solution_capi.obj
 0002:00009b48       ??_C@_0DO@DEDEADF@Input?5conditioning?5and?5estimator@ 10085b48     Analog_Solution_capi.obj
 0002:00009b98       ??_C@_0ED@INJHLHCK@Input?5conditioning?5and?5estimator@ 10085b98     Analog_Solution_capi.obj
 0002:00009be8       ??_C@_0EE@BNGLFJND@Input?5conditioning?5and?5estimator@ 10085be8     Analog_Solution_capi.obj
 0002:00009c3c       ??_C@_0DM@KHMPJHFJ@Input?5conditioning?5and?5estimator@ 10085c3c     Analog_Solution_capi.obj
 0002:00009c84       ??_C@_0DN@NEENCBHF@Input?5conditioning?5and?5estimator@ 10085c84     Analog_Solution_capi.obj
 0002:00009cd0       ??_C@_0DN@PPGAHCLG@Input?5conditioning?5and?5estimator@ 10085cd0     Analog_Solution_capi.obj
 0002:00009d1c       ??_C@_0DP@ONBGHCLC@Input?5conditioning?5and?5estimator@ 10085d1c     Analog_Solution_capi.obj
 0002:00009d68       ??_C@_0BC@MIHDKAIH@WinchMotTorqueEst?$AA@ 10085d68     Analog_Solution_capi.obj
 0002:00009d80       ??_C@_0EO@OMLJLFHG@Input?5conditioning?5and?5estimator@ 10085d80     Analog_Solution_capi.obj
 0002:00009de0       ??_C@_0BB@JKEIAAHN@WinchMotSpeedEst?$AA@ 10085de0     Analog_Solution_capi.obj
 0002:00009df4       ??_C@_0DI@ONINGOLH@Inputs?1RS232_read?1Compass_read?1E@ 10085df4     Analog_Solution_capi.obj
 0002:00009e38       ??_C@_06JKFBKECG@GU_Yaw?$AA@ 10085e38     Analog_Solution_capi.obj
 0002:00009e40       ??_C@_0DA@JFDLLEMA@Inputs?1RS232_read?1Compass_read?1R@ 10085e40     Analog_Solution_capi.obj
 0002:00009e7c       ??_C@_0DB@CCNGLEEH@Inputs?1RS232_read?1Compass_read?1F@ 10085e7c     Analog_Solution_capi.obj
 0002:00009eb8       ??_C@_06NGLLFAEI@GU_Lat?$AA@ 10085eb8     Analog_Solution_capi.obj
 0002:00009ec0       ??_C@_06GMAIIHJJ@GU_Lon?$AA@ 10085ec0     Analog_Solution_capi.obj
 0002:00009ec8       ??_C@_04OFBJPLAJ@GU_h?$AA@ 10085ec8     Analog_Solution_capi.obj
 0002:00009ed0       ??_C@_08MHNOPBLL@Geo_Gu_h?$AA@ 10085ed0     Analog_Solution_capi.obj
 0002:00009edc       ??_C@_0CM@EAFOCACO@Inputs?1RS232_read?1GPS_read?1Rate?5@ 10085edc     Analog_Solution_capi.obj
 0002:00009f10       ??_C@_0CN@GFLBBOKM@Inputs?1RS232_read?1GPS_read?1FIFO?5@ 10085f10     Analog_Solution_capi.obj
 0002:00009f48       ??_C@_0CM@LALOOMFP@Inputs?1RS232_read?1IMU_read?1Rate?5@ 10085f48     Analog_Solution_capi.obj
 0002:00009f7c       ??_C@_0CM@KAPJKGBD@Inputs?1RS232_read?1IMU_read?1FIFO?5@ 10085f7c     Analog_Solution_capi.obj
 0002:00009fb0       ??_C@_0CM@BMOBFDD@Inputs?1RS232_read?1QSC?9100?5F?1Rate@ 10085fb0     Analog_Solution_capi.obj
 0002:00009fe4       ??_C@_0CN@HJIMKILB@Inputs?1RS232_read?1QSC?9100?5F?1Rate@ 10085fe4     Analog_Solution_capi.obj
 0002:0000a01c       ??_C@_0CN@FCKBPLHC@Inputs?1RS232_read?1QSC?9100?5F?1Rate@ 1008601c     Analog_Solution_capi.obj
 0002:0000a054       ??_C@_0CN@ELLKMKDD@Inputs?1RS232_read?1QSC?9100?5F?1Rate@ 10086054     Analog_Solution_capi.obj
 0002:0000a08c       ??_C@_0CN@EPLFMPE@Inputs?1RS232_read?1QSC?9100?5F?1Rate@ 1008608c     Analog_Solution_capi.obj
 0002:0000a0c4       ??_C@_0CN@BNOAGNLF@Inputs?1RS232_read?1QSC?9100?5F?1Rate@ 100860c4     Analog_Solution_capi.obj
 0002:0000a0fc       ??_C@_0CN@DGMNDOHG@Inputs?1RS232_read?1QSC?9100?5F?1Rate@ 100860fc     Analog_Solution_capi.obj
 0002:0000a134       ??_C@_0CN@CPNGAPDH@Inputs?1RS232_read?1QSC?9100?5F?1Rate@ 10086134     Analog_Solution_capi.obj
 0002:0000a16c       ??_C@_0CM@NGLMNJIK@Inputs?1RS232_read?1QSC?9100?5F?1FIFO@ 1008616c     Analog_Solution_capi.obj
 0002:0000a1a0       ??_C@_0CM@PNJBIKEJ@Inputs?1RS232_read?1QSC?9100?5F?1FIFO@ 100861a0     Analog_Solution_capi.obj
 0002:0000a1d4       ??_C@_0CM@JBBMKDFK@Inputs?1RS232_read?1QSC?9100?5F?1FIFO@ 100861d4     Analog_Solution_capi.obj
 0002:0000a208       ??_C@_0CM@LKDBPAJJ@Inputs?1RS232_read?1QSC?9100?5F?1FIFO@ 10086208     Analog_Solution_capi.obj
 0002:0000a23c       ??_C@_0CM@KMHMIKOK@Inputs?1RS232_read?1QSC?9100?5F?1FIFO@ 1008623c     Analog_Solution_capi.obj
 0002:0000a270       ??_C@_0CM@IHFBNJCJ@Inputs?1RS232_read?1QSC?9100?5F?1FIFO@ 10086270     Analog_Solution_capi.obj
 0002:0000a2a4       ??_C@_0CM@BOFMFGPK@Inputs?1RS232_read?1QSC?9100?5F?1FIFO@ 100862a4     Analog_Solution_capi.obj
 0002:0000a2d8       ??_C@_0CM@DFHBAFDJ@Inputs?1RS232_read?1QSC?9100?5F?1FIFO@ 100862d8     Analog_Solution_capi.obj
 0002:0000a30c       ??_C@_0DD@NOHLCBAI@Outputs?1Joystick?5Regelung1?1Joyst@ 1008630c     Analog_Solution_capi.obj
 0002:0000a350       ??_C@_0EC@OMLPFPOM@Outputs?1Joystick?5Regelung1?1Joyst@ 10086350     Analog_Solution_capi.obj
 0002:0000a3a0       ??_C@_0ED@GPANBGLO@Outputs?1Joystick?5Regelung1?1Joyst@ 100863a0     Analog_Solution_capi.obj
 0002:0000a3f0       ??_C@_0DF@BKLPDOFL@Outputs?1Joystick?5Regelung1?1Joyst@ 100863f0     Analog_Solution_capi.obj
 0002:0000a430       ??_C@_0DG@DKPODAPA@Outputs?1Joystick?5Regelung1?1Joyst@ 10086430     Analog_Solution_capi.obj
 0002:0000a470       ??_C@_0EN@GDAAEGMK@Startup?1Initialize?5Spooling?5Posi@ 10086470     Analog_Solution_capi.obj
 0002:0000a4cc       ??_C@_0DN@NMKIBAKE@Startup?1Initialize?5Spooling?5Posi@ 100864cc     Analog_Solution_capi.obj
 0002:0000a518       ??_C@_0EB@JOMCFFML@Startup?1Initialize?5Spooling?5Posi@ 10086518     Analog_Solution_capi.obj
 0002:0000a568       ??_C@_0EB@LFOPAGAI@Startup?1Initialize?5Spooling?5Posi@ 10086568     Analog_Solution_capi.obj
 0002:0000a5b8       ??_C@_0DP@KGLLBEEN@Startup?1Initialize?5Spooling?5Posi@ 100865b8     Analog_Solution_capi.obj
 0002:0000a604       ??_C@_0DM@PIPJDGFH@Startup?1Initialize?5Spooling?5Posi@ 10086604     Analog_Solution_capi.obj
 0002:0000a64c       ??_C@_0DN@ICMNAHKA@Startup?1Initialize?5Spooling?5Posi@ 1008664c     Analog_Solution_capi.obj
 0002:0000a698       ??_C@_0EJ@LAFGKBAO@Startup?1Initialize?5Spooling?5Posi@ 10086698     Analog_Solution_capi.obj
 0002:0000a6f0       ??_C@_0EM@OOFFGOEI@Startup?1Initialize?5Spooling?5Posi@ 100866f0     Analog_Solution_capi.obj
 0002:0000a750       ??_C@_0EN@LOLEJLHO@Startup?1Initialize?5Spooling?5Posi@ 10086750     Analog_Solution_capi.obj
 0002:0000a7ac       ??_C@_0DM@MPMBCDGJ@Startup?1Initialize?5Spooling?5Posi@ 100867ac     Analog_Solution_capi.obj
 0002:0000a7f4       ??_C@_0DP@KOGMNBPB@Startup?1Initialize?5Spooling?5Posi@ 100867f4     Analog_Solution_capi.obj
 0002:0000a840       ??_C@_0EA@MEJKJOJ@Startup?1Initialize?5Spooling?5Posi@ 10086840     Analog_Solution_capi.obj
 0002:0000a890       ??_C@_0EA@CHGEPKCK@Startup?1Initialize?5Spooling?5Posi@ 10086890     Analog_Solution_capi.obj
 0002:0000a8e0       ??_C@_0EA@DOHPMLGL@Startup?1Initialize?5Spooling?5Posi@ 100868e0     Analog_Solution_capi.obj
 0002:0000a92c       ??_C@_0DO@GHDPMPDB@Startup?1Initialize?5Spooling?5Posi@ 1008692c     Analog_Solution_capi.obj
 0002:0000a978       ??_C@_0DJ@ELHIANA@Winch_Conrtol?1Joystick?5Regelung1@ 10086978     Analog_Solution_capi.obj
 0002:0000a9c0       ??_C@_0EI@BOGCBGE@Winch_Conrtol?1Joystick?5Regelung1@ 100869c0     Analog_Solution_capi.obj
 0002:0000aa18       ??_C@_0EJ@IMIDEENC@Winch_Conrtol?1Joystick?5Regelung1@ 10086a18     Analog_Solution_capi.obj
 0002:0000aa70       ??_C@_0DI@GGJEIHLJ@Winch_Conrtol?1Joystick?5Regelung1@ 10086a70     Analog_Solution_capi.obj
 0002:0000aab4       ??_C@_0DJ@HEIGJIBN@Winch_Conrtol?1Joystick?5Regelung1@ 10086ab4     Analog_Solution_capi.obj
 0002:0000aaf8       ??_C@_0DL@PCIPDIPO@Winch_Conrtol?1Joystick?5Regelung1@ 10086af8     Analog_Solution_capi.obj
 0002:0000ab40       ??_C@_0DM@JMKKFHJB@Winch_Conrtol?1Joystick?5Regelung1@ 10086b40     Analog_Solution_capi.obj
 0002:0000ab88       ??_C@_0CN@IEGGKLID@Winch_Conrtol?1Joystick?5Regelung1@ 10086b88     Analog_Solution_capi.obj
 0002:0000abc0       ??_C@_0CM@NCNIBPCM@Winch_Conrtol?1Joystick?5Regelung1@ 10086bc0     Analog_Solution_capi.obj
 0002:0000abf4       ??_C@_0CN@PEFHLDEO@Winch_Conrtol?1Joystick?5Regelung1@ 10086bf4     Analog_Solution_capi.obj
 0002:0000ac2c       ??_C@_0CP@MPKFEPPI@Winch_Conrtol?1Joystick?5Regelung1@ 10086c2c     Analog_Solution_capi.obj
 0002:0000ac64       ??_C@_0DA@HFPENIND@Winch_Conrtol?1Joystick?5Regelung1@ 10086c64     Analog_Solution_capi.obj
 0002:0000aca0       ??_C@_0CO@MFFOBFOP@Winch_Conrtol?1Joystick?5Regelung1@ 10086ca0     Analog_Solution_capi.obj
 0002:0000acd8       ??_C@_0CP@PGCNKGEO@Winch_Conrtol?1Joystick?5Regelung1@ 10086cd8     Analog_Solution_capi.obj
 0002:0000ad10       ??_C@_0CN@BGKKHLFG@Winch_Conrtol?1damper?1Compare?5To?5@ 10086d10     Analog_Solution_capi.obj
 0002:0000ad48       ??_C@_0CO@JJOPIGHA@Winch_Conrtol?1damper?1Compare?5To?5@ 10086d48     Analog_Solution_capi.obj
 0002:0000ad80       ??_C@_0ED@PNHKNHIN@Inputs?1RS232_read?1IMU_read?1Data_@ 10086d80     Analog_Solution_capi.obj
 0002:0000add0       ??_C@_0DE@EHBIOHBP@Inputs?1RS232_read?1IMU_read?1Data_@ 10086dd0     Analog_Solution_capi.obj
 0002:0000ae10       ??_C@_0EA@IEJBJIJJ@Winch_Conrtol?1Joystick?5Regelung1@ 10086e10     Analog_Solution_capi.obj
 0002:0000ae60       ??_C@_0EB@JCKGGCLC@Winch_Conrtol?1Joystick?5Regelung1@ 10086e60     Analog_Solution_capi.obj
 0002:0000aeb0       ??_C@_0FA@IMFEHGGE@Inputs?1RS232_read?1IMU_read?1IMU_d@ 10086eb0     Analog_Solution_capi.obj
 0002:0000af10       ??_C@_04CLCEDBPF@time?$AA@ 10086f10     Analog_Solution_capi.obj
 0002:0000af18       ??_C@_0FB@IMAOPGIF@Inputs?1RS232_read?1IMU_read?1IMU_d@ 10086f18     Analog_Solution_capi.obj
 0002:0000af7c       ??_C@_08KLMNJBLI@GPSFlags?$AA@ 10086f7c     Analog_Solution_capi.obj
 0002:0000af88       ??_C@_0FB@KHCDKFEG@Inputs?1RS232_read?1IMU_read?1IMU_d@ 10086f88     Analog_Solution_capi.obj
 0002:0000afec       ??_C@_05EDGDKMME@NbSat?$AA@ 10086fec     Analog_Solution_capi.obj
 0002:0000aff8       ??_C@_0FB@BMFHCCOJ@Inputs?1RS232_read?1IMU_read?1IMU_d@ 10086ff8     Analog_Solution_capi.obj
 0002:0000b05c       ??_C@_02JPBKMLIA@Mx?$AA@   1008705c     Analog_Solution_capi.obj
 0002:0000b060       ??_C@_0FC@BPJHAKEM@Inputs?1RS232_read?1IMU_read?1IMU_d@ 10087060     Analog_Solution_capi.obj
 0002:0000b0c4       ??_C@_02IGABPKMB@My?$AA@   100870c4     Analog_Solution_capi.obj
 0002:0000b0c8       ??_C@_0FC@CNKBGIMO@Inputs?1RS232_read?1IMU_read?1IMU_d@ 100870c8     Analog_Solution_capi.obj
 0002:0000b12c       ??_C@_02KNCMKJAC@Mz?$AA@   1008712c     Analog_Solution_capi.obj
 0002:0000b130       ??_C@_0FB@MBEPBEGL@Inputs?1RS232_read?1IMU_read?1IMU_d@ 10087130     Analog_Solution_capi.obj
 0002:0000b194       ??_C@_04JFPLDHAO@year?$AA@ 10087194     Analog_Solution_capi.obj
 0002:0000b1a0       ??_C@_0FC@BMPMPAHG@Inputs?1RS232_read?1IMU_read?1IMU_d@ 100871a0     Analog_Solution_capi.obj
 0002:0000b204       ??_C@_0M@GGIBBEGI@nanoseconds?$AA@ 10087204     Analog_Solution_capi.obj
 0002:0000b218       ??_C@_0FC@DHNBKDLF@Inputs?1RS232_read?1IMU_read?1IMU_d@ 10087218     Analog_Solution_capi.obj
 0002:0000b27c       ??_C@_05MEBAADFH@month?$AA@ 1008727c     Analog_Solution_capi.obj
 0002:0000b288       ??_C@_0FC@COMKJCPE@Inputs?1RS232_read?1IMU_read?1IMU_d@ 10087288     Analog_Solution_capi.obj
 0002:0000b2ec       ??_C@_03NNBHCDBP@day?$AA@  100872ec     Analog_Solution_capi.obj
 0002:0000b2f0       ??_C@_0FC@GBILAEDD@Inputs?1RS232_read?1IMU_read?1IMU_d@ 100872f0     Analog_Solution_capi.obj
 0002:0000b354       ??_C@_04LMOJGCPE@hour?$AA@ 10087354     Analog_Solution_capi.obj
 0002:0000b360       ??_C@_0FC@HIJADFHC@Inputs?1RS232_read?1IMU_read?1IMU_d@ 10087360     Analog_Solution_capi.obj
 0002:0000b3c4       ??_C@_03KLIPLJLL@min?$AA@  100873c4     Analog_Solution_capi.obj
 0002:0000b3c8       ??_C@_0FC@FDLNGGLB@Inputs?1RS232_read?1IMU_read?1IMU_d@ 100873c8     Analog_Solution_capi.obj
 0002:0000b42c       ??_C@_03KHPNBODO@sec?$AA@  1008742c     Analog_Solution_capi.obj
 0002:0000b430       ??_C@_0FB@HNBGEJKM@Inputs?1RS232_read?1IMU_read?1IMU_d@ 10087430     Analog_Solution_capi.obj
 0002:0000b494       ??_C@_07GIPHOCKM@Time_sr?$AA@ 10087494     Analog_Solution_capi.obj
 0002:0000b4a0       ??_C@_0FC@BIPFADCF@Inputs?1RS232_read?1IMU_read?1IMU_d@ 100874a0     Analog_Solution_capi.obj
 0002:0000b504       ??_C@_09PHBIEJMN@longitude?$AA@ 10087504     Analog_Solution_capi.obj
 0002:0000b510       ??_C@_0FC@DDNIFAOG@Inputs?1RS232_read?1IMU_read?1IMU_d@ 10087510     Analog_Solution_capi.obj
 0002:0000b574       ??_C@_06LNLHEAAG@height?$AA@ 10087574     Analog_Solution_capi.obj
 0002:0000b580       ??_C@_0FC@CKMDGBKH@Inputs?1RS232_read?1IMU_read?1IMU_d@ 10087580     Analog_Solution_capi.obj
 0002:0000b5e4       ??_C@_08IPNLHJNB@latitude?$AA@ 100875e4     Analog_Solution_capi.obj
 0002:0000b5f0       ??_C@_0FC@BKCLAEAC@Inputs?1RS232_read?1IMU_read?1IMU_d@ 100875f0     Analog_Solution_capi.obj
 0002:0000b654       ??_C@_06NPFPHNBC@v_east?$AA@ 10087654     Analog_Solution_capi.obj
 0002:0000b660       ??_C@_0FC@DBAGFHMB@Inputs?1RS232_read?1IMU_read?1IMU_d@ 10087660     Analog_Solution_capi.obj
 0002:0000b6c4       ??_C@_07DDAJOGFN@v_north?$AA@ 100876c4     Analog_Solution_capi.obj
 0002:0000b6d0       ??_C@_0FC@CIBNGGIA@Inputs?1RS232_read?1IMU_read?1IMU_d@ 100876d0     Analog_Solution_capi.obj
 0002:0000b734       ??_C@_06LFMEHBJG@v_down?$AA@ 10087734     Analog_Solution_capi.obj
 0002:0000b740       ??_C@_0FC@GHFMPAEH@Inputs?1RS232_read?1IMU_read?1IMU_d@ 10087740     Analog_Solution_capi.obj
 0002:0000b7a4       ??_C@_07MBJMFGGL@heading?$AA@ 100877a4     Analog_Solution_capi.obj
 0002:0000b7b0       ??_C@_0FC@DALDKKNM@Inputs?1RS232_read?1IMU_read?1IMU_d@ 100877b0     Analog_Solution_capi.obj
 0002:0000b814       ??_C@_08GHGAAJPE@Altitude?$AA@ 10087814     Analog_Solution_capi.obj
 0002:0000b820       ??_C@_0FB@NONFPEGD@Inputs?1RS232_read?1IMU_read?1IMU_d@ 10087820     Analog_Solution_capi.obj
 0002:0000b884       ??_C@_08NNMDAM@lat_filt?$AA@ 10087884     Analog_Solution_capi.obj
 0002:0000b890       ??_C@_0FC@BCDIOCKE@Inputs?1RS232_read?1IMU_read?1IMU_d@ 10087890     Analog_Solution_capi.obj
 0002:0000b8f4       ??_C@_09HIBOPDBA@long_filt?$AA@ 100878f4     Analog_Solution_capi.obj
 0002:0000b900       ??_C@_0FC@DJBFLBGH@Inputs?1RS232_read?1IMU_read?1IMU_d@ 10087900     Analog_Solution_capi.obj
 0002:0000b964       ??_C@_0M@CCDEJLAN@height_filt?$AA@ 10087964     Analog_Solution_capi.obj
 0002:0000b978       ??_C@_0FB@LAFJOPCC@Inputs?1RS232_read?1IMU_read?1IMU_d@ 10087978     Analog_Solution_capi.obj
 0002:0000b9dc       ??_C@_02IPGJIHBB@Vx?$AA@   100879dc     Analog_Solution_capi.obj
 0002:0000b9e0       ??_C@_0FC@BDINBPLJ@Inputs?1RS232_read?1IMU_read?1IMU_d@ 100879e0     Analog_Solution_capi.obj
 0002:0000ba44       ??_C@_02JGHCLGFA@Vy?$AA@   10087a44     Analog_Solution_capi.obj
 0002:0000ba48       ??_C@_0FC@CBLLHNDL@Inputs?1RS232_read?1IMU_read?1IMU_d@ 10087a48     Analog_Solution_capi.obj
 0002:0000baac       ??_C@_02LNFPOFJD@Vz?$AA@   10087aac     Analog_Solution_capi.obj
 0002:0000bab0       ??_C@_0FA@FOIBDAOC@Inputs?1RS232_read?1IMU_read?1IMU_d@ 10087ab0     Analog_Solution_capi.obj
 0002:0000bb10       ??_C@_02JDNACDDI@q1?$AA@   10087b10     Analog_Solution_capi.obj
 0002:0000bb18       ??_C@_0FB@IIAHAFNG@Inputs?1RS232_read?1IMU_read?1IMU_d@ 10087b18     Analog_Solution_capi.obj
 0002:0000bb7c       ??_C@_02LIPNHAPL@q2?$AA@   10087b7c     Analog_Solution_capi.obj
 0002:0000bb80       ??_C@_0FB@LKDBGHFE@Inputs?1RS232_read?1IMU_read?1IMU_d@ 10087b80     Analog_Solution_capi.obj
 0002:0000bbe4       ??_C@_02KBOGEBLK@q3?$AA@   10087be4     Analog_Solution_capi.obj
 0002:0000bbe8       ??_C@_0FB@PFHAPBJD@Inputs?1RS232_read?1IMU_read?1IMU_d@ 10087be8     Analog_Solution_capi.obj
 0002:0000bc4c       ??_C@_02OOKHNHHN@q4?$AA@   10087c4c     Analog_Solution_capi.obj
 0002:0000bc50       ??_C@_0FA@CAFKLLKP@Inputs?1RS232_read?1IMU_read?1IMU_d@ 10087c50     Analog_Solution_capi.obj
 0002:0000bcb0       ??_C@_02JCINEOFG@Gx?$AA@   10087cb0     Analog_Solution_capi.obj
 0002:0000bcb8       ??_C@_0FB@IABEODHA@Inputs?1RS232_read?1IMU_read?1IMU_d@ 10087cb8     Analog_Solution_capi.obj
 0002:0000bd1c       ??_C@_02ILJGHPBH@Gy?$AA@   10087d1c     Analog_Solution_capi.obj
 0002:0000bd20       ??_C@_0FB@LCCCIBPC@Inputs?1RS232_read?1IMU_read?1IMU_d@ 10087d20     Analog_Solution_capi.obj
 0002:0000bd84       ??_C@_02KALLCMNE@Gz?$AA@   10087d84     Analog_Solution_capi.obj
 0002:0000bd88       ??_C@_0FA@EONGKAOO@Inputs?1RS232_read?1IMU_read?1IMU_d@ 10087d88     Analog_Solution_capi.obj
 0002:0000bde8       ??_C@_02JGAADCOE@Ax?$AA@   10087de8     Analog_Solution_capi.obj
 0002:0000bdf0       ??_C@_0FB@IBKBBOGN@Inputs?1RS232_read?1IMU_read?1IMU_d@ 10087df0     Analog_Solution_capi.obj
 0002:0000be54       ??_C@_02IPBLADKF@Ay?$AA@   10087e54     Analog_Solution_capi.obj
 0002:0000be58       ??_C@_0FB@LDJHHMOP@Inputs?1RS232_read?1IMU_read?1IMU_d@ 10087e58     Analog_Solution_capi.obj
 0002:0000bebc       ??_C@_02KEDGFAGG@Az?$AA@   10087ebc     Analog_Solution_capi.obj
 0002:0000bec0       ??_C@_0EJ@GEJENCKB@Inputs?1RS232_read?1QSC?9100?5F?1RS23@ 10087ec0     Analog_Solution_capi.obj
 0002:0000bf18       ??_C@_0EJ@EPLJIBGC@Inputs?1RS232_read?1QSC?9100?5F?1RS23@ 10087f18     Analog_Solution_capi.obj
 0002:0000bf70       ??_C@_0EJ@FGKCLACD@Inputs?1RS232_read?1QSC?9100?5F?1RS23@ 10087f70     Analog_Solution_capi.obj
 0002:0000bfc8       ??_C@_0EJ@BJODCGOE@Inputs?1RS232_read?1QSC?9100?5F?1RS23@ 10087fc8     Analog_Solution_capi.obj
 0002:0000c020       ??_C@_0FA@BOKCMBEG@Inputs?1RS232_read?1QSC?9100?5F?1RS23@ 10088020     Analog_Solution_capi.obj
 0002:0000c080       ??_C@_0FD@EPPBOPDM@Inputs?1RS232_read?1QSC?9100?5F?1RS23@ 10088080     Analog_Solution_capi.obj
 0002:0000c0e8       ??_C@_0FI@JPPDGNKP@Inputs?1RS232_read?1QSC?9100?5F?1RS23@ 100880e8     Analog_Solution_capi.obj
 0002:0000c158       ??_C@_0EO@PGODKAAG@Inputs?1RS232_read?1QSC?9100?5F?1RS23@ 10088158     Analog_Solution_capi.obj
 0002:0000c1b8       ??_C@_0EO@NNMOPDMF@Inputs?1RS232_read?1QSC?9100?5F?1RS23@ 100881b8     Analog_Solution_capi.obj
 0002:0000c218       ??_C@_0EO@LBEDNKNG@Inputs?1RS232_read?1QSC?9100?5F?1RS23@ 10088218     Analog_Solution_capi.obj
 0002:0000c278       ??_C@_0EO@JKGOIJBF@Inputs?1RS232_read?1QSC?9100?5F?1RS23@ 10088278     Analog_Solution_capi.obj
 0002:0000c2d8       ??_C@_0EO@IMCDPDGG@Inputs?1RS232_read?1QSC?9100?5F?1RS23@ 100882d8     Analog_Solution_capi.obj
 0002:0000c338       ??_C@_0EO@KHAOKAKF@Inputs?1RS232_read?1QSC?9100?5F?1RS23@ 10088338     Analog_Solution_capi.obj
 0002:0000c398       ??_C@_0EO@DOADCPHG@Inputs?1RS232_read?1QSC?9100?5F?1RS23@ 10088398     Analog_Solution_capi.obj
 0002:0000c3f8       ??_C@_0EO@BFCOHMLF@Inputs?1RS232_read?1QSC?9100?5F?1RS23@ 100883f8     Analog_Solution_capi.obj
 0002:0000c458       ??_C@_0EM@NAMCFIKP@Inputs?1RS232_read?1QSC?9100?5F?1RS23@ 10088458     Analog_Solution_capi.obj
 0002:0000c4b8       ??_C@_0EM@PLOPALGM@Inputs?1RS232_read?1QSC?9100?5F?1RS23@ 100884b8     Analog_Solution_capi.obj
 0002:0000c518       ??_C@_0EM@OCPEDKCN@Inputs?1RS232_read?1QSC?9100?5F?1RS23@ 10088518     Analog_Solution_capi.obj
 0002:0000c578       ??_C@_0EM@KNLFKMOK@Inputs?1RS232_read?1QSC?9100?5F?1RS23@ 10088578     Analog_Solution_capi.obj
 0002:0000c5d8       ??_C@_0FC@MOICAPLG@Inputs?1RS232_read?1QSC?9100?5F?1RS23@ 100885d8     Analog_Solution_capi.obj
 0002:0000c640       ??_C@_0FC@OFKPFMHF@Inputs?1RS232_read?1QSC?9100?5F?1RS23@ 10088640     Analog_Solution_capi.obj
 0002:0000c6a8       ??_C@_0FC@PMLEGNDE@Inputs?1RS232_read?1QSC?9100?5F?1RS23@ 100886a8     Analog_Solution_capi.obj
 0002:0000c710       ??_C@_0FC@LDPFPLPD@Inputs?1RS232_read?1QSC?9100?5F?1RS23@ 10088710     Analog_Solution_capi.obj
 0002:0000c778       ??_C@_0FC@KKOOMKLC@Inputs?1RS232_read?1QSC?9100?5F?1RS23@ 10088778     Analog_Solution_capi.obj
 0002:0000c7e0       ??_C@_0FC@IBMDJJHB@Inputs?1RS232_read?1QSC?9100?5F?1RS23@ 100887e0     Analog_Solution_capi.obj
 0002:0000c848       ??_C@_0FC@JINIKIDA@Inputs?1RS232_read?1QSC?9100?5F?1RS23@ 10088848     Analog_Solution_capi.obj
 0002:0000c8b0       ??_C@_0FC@BPEALEPP@Inputs?1RS232_read?1QSC?9100?5F?1RS23@ 100888b0     Analog_Solution_capi.obj
 0002:0000c918       ??_C@_0EN@IDAGNKLD@Inputs?1RS232_read?1QSC?9100?5F?1RS23@ 10088918     Analog_Solution_capi.obj
 0002:0000c978       ??_C@_0EN@KICLIJHA@Inputs?1RS232_read?1QSC?9100?5F?1RS23@ 10088978     Analog_Solution_capi.obj
 0002:0000c9d8       ??_C@_0EN@LBDALIDB@Inputs?1RS232_read?1QSC?9100?5F?1RS23@ 100889d8     Analog_Solution_capi.obj
 0002:0000ca38       ??_C@_0EN@POHBCOPG@Inputs?1RS232_read?1QSC?9100?5F?1RS23@ 10088a38     Analog_Solution_capi.obj
 0002:0000ca98       ??_C@_0FA@LBJBIEHC@Inputs?1RS232_read?1QSC?9100?5F?1RS23@ 10088a98     Analog_Solution_capi.obj
 0002:0000caf8       ??_C@_0BB@CFEOEMDC@InitialCondition?$AA@ 10088af8     Analog_Solution_capi.obj
 0002:0000cb0c       ??_C@_02KKFPAPOP@P1?$AA@   10088b0c     Analog_Solution_capi.obj
 0002:0000cb10       ??_C@_02IBHCFMCM@P2?$AA@   10088b10     Analog_Solution_capi.obj
 0002:0000cb14       ??_C@_02JIGJGNGN@P3?$AA@   10088b14     Analog_Solution_capi.obj
 0002:0000cb18       ??_C@_02NHCIPLKK@P4?$AA@   10088b18     Analog_Solution_capi.obj
 0002:0000cb1c       ??_C@_02MODDMKOL@P5?$AA@   10088b1c     Analog_Solution_capi.obj
 0002:0000cb20       ??_C@_05LPIJGKJ@Value?$AA@ 10088b20     Analog_Solution_capi.obj
 0002:0000cb28       ??_C@_0BC@KEBAIPFG@Outputs?1Constant2?$AA@ 10088b28     Analog_Solution_capi.obj
 0002:0000cb40       ??_C@_0BC@PCEKCINA@Outputs?1Constant4?$AA@ 10088b40     Analog_Solution_capi.obj
 0002:0000cb58       ??_C@_0BC@MAHMEKFC@Outputs?1Constant6?$AA@ 10088b58     Analog_Solution_capi.obj
 0002:0000cb70       ??_C@_0BC@NJGHHLBD@Outputs?1Constant7?$AA@ 10088b70     Analog_Solution_capi.obj
 0002:0000cb88       ??_C@_0BC@FOPPGHNM@Outputs?1Constant8?$AA@ 10088b88     Analog_Solution_capi.obj
 0002:0000cba0       ??_C@_0BJ@MOBIHFCC@Outputs?1PCI?56221?5PFI?5DO?5?$AA@ 10088ba0     Analog_Solution_capi.obj
 0002:0000cbc0       ??_C@_02OFBOJJCI@P6?$AA@   10088bc0     Analog_Solution_capi.obj
 0002:0000cbc4       ??_C@_02PMAFKIGJ@P7?$AA@   10088bc4     Analog_Solution_capi.obj
 0002:0000cbc8       ??_C@_0BE@IHMMINGB@Outputs?1PCI?96221?5DA?$AA@ 10088bc8     Analog_Solution_capi.obj
 0002:0000cbe0       ??_C@_0BE@BJEPKAOP@Outputs?1PCI?96221?5DO?$AA@ 10088be0     Analog_Solution_capi.obj
 0002:0000cbf8       ??_C@_09HLCHFPPJ@Threshold?$AA@ 10088bf8     Analog_Solution_capi.obj
 0002:0000cc04       ??_C@_0CB@HPGLGPEE@Spooling_Speed_Controlled?1Const?4@ 10088c04     Analog_Solution_capi.obj
 0002:0000cc2c       ??_C@_0CD@IDHFJLBA@Spooling_Speed_Controlled?1Consta@ 10088c2c     Analog_Solution_capi.obj
 0002:0000cc58       ??_C@_0CE@NLGJGCEN@Spooling_Speed_Controlled?1Consta@ 10088c58     Analog_Solution_capi.obj
 0002:0000cc84       ??_C@_0CF@NHPAGCLM@Spooling_Speed_Controlled?1Consta@ 10088c84     Analog_Solution_capi.obj
 0002:0000ccb0       ??_C@_0CF@MOOLFDPN@Spooling_Speed_Controlled?1Consta@ 10088cb0     Analog_Solution_capi.obj
 0002:0000ccdc       ??_C@_0CF@OFMGAADO@Spooling_Speed_Controlled?1Consta@ 10088cdc     Analog_Solution_capi.obj
 0002:0000cd08       ??_C@_0CF@PMNNDBHP@Spooling_Speed_Controlled?1Consta@ 10088d08     Analog_Solution_capi.obj
 0002:0000cd34       ??_C@_0CF@LDJMKHLI@Spooling_Speed_Controlled?1Consta@ 10088d34     Analog_Solution_capi.obj
 0002:0000cd60       ??_C@_0CE@PAEEDBIO@Spooling_Speed_Controlled?1Consta@ 10088d60     Analog_Solution_capi.obj
 0002:0000cd8c       ??_C@_0CE@OJFPAAMP@Spooling_Speed_Controlled?1Consta@ 10088d8c     Analog_Solution_capi.obj
 0002:0000cdb8       ??_C@_0CE@KGBOJGAI@Spooling_Speed_Controlled?1Consta@ 10088db8     Analog_Solution_capi.obj
 0002:0000cde4       ??_C@_0CE@LPAFKHEJ@Spooling_Speed_Controlled?1Consta@ 10088de4     Analog_Solution_capi.obj
 0002:0000ce10       ??_C@_0CE@JECIPEIK@Spooling_Speed_Controlled?1Consta@ 10088e10     Analog_Solution_capi.obj
 0002:0000ce3c       ??_C@_0CE@INDDMFML@Spooling_Speed_Controlled?1Consta@ 10088e3c     Analog_Solution_capi.obj
 0002:0000ce68       ??_C@_0CE@KKLNJAE@Spooling_Speed_Controlled?1Consta@ 10088e68     Analog_Solution_capi.obj
 0002:0000ce94       ??_C@_0CE@BDLAOIEF@Spooling_Speed_Controlled?1Consta@ 10088e94     Analog_Solution_capi.obj
 0002:0000cec0       ??_C@_0DA@LABAHCPP@Spooling_Speed_Controlled?1erste?5@ 10088ec0     Analog_Solution_capi.obj
 0002:0000cefc       ??_C@_0DB@EBOCOHPO@Spooling_Speed_Controlled?1untere@ 10088efc     Analog_Solution_capi.obj
 0002:0000cf38       ??_C@_04OMOMKKFL@Gain?$AA@ 10088f38     Analog_Solution_capi.obj
 0002:0000cf40       ??_C@_0M@KNNCJG@DelayLength?$AA@ 10088f40     Analog_Solution_capi.obj
 0002:0000cf50       ??_C@_0BB@GMOHBMNJ@Startup?1Constant?$AA@ 10088f50     Analog_Solution_capi.obj
 0002:0000cf64       ??_C@_0BH@MEMCPHID@Winch_Conrtol?1Constant?$AA@ 10088f64     Analog_Solution_capi.obj
 0002:0000cf80       ??_C@_0BI@LCCIBHNP@Winch_Conrtol?1Constant1?$AA@ 10088f80     Analog_Solution_capi.obj
 0002:0000cf9c       ??_C@_0BI@JJAFEEBM@Winch_Conrtol?1Constant2?$AA@ 10088f9c     Analog_Solution_capi.obj
 0002:0000cfb8       ??_C@_0BI@IABOHFFN@Winch_Conrtol?1Constant3?$AA@ 10088fb8     Analog_Solution_capi.obj
 0002:0000cfd4       ??_C@_0CH@MAMIPFCA@Winch_Conrtol?1konstante?5Ausrollg@ 10088fd4     Analog_Solution_capi.obj
 0002:0000d004       ??_C@_0CI@PNPDOPIP@Winch_Conrtol?1konstante?5Ausrollg@ 10089004     Analog_Solution_capi.obj
 0002:0000d034       ??_C@_0CH@PFNIPLKG@Winch_Conrtol?1konstante?5Einrollg@ 10089034     Analog_Solution_capi.obj
 0002:0000d064       ??_C@_0L@FBCGKKEN@UpperLimit?$AA@ 10089064     Analog_Solution_capi.obj
 0002:0000d074       ??_C@_0L@DGFJOHKP@LowerLimit?$AA@ 10089074     Analog_Solution_capi.obj
 0002:0000d084       ??_C@_0O@KHJPNGBD@InitialStates?$AA@ 10089084     Analog_Solution_capi.obj
 0002:0000d094       ??_C@_0CB@MFLOHPAN@Inputs?1Analog?5Inputs?1PCI?96221?5AD@ 10089094     Analog_Solution_capi.obj
 0002:0000d0bc       ??_C@_0CC@KDEJCOJG@Inputs?1Digital?5Inputs?1PCI?96221?5D@ 100890bc     Analog_Solution_capi.obj
 0002:0000d0e4       ??_C@_0CE@NCNCGEBF@Logging?1Time_Scope_trigger?1Const@ 100890e4     Analog_Solution_capi.obj
 0002:0000d110       ??_C@_0CF@KLFCDBDN@Logging?1Time_Scope_trigger?1Const@ 10089110     Analog_Solution_capi.obj
 0002:0000d13c       ??_C@_0CF@IAHPGCPO@Logging?1Time_Scope_trigger?1Const@ 1008913c     Analog_Solution_capi.obj
 0002:0000d168       ??_C@_0BL@NNGCHJNO@Outputs?1Subsystem?1Constant?$AA@ 10089168     Analog_Solution_capi.obj
 0002:0000d188       ??_C@_0BM@MDIHFPBM@Outputs?1Subsystem?1Constant5?$AA@ 10089188     Analog_Solution_capi.obj
 0002:0000d1ac       ??_C@_0BP@ODMDGPCM@Outputs?1Subsystem?1Obere?5Grenze?$AA@ 100891ac     Analog_Solution_capi.obj
 0002:0000d1d4       ??_C@_0CA@MEPOMHIA@Outputs?1Subsystem?1Untere?5Grenze?$AA@ 100891d4     Analog_Solution_capi.obj
 0002:0000d1fc       ??_C@_0CN@PBEENJCP@Spooling_Speed_Controlled?1Subsys@ 100891fc     Analog_Solution_capi.obj
 0002:0000d234       ??_C@_0CO@GNHNHODC@Spooling_Speed_Controlled?1Subsys@ 10089234     Analog_Solution_capi.obj
 0002:0000d26c       ??_C@_0CO@EGFACNPB@Spooling_Speed_Controlled?1Subsys@ 1008926c     Analog_Solution_capi.obj
 0002:0000d2a4       ??_C@_0CH@KMMBHPDL@Winch_Conrtol?1Emergency?1Beschleu@ 100892a4     Analog_Solution_capi.obj
 0002:0000d2d4       ??_C@_0DB@MGPBHIGN@Winch_Conrtol?1Emergency?1obere?5Kr@ 100892d4     Analog_Solution_capi.obj
 0002:0000d310       ??_C@_0DC@ICACGKOK@Winch_Conrtol?1Emergency?1untere?5K@ 10089310     Analog_Solution_capi.obj
 0002:0000d34c       ??_C@_0CC@MCCDDIPK@Winch_Conrtol?1Subsystem?1Constant@ 1008934c     Analog_Solution_capi.obj
 0002:0000d374       ??_C@_0CC@NLDIAJLL@Winch_Conrtol?1Subsystem?1Constant@ 10089374     Analog_Solution_capi.obj
 0002:0000d39c       ??_C@_0CE@BEFDCKMJ@Winch_Conrtol?1damper?1Beschleunig@ 1008939c     Analog_Solution_capi.obj
 0002:0000d3c8       ??_C@_0BP@BBAPPPCB@Winch_Conrtol?1damper?1Constant1?$AA@ 100893c8     Analog_Solution_capi.obj
 0002:0000d3f0       ??_C@_0EC@KGGBJGDP@Input?5conditioning?5and?5estimator@ 100893f0     Analog_Solution_capi.obj
 0002:0000d440       ??_C@_02HLJNLEKG@P8?$AA@   10089440     Analog_Solution_capi.obj
 0002:0000d444       ??_C@_0CI@PMDECOAC@Inputs?1RS232_read?1QSC?9100?5F?1Enab@ 10089444     Analog_Solution_capi.obj
 0002:0000d474       ??_C@_0CI@NHBJHNMB@Inputs?1RS232_read?1QSC?9100?5F?1Enab@ 10089474     Analog_Solution_capi.obj
 0002:0000d4a4       ??_C@_0CI@MOACEMIA@Inputs?1RS232_read?1QSC?9100?5F?1Enab@ 100894a4     Analog_Solution_capi.obj
 0002:0000d4d4       ??_C@_0CI@IBEDNKEH@Inputs?1RS232_read?1QSC?9100?5F?1Enab@ 100894d4     Analog_Solution_capi.obj
 0002:0000d504       ??_C@_0CJ@FDEBJHNI@Inputs?1RS232_read?1QSC?9100?5F?1FIFO@ 10089504     Analog_Solution_capi.obj
 0002:0000d538       ??_C@_0CJ@HIGMMEBL@Inputs?1RS232_read?1QSC?9100?5F?1FIFO@ 10089538     Analog_Solution_capi.obj
 0002:0000d56c       ??_C@_0CJ@GBHHPFFK@Inputs?1RS232_read?1QSC?9100?5F?1FIFO@ 1008956c     Analog_Solution_capi.obj
 0002:0000d5a0       ??_C@_0CJ@CODGGDJN@Inputs?1RS232_read?1QSC?9100?5F?1FIFO@ 100895a0     Analog_Solution_capi.obj
 0002:0000d5d4       ??_C@_0CD@FCDIMDFJ@Inputs?1RS232_read?1QSC?9100?5F?1Setu@ 100895d4     Analog_Solution_capi.obj
 0002:0000d600       ??_C@_02GCIGIFOH@P9?$AA@   10089600     Analog_Solution_capi.obj
 0002:0000d604       ??_C@_03OPFJJGBF@P10?$AA@  10089604     Analog_Solution_capi.obj
 0002:0000d608       ??_C@_0CD@HJBFJAJK@Inputs?1RS232_read?1QSC?9100?5F?1Setu@ 10089608     Analog_Solution_capi.obj
 0002:0000d634       ??_C@_0CD@GAAOKBNL@Inputs?1RS232_read?1QSC?9100?5F?1Setu@ 10089634     Analog_Solution_capi.obj
 0002:0000d660       ??_C@_0CD@CPEPDHBM@Inputs?1RS232_read?1QSC?9100?5F?1Setu@ 10089660     Analog_Solution_capi.obj
 0002:0000d68c       ??_C@_0DE@OINOLLAM@Outputs?1Joystick?5Regelung1?1Joyst@ 1008968c     Analog_Solution_capi.obj
 0002:0000d6cc       ??_C@_0DE@IMNAPDFG@Outputs?1Joystick?5Regelung1?1Joyst@ 100896cc     Analog_Solution_capi.obj
 0002:0000d70c       ??_C@_0DL@KHGHOHIH@Outputs?1Joystick?5Regelung1?1Joyst@ 1008970c     Analog_Solution_capi.obj
 0002:0000d754       ??_C@_0DM@IFLOBJGI@Outputs?1Joystick?5Regelung1?1Joyst@ 10089754     Analog_Solution_capi.obj
 0002:0000d7a0       ??_C@_0ED@NJNDOLLC@Startup?1Initialize?5Spooling?5Posi@ 100897a0     Analog_Solution_capi.obj
 0002:0000d7f0       ??_C@_0ED@PCPOLIHB@Startup?1Initialize?5Spooling?5Posi@ 100897f0     Analog_Solution_capi.obj
 0002:0000d840       ??_C@_0EB@IBJNKEML@Startup?1Initialize?5Spooling?5Posi@ 10089840     Analog_Solution_capi.obj
 0002:0000d890       ??_C@_0EC@MKGKIBCO@Startup?1Initialize?5Spooling?5Posi@ 10089890     Analog_Solution_capi.obj
 0002:0000d8e0       ??_C@_0GF@BJGOOIHG@Startup?1Initialize?5Spooling?5Posi@ 100898e0     Analog_Solution_capi.obj
 0002:0000d960       ??_C@_0ED@BDBIMFCG@Winch_Conrtol?1Joystick?5Regelung1@ 10089960     Analog_Solution_capi.obj
 0002:0000d9b0       ??_C@_0EB@DGCMOLMD@Winch_Conrtol?1Joystick?5Regelung1@ 100899b0     Analog_Solution_capi.obj
 0002:0000da00       ??_C@_0EC@PEJONHON@Winch_Conrtol?1Joystick?5Regelung1@ 10089a00     Analog_Solution_capi.obj
 0002:0000da50       ??_C@_0DH@DDOHIGD@Winch_Conrtol?1Joystick?5Regelung1@ 10089a50     Analog_Solution_capi.obj
 0002:0000da94       ??_C@_0DC@MIMBGHEA@Winch_Conrtol?1Joystick?5Regelung1@ 10089a94     Analog_Solution_capi.obj
 0002:0000dad0       ??_C@_0CO@JIMIIFBJ@Winch_Conrtol?1damper?1Compare?5To?5@ 10089ad0     Analog_Solution_capi.obj
 0002:0000db08       ??_C@_0CP@EKEKEFBJ@Winch_Conrtol?1damper?1Compare?5To?5@ 10089b08     Analog_Solution_capi.obj
 0002:0000db40       ??_C@_0DK@BDNPHAHM@Inputs?1RS232_read?1IMU_read?1Data_@ 10089b40     Analog_Solution_capi.obj
 0002:0000db88       ??_C@_0O@LILIEJBO@InitialOutput?$AA@ 10089b88     Analog_Solution_capi.obj
 0002:0000db98       ??_C@_0EB@JDIBGBNL@Winch_Conrtol?1Joystick?5Regelung1@ 10089b98     Analog_Solution_capi.obj
 0002:0000dbe8       ??_C@_0EC@DPCLKPGB@Winch_Conrtol?1Joystick?5Regelung1@ 10089be8     Analog_Solution_capi.obj
 0002:0000dc38       ??_C@_0EJ@KMENFIKJ@Inputs?1RS232_read?1QSC?9100?5F?1RS23@ 10089c38     Analog_Solution_capi.obj
 0002:0000dc90       ??_C@_07IMLPMLBM@BitMask?$AA@ 10089c90     Analog_Solution_capi.obj
 0002:0000dca0       ??_C@_0EL@PKJKDFDO@Inputs?1RS232_read?1QSC?9100?5F?1RS23@ 10089ca0     Analog_Solution_capi.obj
 0002:0000dd00       ??_C@_0EL@NBLHGGPN@Inputs?1RS232_read?1QSC?9100?5F?1RS23@ 10089d00     Analog_Solution_capi.obj
 0002:0000dd60       ??_C@_0EL@MIKMFHLM@Inputs?1RS232_read?1QSC?9100?5F?1RS23@ 10089d60     Analog_Solution_capi.obj
 0002:0000ddc0       ??_C@_0EL@IHONMBHL@Inputs?1RS232_read?1QSC?9100?5F?1RS23@ 10089dc0     Analog_Solution_capi.obj
 0002:0000de20       ??_C@_0EO@PKJBEHOD@Inputs?1RS232_read?1QSC?9100?5F?1RS23@ 10089e20     Analog_Solution_capi.obj
 0002:0000de80       ??_C@_0EO@NBLMBECA@Inputs?1RS232_read?1QSC?9100?5F?1RS23@ 10089e80     Analog_Solution_capi.obj
 0002:0000dee0       ??_C@_0EO@MIKHCFGB@Inputs?1RS232_read?1QSC?9100?5F?1RS23@ 10089ee0     Analog_Solution_capi.obj
 0002:0000df40       ??_C@_0EO@IHOGLDKG@Inputs?1RS232_read?1QSC?9100?5F?1RS23@ 10089f40     Analog_Solution_capi.obj
 0002:0000dfa0       ??_C@_05CLFGFKJK@AOsat?$AA@ 10089fa0     Analog_Solution_capi.obj
 0002:0000dfa8       ??_C@_0M@EEEKPMNP@Afilt_Winch?$AA@ 10089fa8     Analog_Solution_capi.obj
 0002:0000dfb8       ??_C@_0M@DDNECOCP@Bfilt_Winch?$AA@ 10089fb8     Analog_Solution_capi.obj
 0002:0000dfc8       ??_C@_0M@KIHBGCEA@Cfilt_Winch?$AA@ 10089fc8     Analog_Solution_capi.obj
 0002:0000dfd8       ??_C@_0M@NMOJILMP@Dfilt_Winch?$AA@ 10089fd8     Analog_Solution_capi.obj
 0002:0000dfe8       ??_C@_0L@PPNPOOPB@JoyFiltDen?$AA@ 10089fe8     Analog_Solution_capi.obj
 0002:0000dff8       ??_C@_0L@KHGJPOCG@JoyFiltNum?$AA@ 10089ff8     Analog_Solution_capi.obj
 0002:0000e008       ??_C@_09FODNAAJL@JoyS_gain?$AA@ 1008a008     Analog_Solution_capi.obj
 0002:0000e014       ??_C@_09FCAGKPJO@JoyS_ofst?$AA@ 1008a014     Analog_Solution_capi.obj
 0002:0000e020       ??_C@_08GJOEHFPD@JoyS_sat?$AA@ 1008a020     Analog_Solution_capi.obj
 0002:0000e02c       ??_C@_09KKHCCEII@JoyW_gain?$AA@ 1008a02c     Analog_Solution_capi.obj
 0002:0000e038       ??_C@_09KGEJILIN@JoyW_ofst?$AA@ 1008a038     Analog_Solution_capi.obj
 0002:0000e044       ??_C@_09NJENFEDN@KspdWinch?$AA@ 1008a044     Analog_Solution_capi.obj
 0002:0000e050       ??_C@_0L@MGBBMGDP@NPotSpdEst?$AA@ 1008a050     Analog_Solution_capi.obj
 0002:0000e060       ??_C@_0O@LFFAEOHG@PotPosFiltDen?$AA@ 1008a060     Analog_Solution_capi.obj
 0002:0000e070       ??_C@_0O@ONOGFOKB@PotPosFiltNum?$AA@ 1008a070     Analog_Solution_capi.obj
 0002:0000e080       ??_C@_08JDGANLJH@Pot_gain?$AA@ 1008a080     Analog_Solution_capi.obj
 0002:0000e08c       ??_C@_07PPEKIFKG@Pot_max?$AA@ 1008a08c     Analog_Solution_capi.obj
 0002:0000e098       ??_C@_07ONMBGBMJ@Pot_min?$AA@ 1008a098     Analog_Solution_capi.obj
 0002:0000e0a4       ??_C@_08JPFLHEJC@Pot_ofst?$AA@ 1008a0a4     Analog_Solution_capi.obj
 0002:0000e0b0       ??_C@_06IOHGCHNC@Ts_1ms?$AA@ 1008a0b0     Analog_Solution_capi.obj
 0002:0000e0b8       ??_C@_05NFIFDEME@Ts_1s?$AA@ 1008a0b8     Analog_Solution_capi.obj
 0002:0000e0c0       ??_C@_0N@CLKNBFDK@WinchDrumRad?$AA@ 1008a0c0     Analog_Solution_capi.obj
 0002:0000e0d0       ??_C@_0BC@CCOFNFJD@WinchMotPosAIgain?$AA@ 1008a0d0     Analog_Solution_capi.obj
 0002:0000e0e8       ??_C@_0BC@LONALAHK@WinchMotTorqueMax?$AA@ 1008a0e8     Analog_Solution_capi.obj
 0002:0000e100       ??_C@_0BA@HKFJBGML@WinchPosFiltDen?$AA@ 1008a100     Analog_Solution_capi.obj
 0002:0000e114       ??_C@_0BA@CCOPAGBM@WinchPosFiltNum?$AA@ 1008a114     Analog_Solution_capi.obj
 0002:0000e128       ??_C@_0P@DCHABPPH@WinchRefSpdSup?$AA@ 1008a128     Analog_Solution_capi.obj
 0002:0000e13c       ??_C@_0BD@HPPMLCGN@WinchSpdEstFiltDen?$AA@ 1008a13c     Analog_Solution_capi.obj
 0002:0000e154       ??_C@_0BD@CHEKKCLK@WinchSpdEstFiltNum?$AA@ 1008a154     Analog_Solution_capi.obj
 0002:0000e16c       ??_C@_0BB@ILCNEEJ@WinchTravelMin_m?$AA@ 1008a16c     Analog_Solution_capi.obj
 0002:0000e180       ??_C@_0N@LEBOGCFG@WinchVoltMax?$AA@ 1008a180     Analog_Solution_capi.obj
 0002:0000e190       ??_C@_08LLDIHJCK@x0_Winch?$AA@ 1008a190     Analog_Solution_capi.obj
 0002:0000e19c       ??_C@_06BNJCAIGJ@double?$AA@ 1008a19c     Analog_Solution_capi.obj
 0002:0000e1a4       ??_C@_06CNMIJIPB@real_T?$AA@ 1008a1a4     Analog_Solution_capi.obj
 0002:0000e1ac       ??_C@_0P@IIMKEEHB@unsigned?5short?$AA@ 1008a1ac     Analog_Solution_capi.obj
 0002:0000e1c0       ??_C@_08NHGKGJKC@uint16_T?$AA@ 1008a1c0     Analog_Solution_capi.obj
 0002:0000e1cc       ??_C@_0O@PPAIJIHF@unsigned?5char?$AA@ 1008a1cc     Analog_Solution_capi.obj
 0002:0000e1dc       ??_C@_09JBMFCIMO@boolean_T?$AA@ 1008a1dc     Analog_Solution_capi.obj
 0002:0000e1e8       ??_C@_0M@MPLPCMBL@signed?5char?$AA@ 1008a1e8     Analog_Solution_capi.obj
 0002:0000e1f8       ??_C@_06MOLJCAAB@int8_T?$AA@ 1008a1f8     Analog_Solution_capi.obj
 0002:0000e200       ??_C@_07NCEHLPOC@uint8_T?$AA@ 1008a200     Analog_Solution_capi.obj
 0002:0000e20c       ??_C@_07MMLECJPG@numeric?$AA@ 1008a20c     Analog_Solution_capi.obj
 0002:0000e218       ??_C@_0O@CEKHAEHG@serialfifoptr?$AA@ 1008a218     Analog_Solution_capi.obj
 0002:0000e228       ??_C@_0N@OFHMGPAL@unsigned?5int?$AA@ 1008a228     Analog_Solution_capi.obj
 0002:0000e238       ??_C@_08CCMIKNJF@uint32_T?$AA@ 1008a238     Analog_Solution_capi.obj
 0002:0000e244       ??_C@_05KNFBNCOH@float?$AA@ 1008a244     Analog_Solution_capi.obj
 0002:0000e24c       _serialfifoground          1008a24c     xpc_datatype_ground.obj
 0002:0000e258       _bcmsg1553ground           1008a258     xpc_datatype_ground.obj
 0002:0000e268       _bcstatground              1008a268     xpc_datatype_ground.obj
 0002:0000e280       _bmmsg1553ground           1008a280     xpc_datatype_ground.obj
 0002:0000e2bc       ??_C@_0BI@INNPNFJN@Memory?5Allocation?5Error?$AA@ 1008a2bc     rtw_modelmap_utils.obj
 0002:0000e2d8       ??_C@_1HC@IFMGIDHA@?$AAC?$AA?3?$AA?2?$AAP?$AAR?$AAO?$AAG?$AAR?$AAA?$AA?$HO?$AA1?$AA?2?$AAM?$AAA?$AAT?$AAL?$AAA?$AAB?$AA?2?$AAR?$AA2?$AA0?$AA1?$AA7?$AAa?$AA?2?$AAr?$AAt?$AAw?$AA?2?$AAc?$AA?2@ 1008a2d8     rtw_modelmap_utils.obj
 0002:0000e360       ??_C@_1CI@OEAJCJND@?$AAj?$AA?5?$AA?$DN?$AA?$DN?$AA?5?$AAe?$AAn?$AAc?$AAo?$AAd?$AAe?$AAd?$AAP?$AAa?$AAt?$AAh?$AAL?$AAe?$AAn?$AA?$AA@ 1008a360     rtw_modelmap_utils.obj
 0002:0000e390       ??_C@_1DC@NFAOIFKB@?$AAe?$AAn?$AAc?$AAo?$AAd?$AAe?$AAd?$AAP?$AAa?$AAt?$AAh?$AA?$FL?$AAj?$AA?9?$AA1?$AA?$FN?$AA?5?$AA?$DN?$AA?$DN?$AA?5?$AA?8?$AA?2?$AA0?$AA?8?$AA?$AA@ 1008a390     rtw_modelmap_utils.obj
 0002:0000e3cc       ??_C@_1DI@FLNJGPEE@?$AAs?$AAi?$AAg?$AAC?$AAo?$AAm?$AAp?$AAl?$AAe?$AAx?$AAi?$AAt?$AAy?$AA?$FL?$AA?$CK?$AAs?$AAi?$AAg?$AAI?$AAd?$AAx?$AA?$FN?$AA?5?$AA?$CB?$AA?$DN?$AA?5?$AA1?$AA?$AA@ 1008a3cc     rtw_modelmap_utils.obj
 0002:0000e410       ??_C@_1KI@OFELMGBG@?$AA?$CI?$AA?$CI?$AA?$CI?$AAd?$AAa?$AAt?$AAa?$AAT?$AAy?$AAp?$AAe?$AAM?$AAa?$AAp?$AA?$CJ?$AA?$FL?$AA?$CI?$AA?$CI?$AA?$CI?$AAs?$AAt?$AAa?$AAt?$AAe?$AAs?$AA?$CJ?$AA?$FL?$AA?$CI?$AAi?$AA?$CJ?$AA?$FN?$AA?4@ 1008a410     rtw_modelmap_utils.obj
 0002:0000e4dc       ??_C@_1DA@ILCMPHNE@?$AAf?$AAu?$AAl?$AAl?$AAP?$AAa?$AAt?$AAh?$AA?5?$AA?$CB?$AA?$DN?$AA?5?$AA?$CI?$AA?$CI?$AAv?$AAo?$AAi?$AAd?$AA?5?$AA?$CK?$AA?$CJ?$AA0?$AA?$CJ?$AA?$AA@ 1008a4dc     rtw_modelmap_utils.obj
 0002:0000e518       ??_C@_1CI@OEPPFCCA@?$AAp?$AAa?$AAt?$AAh?$AA?5?$AA?$CB?$AA?$DN?$AA?5?$AA?$CI?$AA?$CI?$AAv?$AAo?$AAi?$AAd?$AA?5?$AA?$CK?$AA?$CJ?$AA0?$AA?$CJ?$AA?$AA@ 1008a518     rtw_modelmap_utils.obj
 0002:0000e548       ??_C@_1FK@GLJIMFHB@?$AA?$CI?$AA?$CI?$AAm?$AAm?$AAi?$AA?$CJ?$AA?9?$AA?$DO?$AAI?$AAn?$AAs?$AAt?$AAa?$AAn?$AAc?$AAe?$AAM?$AAa?$AAp?$AA?4?$AAf?$AAu?$AAl?$AAl?$AAP?$AAa?$AAt?$AAh?$AA?$CJ?$AA?5?$AA?$DN?$AA?$DN@ 1008a548     rtw_modelmap_utils.obj
 0002:0000e5b4       ??_C@_1DG@HPCJGNCE@?$AAm?$AAm?$AAi?$AAP?$AAa?$AAt?$AAh?$AA?$FL?$AAp?$AAa?$AAt?$AAh?$AAL?$AAe?$AAn?$AA?9?$AA1?$AA?$FN?$AA?5?$AA?$DN?$AA?$DN?$AA?5?$AA?8?$AA?2?$AA0?$AA?8?$AA?$AA@ 1008a5b4     rtw_modelmap_utils.obj
 0002:0000e5f4       ??_C@_1DM@DBAOGGOO@?$AAm?$AAm?$AAi?$AAP?$AAa?$AAt?$AAh?$AA?$FL?$AAm?$AAm?$AAi?$AAP?$AAa?$AAt?$AAh?$AAL?$AAe?$AAn?$AA?9?$AA1?$AA?$FN?$AA?5?$AA?$DN?$AA?$DN?$AA?5?$AA?8?$AA?2?$AA0?$AA?8?$AA?$AA@ 1008a5f4     rtw_modelmap_utils.obj
 0002:0000e63c       ??_C@_1DC@LHIAKAFE@?$AAb?$AAl?$AAo?$AAc?$AAk?$AAP?$AAa?$AAt?$AAh?$AA?5?$AA?$CB?$AA?$DN?$AA?5?$AA?$CI?$AA?$CI?$AAv?$AAo?$AAi?$AAd?$AA?5?$AA?$CK?$AA?$CJ?$AA0?$AA?$CJ?$AA?$AA@ 1008a63c     rtw_modelmap_utils.obj
 0002:0000e678       ??_C@_1GI@KIEJKPGC@?$AAf?$AAu?$AAl?$AAl?$AAS?$AAt?$AAa?$AAt?$AAe?$AAB?$AAl?$AAo?$AAc?$AAk?$AAP?$AAa?$AAt?$AAh?$AA?$FL?$AAf?$AAu?$AAl?$AAl?$AAS?$AAt?$AAa?$AAt?$AAe?$AAB?$AAl?$AAo?$AAc@ 1008a678     rtw_modelmap_utils.obj
 0002:0000e6f8       ??_C@_1EE@DNPIBJHC@?$AA?$CI?$AA?$CI?$AAd?$AAi?$AAm?$AAM?$AAa?$AAp?$AA?$CJ?$AA?$FL?$AA?$CI?$AAm?$AAa?$AAp?$AAI?$AAd?$AAx?$AA?$CJ?$AA?$FN?$AA?4?$AAn?$AAu?$AAm?$AAD?$AAi?$AAm?$AAs?$AA?$CJ?$AA?5?$AA?$DN?$AA?$DN?$AA?5@ 1008a6f8     rtw_modelmap_utils.obj
 0002:0000e74c       ??_C@_06JFOKFOED@CSTATE?$AA@ 1008a74c     rtw_modelmap_utils.obj
 0002:0000e754       ??_C@_06FAENGAMN@DSTATE?$AA@ 1008a754     rtw_modelmap_utils.obj
 0002:0000e75c       ??_C@_1BI@LEBJNOGG@?$AAc?$AAs?$AAv?$AAI?$AAd?$AAx?$AA?5?$AA?$DO?$AA?$DN?$AA?5?$AA0?$AA?$AA@ 1008a75c     rtw_modelmap_utils.obj
 0002:0000e778       ??_C@_1BA@KDMGHCHP@?$AAT?$AAI?$AAD?$AA?$DN?$AA?$DN?$AA?9?$AA1?$AA?$AA@ 1008a778     rtw_modelmap_utils.obj
 0002:0000e78c       ??_C@_1DM@DHGKBPCE@?$AAs?$AAi?$AAg?$AAP?$AAa?$AAt?$AAh?$AA?$FL?$AAs?$AAi?$AAg?$AAP?$AAa?$AAt?$AAh?$AAL?$AAe?$AAn?$AA?9?$AA1?$AA?$FN?$AA?5?$AA?$DN?$AA?$DN?$AA?5?$AA?8?$AA?2?$AA0?$AA?8?$AA?$AA@ 1008a78c     rtw_modelmap_utils.obj
 0002:0000f038       ??_C@_0DJ@FHKINPLE@Unexpected?5itemKind?5?$DN?5DATA_ITEM?5@ 1008b038     rt_logging.obj
 0002:0000f07c       ??_C@_0DA@IEHFPFCJ@Unexpected?5itemKind?$DN?$CFd?5in?5rt_Pro@ 1008b07c     rt_logging.obj
 0002:0000f0b8       ??_C@_0DA@IFLHJPBO@Unexpected?5itemKind?$DN?$CFd?5in?5rt_Pro@ 1008b0b8     rt_logging.obj
 0002:0000f0f4       ??_C@_0DA@IAPIIJJL@Unexpected?5itemKind?$DN?$CFd?5in?5rt_Pro@ 1008b0f4     rt_logging.obj
 0002:0000f130       ??_C@_0BE@LCIGPJIG@MATLAB?55?40?5MAT?9file?$AA@ 1008b130     rt_logging.obj
 0002:0000f148       ??_C@_0FB@PCJEAJIB@?$CK?$CK?$CK?5Log?5variable?5?$CFs?5has?5wrapped?5@ 1008b148     rt_logging.obj
 0002:0000f1b0       ??_C@_0MG@NKMLMOGF@?$CK?$CK?$CK?5To?5avoid?5wrapping?0?5explicitl@ 1008b1b0     rt_logging.obj
 0002:0000f2a0       ??_C@_0N@IPAEOLLP@_rtw_tmw?4tmw?$AA@ 1008b2a0     rt_logging.obj
 0002:0000f2b0       ??_C@_04HDOCAJNK@?$CFs?$CFs?$AA@ 1008b2b0     rt_logging.obj
 0002:0000f2b8       ??_C@_03ELIABIOC@w?$CLb?$AA@ 1008b2b8     rt_logging.obj
 0002:0000f2bc       ??_C@_0BF@JPILDDFA@?$CK?$CK?$CK?5Error?5opening?5?$CFs?$AA@ 1008b2bc     rt_logging.obj
 0002:0000f2d8       ??_C@_0BK@EEMDELA@unable?5to?5open?5data?5file?6?$AA@ 1008b2d8     rt_logging.obj
 0002:0000f2f8       ??_C@_04CGFJFPFD@none?$AA@ 1008b2f8     rt_logging.obj
 0002:0000f300       ??_C@_0EE@LCGFPNON@?$CK?$CK?$CK?5Error?5creating?5signals?5struc@ 1008b300     rt_logging.obj
 0002:0000f354       ??_C@_0CE@NHECEDMK@?$CK?$CK?$CK?5Error?5creating?5log?5variable?5@ 1008b354     rt_logging.obj
 0002:0000f380       ??_C@_0DB@IOCGKAGH@?$CK?$CK?$CK?5Errors?5occurred?5when?5startin@ 1008b380     rt_logging.obj
 0002:0000f3bc       ??_C@_0BO@BBLOGEBK@?$CK?$CK?$CK?5Memory?5allocation?5error?4?6?$AA@ 1008b3bc     rt_logging.obj
 0002:0000f3e0       ??_C@_0N@LGFBAGEL@?5?$CIreal?5part?$CJ?$AA@ 1008b3e0     rt_logging.obj
 0002:0000f3f0       ??_C@_0KH@CGNMHNFE@?5?5?5?5varName?5?5?5?5?5?5?5?5?5?5?$DN?5?$CFs?$CFs?6?5?5?5?5@ 1008b3f0     rt_logging.obj
 0002:0000f4b8       ??_C@_0LE@OALKKEFM@?5?5?5?5varName?5?5?5?5?5?5?5?5?5?5?$DN?5?$CFs?5?$CIcompl@ 1008b4b8     rt_logging.obj
 0002:0000f590       ??_C@_0KF@JDDLEOKO@?5?5?5?5varName?5?5?5?5?5?5?5?5?5?5?$DN?5?$CFs?6?5?5?5?5nR@ 1008b590     rt_logging.obj
 0002:0000f658       ??_C@_0DP@HPDMIOFM@?$CK?$CK?$CK?5Using?5a?5default?5buffer?5of?5si@ 1008b658     rt_logging.obj
 0002:0000f6a8       ??_C@_0KE@JEFOLKNF@?6?$CK?$CK?$CK?5Memory?5required?5to?5log?5vari@ 1008b6a8     rt_logging.obj
 0002:0000f770       ??_C@_0JP@DKLMHCBI@?$CK?$CK?$CK?5Details?3?6?5?5?5?5?5?5?5varName?5?5?5?5?5@ 1008b770     rt_logging.obj
 0002:0000f830       ??_C@_0CM@CAMILBED@?$CK?$CK?$CK?5Error?5allocating?5memory?5for?5@ 1008b830     rt_logging.obj
 0002:0000f864       ??_C@_0DF@BBCNMOPM@?$CK?$CK?$CK?5Error?5allocating?5memory?5for?5@ 1008b864     rt_logging.obj
 0002:0000f8a8       ??_C@_0JP@DBCLPCCI@?$CK?$CK?$CK?5Details?3?6?5?5?5?5?5?5?5varName?5?5?5?5?5@ 1008b8a8     rt_logging.obj
 0002:0000f968       ??_C@_0FK@DPGAOBGA@?$CK?$CK?$CK?5Error?5allocating?5memory?5for?5@ 1008b968     rt_logging.obj
 0002:0000f9d4       ??_C@_0BI@GGDNPHLJ@?$CK?$CK?$CK?5Error?5writing?5to?5?$CFs?$AA@ 1008b9d4     rt_logging.obj
 0002:0000f9f0       ??_C@_0CB@IBGJGELG@?$CK?$CK?$CK?5Error?5writing?5?$CFs?5due?5to?3?5?$CFs?6@ 1008b9f0     rt_logging.obj
 0002:0000fa18       ??_C@_0CN@FLMCHCPB@?$CK?$CK?$CK?5Error?5writing?5log?5variable?5?$CF@ 1008ba18     rt_logging.obj
 0002:0000fa50       ??_C@_0DH@GAJCNOJP@?$CK?$CK?$CK?5Error?5writing?5structure?5log?5@ 1008ba50     rt_logging.obj
 0002:0000fa94       ??_C@_0BD@POEALECL@?$CK?$CK?5created?5?$CFs?5?$CK?$CK?6?6?$AA@ 1008ba94     rt_logging.obj
 0002:0000fab0       __real@41dfffffffc00000    1008bab0     rt_logging.obj
 0002:0000fac0       __real@41efffffffe00000    1008bac0     rt_logging.obj
 0002:0000fad0       __real@bfbf9add3afd2773    1008bad0     rt_logging.obj
 0002:0000fae0       __xmm@20202020202020202020202020202020 1008bae0     rt_logging.obj
 0002:0000faf4       _ptsetfilename             1008baf4     xpctarget.obj
 0002:0000faf8       _xmlfile                   1008baf8     xpctarget.obj
 0002:0000fb00       ??_C@_0BA@HFNGGPFP@Analog_Solution?$AA@ 1008bb00     xpctarget.obj
 0002:0000fb14       ??_C@_0L@CHBJKKFC@xpceSetVar?$AA@ 1008bb14     xpctarget.obj
 0002:0000fb24       ??_C@_03LADEHNAB@6?46?$AA@ 1008bb24     xpctarget.obj
 0002:0000fb28       _Analog_Solution_BIOMAP    1008bb28     appmappingData.obj
 0002:00010920       _Analog_Solution_LBLMAP    1008c920     appmappingData.obj
 0002:00011718       _Analog_Solution_SIDMAP    1008d718     appmappingData.obj
 0002:00012510       _Analog_Solution_SBIO      1008e510     appmappingData.obj
 0002:000129b8       _Analog_Solution_SLBL      1008e9b8     appmappingData.obj
 0002:00012e60       _Analog_Solution_PTIDSMAP  1008ee60     appmappingData.obj
 0002:00013c18       _Analog_Solution_PTNAMESMAP 1008fc18     appmappingData.obj
 0002:000149d0       _Analog_Solution_SPTMAP    100909d0     appmappingData.obj
 0002:000150b0       _Analog_Solution_dtmap     100910b0     appmappingData.obj
 0002:00015108       _appInfo                   10091108     appmappingData.obj
 0002:00016290       ??_C@_0ED@LKHIFFLC@Wrong?5number?5of?5input?5arguments?5@ 10092290     adnipcim.obj
 0002:000162e0       ??_C@_0CI@FOFDKLAN@NI?5?$CFs?3?5Can?8t?5allocate?5temporary?5@ 100922e0     adnipcim.obj
 0002:00016310       ??_C@_0CK@DCEGNCAL@NI?5M?5series?3?5Channel?5?$CFd?5out?5of?5r@ 10092310     adnipcim.obj
 0002:00016344       ??_C@_0CF@LKNEFAOG@NI?5M?5series?3?5Timeout?5waiting?5for@ 10092344     adnipcim.obj
 0002:00016370       __real@417312d000000000    10092370     adnipcim.obj
 0002:0001637c       ??_C@_0DB@HFHLNKLE@Channel?5?$CFd?5exceeds?5the?5max?5DA?5ch@ 1009237c     danipcim.obj
 0002:000163b8       ??_C@_0CL@GCJHHCMG@Output?5range?5?$CFd?5is?5not?5supported@ 100923b8     danipcim.obj
 0002:000163f0       ??_C@_0EL@INKCMHEI@Number?5of?5header?5lengths?5is?5not?5@ 100923f0     fiforeadhdr.obj
 0002:0001644c       ??_C@_0BL@KDJMFPJE@Malloc?5error?3?5fstr?5?$DN?50x?$CFx?6?$AA@ 1009244c     fiforeadhdr.obj
 0002:0001646c       ??_C@_0CJ@JOABIDGM@String?5is?5too?5large?5for?5output?5v@ 1009246c     fiforeadhdr.obj
 0002:000164a0       ??_C@_0BG@IFAFGHNA@Header?5?$CFd?0?5length?5?$CFd?6?$AA@ 100924a0     fiforeadhdr.obj
 0002:000164bc       ??_C@_02HAOIJKIC@?$CFc?$AA@ 100924bc     fiforeadhdr.obj
 0002:000164c0       ??_C@_0BP@DPILOFE@Can?8t?5allocate?5memory?5for?5fifo?$AA@ 100924c0     fifowrite.obj
 0002:000164e8       ??_C@_0BC@LNAFOLHA@FIFO?5overflow?3?5?$CFs?$AA@ 100924e8     fifowrite.obj
 0002:00016500       ??_C@_0DM@NHDMCGKF@Input?5port?5width?5is?5less?5than?5th@ 10092500     fifowrite.obj
 0002:00016548       ??_C@_0CF@PLHDIPPP@Port?5number?5exceeds?5input?5port?5c@ 10092548     filterqua.obj
 0002:00016574       ??_C@_0CD@JOLOIMLC@Iqueryqua?3?5Unknown?5board?5type?3?5?$CF@ 10092574     iqueryqua.obj
 0002:000165a0       ??_C@_0BN@JIEFLHEB@?$CFs?3?5Too?5many?5M?5series?5boards?$AA@ 100925a0     pfidonipcim.obj
 0002:000165c4       ??_C@_0DC@CECGIJCE@Attempted?5write?5to?5hardware?5fifo@ 100925c4     serwritequa.obj
 0002:00016600       ??_C@_0CN@GIADDCOF@Quatech?5modemcontrol?3?5Unknown?5bo@ 10092600     setupqua.obj
 0002:00016638       ??_C@_0CC@FIFFDAB@?$CFd?5input?5args?5expected?0?5?$CFd?5passe@ 10092638     xpcwalltime.obj
 0002:00016660       __real@3ee845c8a0ce5129    10092660     xpcwalltime.obj
 0002:00016670       __real@3fcdcd64ffffffff    10092670     xpcwalltime.obj
 0002:00016680       __real@40f5180000000000    10092680     xpcwalltime.obj
 0002:00016690       __real@41cdcd6500000000    10092690     xpcwalltime.obj
 0002:0001669c       ??_C@_0M@IMCLKBPP@NI?5PCI?96220?$AA@ 1009269c     xpcionim.obj
 0002:000166ac       ??_C@_0M@JFDAJALO@NI?5PCI?96221?$AA@ 100926ac     xpcionim.obj
 0002:000166bc       ??_C@_0P@NGCDCNKM@NI?5PCI?96221?137?$AA@ 100926bc     xpcionim.obj
 0002:000166d0       ??_C@_0M@OIEHGEPL@NI?5PCI?96224?$AA@ 100926d0     xpcionim.obj
 0002:000166e0       ??_C@_0M@PBFMFFLK@NI?5PCI?96225?$AA@ 100926e0     xpcionim.obj
 0002:000166f0       ??_C@_0M@FNOJBKLG@NI?5PCI?96229?$AA@ 100926f0     xpcionim.obj
 0002:00016700       ??_C@_0M@INOJMLMI@NI?5PCI?96230?$AA@ 10092700     xpcionim.obj
 0002:00016710       ??_C@_0M@LPNPKJEK@NI?5PCI?96232?$AA@ 10092710     xpcionim.obj
 0002:00016720       ??_C@_0M@KGMEJIAL@NI?5PCI?96233?$AA@ 10092720     xpcionim.obj
 0002:00016730       ??_C@_0M@NLLDGMEO@NI?5PCI?96236?$AA@ 10092730     xpcionim.obj
 0002:00016740       ??_C@_0M@EFDAEBMA@NI?5PCI?96238?$AA@ 10092740     xpcionim.obj
 0002:00016750       ??_C@_0M@FMCLHAIB@NI?5PCI?96239?$AA@ 10092750     xpcionim.obj
 0002:00016760       ??_C@_0M@IJGELHHK@NI?5PCI?96250?$AA@ 10092760     xpcionim.obj
 0002:00016770       ??_C@_0M@JAHPIGDL@NI?5PCI?96251?$AA@ 10092770     xpcionim.obj
 0002:00016780       ??_C@_0M@ONAIHCHO@NI?5PCI?96254?$AA@ 10092780     xpcionim.obj
 0002:00016790       ??_C@_0M@PEBDEDDP@NI?5PCI?96255?$AA@ 10092790     xpcionim.obj
 0002:000167a0       ??_C@_0M@FIKGAMDD@NI?5PCI?96259?$AA@ 100927a0     xpcionim.obj
 0002:000167b0       ??_C@_0M@IBLMCECJ@NI?5PCI?96280?$AA@ 100927b0     xpcionim.obj
 0002:000167c0       ??_C@_0M@JIKHBFGI@NI?5PCI?96281?$AA@ 100927c0     xpcionim.obj
 0002:000167d0       ??_C@_0M@OFNAOBCN@NI?5PCI?96284?$AA@ 100927d0     xpcionim.obj
 0002:000167e0       ??_C@_0M@FAHOJPGA@NI?5PCI?96289?$AA@ 100927e0     xpcionim.obj
 0002:000167f0       ??_C@_0CI@NFFNBHJA@?$CFs?5?$CIbus?5?$CFd?0?5slot?5?$CFd?$CJ?3?5board?5not?5@ 100927f0     xpcionim.obj
 0002:00016820       ??_C@_0CD@MBDNCLAI@NI?5M?5series?3?5Unknown?5board?5type?5@ 10092820     xpcionim.obj
 0002:0001684c       ??_C@_0BA@JKKBADJB@Quatech?5QSC?9100?$AA@ 1009284c     quatechinit.obj
 0002:00016860       ??_C@_0BA@GCFADMEA@Quatech?5ESC?9100?$AA@ 10092860     quatechinit.obj
 0002:00016874       ??_C@_0BE@HENBPEHA@Quatech?5QSC?9200?1300?$AA@ 10092874     quatechinit.obj
 0002:0001688c       ??_C@_0BF@FBNBGCCE@Quatech?5DSCP?9200?1300?$AA@ 1009288c     quatechinit.obj
 0002:000168a8       ??_C@_0CH@MBGHNPGI@?$CFs?5?$CIbus?5?$CFd?0slot?5?$CFd?$CJ?3?5board?5not?5p@ 100928a8     quatechinit.obj
 0002:000168d8       ??_C@_0CC@DMFKNLL@VendorId?5?$DN?50x?$CFx?0?5DeviceId?5?$DN?50x?$CFx@ 100928d8     xpcruntime:xpcimports.obj
 0002:00016900       ??_C@_0DH@OHCBLNMG@Subsystem?5Device?5ID?5?$DN?50x?$CFx?6Subsy@ 10092900     xpcruntime:xpcimports.obj
 0002:00016944       ??_C@_0BD@MMMMEFCM@Class?5Code?5?$DN?50x?$CFx?6?$AA@ 10092944     xpcruntime:xpcimports.obj
 0002:0001695c       ??_C@_0BE@OLDDDNHM@InterruptLine?5?$DN?5?$CFd?6?$AA@ 1009295c     xpcruntime:xpcimports.obj
 0002:00016974       ??_C@_0BF@OLKLEKBD@bus?5?$DN?5?$CFd?0?5slot?5?$DN?5?$CFd?6?$AA@ 10092974     xpcruntime:xpcimports.obj
 0002:00016990       ??_C@_0CE@DGLLGDFH@?5?5?5?5Phys?5?5?5Virtual?5?5?5Length?5IO?1M@ 10092990     xpcruntime:xpcimports.obj
 0002:000169bc       ??_C@_0BI@FEOPLEMG@?$CF08x?5?$CF08x?5?$CF08x?5?5?5?5?5?5?$CFc?6?$AA@ 100929bc     xpcruntime:xpcimports.obj
 0002:000169d8       ??_C@_0BB@BNNCEDPC@rl32eScopeExists?$AA@ 100929d8     xpcruntime:xpcimports.obj
 0002:000169ec       ??_C@_0BM@FJBFEGFG@rl32eScopeExists?5not?5found?6?$AA@ 100929ec     xpcruntime:xpcimports.obj
 0002:00016a10       ??_C@_0O@BNNGKJEA@rl32eDefScope?$AA@ 10092a10     xpcruntime:xpcimports.obj
 0002:00016a20       ??_C@_0BJ@CDNOENKA@rl32eDefScope?5not?5found?6?$AA@ 10092a20     xpcruntime:xpcimports.obj
 0002:00016a40       ??_C@_0P@CKNKILDP@rl32eAddSignal?$AA@ 10092a40     xpcruntime:xpcimports.obj
 0002:00016a54       ??_C@_0BK@GMJAJBAI@rl32eAddSignal?5not?5found?6?$AA@ 10092a54     xpcruntime:xpcimports.obj
 0002:00016a74       ??_C@_0BB@LDMIHGCE@rl32eGetSignalNo?$AA@ 10092a74     xpcruntime:xpcimports.obj
 0002:00016a88       ??_C@_0BM@LGAMBAID@rl32eGetSignalNo?5not?5found?6?$AA@ 10092a88     xpcruntime:xpcimports.obj
 0002:00016aac       ??_C@_0O@CFDGALBP@rl32eSetScope?$AA@ 10092aac     xpcruntime:xpcimports.obj
 0002:00016abc       ??_C@_0BJ@JCLHHIN@rl32eSetScope?5not?5found?6?$AA@ 10092abc     xpcruntime:xpcimports.obj
 0002:00016adc       ??_C@_0P@IKMCBMHH@xpceFSScopeSet?$AA@ 10092adc     xpcruntime:xpcimports.obj
 0002:00016af0       ??_C@_0BK@JODJPNNH@xpceFSScopeSet?5not?5found?6?$AA@ 10092af0     xpcruntime:xpcimports.obj
 0002:00016b10       ??_C@_0BE@DLACEEJM@rl32eSetTargetScope?$AA@ 10092b10     xpcruntime:xpcimports.obj
 0002:00016b28       ??_C@_0BP@JCHFMKPJ@rl32eSetTargetScope?5not?5found?6?$AA@ 10092b28     xpcruntime:xpcimports.obj
 0002:00016b50       ??_C@_0BJ@LIDLNDHC@rl32eSetTargetScopeSigFt?$AA@ 10092b50     xpcruntime:xpcimports.obj
 0002:00016b70       ??_C@_0CE@JLGHCFHI@rl32eSetTargetScopeSigFt?5not?5fou@ 10092b70     xpcruntime:xpcimports.obj
 0002:00016b9c       ??_C@_0BI@JAPOIDNG@rl32eRestartAcquisition?$AA@ 10092b9c     xpcruntime:xpcimports.obj
 0002:00016bb8       ??_C@_0CD@LLBEFFBO@rl32eRestartAcquisition?5not?5foun@ 10092bb8     xpcruntime:xpcimports.obj
 0002:00016be4       ??_C@_0P@IEIIADJB@xpceScopeAcqOK?$AA@ 10092be4     xpcruntime:xpcimports.obj
 0002:00016bf8       ??_C@_0BK@NJCKNFPN@xpceScopeAcqOK?5not?5found?6?$AA@ 10092bf8     xpcruntime:xpcimports.obj
 0002:00016c18       ??_C@_0BA@IJINKAHF@xpceRegisterISR?$AA@ 10092c18     xpcruntime:xpcimports.obj
 0002:00016c2c       ??_C@_0BL@NNDLOEJE@xpceRegisterISR?5not?5found?6?$AA@ 10092c2c     xpcruntime:xpcimports.obj
 0002:00016c4c       ??_C@_0BC@NLBADGKF@xpceDeRegisterISR?$AA@ 10092c4c     xpcruntime:xpcimports.obj
 0002:00016c64       ??_C@_0BN@DCAIKFFD@xpceDeRegisterISR?5not?5found?6?$AA@ 10092c64     xpcruntime:xpcimports.obj
 0002:00016c88       ??_C@_07JPMEPILD@xpcInpB?$AA@ 10092c88     xpcruntime:xpcimports.obj
 0002:00016c94       ??_C@_0BD@PGABEJOL@xpcInpB?5not?5found?6?$AA@ 10092c94     xpcruntime:xpcimports.obj
 0002:00016cac       ??_C@_07KIHBBOKH@xpcInpW?$AA@ 10092cac     xpcruntime:xpcimports.obj
 0002:00016cb8       ??_C@_0BD@FPCJFMCC@xpcInpW?5not?5found?6?$AA@ 10092cb8     xpcruntime:xpcimports.obj
 0002:00016cd0       ??_C@_08KDIAJBOP@xpcInpDW?$AA@ 10092cd0     xpcruntime:xpcimports.obj
 0002:00016cdc       ??_C@_0BE@PIELDNIL@xpcInpDW?5not?5found?6?$AA@ 10092cdc     xpcruntime:xpcimports.obj
 0002:00016cf4       ??_C@_08PJFMOIGO@xpcOutpB?$AA@ 10092cf4     xpcruntime:xpcimports.obj
 0002:00016d00       ??_C@_0BE@HCKNCEKF@xpcOutpB?5not?5found?6?$AA@ 10092d00     xpcruntime:xpcimports.obj
 0002:00016d18       ??_C@_08MOOJAOHK@xpcOutpW?$AA@ 10092d18     xpcruntime:xpcimports.obj
 0002:00016d24       ??_C@_0BE@NLIFDBGM@xpcOutpW?5not?5found?6?$AA@ 10092d24     xpcruntime:xpcimports.obj
 0002:00016d3c       ??_C@_09FLIEKHJG@xpcOutpDW?$AA@ 10092d3c     xpcruntime:xpcimports.obj
 0002:00016d48       ??_C@_0BF@GJKLPNHB@xpcOutpDW?5not?5found?6?$AA@ 10092d48     xpcruntime:xpcimports.obj
 0002:00016d64       ??_C@_0BH@EHOLELHH@xpcReserveMemoryRegion?$AA@ 10092d64     xpcruntime:xpcimports.obj
 0002:00016d80       ??_C@_0CC@KAAAGPI@xpcReserveMemoryRegion?5not?5found@ 10092d80     xpcruntime:xpcimports.obj
 0002:00016da8       ??_C@_0BA@JGPMHGAF@rl32eShowPCIDev?$AA@ 10092da8     xpcruntime:xpcimports.obj
 0002:00016dbc       ??_C@_0BL@DDFFLNHI@rl32eShowPCIDev?5not?5found?6?$AA@ 10092dbc     xpcruntime:xpcimports.obj
 0002:00016ddc       ??_C@_0BB@KBCOJPFB@rl32eShowPCIInfo?$AA@ 10092ddc     xpcruntime:xpcimports.obj
 0002:00016df0       ??_C@_0BM@IFDMAGLO@rl32eShowPCIInfo?5not?5found?6?$AA@ 10092df0     xpcruntime:xpcimports.obj
 0002:00016e14       ??_C@_0BA@BGPAADB@rl32eGetPCIInfo?$AA@ 10092e14     xpcruntime:xpcimports.obj
 0002:00016e28       ??_C@_0BL@IGOMLDCK@rl32eGetPCIInfo?5not?5found?6?$AA@ 10092e28     xpcruntime:xpcimports.obj
 0002:00016e48       ??_C@_0BG@NJPFKFDP@rl32eGetPCIInfoAtSlot?$AA@ 10092e48     xpcruntime:xpcimports.obj
 0002:00016e64       ??_C@_0CB@BBKIPMLA@rl32eGetPCIInfoAtSlot?5not?5found?6@ 10092e64     xpcruntime:xpcimports.obj
 0002:00016e8c       ??_C@_0BH@OKBOPNFG@xpceAssignPCIInterrupt?$AA@ 10092e8c     xpcruntime:xpcimports.obj
 0002:00016ea8       ??_C@_0CC@CDNDNJBJ@xpceAssignPCIInterrupt?5not?5found@ 10092ea8     xpcruntime:xpcimports.obj
 0002:00016ed0       ??_C@_0BD@PCKOKHO@xpceGetSignalValue?$AA@ 10092ed0     xpcruntime:xpcimports.obj
 0002:00016ee8       ??_C@_0BO@GCBDJHMB@xpceGetSignalValue?5not?5found?6?$AA@ 10092ee8     xpcruntime:xpcimports.obj
 0002:00016f0c       ??_C@_0BB@BJONJAGA@xpceSetParameter?$AA@ 10092f0c     xpcruntime:xpcimports.obj
 0002:00016f20       ??_C@_0BM@BJIKDLHA@xpceSetParameter?5not?5found?6?$AA@ 10092f20     xpcruntime:xpcimports.obj
 0002:00016f44       ??_C@_0BB@GNFDFMCM@xpceGetParameter?$AA@ 10092f44     xpcruntime:xpcimports.obj
 0002:00016f58       ??_C@_0BM@POHNKBC@xpceGetParameter?5not?5found?6?$AA@ 10092f58     xpcruntime:xpcimports.obj
 0002:00016f7c       ??_C@_0BB@CEIJLFCD@xpceGetParamDims?$AA@ 10092f7c     xpcruntime:xpcimports.obj
 0002:00016f90       ??_C@_0BM@OABDBKAO@xpceGetParamDims?5not?5found?6?$AA@ 10092f90     xpcruntime:xpcimports.obj
 0002:00016fb4       ??_C@_0L@OCBLLHBM@xpceGetTET?$AA@ 10092fb4     xpcruntime:xpcimports.obj
 0002:00016fc4       ??_C@_0BG@HNOFBOB@xpceGetTET?5not?5found?6?$AA@ 10092fc4     xpcruntime:xpcimports.obj
 0002:00016fe0       ??_C@_0P@OKGNGAGH@xpcIsModelInit?$AA@ 10092fe0     xpcruntime:xpcimports.obj
 0002:00016ff4       ??_C@_0BK@DHEMLBIM@xpcIsModelInit?5not?5found?6?$AA@ 10092ff4     xpcruntime:xpcimports.obj
 0002:00017014       ??_C@_0BH@KJJLCAOJ@xpcAllocPhysicalMemory?$AA@ 10093014     xpcruntime:xpcimports.obj
 0002:00017030       ??_C@_0CC@MOJPNHKL@xpcAllocPhysicalMemory?5not?5found@ 10093030     xpcruntime:xpcimports.obj
 0002:00017058       ??_C@_0BG@CBNPGAEL@xpcFreePhysicalMemory?$AA@ 10093058     xpcruntime:xpcimports.obj
 0002:00017074       ??_C@_0CB@PKJEBPOG@xpcFreePhysicalMemory?5not?5found?6@ 10093074     xpcruntime:xpcimports.obj
 0002:0001709c       ??_C@_0BC@JGKNLICL@xpcGetElapsedTime?$AA@ 1009309c     xpcruntime:xpcimports.obj
 0002:000170b4       ??_C@_0BN@OEOAHCIO@xpcGetElapsedTime?5not?5found?6?$AA@ 100930b4     xpcruntime:xpcimports.obj
 0002:000170d8       ??_C@_0M@ICBLMODA@xpcBusyWait?$AA@ 100930d8     xpcruntime:xpcimports.obj
 0002:000170e8       ??_C@_0BH@FBOPECBI@xpcBusyWait?5not?5found?6?$AA@ 100930e8     xpcruntime:xpcimports.obj
 0002:00017104       ??_C@_0N@LKKJEKKA@TBCreateSpin?$AA@ 10093104     xpcruntime:xpcimports.obj
 0002:00017114       ??_C@_0BI@FHKMLKOE@TBCreateSpin?5not?5found?6?$AA@ 10093114     xpcruntime:xpcimports.obj
 0002:00017130       ??_C@_0N@HOAJHNBD@TBDeleteSpin?$AA@ 10093130     xpcruntime:xpcimports.obj
 0002:00017140       ??_C@_0BI@BKCPAAG@TBDeleteSpin?5not?5found?6?$AA@ 10093140     xpcruntime:xpcimports.obj
 0002:0001715c       ??_C@_0P@DAHDDBJG@TBTakeSpinFast?$AA@ 1009315c     xpcruntime:xpcimports.obj
 0002:00017170       ??_C@_0BK@NKAIBHGB@TBTakeSpinFast?5not?5found?6?$AA@ 10093170     xpcruntime:xpcimports.obj
 0002:00017190       ??_C@_0P@FKNAAELA@TBGiveSpinFast?$AA@ 10093190     xpcruntime:xpcimports.obj
 0002:000171a4       ??_C@_0BK@KGPJBJND@TBGiveSpinFast?5not?5found?6?$AA@ 100931a4     xpcruntime:xpcimports.obj
 0002:000171c4       ??_C@_0BE@IIGBFDHK@xpceCreateSemaphore?$AA@ 100931c4     xpcruntime:xpcimports.obj
 0002:000171dc       ??_C@_0BP@KFBAFFKJ@xpceCreateSemaphore?5not?5found?6?$AA@ 100931dc     xpcruntime:xpcimports.obj
 0002:00017204       ??_C@_0BC@IFNIONKJ@xpceWaitSemaphore?$AA@ 10093204     xpcruntime:xpcimports.obj
 0002:0001721c       ??_C@_0BN@NMFAADIO@xpceWaitSemaphore?5not?5found?6?$AA@ 1009321c     xpcruntime:xpcimports.obj
 0002:00017240       ??_C@_0BE@NNDIOBKE@xpceSignalSemaphore?$AA@ 10093240     xpcruntime:xpcimports.obj
 0002:00017258       ??_C@_0BP@LBANMHJP@xpceSignalSemaphore?5not?5found?6?$AA@ 10093258     xpcruntime:xpcimports.obj
 0002:00017280       ??_C@_0BE@MEBEKOIM@xpceDeleteSemaphore?$AA@ 10093280     xpcruntime:xpcimports.obj
 0002:00017298       ??_C@_0BP@OFNCKOJH@xpceDeleteSemaphore?5not?5found?6?$AA@ 10093298     xpcruntime:xpcimports.obj
 0002:000172c0       ??_C@_0BD@MFNDMBOF@FindUsbVideoDevice?$AA@ 100932c0     xpcruntime:xpcimports.obj
 0002:000172d8       ??_C@_0BO@POKLDHMI@FindUsbVideoDevice?5not?5found?6?$AA@ 100932d8     xpcruntime:xpcimports.obj
 0002:000172fc       ??_C@_0BA@PLPAPNAB@GetVideoConfigs?$AA@ 100932fc     xpcruntime:xpcimports.obj
 0002:00017310       ??_C@_0BL@DALDHKHC@GetVideoConfigs?5not?5found?6?$AA@ 10093310     xpcruntime:xpcimports.obj
 0002:00017330       ??_C@_0L@GBAEMHMH@StartVideo?$AA@ 10093330     xpcruntime:xpcimports.obj
 0002:00017340       ??_C@_0BG@HDCELEBP@StartVideo?5not?5found?6?$AA@ 10093340     xpcruntime:xpcimports.obj
 0002:0001735c       ??_C@_0BA@FDNPOCLN@ReadFrameBuffer?$AA@ 1009335c     xpcruntime:xpcimports.obj
 0002:00017370       ??_C@_0BL@JHGHPNBI@ReadFrameBuffer?5not?5found?6?$AA@ 10093370     xpcruntime:xpcimports.obj
 0002:00017390       ??_C@_09FAHCLKAG@StopVideo?$AA@ 10093390     xpcruntime:xpcimports.obj
 0002:0001739c       ??_C@_0BF@NKGKKADL@StopVideo?5not?5found?6?$AA@ 1009339c     xpcruntime:xpcimports.obj
 0002:000173b8       ??_C@_0O@MCPKDLLL@ConvertUImage?$AA@ 100933b8     xpcruntime:xpcimports.obj
 0002:000173c8       ??_C@_0BJ@PHJKOAFL@ConvertUImage?5not?5found?6?$AA@ 100933c8     xpcruntime:xpcimports.obj
 0002:000173e8       ??_C@_0BD@NKCBPBJJ@CreateVideoDisplay?$AA@ 100933e8     xpcruntime:xpcimports.obj
 0002:00017400       ??_C@_0BO@HPPLLNFP@CreateVideoDisplay?5not?5found?6?$AA@ 10093400     xpcruntime:xpcimports.obj
 0002:00017424       ??_C@_0BE@KJCKGPHA@DestroyVideoDisplay?$AA@ 10093424     xpcruntime:xpcimports.obj
 0002:0001743c       ??_C@_0BP@FMGLJAIJ@DestroyVideoDisplay?5not?5found?6?$AA@ 1009343c     xpcruntime:xpcimports.obj
 0002:00017464       ??_C@_0BC@HCMIMIDN@StartVideoDisplay?$AA@ 10093464     xpcruntime:xpcimports.obj
 0002:0001747c       ??_C@_0BN@EFIEBGOO@StartVideoDisplay?5not?5found?6?$AA@ 1009347c     xpcruntime:xpcimports.obj
 0002:000174a0       ??_C@_0BB@JBBLMILG@StopVideoDisplay?$AA@ 100934a0     xpcruntime:xpcimports.obj
 0002:000174b4       ??_C@_0BM@DBJBPLEL@StopVideoDisplay?5not?5found?6?$AA@ 100934b4     xpcruntime:xpcimports.obj
 0002:000174d8       ??_C@_0M@MFJEGMHC@StreamVideo?$AA@ 100934d8     xpcruntime:xpcimports.obj
 0002:000174e8       ??_C@_0BH@OINCDMLA@StreamVideo?5not?5found?6?$AA@ 100934e8     xpcruntime:xpcimports.obj
 0002:00017504       ??_C@_0N@IGGLCIGE@xpceaddEvent?$AA@ 10093504     xpcruntime:xpcimports.obj
 0002:00017514       ??_C@_0BI@NHJNFMKH@xpceaddEvent?5not?5found?6?$AA@ 10093514     xpcruntime:xpcimports.obj
 0002:00017530       ??_C@_0BB@HDPOIJAB@xpceDAQPostEvent?$AA@ 10093530     xpcruntime:xpcimports.obj
 0002:00017544       ??_C@_0BM@IHANBKGN@xpceDAQPostEvent?5not?5found?6?$AA@ 10093544     xpcruntime:xpcimports.obj
 0002:00017568       ??_C@_0BH@MBACMOD@xpceDAQUpdateTimeStamp?$AA@ 10093568     xpcruntime:xpcimports.obj
 0002:00017584       ??_C@_0CC@DAKBBINL@xpceDAQUpdateTimeStamp?5not?5found@ 10093584     xpcruntime:xpcimports.obj
 0002:000175ac       ??_C@_0BN@HJOHIFOM@xpceGetIntTimerGranularityNS?$AA@ 100935ac     xpcruntime:xpcimports.obj
 0002:000175d0       ??_C@_0CI@OADDPMKB@xpceGetIntTimerGranularityNS?5not@ 100935d0     xpcruntime:xpcimports.obj
 0002:00017600       ??_C@_0BG@CCHICKPN@slrteSetStepSizeDelta?$AA@ 10093600     xpcruntime:xpcimports.obj
 0002:0001761c       ??_C@_0CB@MKHINEIJ@slrteSetStepSizeDelta?5not?5found?6@ 1009361c     xpcruntime:xpcimports.obj
 0002:00017644       ??_C@_0BI@CLNBLDKJ@slrteGetCurrentStepSize?$AA@ 10093644     xpcruntime:xpcimports.obj
 0002:00017660       ??_C@_0CD@GIOJPGJA@slrteGetCurrentStepSize?5not?5foun@ 10093660     xpcruntime:xpcimports.obj
 0002:0001768c       ??_C@_0BE@FCLCBOC@registerPTPTimeRead?$AA@ 1009368c     xpcruntime:xpcimports.obj
 0002:000176a4       ??_C@_0BP@LHPKAJIP@registerPTPTimeRead?5not?5found?6?$AA@ 100936a4     xpcruntime:xpcimports.obj
 0002:000176cc       ??_C@_0BG@KIGCDDJI@unRegisterPTPTimeRead?$AA@ 100936cc     xpcruntime:xpcimports.obj
 0002:000176e8       ??_C@_0CB@MLFFBFCM@unRegisterPTPTimeRead?5not?5found?6@ 100936e8     xpcruntime:xpcimports.obj
 0002:00017710       ??_C@_0BB@IPMDDBHK@slTestInitialize?$AA@ 10093710     xpcruntime:xpcimports.obj
 0002:00017724       ??_C@_0BM@LAJFCCJH@slTestInitialize?5not?5found?6?$AA@ 10093724     xpcruntime:xpcimports.obj
 0002:00017748       ??_C@_0BF@OOMPMEBC@slTestLogAssessments?$AA@ 10093748     xpcruntime:xpcimports.obj
 0002:00017764       ??_C@_0CA@FGJCEBAG@slTestLogAssessments?5not?5found?6?$AA@ 10093764     xpcruntime:xpcimports.obj
 0002:0001778c       ??_C@_0BB@HJHKONHO@slTestEvalOnFail?$AA@ 1009378c     xpcruntime:xpcimports.obj
 0002:000177a0       ??_C@_0BM@JIKCFFNJ@slTestEvalOnFail?5not?5found?6?$AA@ 100937a0     xpcruntime:xpcimports.obj
 0002:000177c4       ??_C@_0BA@LBHLABFP@slTestTerminate?$AA@ 100937c4     xpcruntime:xpcimports.obj
 0002:000177d8       ??_C@_0BL@EMFGKAPA@slTestTerminate?5not?5found?6?$AA@ 100937d8     xpcruntime:xpcimports.obj
 0002:000177f8       ??_C@_0BE@JPNPBBEO@slTestRegAssessment?$AA@ 100937f8     xpcruntime:xpcimports.obj
 0002:00017810       ??_C@_0BP@FBDEJJJH@slTestRegAssessment?5not?5found?6?$AA@ 10093810     xpcruntime:xpcimports.obj
 0002:00017838       ??_C@_0O@NCLGDNIB@slrteSetupMSI?$AA@ 10093838     xpcruntime:xpcimports.obj
 0002:00017848       ??_C@_0BJ@HEFMECLM@slrteSetupMSI?5not?5found?6?$AA@ 10093848     xpcruntime:xpcimports.obj
 0002:00017868       ??_C@_0BH@BPOLALHD@slrtGetCRBScratchSpace?$AA@ 10093868     xpcruntime:xpcimports.obj
 0002:00017884       ??_C@_0CC@KCKAJKKJ@slrtGetCRBScratchSpace?5not?5found@ 10093884     xpcruntime:xpcimports.obj
 0002:000178ac       ??_C@_0BC@MKFDAKOL@slrtGetSgCRBSpace?$AA@ 100938ac     xpcruntime:xpcimports.obj
 0002:000178c4       ??_C@_0BN@JDPHPLHL@slrtGetSgCRBSpace?5not?5found?6?$AA@ 100938c4     xpcruntime:xpcimports.obj
 0002:000178e8       ??_C@_0P@EPAPKLIF@slrtfsOpenFile?$AA@ 100938e8     xpcruntime:xpcimports.obj
 0002:000178fc       ??_C@_0BK@FIHCBOHG@slrtfsOpenFile?5not?5found?6?$AA@ 100938fc     xpcruntime:xpcimports.obj
 0002:0001791c       ??_C@_0BA@LILAFDDL@slrtfsCloseFile?$AA@ 1009391c     xpcruntime:xpcimports.obj
 0002:00017930       ??_C@_0BL@DEGHJFIB@slrtfsCloseFile?5not?5found?6?$AA@ 10093930     xpcruntime:xpcimports.obj
 0002:00017950       ??_C@_0BC@OKMJDIEH@slrtfsWriteToFile?$AA@ 10093950     xpcruntime:xpcimports.obj
 0002:00017968       ??_C@_0BN@KCFLCLAH@slrtfsWriteToFile?5not?5found?6?$AA@ 10093968     xpcruntime:xpcimports.obj
 0002:0001798c       ??_C@_0BK@GIPNFFFF@slrtfsGetFileErrorMessage?$AA@ 1009398c     xpcruntime:xpcimports.obj
 0002:000179ac       ??_C@_0CF@BCBLMKLE@slrtfsGetFileErrorMessage?5not?5fo@ 100939ac     xpcruntime:xpcimports.obj
 0002:000179d8       ??_C@_0BD@ICBOKMK@slrtfsGetFileError?$AA@ 100939d8     xpcruntime:xpcimports.obj
 0002:000179f0       ??_C@_0BO@FNBANAE@slrtfsGetFileError?5not?5found?6?$AA@ 100939f0     xpcruntime:xpcimports.obj
 0002:00017a14       ??_C@_0BE@PPAJMHJP@slrtfsOpenFileAsync?$AA@ 10093a14     xpcruntime:xpcimports.obj
 0002:00017a2c       ??_C@_0BP@HKBMMJOK@slrtfsOpenFileAsync?5not?5found?6?$AA@ 10093a2c     xpcruntime:xpcimports.obj
 0002:00017a54       ??_C@_0BF@IGNDIBPF@slrtfsCloseFileAsync?$AA@ 10093a54     xpcruntime:xpcimports.obj
 0002:00017a70       ??_C@_0CA@GJPFDBKN@slrtfsCloseFileAsync?5not?5found?6?$AA@ 10093a70     xpcruntime:xpcimports.obj
 0002:00017a98       ??_C@_0BE@IOLEBNB@slrtfsGetFileStatus?$AA@ 10093a98     xpcruntime:xpcimports.obj
 0002:00017ab0       ??_C@_0BP@PEFHDGHL@slrtfsGetFileStatus?5not?5found?6?$AA@ 10093ab0     xpcruntime:xpcimports.obj
 0002:00017ad8       ??_C@_0M@HKIJIMG@slrtfsFread?$AA@ 10093ad8     xpcruntime:xpcimports.obj
 0002:00017ae8       ??_C@_0BH@OOKBGONO@slrtfsFread?5not?5found?6?$AA@ 10093ae8     xpcruntime:xpcimports.obj
 0002:00017b04       ??_C@_0BE@OGCMPLAP@slrtGetDefaultDrive?$AA@ 10093b04     xpcruntime:xpcimports.obj
 0002:00017b1c       ??_C@_0BP@HKFGLHOE@slrtGetDefaultDrive?5not?5found?6?$AA@ 10093b1c     xpcruntime:xpcimports.obj
 0002:00017b44       ??_C@_0N@NAJIKFFI@slrtLogEvent?$AA@ 10093b44     xpcruntime:xpcimports.obj
 0002:00017b54       ??_C@_0BI@NKCEACND@slrtLogEvent?5not?5found?6?$AA@ 10093b54     xpcruntime:xpcimports.obj
 0002:00017b70       ??_C@_0N@IDKFJOHI@getlasterror?$AA@ 10093b70     xpcruntime:xpcimports.obj
 0002:00017b80       ??_C@_0BI@MIHMCHGL@getlasterror?5not?5found?6?$AA@ 10093b80     xpcruntime:xpcimports.obj
 0002:00017b9c       ??_C@_0P@OKHGKJKN@geterrorstring?$AA@ 10093b9c     xpcruntime:xpcimports.obj
 0002:00017bb0       ??_C@_0BK@NOHFDMLP@geterrorstring?5not?5found?6?$AA@ 10093bb0     xpcruntime:xpcimports.obj
 0002:00017bd0       ??_C@_0BD@HNFFKMGJ@slrtGetCPUTCelsius?$AA@ 10093bd0     xpcruntime:xpcimports.obj
 0002:00017be8       ??_C@_0BO@LHBFKLIH@slrtGetCPUTCelsius?5not?5found?6?$AA@ 10093be8     xpcruntime:xpcimports.obj
 0002:00017c0c       ??_C@_0M@OONCNCLM@slrtWarning?$AA@ 10093c0c     xpcruntime:xpcimports.obj
 0002:00017c1c       ??_C@_0BH@ICKGIEMB@slrtWarning?5not?5found?6?$AA@ 10093c1c     xpcruntime:xpcimports.obj
 0002:00017c38       ??_C@_0N@EAAOMIIE@isUsedByRTIP?$AA@ 10093c38     xpcruntime:xpcimports.obj
 0002:00017c48       ??_C@_0BI@GNHHHICK@isUsedByRTIP?5not?5found?6?$AA@ 10093c48     xpcruntime:xpcimports.obj
 0002:00017c64       ??_C@_0BC@HLDKJAG@SetIPTASKPriority?$AA@ 10093c64     xpcruntime:xpcimports.obj
 0002:00017c7c       ??_C@_0BN@OGKMHHAE@SetIPTASKPriority?5not?5found?6?$AA@ 10093c7c     xpcruntime:xpcimports.obj
 0002:00017ca0       ??_C@_0O@LHENMBDD@OpenInterface?$AA@ 10093ca0     xpcruntime:xpcimports.obj
 0002:00017cb0       ??_C@_0BJ@PFGDBKHB@OpenInterface?5not?5found?6?$AA@ 10093cb0     xpcruntime:xpcimports.obj
 0002:00017cd0       ??_C@_0P@IINFELKD@CloseInterface?$AA@ 10093cd0     xpcruntime:xpcimports.obj
 0002:00017ce4       ??_C@_0BK@PAPDNDBK@CloseInterface?5not?5found?6?$AA@ 10093ce4     xpcruntime:xpcimports.obj
 0002:00017d04       ??_C@_05LEFIAAOI@SetIP?$AA@ 10093d04     xpcruntime:xpcimports.obj
 0002:00017d0c       ??_C@_0BB@CGLIBAMM@SetIP?5not?5found?6?$AA@ 10093d0c     xpcruntime:xpcimports.obj
 0002:00017d20       ??_C@_0BA@HIJJHHMD@AddGatewayRoute?$AA@ 10093d20     xpcruntime:xpcimports.obj
 0002:00017d34       ??_C@_0BL@BFCFMDMN@AddGatewayRoute?5not?5found?6?$AA@ 10093d34     xpcruntime:xpcimports.obj
 0002:00017d54       ??_C@_0M@PHMABFPI@DeleteRoute?$AA@ 10093d54     xpcruntime:xpcimports.obj
 0002:00017d64       ??_C@_0BH@JPJGLLID@DeleteRoute?5not?5found?6?$AA@ 10093d64     xpcruntime:xpcimports.obj
 0002:00017d80       ??_C@_0BA@FCDIMKIJ@GetHostTarIPAdd?$AA@ 10093d80     xpcruntime:xpcimports.obj
 0002:00017d94       ??_C@_0BL@MBKDGKBO@GetHostTarIPAdd?5not?5found?6?$AA@ 10093d94     xpcruntime:xpcimports.obj
 0002:00017db4       ??_C@_0M@HPMIPIBI@GetDCUUsage?$AA@ 10093db4     xpcruntime:xpcimports.obj
 0002:00017dc4       ??_C@_0BH@EBLJKCJC@GetDCUUsage?5not?5found?6?$AA@ 10093dc4     xpcruntime:xpcimports.obj
 0002:00017de0       ??_C@_06MPKMECK@accept?$AA@ 10093de0     xpcruntime:xpcimports.obj
 0002:00017de8       ??_C@_0BC@GBGIEMNO@accept?5not?5found?6?$AA@ 10093de8     xpcruntime:xpcimports.obj
 0002:00017e00       ??_C@_04NPNJNMMP@bind?$AA@ 10093e00     xpcruntime:xpcimports.obj
 0002:00017e08       ??_C@_0BA@DAJNENLO@bind?5not?5found?6?$AA@ 10093e08     xpcruntime:xpcimports.obj
 0002:00017e1c       ??_C@_0L@CKHNIFCM@setsockopt?$AA@ 10093e1c     xpcruntime:xpcimports.obj
 0002:00017e2c       ??_C@_0BG@MFIIOMFE@setsockopt?5not?5found?6?$AA@ 10093e2c     xpcruntime:xpcimports.obj
 0002:00017e48       ??_C@_0M@ODDJDCDK@closesocket?$AA@ 10093e48     xpcruntime:xpcimports.obj
 0002:00017e58       ??_C@_0BH@JHGHMIL@closesocket?5not?5found?6?$AA@ 10093e58     xpcruntime:xpcimports.obj
 0002:00017e74       ??_C@_07KAIBNCHO@connect?$AA@ 10093e74     xpcruntime:xpcimports.obj
 0002:00017e80       ??_C@_0BD@MKLLMBM@connect?5not?5found?6?$AA@ 10093e80     xpcruntime:xpcimports.obj
 0002:00017e98       ??_C@_0M@PBPOCKDG@ioctlsocket?$AA@ 10093e98     xpcruntime:xpcimports.obj
 0002:00017ea8       ??_C@_0BH@NFCNHHIH@ioctlsocket?5not?5found?6?$AA@ 10093ea8     xpcruntime:xpcimports.obj
 0002:00017ec4       ??_C@_06OODDLKLE@listen?$AA@ 10093ec4     xpcruntime:xpcimports.obj
 0002:00017ecc       ??_C@_0BC@NHBILEKI@listen?5not?5found?6?$AA@ 10093ecc     xpcruntime:xpcimports.obj
 0002:00017ee4       ??_C@_08HMBBGFHE@recvfrom?$AA@ 10093ee4     xpcruntime:xpcimports.obj
 0002:00017ef0       ??_C@_0BE@BJAJFFLF@recvfrom?5not?5found?6?$AA@ 10093ef0     xpcruntime:xpcimports.obj
 0002:00017f08       ??_C@_06MEPBGKEC@sendto?$AA@ 10093f08     xpcruntime:xpcimports.obj
 0002:00017f10       ??_C@_0BC@BHPIMDJO@sendto?5not?5found?6?$AA@ 10093f10     xpcruntime:xpcimports.obj
 0002:00017f28       ??_C@_09JKBDEEOB@inet_addr?$AA@ 10093f28     xpcruntime:xpcimports.obj
 0002:00017f34       ??_C@_0BF@HKJPGECN@inet_addr?5not?5found?6?$AA@ 10093f34     xpcruntime:xpcimports.obj
 0002:00017f50       ??_C@_06HBELJPBO@socket?$AA@ 10093f50     xpcruntime:xpcimports.obj
 0002:00017f58       ??_C@_0BC@NAGFFJGA@socket?5not?5found?6?$AA@ 10093f58     xpcruntime:xpcimports.obj
 0002:00017f70       ??_C@_09ICJIFGNC@GetSocket?$AA@ 10093f70     xpcruntime:xpcimports.obj
 0002:00017f7c       ??_C@_0BF@KDBCKMOJ@GetSocket?5not?5found?6?$AA@ 10093f7c     xpcruntime:xpcimports.obj
 0002:00017f98       ??_C@_0P@KJEGJMJI@GetSocketState?$AA@ 10093f98     xpcruntime:xpcimports.obj
 0002:00017fac       ??_C@_0BK@IALBJHEB@GetSocketState?5not?5found?6?$AA@ 10093fac     xpcruntime:xpcimports.obj
 0002:00017fcc       ??_C@_0L@MEAJHNHB@SocketSend?$AA@ 10093fcc     xpcruntime:xpcimports.obj
 0002:00017fdc       ??_C@_0BG@EOCMBFJA@SocketSend?5not?5found?6?$AA@ 10093fdc     xpcruntime:xpcimports.obj
 0002:00017ff8       ??_C@_0O@PFPCLEMF@SocketReceive?$AA@ 10093ff8     xpcruntime:xpcimports.obj
 0002:00018008       ??_C@_0BJ@HIBADDFO@SocketReceive?5not?5found?6?$AA@ 10094008     xpcruntime:xpcimports.obj
 0002:00018028       ??_C@_0BD@OOGFNAIK@CreateServerSocket?$AA@ 10094028     xpcruntime:xpcimports.obj
 0002:00018040       ??_C@_0BO@GKIJHIPH@CreateServerSocket?5not?5found?6?$AA@ 10094040     xpcruntime:xpcimports.obj
 0002:00018064       ??_C@_0BB@KGHJGFFO@OpenServerListen?$AA@ 10094064     xpcruntime:xpcimports.obj
 0002:00018078       ??_C@_0BM@NFMMLIO@OpenServerListen?5not?5found?6?$AA@ 10094078     xpcruntime:xpcimports.obj
 0002:0001809c       ??_C@_0BE@BAJLDJAH@ConnectServerSocket?$AA@ 1009409c     xpcruntime:xpcimports.obj
 0002:000180b4       ??_C@_0BP@KJNODIKE@ConnectServerSocket?5not?5found?6?$AA@ 100940b4     xpcruntime:xpcimports.obj
 0002:000180dc       ??_C@_0BC@PLKKJDIM@CloseServerSocket?$AA@ 100940dc     xpcruntime:xpcimports.obj
 0002:000180f4       ??_C@_0BN@KEJEPNMB@CloseServerSocket?5not?5found?6?$AA@ 100940f4     xpcruntime:xpcimports.obj
 0002:00018118       ??_C@_0BD@MCLPKCPP@CreateClientSocket?$AA@ 10094118     xpcruntime:xpcimports.obj
 0002:00018130       ??_C@_0BO@DILAGPFN@CreateClientSocket?5not?5found?6?$AA@ 10094130     xpcruntime:xpcimports.obj
 0002:00018154       ??_C@_0BB@DAPKNNLG@BindClientSocket?$AA@ 10094154     xpcruntime:xpcimports.obj
 0002:00018168       ??_C@_0BM@LLLMMDFN@BindClientSocket?5not?5found?6?$AA@ 10094168     xpcruntime:xpcimports.obj
 0002:0001818c       ??_C@_0BE@DMEBELHC@ConnectClientSocket?$AA@ 1009418c     xpcruntime:xpcimports.obj
 0002:000181a4       ??_C@_0BP@PLOHCPAO@ConnectClientSocket?5not?5found?6?$AA@ 100941a4     xpcruntime:xpcimports.obj
 0002:000181cc       ??_C@_0BC@NHHAOBPJ@CloseClientSocket?$AA@ 100941cc     xpcruntime:xpcimports.obj
 0002:000181e4       ??_C@_0BN@PGKNOKGL@CloseClientSocket?5not?5found?6?$AA@ 100941e4     xpcruntime:xpcimports.obj
 0002:00018208       __real@3e112e0be826d695    10094208     xpcruntime:xpcPCFunctions.obj
 0002:00018218       __real@3f538bcdfefbf402    10094218     xpcruntime:xpcPCFunctions.obj
 0002:00018228       __real@40112e0be826d695    10094228     xpcruntime:xpcPCFunctions.obj
 0002:00018238       __real@40f0000000000000    10094238     xpcruntime:xpcPCFunctions.obj
 0002:000182ec       __pDefaultRawDllMain       100942ec     LIBCMT:dll_dllmain.obj
 0002:000182ec       __pRawDllMain              100942ec     LIBCMT:dll_dllmain.obj
 0002:000182f0       __Microsoft_CRTProvider    100942f0     libvcruntime:telemetry.obj
 0002:000182f4       ??_C@_11LOCGONAA@?$AA?$AA@ 100942f4     libvcruntime:telemetry.obj
 0002:000182f8       ??_C@_0O@JEOPJOMI@Main?5Invoked?4?$AA@ 100942f8     libvcruntime:telemetry.obj
 0002:00018308       ??_C@_0P@NEAEIBDO@Main?5Returned?4?$AA@ 10094308     libvcruntime:telemetry.obj
 0002:00018330       ??_C@_1BC@DNHGCMLG@?$AAa?$AAd?$AAv?$AAa?$AAp?$AAi?$AA3?$AA2?$AA?$AA@ 10094330     libvcruntime:winapi_downlevel.obj
 0002:00018348       ??_C@_1DM@KHCHBNEB@?$AAa?$AAp?$AAi?$AA?9?$AAm?$AAs?$AA?9?$AAw?$AAi?$AAn?$AA?9?$AAc?$AAo?$AAr?$AAe?$AA?9?$AAf?$AAi?$AAb?$AAe?$AAr?$AAs?$AA?9?$AAl?$AA1?$AA?9?$AA1?$AA?9?$AA1?$AA?$AA@ 10094348     libvcruntime:winapi_downlevel.obj
 0002:00018390       ??_C@_1DK@LPPGFMPP@?$AAa?$AAp?$AAi?$AA?9?$AAm?$AAs?$AA?9?$AAw?$AAi?$AAn?$AA?9?$AAc?$AAo?$AAr?$AAe?$AA?9?$AAs?$AAy?$AAn?$AAc?$AAh?$AA?9?$AAl?$AA1?$AA?9?$AA2?$AA?9?$AA0?$AA?$AA@ 10094390     libvcruntime:winapi_downlevel.obj
 0002:000183d8       ??_C@_1BC@GDMECMAK@?$AAk?$AAe?$AAr?$AAn?$AAe?$AAl?$AA3?$AA2?$AA?$AA@ 100943d8     libvcruntime:winapi_downlevel.obj
 0002:000183f4       ??_C@_0O@BAMBGLIE@EventRegister?$AA@ 100943f4     libvcruntime:winapi_downlevel.obj
 0002:00018408       ??_C@_0BE@BJEEGHGK@EventSetInformation?$AA@ 10094408     libvcruntime:winapi_downlevel.obj
 0002:00018424       ??_C@_0BA@FAKLIPIC@EventUnregister?$AA@ 10094424     libvcruntime:winapi_downlevel.obj
 0002:0001843c       ??_C@_0BD@PKLHJPHD@EventWriteTransfer?$AA@ 1009443c     libvcruntime:winapi_downlevel.obj
 0002:00018460       ??_C@_08KNHFBNJ@FlsAlloc?$AA@ 10094460     libvcruntime:winapi_downlevel.obj
 0002:00018478       ??_C@_07PEJMOBNF@FlsFree?$AA@ 10094478     libvcruntime:winapi_downlevel.obj
 0002:00018490       ??_C@_0M@GDNOONDI@FlsGetValue?$AA@ 10094490     libvcruntime:winapi_downlevel.obj
 0002:000184ac       ??_C@_0M@JCPCPOEF@FlsSetValue?$AA@ 100944ac     libvcruntime:winapi_downlevel.obj
 0002:000184c8       ??_C@_0BM@HCFOFFN@InitializeCriticalSectionEx?$AA@ 100944c8     libvcruntime:winapi_downlevel.obj
 0002:000186d0       ??_C@_08EHJDFFNH@__based?$CI?$AA@ 100946d0     libvcruntime:undname.obj
 0002:000186dc       ??_C@_07KOLFKCDI@__cdecl?$AA@ 100946dc     libvcruntime:undname.obj
 0002:000186e8       ??_C@_08GHMPAG@__pascal?$AA@ 100946e8     libvcruntime:undname.obj
 0002:000186f4       ??_C@_09IFJBGAPI@__stdcall?$AA@ 100946f4     libvcruntime:undname.obj
 0002:00018700       ??_C@_0L@NPHFGOKO@__thiscall?$AA@ 10094700     libvcruntime:undname.obj
 0002:00018710       ??_C@_0L@JMKHOMEK@__fastcall?$AA@ 10094710     libvcruntime:undname.obj
 0002:00018720       ??_C@_0N@BCKKPABJ@__vectorcall?$AA@ 10094720     libvcruntime:undname.obj
 0002:00018730       ??_C@_09HIJEGCPM@__clrcall?$AA@ 10094730     libvcruntime:undname.obj
 0002:0001873c       ??_C@_06GHPCKEAG@__eabi?$AA@ 1009473c     libvcruntime:undname.obj
 0002:00018744       ??_C@_07JOMMBBKO@__ptr64?$AA@ 10094744     libvcruntime:undname.obj
 0002:00018750       ??_C@_0L@PILCLIHE@__restrict?$AA@ 10094750     libvcruntime:undname.obj
 0002:00018760       ??_C@_0M@GFIIJFMG@__unaligned?$AA@ 10094760     libvcruntime:undname.obj
 0002:00018770       ??_C@_09DHDLOLLB@restrict?$CI?$AA@ 10094770     libvcruntime:undname.obj
 0002:0001877c       ??_C@_04NIHEBCM@?5new?$AA@ 1009477c     libvcruntime:undname.obj
 0002:00018784       ??_C@_07FPCDHGMM@?5delete?$AA@ 10094784     libvcruntime:undname.obj
 0002:00018790       ??_C@_01NEMOKFLO@?$DN?$AA@ 10094790     libvcruntime:undname.obj
 0002:00018794       ??_C@_02GPIOPFAK@?$DO?$DO?$AA@ 10094794     libvcruntime:undname.obj
 0002:00018798       ??_C@_02FODMEDOG@?$DM?$DM?$AA@ 10094798     libvcruntime:undname.obj
 0002:0001879c       ??_C@_01DCLJPIOD@?$CB?$AA@ 1009479c     libvcruntime:undname.obj
 0002:000187a0       ??_C@_02EGOFBIJA@?$DN?$DN?$AA@ 100947a0     libvcruntime:undname.obj
 0002:000187a4       ??_C@_02FDNJECIE@?$CB?$DN?$AA@ 100947a4     libvcruntime:undname.obj
 0002:000187a8       ??_C@_02GPECMEKF@?$FL?$FN?$AA@ 100947a8     libvcruntime:undname.obj
 0002:000187ac       ??_C@_08LHJFAFGD@operator?$AA@ 100947ac     libvcruntime:undname.obj
 0002:000187b8       ??_C@_02HBOOOICD@?9?$DO?$AA@ 100947b8     libvcruntime:undname.obj
 0002:000187bc       ??_C@_01NBENCBCI@?$CK?$AA@ 100947bc     libvcruntime:undname.obj
 0002:000187c0       ??_C@_02ECNGHCIF@?$CL?$CL?$AA@ 100947c0     libvcruntime:undname.obj
 0002:000187c4       ??_C@_02BAABKJLB@?9?9?$AA@ 100947c4     libvcruntime:undname.obj
 0002:000187c8       ??_C@_01JOAMLHOP@?9?$AA@   100947c8     libvcruntime:undname.obj
 0002:000187cc       ??_C@_01MIFGBAGJ@?$CL?$AA@ 100947cc     libvcruntime:undname.obj
 0002:000187d0       ??_C@_01HNPIGOCE@?$CG?$AA@ 100947d0     libvcruntime:undname.obj
 0002:000187d4       ??_C@_03MNHNFDLC@?9?$DO?$CK?$AA@ 100947d4     libvcruntime:undname.obj
 0002:000187d8       ??_C@_01KMDKNFGN@?1?$AA@   100947d8     libvcruntime:undname.obj
 0002:000187dc       ??_C@_01FGNFDNOH@?$CF?$AA@ 100947dc     libvcruntime:undname.obj
 0002:000187e0       ??_C@_01MNNFJEPP@?$DM?$AA@ 100947e0     libvcruntime:undname.obj
 0002:000187e4       ??_C@_02EHCHHCKH@?$DM?$DN?$AA@ 100947e4     libvcruntime:undname.obj
 0002:000187e8       ??_C@_01PPODPGHN@?$DO?$AA@ 100947e8     libvcruntime:undname.obj
 0002:000187ec       ??_C@_02EEKDKGMJ@?$DO?$DN?$AA@ 100947ec     libvcruntime:undname.obj
 0002:000187f0       ??_C@_01IHBHIGKO@?0?$AA@   100947f0     libvcruntime:undname.obj
 0002:000187f4       ??_C@_02HCKGKOFO@?$CI?$CJ?$AA@ 100947f4     libvcruntime:undname.obj
 0002:000187f8       ??_C@_01PJKLJHI@?$HO?$AA@  100947f8     libvcruntime:undname.obj
 0002:000187fc       ??_C@_01JKBOJNNK@?$FO?$AA@ 100947fc     libvcruntime:undname.obj
 0002:00018800       ??_C@_01DNKMNLPK@?$HM?$AA@ 10094800     libvcruntime:undname.obj
 0002:00018804       ??_C@_02PPKAJPJL@?$CG?$CG?$AA@ 10094804     libvcruntime:undname.obj
 0002:00018808       ??_C@_02NONPIBCD@?$HM?$HM?$AA@ 10094808     libvcruntime:undname.obj
 0002:0001880c       ??_C@_02FPIMKNGF@?$CK?$DN?$AA@ 1009480c     libvcruntime:undname.obj
 0002:00018810       ??_C@_02FOEOMHFC@?$CL?$DN?$AA@ 10094810     libvcruntime:undname.obj
 0002:00018814       ??_C@_02FKMDLLOA@?9?$DN?$AA@ 10094814     libvcruntime:undname.obj
 0002:00018818       ??_C@_02FJEHGPIO@?1?$DN?$AA@ 10094818     libvcruntime:undname.obj
 0002:0001881c       ??_C@_02FENAOKFI@?$CF?$DN?$AA@ 1009481c     libvcruntime:undname.obj
 0002:00018820       ??_C@_03IKFCCPFF@?$DO?$DO?$DN?$AA@ 10094820     libvcruntime:undname.obj
 0002:00018824       ??_C@_03CDNPDDLA@?$DM?$DM?$DN?$AA@ 10094824     libvcruntime:undname.obj
 0002:00018828       ??_C@_02FGJGFEAB@?$CG?$DN?$AA@ 10094828     libvcruntime:undname.obj
 0002:0001882c       ??_C@_02DHLNPPGH@?$HM?$DN?$AA@ 1009482c     libvcruntime:undname.obj
 0002:00018830       ??_C@_02MHEGNOJ@?$FO?$DN?$AA@ 10094830     libvcruntime:undname.obj
 0002:00018834       ??_C@_09IFPLHPGF@?$GAvftable?8?$AA@ 10094834     libvcruntime:undname.obj
 0002:00018840       ??_C@_09BLBHBJP@?$GAvbtable?8?$AA@ 10094840     libvcruntime:undname.obj
 0002:0001884c       ??_C@_07FEEIOKP@?$GAvcall?8?$AA@ 1009484c     libvcruntime:undname.obj
 0002:00018858       ??_C@_08LLFFHHDJ@?$GAtypeof?8?$AA@ 10094858     libvcruntime:undname.obj
 0002:00018864       ??_C@_0BF@KDPPACIK@?$GAlocal?5static?5guard?8?$AA@ 10094864     libvcruntime:undname.obj
 0002:00018880       ??_C@_08OBABFOLI@?$GAstring?8?$AA@ 10094880     libvcruntime:undname.obj
 0002:0001888c       ??_C@_0BD@JDLKDPAB@?$GAvbase?5destructor?8?$AA@ 1009488c     libvcruntime:undname.obj
 0002:000188a4       ??_C@_0BN@DEGPLNFK@?$GAvector?5deleting?5destructor?8?$AA@ 100948a4     libvcruntime:undname.obj
 0002:000188c8       ??_C@_0BO@OBMKPJIG@?$GAdefault?5constructor?5closure?8?$AA@ 100948c8     libvcruntime:undname.obj
 0002:000188ec       ??_C@_0BN@IMDCHIKM@?$GAscalar?5deleting?5destructor?8?$AA@ 100948ec     libvcruntime:undname.obj
 0002:00018910       ??_C@_0BO@PFGOCPJJ@?$GAvector?5constructor?5iterator?8?$AA@ 10094910     libvcruntime:undname.obj
 0002:00018934       ??_C@_0BN@LFPFMEDL@?$GAvector?5destructor?5iterator?8?$AA@ 10094934     libvcruntime:undname.obj
 0002:00018958       ??_C@_0CE@IKBNEHA@?$GAvector?5vbase?5constructor?5iterat@ 10094958     libvcruntime:undname.obj
 0002:00018984       ??_C@_0BL@NILFHHPC@?$GAvirtual?5displacement?5map?8?$AA@ 10094984     libvcruntime:undname.obj
 0002:000189a4       ??_C@_0CB@JONCMFFK@?$GAeh?5vector?5constructor?5iterator?8@ 100949a4     libvcruntime:undname.obj
 0002:000189cc       ??_C@_0CA@GCEOPDGL@?$GAeh?5vector?5destructor?5iterator?8?$AA@ 100949cc     libvcruntime:undname.obj
 0002:000189f4       ??_C@_0CH@OOJPLCPH@?$GAeh?5vector?5vbase?5constructor?5ite@ 100949f4     libvcruntime:undname.obj
 0002:00018a24       ??_C@_0BL@LLKPOHJI@?$GAcopy?5constructor?5closure?8?$AA@ 10094a24     libvcruntime:undname.obj
 0002:00018a44       ??_C@_0BA@KBCDOMBN@?$GAudt?5returning?8?$AA@ 10094a44     libvcruntime:undname.obj
 0002:00018a58       ??_C@_03KLGMFNMG@?$GAEH?$AA@ 10094a58     libvcruntime:undname.obj
 0002:00018a5c       ??_C@_05KHLCHHI@?$GARTTI?$AA@ 10094a5c     libvcruntime:undname.obj
 0002:00018a64       ??_C@_0BA@KKLDJDLB@?$GAlocal?5vftable?8?$AA@ 10094a64     libvcruntime:undname.obj
 0002:00018a78       ??_C@_0CE@IIHCMGGL@?$GAlocal?5vftable?5constructor?5closu@ 10094a78     libvcruntime:undname.obj
 0002:00018aa4       ??_C@_06FHBGPFGH@?5new?$FL?$FN?$AA@ 10094aa4     libvcruntime:undname.obj
 0002:00018aac       ??_C@_09LBNFPBCA@?5delete?$FL?$FN?$AA@ 10094aac     libvcruntime:undname.obj
 0002:00018ab8       ??_C@_0P@HJKNJFNN@?$GAomni?5callsig?8?$AA@ 10094ab8     libvcruntime:undname.obj
 0002:00018acc       ??_C@_0BL@CNOONJFP@?$GAplacement?5delete?5closure?8?$AA@ 10094acc     libvcruntime:undname.obj
 0002:00018aec       ??_C@_0BN@CKNJLHMB@?$GAplacement?5delete?$FL?$FN?5closure?8?$AA@ 10094aec     libvcruntime:undname.obj
 0002:00018b10       ??_C@_0CG@CFDHKGGD@?$GAmanaged?5vector?5constructor?5iter@ 10094b10     libvcruntime:undname.obj
 0002:00018b40       ??_C@_0CF@IMGKMJNO@?$GAmanaged?5vector?5destructor?5itera@ 10094b40     libvcruntime:undname.obj
 0002:00018b6c       ??_C@_0CG@HLDDJMAG@?$GAeh?5vector?5copy?5constructor?5iter@ 10094b6c     libvcruntime:undname.obj
 0002:00018b9c       ??_C@_0CM@FCBBDIGB@?$GAeh?5vector?5vbase?5copy?5constructo@ 10094b9c     libvcruntime:undname.obj
 0002:00018bd0       ??_C@_0BL@CLIPGLGB@?$GAdynamic?5initializer?5for?5?8?$AA@ 10094bd0     libvcruntime:undname.obj
 0002:00018bf0       ??_C@_0CB@PDBIFEP@?$GAdynamic?5atexit?5destructor?5for?5?8@ 10094bf0     libvcruntime:undname.obj
 0002:00018c18       ??_C@_0CD@CGAJBKEJ@?$GAvector?5copy?5constructor?5iterato@ 10094c18     libvcruntime:undname.obj
 0002:00018c44       ??_C@_0CJ@GJELGAMM@?$GAvector?5vbase?5copy?5constructor?5i@ 10094c44     libvcruntime:undname.obj
 0002:00018c78       ??_C@_0CL@FGIJHLCE@?$GAmanaged?5vector?5copy?5constructor@ 10094c78     libvcruntime:undname.obj
 0002:00018cac       ??_C@_0BM@PMGGMLDN@?$GAlocal?5static?5thread?5guard?8?$AA@ 10094cac     libvcruntime:undname.obj
 0002:00018cd0       ??_C@_0N@BDNMDMOL@operator?5?$CC?$CC?5?$AA@ 10094cd0     libvcruntime:undname.obj
 0002:00018ce0       ??_C@_0BC@DAFEJGAK@?5Type?5Descriptor?8?$AA@ 10094ce0     libvcruntime:undname.obj
 0002:00018cf8       ??_C@_0BM@LDKODKLH@?5Base?5Class?5Descriptor?5at?5?$CI?$AA@ 10094cf8     libvcruntime:undname.obj
 0002:00018d1c       ??_C@_0BD@LGICGFMM@?5Base?5Class?5Array?8?$AA@ 10094d1c     libvcruntime:undname.obj
 0002:00018d34       ??_C@_0BN@MECKDCOJ@?5Class?5Hierarchy?5Descriptor?8?$AA@ 10094d34     libvcruntime:undname.obj
 0002:00018d58       ??_C@_0BK@CFCOFLF@?5Complete?5Object?5Locator?8?$AA@ 10094d58     libvcruntime:undname.obj
 0002:00018d78       ??_C@_04HEJADOOB@CV?3?5?$AA@ 10094d78     libvcruntime:undname.obj
 0002:00018d80       ??_C@_02MOLJINC@?3?3?$AA@  10094d80     libvcruntime:undname.obj
 0002:00018d84       ??_C@_0BE@JAEOCHPE@template?9parameter?9?$AA@ 10094d84     libvcruntime:undname.obj
 0002:00018d9c       ??_C@_0O@KHGCOMHP@generic?9type?9?$AA@ 10094d9c     libvcruntime:undname.obj
 0002:00018dac       ??_C@_01NLNLIGKH@?$GA?$AA@ 10094dac     libvcruntime:undname.obj
 0002:00018db0       ??_C@_01GEODFPGF@?8?$AA@   10094db0     libvcruntime:undname.obj
 0002:00018db4       ??_C@_0BG@JNJLAMPM@?$GAanonymous?5namespace?8?$AA@ 10094db4     libvcruntime:undname.obj
 0002:00018dd0       ??_C@_02OHHJMEON@?8?8?$AA@ 10094dd0     libvcruntime:undname.obj
 0002:00018dd4       ??_C@_0BN@IBLMMFAP@?$GAnon?9type?9template?9parameter?$AA@ 10094dd4     libvcruntime:undname.obj
 0002:00018df8       ??_C@_04GKJNKENE@void?$AA@ 10094df8     libvcruntime:undname.obj
 0002:00018e00       ??_C@_0BE@EODMJLIF@?$GAtemplate?9parameter?$AA@ 10094e00     libvcruntime:undname.obj
 0002:00018e18       ??_C@_03KHICJKCI@?4?4?4?$AA@ 10094e18     libvcruntime:undname.obj
 0002:00018e1c       ??_C@_04HIBGFPH@NULL?$AA@  10094e1c     libvcruntime:undname.obj
 0002:00018e24       ??_C@_02DPKJAMEF@?$CFd?$AA@ 10094e24     libvcruntime:undname.obj
 0002:00018e28       ??_C@_0BK@IHCCFNEL@?$GAtemplate?9type?9parameter?9?$AA@ 10094e28     libvcruntime:undname.obj
 0002:00018e48       ??_C@_0BK@OFCNNNKO@?$GAgeneric?9class?9parameter?9?$AA@ 10094e48     libvcruntime:undname.obj
 0002:00018e68       ??_C@_0BL@NGJBLFIL@?$GAgeneric?9method?9parameter?9?$AA@ 10094e68     libvcruntime:undname.obj
 0002:00018e88       ??_C@_03OPGICMGF@?$HN?8?5?$AA@ 10094e88     libvcruntime:undname.obj
 0002:00018e8c       ??_C@_02IGFCGPIL@?$HN?8?$AA@ 10094e8c     libvcruntime:undname.obj
 0002:00018e90       ??_C@_01CLKCMJKC@?5?$AA@   10094e90     libvcruntime:undname.obj
 0002:00018e94       ??_C@_0N@CBHHHENL@?$GAvtordispex?$HL?$AA@ 10094e94     libvcruntime:undname.obj
 0002:00018ea4       ??_C@_0L@GHPFDFH@?$GAvtordisp?$HL?$AA@ 10094ea4     libvcruntime:undname.obj
 0002:00018eb4       ??_C@_0L@HNGCOGAE@?$GAadjustor?$HL?$AA@ 10094eb4     libvcruntime:undname.obj
 0002:00018ec4       ??_C@_0CB@KJDOOODE@?$GAlocal?5static?5destructor?5helper?8@ 10094ec4     libvcruntime:undname.obj
 0002:00018eec       ??_C@_0DB@ILEFOCIJ@?$GAtemplate?5static?5data?5member?5con@ 10094eec     libvcruntime:undname.obj
 0002:00018f28       ??_C@_0DA@HGFJFBBE@?$GAtemplate?5static?5data?5member?5des@ 10094f28     libvcruntime:undname.obj
 0002:00018f64       ??_C@_07PGOEDBHP@static?5?$AA@ 10094f64     libvcruntime:undname.obj
 0002:00018f70       ??_C@_08NIEOINHE@virtual?5?$AA@ 10094f70     libvcruntime:undname.obj
 0002:00018f7c       ??_C@_09LAPHOOG@private?3?5?$AA@ 10094f7c     libvcruntime:undname.obj
 0002:00018f88       ??_C@_0M@GAIFPFIP@protected?3?5?$AA@ 10094f88     libvcruntime:undname.obj
 0002:00018f98       ??_C@_08GPDDCMKI@public?3?5?$AA@ 10094f98     libvcruntime:undname.obj
 0002:00018fa4       ??_C@_08KJLFOPNE@?$FLthunk?$FN?3?$AA@ 10094fa4     libvcruntime:undname.obj
 0002:00018fb0       ??_C@_0M@DHNBOJMP@extern?5?$CCC?$CC?5?$AA@ 10094fb0     libvcruntime:undname.obj
 0002:00018fc0       ??_C@_02KCKGHPCA@?$CJ?5?$AA@ 10094fc0     libvcruntime:undname.obj
 0002:00018fc4       ??_C@_05CIHEBHNO@char?5?$AA@ 10094fc4     libvcruntime:undname.obj
 0002:00018fcc       ??_C@_06EHJMALKF@short?5?$AA@ 10094fcc     libvcruntime:undname.obj
 0002:00018fd4       ??_C@_04LAHKHJMA@int?5?$AA@ 10094fd4     libvcruntime:undname.obj
 0002:00018fdc       ??_C@_05CJIMAING@long?5?$AA@ 10094fdc     libvcruntime:undname.obj
 0002:00018fe4       ??_C@_09EBBEKKIH@unsigned?5?$AA@ 10094fe4     libvcruntime:undname.obj
 0002:00018ff0       ??_C@_05BEFAKPML@void?5?$AA@ 10094ff0     libvcruntime:undname.obj
 0002:00018ff8       ??_C@_08PABEKFH@volatile?$AA@ 10094ff8     libvcruntime:undname.obj
 0002:00019004       ??_C@_0P@GCOCNKDM@std?3?3nullptr_t?$AA@ 10095004     libvcruntime:undname.obj
 0002:00019018       ??_C@_0L@EGPHHEKN@?$DMellipsis?$DO?$AA@ 10095018     libvcruntime:undname.obj
 0002:00019028       ??_C@_04EENFHACM@?0?4?4?4?$AA@ 10095028     libvcruntime:undname.obj
 0002:00019030       ??_C@_0M@ELJOJFFH@?0?$DMellipsis?$DO?$AA@ 10095030     libvcruntime:undname.obj
 0002:00019040       ??_C@_07HDJPLPEK@?5throw?$CI?$AA@ 10095040     libvcruntime:undname.obj
 0002:0001904c       ??_C@_03PBJBJNON@cpu?$AA@  1009504c     libvcruntime:undname.obj
 0002:00019050       ??_C@_03DCBBJBAA@amp?$AA@  10095050     libvcruntime:undname.obj
 0002:00019054       ??_C@_02KEGNLNML@?0?5?$AA@ 10095054     libvcruntime:undname.obj
 0002:00019058       ??_C@_04ENMBGAPA@char?$AA@ 10095058     libvcruntime:undname.obj
 0002:00019060       ??_C@_05BFKKPKCG@short?$AA@ 10095060     libvcruntime:undname.obj
 0002:00019068       ??_C@_03JBIPMCLC@int?$AA@  10095068     libvcruntime:undname.obj
 0002:0001906c       ??_C@_04GOKPGOLB@long?$AA@ 1009506c     libvcruntime:undname.obj
 0002:00019074       ??_C@_04DDKJGDCM@bool?$AA@ 10095074     libvcruntime:undname.obj
 0002:0001907c       ??_C@_06EBGKOKIG@__int8?$AA@ 1009507c     libvcruntime:undname.obj
 0002:00019084       ??_C@_07ICFHOGAF@__int16?$AA@ 10095084     libvcruntime:undname.obj
 0002:00019090       ??_C@_07OFLPPHGP@__int32?$AA@ 10095090     libvcruntime:undname.obj
 0002:0001909c       ??_C@_07LFCOJCAC@__int64?$AA@ 1009509c     libvcruntime:undname.obj
 0002:000190a8       ??_C@_08GAHOLHEO@__int128?$AA@ 100950a8     libvcruntime:undname.obj
 0002:000190b4       ??_C@_09EEKGDCPH@?$DMunknown?$DO?$AA@ 100950b4     libvcruntime:undname.obj
 0002:000190c0       ??_C@_08HBIPOFJB@char16_t?$AA@ 100950c0     libvcruntime:undname.obj
 0002:000190cc       ??_C@_08IECNCBKG@char32_t?$AA@ 100950cc     libvcruntime:undname.obj
 0002:000190d8       ??_C@_07CLGGIAMF@wchar_t?$AA@ 100950d8     libvcruntime:undname.obj
 0002:000190e4       ??_C@_06GCICPBLB@__w64?5?$AA@ 100950e4     libvcruntime:undname.obj
 0002:000190ec       ??_C@_07NFANNNEC@UNKNOWN?$AA@ 100950ec     libvcruntime:undname.obj
 0002:000190f8       ??_C@_07EDHNAJHC@signed?5?$AA@ 100950f8     libvcruntime:undname.obj
 0002:00019104       ??_C@_05BNCCCJPP@const?$AA@ 10095104     libvcruntime:undname.obj
 0002:0001910c       ??_C@_09EFNPDFFP@?5volatile?$AA@ 1009510c     libvcruntime:undname.obj
 0002:00019118       ??_C@_0P@GCIFDJCJ@?$GAunknown?5ecsu?8?$AA@ 10095118     libvcruntime:undname.obj
 0002:0001912c       ??_C@_06MOJHIBMG@union?5?$AA@ 1009512c     libvcruntime:undname.obj
 0002:00019134       ??_C@_07DIBCDNGL@struct?5?$AA@ 10095134     libvcruntime:undname.obj
 0002:00019140       ??_C@_06LJBABKPM@class?5?$AA@ 10095140     libvcruntime:undname.obj
 0002:00019148       ??_C@_08KOFANOFK@coclass?5?$AA@ 10095148     libvcruntime:undname.obj
 0002:00019154       ??_C@_0N@DLIEFKNA@cointerface?5?$AA@ 10095154     libvcruntime:undname.obj
 0002:00019164       ??_C@_05LJGMCFOG@enum?5?$AA@ 10095164     libvcruntime:undname.obj
 0002:0001916c       ??_C@_09GAIEOBLP@volatile?5?$AA@ 1009516c     libvcruntime:undname.obj
 0002:00019178       ??_C@_06LIJLOJAG@const?5?$AA@ 10095178     libvcruntime:undname.obj
 0002:00019180       ??_C@_02KJPKDIBN@?$CG?5?$AA@ 10095180     libvcruntime:undname.obj
 0002:00019184       ??_C@_03PCKGMOPB@?$CG?$CG?5?$AA@ 10095184     libvcruntime:undname.obj
 0002:00019188       ??_C@_0M@EALIELKG@cli?3?3array?$DM?$AA@ 10095188     libvcruntime:undname.obj
 0002:00019198       ??_C@_0O@GKABPPIF@cli?3?3pin_ptr?$DM?$AA@ 10095198     libvcruntime:undname.obj
 0002:000191a8       ??_C@_02GOGNNPBN@?$CJ?$FL?$AA@ 100951a8     libvcruntime:undname.obj
 0002:000191ac       ??_C@_06EEGAIFAK@?$HLflat?$HN?$AA@ 100951ac     libvcruntime:undname.obj
 0002:000191b4       ??_C@_05JIBOFOHK@?$HLfor?5?$AA@ 100951b4     libvcruntime:undname.obj
 0002:000191bc       ??_C@_02MDINNEEG@s?5?$AA@  100951bc     libvcruntime:undname.obj
 0002:000191c4       ??_7DNameNode@@6B@         100951c4     libvcruntime:undname.obj
 0002:000191d8       ??_7charNode@@6B@          100951d8     libvcruntime:undname.obj
 0002:000191ec       ??_7pcharNode@@6B@         100951ec     libvcruntime:undname.obj
 0002:00019200       ??_7pDNameNode@@6B@        10095200     libvcruntime:undname.obj
 0002:00019214       ??_7DNameStatusNode@@6B@   10095214     libvcruntime:undname.obj
 0002:00019228       ??_7pairNode@@6B@          10095228     libvcruntime:undname.obj
 0002:00019238       ??_C@_04OKOHEJBO@?5?$DP?$DP?5?$AA@ 10095238     libvcruntime:undname.obj
 0002:00019240       _standard_lookup_table     10095240     libucrt:output.obj
 0002:000192b0       _format_validation_lookup_table 100952b0     libucrt:output.obj
 0002:00019320       ??_C@_06OJHGLDPL@?$CInull?$CJ?$AA@ 10095320     libucrt:output.obj
 0002:00019328       ??_C@_1O@CEDCILHN@?$AA?$CI?$AAn?$AAu?$AAl?$AAl?$AA?$CJ?$AA?$AA@ 10095328     libucrt:output.obj
 0002:0001944c       ??_C@_0CF@GOGNBNAK@Microsoft?5Visual?5C?$CL?$CL?5Runtime?5Lib@ 1009544c     libucrt:assert.obj
 0002:00019478       ??_C@_1EK@MBDPDCGA@?$AAM?$AAi?$AAc?$AAr?$AAo?$AAs?$AAo?$AAf?$AAt?$AA?5?$AAV?$AAi?$AAs?$AAu?$AAa?$AAl?$AA?5?$AAC?$AA?$CL?$AA?$CL?$AA?5?$AAR?$AAu?$AAn?$AAt?$AAi?$AAm?$AAe?$AA?5?$AAL?$AAi?$AAb@ 10095478     libucrt:assert.obj
 0002:000194d0       ??_C@_0CK@CFPGFGGO@Assertion?5failed?3?5?$CFTs?0?5file?5?$CFTs?0@ 100954d0     libucrt:assert.obj
 0002:00019508       ??_C@_1FE@LHBLIKM@?$AAA?$AAs?$AAs?$AAe?$AAr?$AAt?$AAi?$AAo?$AAn?$AA?5?$AAf?$AAa?$AAi?$AAl?$AAe?$AAd?$AA?3?$AA?5?$AA?$CF?$AAT?$AAs?$AA?0?$AA?5?$AAf?$AAi?$AAl?$AAe?$AA?5?$AA?$CF?$AAT?$AAs?$AA?0@ 10095508     libucrt:assert.obj
 0002:0001956c       ??_C@_0BC@LAIDCHCH@Assertion?5failed?$CB?$AA@ 1009556c     libucrt:assert.obj
 0002:00019584       ??_C@_1CE@OJBNHDMO@?$AAA?$AAs?$AAs?$AAe?$AAr?$AAt?$AAi?$AAo?$AAn?$AA?5?$AAf?$AAa?$AAi?$AAl?$AAe?$AAd?$AA?$CB?$AA?$AA@ 10095584     libucrt:assert.obj
 0002:000195b0       ??_C@_09KLGCKDOD@Program?3?5?$AA@ 100955b0     libucrt:assert.obj
 0002:000195bc       ??_C@_1BE@PHKBBGE@?$AAP?$AAr?$AAo?$AAg?$AAr?$AAa?$AAm?$AA?3?$AA?5?$AA?$AA@ 100955bc     libucrt:assert.obj
 0002:000195d4       ??_C@_06IGPBOHMJ@File?3?5?$AA@ 100955d4     libucrt:assert.obj
 0002:000195dc       ??_C@_1O@HEMHKNDC@?$AAF?$AAi?$AAl?$AAe?$AA?3?$AA?5?$AA?$AA@ 100955dc     libucrt:assert.obj
 0002:000195ec       ??_C@_06FIEBOLOH@Line?3?5?$AA@ 100955ec     libucrt:assert.obj
 0002:000195f4       ??_C@_1O@KCAFKHJE@?$AAL?$AAi?$AAn?$AAe?$AA?3?$AA?5?$AA?$AA@ 100955f4     libucrt:assert.obj
 0002:00019604       ??_C@_0N@MEECIJGN@Expression?3?5?$AA@ 10095604     libucrt:assert.obj
 0002:00019614       ??_C@_1BK@PEDCIPMA@?$AAE?$AAx?$AAp?$AAr?$AAe?$AAs?$AAs?$AAi?$AAo?$AAn?$AA?3?$AA?5?$AA?$AA@ 10095614     libucrt:assert.obj
 0002:00019638       ??_C@_0HA@OJHAGA@For?5information?5on?5how?5your?5prog@ 10095638     libucrt:assert.obj
 0002:000196c0       ??_C@_1OA@EGMLFBHJ@?$AAF?$AAo?$AAr?$AA?5?$AAi?$AAn?$AAf?$AAo?$AAr?$AAm?$AAa?$AAt?$AAi?$AAo?$AAn?$AA?5?$AAo?$AAn?$AA?5?$AAh?$AAo?$AAw?$AA?5?$AAy?$AAo?$AAu?$AAr?$AA?5?$AAp?$AAr?$AAo?$AAg@ 100956c0     libucrt:assert.obj
 0002:000197cc       ??_C@_0DN@EBBNMLME@?$CIPress?5Retry?5to?5debug?5the?5applic@ 100957cc     libucrt:assert.obj
 0002:00019818       ??_C@_1HK@POCJMFGK@?$AA?$CI?$AAP?$AAr?$AAe?$AAs?$AAs?$AA?5?$AAR?$AAe?$AAt?$AAr?$AAy?$AA?5?$AAt?$AAo?$AA?5?$AAd?$AAe?$AAb?$AAu?$AAg?$AA?5?$AAt?$AAh?$AAe?$AA?5?$AAa?$AAp?$AAp?$AAl?$AAi?$AAc@ 10095818     libucrt:assert.obj
 0002:000198ac       ??_C@_17LGKOMLJ@?$AA?4?$AA?4?$AA?4?$AA?$AA@ 100958ac     libucrt:assert.obj
 0002:000198b8       ??_C@_01EEMJAFIK@?6?$AA@   100958b8     libucrt:assert.obj
 0002:000198bc       ??_C@_13LBAGMAIH@?$AA?6?$AA?$AA@ 100958bc     libucrt:assert.obj
 0002:000198c0       ??_C@_02PHMGELLB@?6?6?$AA@ 100958c0     libucrt:assert.obj
 0002:000198c4       ??_C@_15IABLJNFO@?$AA?6?$AA?6?$AA?$AA@ 100958c4     libucrt:assert.obj
 0002:000198cc       ??_C@_0BH@DNAGHKFM@?$DMprogram?5name?5unknown?$DO?$AA@ 100958cc     libucrt:assert.obj
 0002:000198e8       ??_C@_1CO@EAEJAADC@?$AA?$DM?$AAp?$AAr?$AAo?$AAg?$AAr?$AAa?$AAm?$AA?5?$AAn?$AAa?$AAm?$AAe?$AA?5?$AAu?$AAn?$AAk?$AAn?$AAo?$AAw?$AAn?$AA?$DO?$AA?$AA@ 100958e8     libucrt:assert.obj
 0002:00019920       _RtlNtPathSeperatorString  10095920     libucrt:exit.obj
 0002:0001992c       ??_C@_13FPGAJAPJ@?$AA?2?$AA?$AA@ 1009592c     libucrt:exit.obj
 0002:00019930       _RtlDosPathSeperatorsString 10095930     libucrt:exit.obj
 0002:0001993c       ??_C@_15MNCACJLI@?$AA?2?$AA?1?$AA?$AA@ 1009593c     libucrt:exit.obj
 0002:00019944       _RtlAlternateDosPathSeperatorString 10095944     libucrt:exit.obj
 0002:00019950       ??_C@_13CGOKJPIL@?$AA?1?$AA?$AA@ 10095950     libucrt:exit.obj
 0002:00019954       ??_C@_1BI@BGOHAHKC@?$AAm?$AAs?$AAc?$AAo?$AAr?$AAe?$AAe?$AA?4?$AAd?$AAl?$AAl?$AA?$AA@ 10095954     libucrt:exit.obj
 0002:00019970       ??_C@_0P@MIGLKIOC@CorExitProcess?$AA@ 10095970     libucrt:exit.obj
 0002:00019984       ??_C@_04FJHINJAO@tanh?$AA@ 10095984     libucrt:fpexcept.obj
 0002:0001998c       ??_C@_04FIHNOPOL@asin?$AA@ 1009598c     libucrt:fpexcept.obj
 0002:00019994       ??_C@_04PDIFKINK@acos?$AA@ 10095994     libucrt:fpexcept.obj
 0002:0001999c       ??_C@_04MLLJIGOK@atan?$AA@ 1009599c     libucrt:fpexcept.obj
 0002:000199a4       ??_C@_05KNGEOGJB@atan2?$AA@ 100959a4     libucrt:fpexcept.obj
 0002:000199ac       ??_C@_04EIAKFFMI@sqrt?$AA@ 100959ac     libucrt:fpexcept.obj
 0002:000199b4       ??_C@_03BLEJJJBH@sin?$AA@  100959b4     libucrt:fpexcept.obj
 0002:000199b8       ??_C@_03LALBNOCG@cos?$AA@  100959b8     libucrt:fpexcept.obj
 0002:000199bc       ??_C@_03IIINPABG@tan?$AA@  100959bc     libucrt:fpexcept.obj
 0002:000199c0       ??_C@_04GFPJNGEK@ceil?$AA@ 100959c0     libucrt:fpexcept.obj
 0002:000199c8       ??_C@_05PBJFFIGL@floor?$AA@ 100959c8     libucrt:fpexcept.obj
 0002:000199d0       ??_C@_04ODHECPBC@fabs?$AA@ 100959d0     libucrt:fpexcept.obj
 0002:000199d8       ??_C@_04EHEDPDJG@modf?$AA@ 100959d8     libucrt:fpexcept.obj
 0002:000199e0       ??_C@_05CEJMAHNP@ldexp?$AA@ 100959e0     libucrt:fpexcept.obj
 0002:000199e8       ??_C@_05KBKMEMPO@_cabs?$AA@ 100959e8     libucrt:fpexcept.obj
 0002:000199f0       ??_C@_06MEIMCGCF@_hypot?$AA@ 100959f0     libucrt:fpexcept.obj
 0002:000199f8       ??_C@_04KEPJIHGP@fmod?$AA@ 100959f8     libucrt:fpexcept.obj
 0002:00019a00       ??_C@_05GKKHEGJL@frexp?$AA@ 10095a00     libucrt:fpexcept.obj
 0002:00019a08       ??_C@_03MJLDFKDL@_y0?$AA@  10095a08     libucrt:fpexcept.obj
 0002:00019a0c       ??_C@_03NAKIGLHK@_y1?$AA@  10095a0c     libucrt:fpexcept.obj
 0002:00019a10       ??_C@_03ONILCKOB@_yn?$AA@  10095a10     libucrt:fpexcept.obj
 0002:00019a14       ??_C@_05JGDBENOH@_logb?$AA@ 10095a14     libucrt:fpexcept.obj
 0002:00019a1c       ??_C@_0L@KDOEJCKC@_nextafter?$AA@ 10095a1c     libucrt:fpexcept.obj
 0002:00019b48       ??_C@_03KHJOGHMM@exp?$AA@  10095b48     libucrt:fpexcept.obj
 0002:00019b4c       ??_C@_03JGHBODFD@pow?$AA@  10095b4c     libucrt:fpexcept.obj
 0002:00019b50       ??_C@_03MGHMBJCF@log?$AA@  10095b50     libucrt:fpexcept.obj
 0002:00019b54       ??_C@_05HGHHAHAP@log10?$AA@ 10095b54     libucrt:fpexcept.obj
 0002:00019b5c       ??_C@_04COOMCNPB@sinh?$AA@ 10095b5c     libucrt:fpexcept.obj
 0002:00019b64       ??_C@_04HPJJNFIM@cosh?$AA@ 10095b64     libucrt:fpexcept.obj
 0002:00019b70       ___acrt_exception_action_table 10095b70     libucrt:exception_filter.obj
 0002:00019c1c       ___acrt_signal_action_table_count 10095c1c     libucrt:exception_filter.obj
 0002:00019c20       ___acrt_signal_action_table_size 10095c20     libucrt:exception_filter.obj
 0002:00019c24       ___acrt_signal_action_first_fpe_index 10095c24     libucrt:exception_filter.obj
 0002:00019c28       ___acrt_signal_action_fpe_count 10095c28     libucrt:exception_filter.obj
 0002:00019cc0       ??_C@_1BG@HHIFPOEK@?$AAm?$AAs?$AAv?$AAc?$AAr?$AAt?$AA?4?$AAd?$AAl?$AAl?$AA?$AA@ 10095cc0     libucrt:free_base.obj
 0002:00019cdc       __Fenv0                    10095cdc     libucrt:atox.obj
 0002:00019ef8       ??_C@_1EG@CNNIPFIM@?$AAa?$AAp?$AAi?$AA?9?$AAm?$AAs?$AA?9?$AAw?$AAi?$AAn?$AA?9?$AAa?$AAp?$AAp?$AAm?$AAo?$AAd?$AAe?$AAl?$AA?9?$AAr?$AAu?$AAn?$AAt?$AAi?$AAm?$AAe?$AA?9?$AAl?$AA1?$AA?9?$AA1@ 10095ef8     libucrt:winapi_thunks.obj
 0002:00019f50       ??_C@_1EA@JGEFHKEI@?$AAa?$AAp?$AAi?$AA?9?$AAm?$AAs?$AA?9?$AAw?$AAi?$AAn?$AA?9?$AAc?$AAo?$AAr?$AAe?$AA?9?$AAd?$AAa?$AAt?$AAe?$AAt?$AAi?$AAm?$AAe?$AA?9?$AAl?$AA1?$AA?9?$AA1?$AA?9?$AA1?$AA?$AA@ 10095f50     libucrt:winapi_thunks.obj
 0002:00019f9c       ??_C@_1DI@GCIAAENM@?$AAa?$AAp?$AAi?$AA?9?$AAm?$AAs?$AA?9?$AAw?$AAi?$AAn?$AA?9?$AAc?$AAo?$AAr?$AAe?$AA?9?$AAf?$AAi?$AAl?$AAe?$AA?9?$AAl?$AA2?$AA?9?$AA1?$AA?9?$AA1?$AA?$AA@ 10095f9c     libucrt:winapi_thunks.obj
 0002:00019fe0       ??_C@_1EI@MPIAOHOC@?$AAa?$AAp?$AAi?$AA?9?$AAm?$AAs?$AA?9?$AAw?$AAi?$AAn?$AA?9?$AAc?$AAo?$AAr?$AAe?$AA?9?$AAl?$AAo?$AAc?$AAa?$AAl?$AAi?$AAz?$AAa?$AAt?$AAi?$AAo?$AAn?$AA?9?$AAl?$AA1?$AA?9@ 10095fe0     libucrt:winapi_thunks.obj
 0002:0001a038       ??_C@_1FK@FPHCKFIE@?$AAa?$AAp?$AAi?$AA?9?$AAm?$AAs?$AA?9?$AAw?$AAi?$AAn?$AA?9?$AAc?$AAo?$AAr?$AAe?$AA?9?$AAl?$AAo?$AAc?$AAa?$AAl?$AAi?$AAz?$AAa?$AAt?$AAi?$AAo?$AAn?$AA?9?$AAo?$AAb?$AAs@ 10096038     libucrt:winapi_thunks.obj
 0002:0001a0a8       ??_C@_1EM@DILCGIIO@?$AAa?$AAp?$AAi?$AA?9?$AAm?$AAs?$AA?9?$AAw?$AAi?$AAn?$AA?9?$AAc?$AAo?$AAr?$AAe?$AA?9?$AAp?$AAr?$AAo?$AAc?$AAe?$AAs?$AAs?$AAt?$AAh?$AAr?$AAe?$AAa?$AAd?$AAs?$AA?9?$AAl@ 100960a8     libucrt:winapi_thunks.obj
 0002:0001a104       ??_C@_1DM@LNCGDDPN@?$AAa?$AAp?$AAi?$AA?9?$AAm?$AAs?$AA?9?$AAw?$AAi?$AAn?$AA?9?$AAc?$AAo?$AAr?$AAe?$AA?9?$AAs?$AAt?$AAr?$AAi?$AAn?$AAg?$AA?9?$AAl?$AA1?$AA?9?$AA1?$AA?9?$AA0?$AA?$AA@ 10096104     libucrt:winapi_thunks.obj
 0002:0001a14c       ??_C@_1DO@FPAPJEMD@?$AAa?$AAp?$AAi?$AA?9?$AAm?$AAs?$AA?9?$AAw?$AAi?$AAn?$AA?9?$AAc?$AAo?$AAr?$AAe?$AA?9?$AAs?$AAy?$AAs?$AAi?$AAn?$AAf?$AAo?$AA?9?$AAl?$AA1?$AA?9?$AA2?$AA?9?$AA1?$AA?$AA@ 1009614c     libucrt:winapi_thunks.obj
 0002:0001a198       ??_C@_1DK@NDHNAHIO@?$AAa?$AAp?$AAi?$AA?9?$AAm?$AAs?$AA?9?$AAw?$AAi?$AAn?$AA?9?$AAc?$AAo?$AAr?$AAe?$AA?9?$AAw?$AAi?$AAn?$AAr?$AAt?$AA?9?$AAl?$AA1?$AA?9?$AA1?$AA?9?$AA0?$AA?$AA@ 10096198     libucrt:winapi_thunks.obj
 0002:0001a1e0       ??_C@_1DM@KGHDGBCM@?$AAa?$AAp?$AAi?$AA?9?$AAm?$AAs?$AA?9?$AAw?$AAi?$AAn?$AA?9?$AAc?$AAo?$AAr?$AAe?$AA?9?$AAx?$AAs?$AAt?$AAa?$AAt?$AAe?$AA?9?$AAl?$AA2?$AA?9?$AA1?$AA?9?$AA0?$AA?$AA@ 100961e0     libucrt:winapi_thunks.obj
 0002:0001a228       ??_C@_1EO@IJIOEFOH@?$AAa?$AAp?$AAi?$AA?9?$AAm?$AAs?$AA?9?$AAw?$AAi?$AAn?$AA?9?$AAr?$AAt?$AAc?$AAo?$AAr?$AAe?$AA?9?$AAn?$AAt?$AAu?$AAs?$AAe?$AAr?$AA?9?$AAw?$AAi?$AAn?$AAd?$AAo?$AAw?$AA?9@ 10096228     libucrt:winapi_thunks.obj
 0002:0001a288       ??_C@_1FG@HHGEKANL@?$AAa?$AAp?$AAi?$AA?9?$AAm?$AAs?$AA?9?$AAw?$AAi?$AAn?$AA?9?$AAs?$AAe?$AAc?$AAu?$AAr?$AAi?$AAt?$AAy?$AA?9?$AAs?$AAy?$AAs?$AAt?$AAe?$AAm?$AAf?$AAu?$AAn?$AAc?$AAt?$AAi@ 10096288     libucrt:winapi_thunks.obj
 0002:0001a2f0       ??_C@_1FG@NCKKOLKO@?$AAe?$AAx?$AAt?$AA?9?$AAm?$AAs?$AA?9?$AAw?$AAi?$AAn?$AA?9?$AAk?$AAe?$AAr?$AAn?$AAe?$AAl?$AA3?$AA2?$AA?9?$AAp?$AAa?$AAc?$AAk?$AAa?$AAg?$AAe?$AA?9?$AAc?$AAu?$AAr?$AAr@ 100962f0     libucrt:winapi_thunks.obj
 0002:0001a358       ??_C@_1EG@DBIOJECG@?$AAe?$AAx?$AAt?$AA?9?$AAm?$AAs?$AA?9?$AAw?$AAi?$AAn?$AA?9?$AAn?$AAt?$AAu?$AAs?$AAe?$AAr?$AA?9?$AAd?$AAi?$AAa?$AAl?$AAo?$AAg?$AAb?$AAo?$AAx?$AA?9?$AAl?$AA1?$AA?9?$AA1@ 10096358     libucrt:winapi_thunks.obj
 0002:0001a3b0       ??_C@_1EO@FIHMJCLF@?$AAe?$AAx?$AAt?$AA?9?$AAm?$AAs?$AA?9?$AAw?$AAi?$AAn?$AA?9?$AAn?$AAt?$AAu?$AAs?$AAe?$AAr?$AA?9?$AAw?$AAi?$AAn?$AAd?$AAo?$AAw?$AAs?$AAt?$AAa?$AAt?$AAi?$AAo?$AAn?$AA?9@ 100963b0     libucrt:winapi_thunks.obj
 0002:0001a410       ??_C@_1O@BCCLBEOE@?$AAu?$AAs?$AAe?$AAr?$AA3?$AA2?$AA?$AA@ 10096410     libucrt:winapi_thunks.obj
 0002:0001a424       ??_C@_0BA@FHFNEAED@AreFileApisANSI?$AA@ 10096424     libucrt:winapi_thunks.obj
 0002:0001a444       ??_C@_0BA@IHGNDAEB@CompareStringEx?$AA@ 10096444     libucrt:winapi_thunks.obj
 0002:0001a464       ??_C@_0BE@LJANKFHF@EnumSystemLocalesEx?$AA@ 10096464     libucrt:winapi_thunks.obj
 0002:0001a4b8       ??_C@_0BA@HNOPNCHB@GetActiveWindow?$AA@ 100964b8     libucrt:winapi_thunks.obj
 0002:0001a4d8       ??_C@_0BE@JOGNEJCI@GetCurrentPackageId?$AA@ 100964d8     libucrt:winapi_thunks.obj
 0002:0001a4fc       ??_C@_0BA@EPCJIIPD@GetDateFormatEx?$AA@ 100964fc     libucrt:winapi_thunks.obj
 0002:0001a51c       ??_C@_0BJ@DIBIJBHA@GetEnabledXStateFeatures?$AA@ 1009651c     libucrt:winapi_thunks.obj
 0002:0001a548       ??_C@_0BN@NEEHBBPO@GetFileInformationByHandleEx?$AA@ 10096548     libucrt:winapi_thunks.obj
 0002:0001a578       ??_C@_0BD@HHGDFDBJ@GetLastActivePopup?$AA@ 10096578     libucrt:winapi_thunks.obj
 0002:0001a59c       ??_C@_0BA@ONOKGCMP@GetLocaleInfoEx?$AA@ 1009659c     libucrt:winapi_thunks.obj
 0002:0001a5bc       ??_C@_0BI@DFKBFLJE@GetProcessWindowStation?$AA@ 100965bc     libucrt:winapi_thunks.obj
 0002:0001a5dc       ??_C@_0BP@FPNJPEJC@GetSystemTimePreciseAsFileTime?$AA@ 100965dc     libucrt:winapi_thunks.obj
 0002:0001a610       ??_C@_0BA@CIJJKCJJ@GetTimeFormatEx?$AA@ 10096610     libucrt:winapi_thunks.obj
 0002:0001a630       ??_C@_0BJ@PBCCBIPI@GetUserDefaultLocaleName?$AA@ 10096630     libucrt:winapi_thunks.obj
 0002:0001a65c       ??_C@_0BK@DEKFELLI@GetUserObjectInformationW?$AA@ 1009665c     libucrt:winapi_thunks.obj
 0002:0001a688       ??_C@_0BG@IKLDMBLM@GetXStateFeaturesMask?$AA@ 10096688     libucrt:winapi_thunks.obj
 0002:0001a6bc       ??_C@_0BC@CELBKLLA@IsValidLocaleName?$AA@ 100966bc     libucrt:winapi_thunks.obj
 0002:0001a6e0       ??_C@_0O@KKBNKAPF@LCMapStringEx?$AA@ 100966e0     libucrt:winapi_thunks.obj
 0002:0001a6fc       ??_C@_0BB@CDHDDLLP@LCIDToLocaleName?$AA@ 100966fc     libucrt:winapi_thunks.obj
 0002:0001a71c       ??_C@_0BB@HBDEELFH@LocaleNameToLCID?$AA@ 1009671c     libucrt:winapi_thunks.obj
 0002:0001a73c       ??_C@_0BE@KINNKFDA@LocateXStateFeature?$AA@ 1009673c     libucrt:winapi_thunks.obj
 0002:0001a760       ??_C@_0M@CHKKJDAI@MessageBoxA?$AA@ 10096760     libucrt:winapi_thunks.obj
 0002:0001a77c       ??_C@_0M@DLDCCGNP@MessageBoxW?$AA@ 1009677c     libucrt:winapi_thunks.obj
 0002:0001a790       ??_C@_0N@PPOMPGGK@RoInitialize?$AA@ 10096790     libucrt:winapi_thunks.obj
 0002:0001a7a4       ??_C@_0P@LLFHBIJD@RoUninitialize?$AA@ 100967a4     libucrt:winapi_thunks.obj
 0002:0001a7c4       ??_C@_0BI@BKLFFAPO@SetThreadStackGuarantee?$AA@ 100967c4     libucrt:winapi_thunks.obj
 0002:0001a7ec       ??_C@_0BC@JEAENNKH@SystemFunction036?$AA@ 100967ec     libucrt:winapi_thunks.obj
 0002:0001a804       ??_C@_03OEIAHPBN@INF?$AA@  10096804     libucrt:cvt.obj
 0002:0001a808       ??_C@_03OJHLLCGB@inf?$AA@  10096808     libucrt:cvt.obj
 0002:0001a80c       ??_C@_03LKNCIKJB@NAN?$AA@  1009680c     libucrt:cvt.obj
 0002:0001a810       ??_C@_03LHCJEHON@nan?$AA@  10096810     libucrt:cvt.obj
 0002:0001a814       ??_C@_09OFJJIMPC@NAN?$CISNAN?$CJ?$AA@ 10096814     libucrt:cvt.obj
 0002:0001a820       ??_C@_09IPFBKMDL@nan?$CIsnan?$CJ?$AA@ 10096820     libucrt:cvt.obj
 0002:0001a82c       ??_C@_08IKHNHAJ@NAN?$CIIND?$CJ?$AA@ 1009682c     libucrt:cvt.obj
 0002:0001a838       ??_C@_08OFCDMILK@nan?$CIind?$CJ?$AA@ 10096838     libucrt:cvt.obj
 0002:0001a844       ??_C@_05KLBDPFGC@e?$CL000?$AA@ 10096844     libucrt:cvt.obj
 0002:0001a850       ___lc_category             10096850     libucrt:wsetlocale.obj
 0002:0001a8a8       ??_C@_1O@GIFLHMA@?$AAL?$AAC?$AA_?$AAA?$AAL?$AAL?$AA?$AA@ 100968a8     libucrt:wsetlocale.obj
 0002:0001a8b8       ??_C@_1BG@PPOMIBNJ@?$AAL?$AAC?$AA_?$AAC?$AAO?$AAL?$AAL?$AAA?$AAT?$AAE?$AA?$AA@ 100968b8     libucrt:wsetlocale.obj
 0002:0001a8d4       ??_C@_1BC@FFJGAPJM@?$AAL?$AAC?$AA_?$AAC?$AAT?$AAY?$AAP?$AAE?$AA?$AA@ 100968d4     libucrt:wsetlocale.obj
 0002:0001a8ec       ??_C@_1BI@PCKFNJFB@?$AAL?$AAC?$AA_?$AAM?$AAO?$AAN?$AAE?$AAT?$AAA?$AAR?$AAY?$AA?$AA@ 100968ec     libucrt:wsetlocale.obj
 0002:0001a908       ??_C@_1BG@ENIEDKID@?$AAL?$AAC?$AA_?$AAN?$AAU?$AAM?$AAE?$AAR?$AAI?$AAC?$AA?$AA@ 10096908     libucrt:wsetlocale.obj
 0002:0001a924       ??_C@_1BA@HAAOMIIG@?$AAL?$AAC?$AA_?$AAT?$AAI?$AAM?$AAE?$AA?$AA@ 10096924     libucrt:wsetlocale.obj
 0002:0001a9d0       ??_C@_15NBPDDFIP@?$AA?$DN?$AA?$DL?$AA?$AA@ 100969d0     libucrt:wsetlocale.obj
 0002:0001a9d8       ??_C@_13PJJBFPED@?$AA?$DL?$AA?$AA@ 100969d8     libucrt:wsetlocale.obj
 0002:0001a9dc       ??_C@_13NMPKAAJP@?$AA?$DN?$AA?$AA@ 100969dc     libucrt:wsetlocale.obj
 0002:0001a9e0       ??_C@_13FHBKNHDA@?$AAC?$AA?$AA@ 100969e0     libucrt:wsetlocale.obj
 0002:0001a9e4       ??_C@_17MBJJLFDM@?$AA_?$AA?4?$AA?0?$AA?$AA@ 100969e4     libucrt:wsetlocale.obj
 0002:0001a9f0       ??_C@_13ENNFDPBH@?$AA_?$AA?$AA@ 100969f0     libucrt:wsetlocale.obj
 0002:0001a9f4       ??_C@_13JOFGPIOO@?$AA?4?$AA?$AA@ 100969f4     libucrt:wsetlocale.obj
 0002:0001a9f8       ??_C@_03KOEHGMDN@Sun?$AA@  100969f8     libucrt:nlsdata.obj
 0002:0001a9fc       ??_C@_03PDAGKDH@Mon?$AA@   100969fc     libucrt:nlsdata.obj
 0002:0001aa00       ??_C@_03NAGEINEP@Tue?$AA@  10096a00     libucrt:nlsdata.obj
 0002:0001aa04       ??_C@_03MHOMLAJA@Wed?$AA@  10096a04     libucrt:nlsdata.obj
 0002:0001aa08       ??_C@_03IOFIKPDN@Thu?$AA@  10096a08     libucrt:nlsdata.obj
 0002:0001aa0c       ??_C@_03IDIOELNC@Fri?$AA@  10096a0c     libucrt:nlsdata.obj
 0002:0001aa10       ??_C@_03FEFJNEK@Sat?$AA@   10096a10     libucrt:nlsdata.obj
 0002:0001aa14       ??_C@_06OOPIFAJ@Sunday?$AA@ 10096a14     libucrt:nlsdata.obj
 0002:0001aa1c       ??_C@_06JLEDEDGH@Monday?$AA@ 10096a1c     libucrt:nlsdata.obj
 0002:0001aa24       ??_C@_07BAAGCFCM@Tuesday?$AA@ 10096a24     libucrt:nlsdata.obj
 0002:0001aa30       ??_C@_09DLIGFAKA@Wednesday?$AA@ 10096a30     libucrt:nlsdata.obj
 0002:0001aa3c       ??_C@_08HACCIKIA@Thursday?$AA@ 10096a3c     libucrt:nlsdata.obj
 0002:0001aa48       ??_C@_06JECMNKMI@Friday?$AA@ 10096a48     libucrt:nlsdata.obj
 0002:0001aa50       ??_C@_08INBOOONO@Saturday?$AA@ 10096a50     libucrt:nlsdata.obj
 0002:0001aa5c       ??_C@_03JIHJHPIE@Jan?$AA@  10096a5c     libucrt:nlsdata.obj
 0002:0001aa60       ??_C@_03HJBDCHOM@Feb?$AA@  10096a60     libucrt:nlsdata.obj
 0002:0001aa64       ??_C@_03ODNJBKGA@Mar?$AA@  10096a64     libucrt:nlsdata.obj
 0002:0001aa68       ??_C@_03LEOLGMJP@Apr?$AA@  10096a68     libucrt:nlsdata.obj
 0002:0001aa6c       ??_C@_03CNMDKL@May?$AA@    10096a6c     libucrt:nlsdata.obj
 0002:0001aa70       ??_C@_03IDFGHECI@Jun?$AA@  10096a70     libucrt:nlsdata.obj
 0002:0001aa74       ??_C@_03LBGABGKK@Jul?$AA@  10096a74     libucrt:nlsdata.obj
 0002:0001aa78       ??_C@_03IFJFEIGA@Aug?$AA@  10096a78     libucrt:nlsdata.obj
 0002:0001aa7c       ??_C@_03GGCAPAJC@Sep?$AA@  10096a7c     libucrt:nlsdata.obj
 0002:0001aa80       ??_C@_03BMAOKBAD@Oct?$AA@  10096a80     libucrt:nlsdata.obj
 0002:0001aa84       ??_C@_03JPJOFNIA@Nov?$AA@  10096a84     libucrt:nlsdata.obj
 0002:0001aa88       ??_C@_03MKABNOCG@Dec?$AA@  10096a88     libucrt:nlsdata.obj
 0002:0001aa8c       ??_C@_07CGJPFGJA@January?$AA@ 10096a8c     libucrt:nlsdata.obj
 0002:0001aa98       ??_C@_08GNJGEPFN@February?$AA@ 10096a98     libucrt:nlsdata.obj
 0002:0001aaa4       ??_C@_05HPCKOFNC@March?$AA@ 10096aa4     libucrt:nlsdata.obj
 0002:0001aaac       ??_C@_05DMJDNLEJ@April?$AA@ 10096aac     libucrt:nlsdata.obj
 0002:0001aab4       ??_C@_04CNLMGBGM@June?$AA@ 10096ab4     libucrt:nlsdata.obj
 0002:0001aabc       ??_C@_04MIEPOIFP@July?$AA@ 10096abc     libucrt:nlsdata.obj
 0002:0001aac4       ??_C@_06LBBHFDDG@August?$AA@ 10096ac4     libucrt:nlsdata.obj
 0002:0001aacc       ??_C@_09BHHEALKD@September?$AA@ 10096acc     libucrt:nlsdata.obj
 0002:0001aad8       ??_C@_07JJNFCEND@October?$AA@ 10096ad8     libucrt:nlsdata.obj
 0002:0001aae4       ??_C@_08HCHEGEOA@November?$AA@ 10096ae4     libucrt:nlsdata.obj
 0002:0001aaf0       ??_C@_08EDHMEBNP@December?$AA@ 10096af0     libucrt:nlsdata.obj
 0002:0001aafc       ??_C@_02DEDBPAFC@AM?$AA@   10096afc     libucrt:nlsdata.obj
 0002:0001ab00       ??_C@_02CJNFDJBF@PM?$AA@   10096b00     libucrt:nlsdata.obj
 0002:0001ab04       ??_C@_08BPBNCDIB@MM?1dd?1yy?$AA@ 10096b04     libucrt:nlsdata.obj
 0002:0001ab10       ??_C@_0BE@CKGJFCPC@dddd?0?5MMMM?5dd?0?5yyyy?$AA@ 10096b10     libucrt:nlsdata.obj
 0002:0001ab28       ??_C@_08JCCMCCIL@HH?3mm?3ss?$AA@ 10096b28     libucrt:nlsdata.obj
 0002:0001ab34       ??_C@_17MBGCMIPB@?$AAS?$AAu?$AAn?$AA?$AA@ 10096b34     libucrt:nlsdata.obj
 0002:0001ab40       ??_C@_17KBOMKBF@?$AAM?$AAo?$AAn?$AA?$AA@ 10096b40     libucrt:nlsdata.obj
 0002:0001ab4c       ??_C@_17BMKGEGOJ@?$AAT?$AAu?$AAe?$AA?$AA@ 10096b4c     libucrt:nlsdata.obj
 0002:0001ab58       ??_C@_17CJEDCEPE@?$AAW?$AAe?$AAd?$AA?$AA@ 10096b58     libucrt:nlsdata.obj
 0002:0001ab64       ??_C@_17PDPHAADD@?$AAT?$AAh?$AAu?$AA?$AA@ 10096b64     libucrt:nlsdata.obj
 0002:0001ab70       ??_C@_17HFOLPPLP@?$AAF?$AAr?$AAi?$AA?$AA@ 10096b70     libucrt:nlsdata.obj
 0002:0001ab7c       ??_C@_17GGIBDPIH@?$AAS?$AAa?$AAt?$AA?$AA@ 10096b7c     libucrt:nlsdata.obj
 0002:0001ab88       ??_C@_1O@IHNHDHPB@?$AAS?$AAu?$AAn?$AAd?$AAa?$AAy?$AA?$AA@ 10096b88     libucrt:nlsdata.obj
 0002:0001ab98       ??_C@_1O@MMNBFLIA@?$AAM?$AAo?$AAn?$AAd?$AAa?$AAy?$AA?$AA@ 10096b98     libucrt:nlsdata.obj
 0002:0001aba8       ??_C@_1BA@ENFBFFEK@?$AAT?$AAu?$AAe?$AAs?$AAd?$AAa?$AAy?$AA?$AA@ 10096ba8     libucrt:nlsdata.obj
 0002:0001abbc       ??_C@_1BE@EBOGMDOH@?$AAW?$AAe?$AAd?$AAn?$AAe?$AAs?$AAd?$AAa?$AAy?$AA?$AA@ 10096bbc     libucrt:nlsdata.obj
 0002:0001abd4       ??_C@_1BC@HHMNLIHE@?$AAT?$AAh?$AAu?$AAr?$AAs?$AAd?$AAa?$AAy?$AA?$AA@ 10096bd4     libucrt:nlsdata.obj
 0002:0001abec       ??_C@_1O@PDICJHAG@?$AAF?$AAr?$AAi?$AAd?$AAa?$AAy?$AA?$AA@ 10096bec     libucrt:nlsdata.obj
 0002:0001abfc       ??_C@_1BC@ENMNNPAJ@?$AAS?$AAa?$AAt?$AAu?$AAr?$AAd?$AAa?$AAy?$AA?$AA@ 10096bfc     libucrt:nlsdata.obj
 0002:0001ac14       ??_C@_17DKNBKCHM@?$AAJ?$AAa?$AAn?$AA?$AA@ 10096c14     libucrt:nlsdata.obj
 0002:0001ac20       ??_C@_17LMDJEKJN@?$AAF?$AAe?$AAb?$AA?$AA@ 10096c20     libucrt:nlsdata.obj
 0002:0001ac2c       ??_C@_17CKNLEDEC@?$AAM?$AAa?$AAr?$AA?$AA@ 10096c2c     libucrt:nlsdata.obj
 0002:0001ac38       ??_C@_17LFPOIHDD@?$AAA?$AAp?$AAr?$AA?$AA@ 10096c38     libucrt:nlsdata.obj
 0002:0001ac44       ??_C@_17PNNKMEED@?$AAM?$AAa?$AAy?$AA?$AA@ 10096c44     libucrt:nlsdata.obj
 0002:0001ac50       ??_C@_17KCJGOCPB@?$AAJ?$AAu?$AAn?$AA?$AA@ 10096c50     libucrt:nlsdata.obj
 0002:0001ac5c       ??_C@_17IJPCKHK@?$AAJ?$AAu?$AAl?$AA?$AA@ 10096c5c     libucrt:nlsdata.obj
 0002:0001ac68       ??_C@_17ICPELBCN@?$AAA?$AAu?$AAg?$AA?$AA@ 10096c68     libucrt:nlsdata.obj
 0002:0001ac74       ??_C@_17HCHCOKMG@?$AAS?$AAe?$AAp?$AA?$AA@ 10096c74     libucrt:nlsdata.obj
 0002:0001ac80       ??_C@_17FNLKOI@?$AAO?$AAc?$AAt?$AA?$AA@ 10096c80     libucrt:nlsdata.obj
 0002:0001ac8c       ??_C@_17BBDMLCIG@?$AAN?$AAo?$AAv?$AA?$AA@ 10096c8c     libucrt:nlsdata.obj
 0002:0001ac98       ??_C@_17EGKACKIF@?$AAD?$AAe?$AAc?$AA?$AA@ 10096c98     libucrt:nlsdata.obj
 0002:0001aca4       ??_C@_1BA@EFMEIEBA@?$AAJ?$AAa?$AAn?$AAu?$AAa?$AAr?$AAy?$AA?$AA@ 10096ca4     libucrt:nlsdata.obj
 0002:0001acb8       ??_C@_1BC@JGDDFFAM@?$AAF?$AAe?$AAb?$AAr?$AAu?$AAa?$AAr?$AAy?$AA?$AA@ 10096cb8     libucrt:nlsdata.obj
 0002:0001acd0       ??_C@_1M@IKEENEDF@?$AAM?$AAa?$AAr?$AAc?$AAh?$AA?$AA@ 10096cd0     libucrt:nlsdata.obj
 0002:0001ace0       ??_C@_1M@GJNLMHFD@?$AAA?$AAp?$AAr?$AAi?$AAl?$AA?$AA@ 10096ce0     libucrt:nlsdata.obj
 0002:0001acf0       ??_C@_19EPFLPGAP@?$AAJ?$AAu?$AAn?$AAe?$AA?$AA@ 10096cf0     libucrt:nlsdata.obj
 0002:0001acfc       ??_C@_19BIFMLPCD@?$AAJ?$AAu?$AAl?$AAy?$AA?$AA@ 10096cfc     libucrt:nlsdata.obj
 0002:0001ad08       ??_C@_1O@PAHLKOAC@?$AAA?$AAu?$AAg?$AAu?$AAs?$AAt?$AA?$AA@ 10096d08     libucrt:nlsdata.obj
 0002:0001ad18       ??_C@_1BE@DKAAMBJL@?$AAS?$AAe?$AAp?$AAt?$AAe?$AAm?$AAb?$AAe?$AAr?$AA?$AA@ 10096d18     libucrt:nlsdata.obj
 0002:0001ad30       ??_C@_1BA@EPANDLNG@?$AAO?$AAc?$AAt?$AAo?$AAb?$AAe?$AAr?$AA?$AA@ 10096d30     libucrt:nlsdata.obj
 0002:0001ad44       ??_C@_1BC@BGLIFPF@?$AAN?$AAo?$AAv?$AAe?$AAm?$AAb?$AAe?$AAr?$AA?$AA@ 10096d44     libucrt:nlsdata.obj
 0002:0001ad5c       ??_C@_1BC@FEMKIFH@?$AAD?$AAe?$AAc?$AAe?$AAm?$AAb?$AAe?$AAr?$AA?$AA@ 10096d5c     libucrt:nlsdata.obj
 0002:0001ad74       ??_C@_15ODEHAHHF@?$AAA?$AAM?$AA?$AA@ 10096d74     libucrt:nlsdata.obj
 0002:0001ad7c       ??_C@_15CLMNNGEL@?$AAP?$AAM?$AA?$AA@ 10096d7c     libucrt:nlsdata.obj
 0002:0001ad84       ??_C@_1BC@IEBCMHCM@?$AAM?$AAM?$AA?1?$AAd?$AAd?$AA?1?$AAy?$AAy?$AA?$AA@ 10096d84     libucrt:nlsdata.obj
 0002:0001ad9c       ??_C@_1CI@KNAKOEBC@?$AAd?$AAd?$AAd?$AAd?$AA?0?$AA?5?$AAM?$AAM?$AAM?$AAM?$AA?5?$AAd?$AAd?$AA?0?$AA?5?$AAy?$AAy?$AAy?$AAy?$AA?$AA@ 10096d9c     libucrt:nlsdata.obj
 0002:0001adcc       ??_C@_1BC@GDGBMEMK@?$AAH?$AAH?$AA?3?$AAm?$AAm?$AA?3?$AAs?$AAs?$AA?$AA@ 10096dcc     libucrt:nlsdata.obj
 0002:0001ade4       ??_C@_1M@BMHNFIME@?$AAe?$AAn?$AA?9?$AAU?$AAS?$AA?$AA@ 10096de4     libucrt:nlsdata.obj
 0002:0001adf8       ___lc_time_c               10096df8     libucrt:nlsdata.obj
 0002:0001afa8       ___acrt_pow_rcp_t1         10096fa8     libucrt:pow_tables.obj
 0002:0001b490       ___acrt_pow_log2_t1        10097490     libucrt:pow_tables.obj
 0002:0001be40       ___acrt_pow_rcp_t2         10097e40     libucrt:pow_tables.obj
 0002:0001c320       ___acrt_pow_log2_t2        10098320     libucrt:pow_tables.obj
 0002:0001ccd0       ___acrt_pow_rcp_t3         10098cd0     libucrt:pow_tables.obj
 0002:0001d680       ___acrt_pow_log2_t3        10099680     libucrt:pow_tables.obj
 0002:0001e9d0       ___acrt_pow_clv            1009a9d0     libucrt:pow_tables.obj
 0002:0001ea00       ___acrt_pow_exp2_tbl       1009aa00     libucrt:pow_tables.obj
 0002:0001f39c       ??_C@_1DE@JNGNBFGO@?$AAR?$AAu?$AAn?$AAt?$AAi?$AAm?$AAe?$AA?5?$AAE?$AAr?$AAr?$AAo?$AAr?$AA?$CB?$AA?6?$AA?6?$AAP?$AAr?$AAo?$AAg?$AAr?$AAa?$AAm?$AA?3?$AA?5?$AA?$AA@ 1009b39c     libucrt:report_runtime_error.obj
 0002:0001f3dc       ?ccs@?BL@???$__acrt_stdio_parse_mode@D@@YA?AU__acrt_stdio_stream_mode@@QBD@Z@4QBDB 1009b3dc     libucrt:openfile.obj
 0002:0001f3e0       ?utf8_encoding@?BL@???$__acrt_stdio_parse_mode@D@@YA?AU__acrt_stdio_stream_mode@@QBD@Z@4QBDB 1009b3e0     libucrt:openfile.obj
 0002:0001f3e8       ?utf16_encoding@?BL@???$__acrt_stdio_parse_mode@D@@YA?AU__acrt_stdio_stream_mode@@QBD@Z@4QBDB 1009b3e8     libucrt:openfile.obj
 0002:0001f3f4       ?unicode_encoding@?BL@???$__acrt_stdio_parse_mode@D@@YA?AU__acrt_stdio_stream_mode@@QBD@Z@4QBDB 1009b3f4     libucrt:openfile.obj
 0002:0001f3fc       ?ccs@?BL@???$__acrt_stdio_parse_mode@_W@@YA?AU__acrt_stdio_stream_mode@@QB_W@Z@4QB_WB 1009b3fc     libucrt:openfile.obj
 0002:0001f404       ?utf8_encoding@?BL@???$__acrt_stdio_parse_mode@_W@@YA?AU__acrt_stdio_stream_mode@@QB_W@Z@4QB_WB 1009b404     libucrt:openfile.obj
 0002:0001f410       ?utf16_encoding@?BL@???$__acrt_stdio_parse_mode@_W@@YA?AU__acrt_stdio_stream_mode@@QB_W@Z@4QB_WB 1009b410     libucrt:openfile.obj
 0002:0001f424       ?unicode_encoding@?BL@???$__acrt_stdio_parse_mode@_W@@YA?AU__acrt_stdio_stream_mode@@QB_W@Z@4QB_WB 1009b424     libucrt:openfile.obj
 0002:0001f438       __d_inf                    1009b438     libucrt:util.obj
 0002:0001f448       __d_ind                    1009b448     libucrt:util.obj
 0002:0001f458       __d_max                    1009b458     libucrt:util.obj
 0002:0001f468       __d_min                    1009b468     libucrt:util.obj
 0002:0001f478       __d_mzero                  1009b478     libucrt:util.obj
 0002:0001f4b8       ??_C@_1M@HPNHIDJI@?$AAj?$AAa?$AA?9?$AAJ?$AAP?$AA?$AA@ 1009b4b8     libucrt:mbctype.obj
 0002:0001f4c8       ??_C@_1M@BIBDDEMK@?$AAz?$AAh?$AA?9?$AAC?$AAN?$AA?$AA@ 1009b4c8     libucrt:mbctype.obj
 0002:0001f4d8       ??_C@_1M@JLOOOEGK@?$AAk?$AAo?$AA?9?$AAK?$AAR?$AA?$AA@ 1009b4d8     libucrt:mbctype.obj
 0002:0001f4e8       ??_C@_1M@CLNBBOPM@?$AAz?$AAh?$AA?9?$AAT?$AAW?$AA?$AA@ 1009b4e8     libucrt:mbctype.obj
 0002:0001f4f8       __wctype                   1009b4f8     libucrt:ctype.obj
 0002:0001f768       ___newctype                1009b768     libucrt:ctype.obj
 0002:0001fb08       ___newclmap                1009bb08     libucrt:ctype.obj
 0002:0001fcd8       ___newcumap                1009bcd8     libucrt:ctype.obj
 0002:00020734       ??_C@_15EMKDOKLE@?$AAa?$AAr?$AA?$AA@ 1009c734     libucrt:lcidtoname_downlevel.obj
 0002:0002073c       ??_C@_15KNPADPLH@?$AAb?$AAg?$AA?$AA@ 1009c73c     libucrt:lcidtoname_downlevel.obj
 0002:00020744       ??_C@_15EDMHLDMO@?$AAc?$AAa?$AA?$AA@ 1009c744     libucrt:lcidtoname_downlevel.obj
 0002:0002074c       ??_C@_1O@BPEAJADD@?$AAz?$AAh?$AA?9?$AAC?$AAH?$AAS?$AA?$AA@ 1009c74c     libucrt:lcidtoname_downlevel.obj
 0002:0002075c       ??_C@_15LJNHCMNK@?$AAc?$AAs?$AA?$AA@ 1009c75c     libucrt:lcidtoname_downlevel.obj
 0002:00020764       ??_C@_15FOMCIDHG@?$AAd?$AAa?$AA?$AA@ 1009c764     libucrt:lcidtoname_downlevel.obj
 0002:0002076c       ??_C@_15NBKABECB@?$AAd?$AAe?$AA?$AA@ 1009c76c     libucrt:lcidtoname_downlevel.obj
 0002:00020774       ??_C@_15GHPEIIAO@?$AAe?$AAl?$AA?$AA@ 1009c774     libucrt:lcidtoname_downlevel.obj
 0002:0002077c       ??_C@_15MNPNEAIF@?$AAe?$AAn?$AA?$AA@ 1009c77c     libucrt:lcidtoname_downlevel.obj
 0002:00020784       ??_C@_15GPIOMPMH@?$AAe?$AAs?$AA?$AA@ 1009c784     libucrt:lcidtoname_downlevel.obj
 0002:0002078c       ??_C@_15NGLOAKJC@?$AAf?$AAi?$AA?$AA@ 1009c78c     libucrt:lcidtoname_downlevel.obj
 0002:00020794       ??_C@_15FBKGNKAM@?$AAf?$AAr?$AA?$AA@ 1009c794     libucrt:lcidtoname_downlevel.obj
 0002:0002079c       ??_C@_15KGGCNEFK@?$AAh?$AAe?$AA?$AA@ 1009c79c     libucrt:lcidtoname_downlevel.obj
 0002:000207a4       ??_C@_15PGHLIDMF@?$AAh?$AAu?$AA?$AA@ 1009c7a4     libucrt:lcidtoname_downlevel.obj
 0002:000207ac       ??_C@_15BIEMAPLM@?$AAi?$AAs?$AA?$AA@ 1009c7ac     libucrt:lcidtoname_downlevel.obj
 0002:000207b4       ??_C@_15IFJLDHAF@?$AAi?$AAt?$AA?$AA@ 1009c7b4     libucrt:lcidtoname_downlevel.obj
 0002:000207bc       ??_C@_15GEMIOCAG@?$AAj?$AAa?$AA?$AA@ 1009c7bc     libucrt:lcidtoname_downlevel.obj
 0002:000207c4       ??_C@_15EPELEGJA@?$AAk?$AAo?$AA?$AA@ 1009c7c4     libucrt:lcidtoname_downlevel.obj
 0002:000207cc       ??_C@_15NDDHIMN@?$AAn?$AAl?$AA?$AA@ 1009c7cc     libucrt:lcidtoname_downlevel.obj
 0002:000207d4       ??_C@_15BPIGNHCD@?$AAn?$AAo?$AA?$AA@ 1009c7d4     libucrt:lcidtoname_downlevel.obj
 0002:000207dc       ??_C@_15DEOPBLCG@?$AAp?$AAl?$AA?$AA@ 1009c7dc     libucrt:lcidtoname_downlevel.obj
 0002:000207e4       ??_C@_15KBECGEFG@?$AAp?$AAt?$AA?$AA@ 1009c7e4     libucrt:lcidtoname_downlevel.obj
 0002:000207ec       ??_C@_15GLJCBFMD@?$AAr?$AAo?$AA?$AA@ 1009c7ec     libucrt:lcidtoname_downlevel.obj
 0002:000207f4       ??_C@_15FEDGKCDI@?$AAr?$AAu?$AA?$AA@ 1009c7f4     libucrt:lcidtoname_downlevel.obj
 0002:000207fc       ??_C@_15GLKMLLHM@?$AAh?$AAr?$AA?$AA@ 1009c7fc     libucrt:lcidtoname_downlevel.obj
 0002:00020804       ??_C@_15CPKMFBDB@?$AAs?$AAk?$AA?$AA@ 1009c804     libucrt:lcidtoname_downlevel.obj
 0002:0002080c       ??_C@_15BAAIOGMK@?$AAs?$AAq?$AA?$AA@ 1009c80c     libucrt:lcidtoname_downlevel.obj
 0002:00020814       ??_C@_15INNPNOHD@?$AAs?$AAv?$AA?$AA@ 1009c814     libucrt:lcidtoname_downlevel.obj
 0002:0002081c       ??_C@_15CABMMOGH@?$AAt?$AAh?$AA?$AA@ 1009c81c     libucrt:lcidtoname_downlevel.obj
 0002:00020824       ??_C@_15BPLIHJJM@?$AAt?$AAr?$AA?$AA@ 1009c824     libucrt:lcidtoname_downlevel.obj
 0002:0002082c       ??_C@_15NEOEKKDJ@?$AAu?$AAr?$AA?$AA@ 1009c82c     libucrt:lcidtoname_downlevel.obj
 0002:00020834       ??_C@_15NFICGAJK@?$AAi?$AAd?$AA?$AA@ 1009c834     libucrt:lcidtoname_downlevel.obj
 0002:0002083c       ??_C@_15PJPFLCCM@?$AAu?$AAk?$AA?$AA@ 1009c83c     libucrt:lcidtoname_downlevel.obj
 0002:00020844       ??_C@_15HPJPHDM@?$AAb?$AAe?$AA?$AA@ 1009c844     libucrt:lcidtoname_downlevel.obj
 0002:0002084c       ??_C@_15LCHLGJII@?$AAs?$AAl?$AA?$AA@ 1009c84c     libucrt:lcidtoname_downlevel.obj
 0002:00020854       ??_C@_15PCFJPHHO@?$AAe?$AAt?$AA?$AA@ 1009c854     libucrt:lcidtoname_downlevel.obj
 0002:0002085c       ??_C@_15HPFPGODN@?$AAl?$AAv?$AA?$AA@ 1009c85c     libucrt:lcidtoname_downlevel.obj
 0002:00020864       ??_C@_15NFFGKGLG@?$AAl?$AAt?$AA?$AA@ 1009c864     libucrt:lcidtoname_downlevel.obj
 0002:0002086c       ??_C@_15BDAKCCHN@?$AAf?$AAa?$AA?$AA@ 1009c86c     libucrt:lcidtoname_downlevel.obj
 0002:00020874       ??_C@_15NFGIAIAJ@?$AAv?$AAi?$AA?$AA@ 1009c874     libucrt:lcidtoname_downlevel.obj
 0002:0002087c       ??_C@_15LMKNDMHN@?$AAh?$AAy?$AA?$AA@ 1009c87c     libucrt:lcidtoname_downlevel.obj
 0002:00020884       ??_C@_15IJBHMCFL@?$AAa?$AAz?$AA?$AA@ 1009c884     libucrt:lcidtoname_downlevel.obj
 0002:0002088c       ??_C@_15EKOFJABL@?$AAe?$AAu?$AA?$AA@ 1009c88c     libucrt:lcidtoname_downlevel.obj
 0002:00020894       ??_C@_15BGHADCNK@?$AAm?$AAk?$AA?$AA@ 1009c894     libucrt:lcidtoname_downlevel.obj
 0002:0002089c       ??_C@_15JDNICKHM@?$AAa?$AAf?$AA?$AA@ 1009c89c     libucrt:lcidtoname_downlevel.obj
 0002:000208a4       ??_C@_15KPJEDBKD@?$AAk?$AAa?$AA?$AA@ 1009c8a4     libucrt:lcidtoname_downlevel.obj
 0002:000208ac       ??_C@_15PDNFFFEO@?$AAf?$AAo?$AA?$AA@ 1009c8ac     libucrt:lcidtoname_downlevel.obj
 0002:000208b4       ??_C@_15OMLEGLOC@?$AAh?$AAi?$AA?$AA@ 1009c8b4     libucrt:lcidtoname_downlevel.obj
 0002:000208bc       ??_C@_15IDNNENKK@?$AAm?$AAs?$AA?$AA@ 1009c8bc     libucrt:lcidtoname_downlevel.obj
 0002:000208c4       ??_C@_15MACJNBMH@?$AAk?$AAk?$AA?$AA@ 1009c8c4     libucrt:lcidtoname_downlevel.obj
 0002:000208cc       ??_C@_15DKDJEOND@?$AAk?$AAy?$AA?$AA@ 1009c8cc     libucrt:lcidtoname_downlevel.obj
 0002:000208d4       ??_C@_15DFGDLJBG@?$AAs?$AAw?$AA?$AA@ 1009c8d4     libucrt:lcidtoname_downlevel.obj
 0002:000208dc       ??_C@_15BBFAICNG@?$AAu?$AAz?$AA?$AA@ 1009c8dc     libucrt:lcidtoname_downlevel.obj
 0002:000208e4       ??_C@_15DKNDCGEA@?$AAt?$AAt?$AA?$AA@ 1009c8e4     libucrt:lcidtoname_downlevel.obj
 0002:000208ec       ??_C@_15MGIFMDPL@?$AAp?$AAa?$AA?$AA@ 1009c8ec     libucrt:lcidtoname_downlevel.obj
 0002:000208f4       ??_C@_15HCNDBBA@?$AAg?$AAu?$AA?$AA@ 1009c8f4     libucrt:lcidtoname_downlevel.obj
 0002:000208fc       ??_C@_15FNBEIBON@?$AAt?$AAa?$AA?$AA@ 1009c8fc     libucrt:lcidtoname_downlevel.obj
 0002:00020904       ??_C@_15NCHGBGLK@?$AAt?$AAe?$AA?$AA@ 1009c904     libucrt:lcidtoname_downlevel.obj
 0002:0002090c       ??_C@_15PHPHCBPF@?$AAk?$AAn?$AA?$AA@ 1009c90c     libucrt:lcidtoname_downlevel.obj
 0002:00020914       ??_C@_15DLGBCKMP@?$AAm?$AAr?$AA?$AA@ 1009c914     libucrt:lcidtoname_downlevel.obj
 0002:0002091c       ??_C@_15EABBLBFF@?$AAs?$AAa?$AA?$AA@ 1009c91c     libucrt:lcidtoname_downlevel.obj
 0002:00020924       ??_C@_15CBKOMCOI@?$AAm?$AAn?$AA?$AA@ 1009c924     libucrt:lcidtoname_downlevel.obj
 0002:0002092c       ??_C@_15CKDMCJAF@?$AAg?$AAl?$AA?$AA@ 1009c92c     libucrt:lcidtoname_downlevel.obj
 0002:00020934       ??_C@_17CNJFBPG@?$AAk?$AAo?$AAk?$AA?$AA@ 1009c934     libucrt:lcidtoname_downlevel.obj
 0002:00020940       ??_C@_17FFBJICPL@?$AAs?$AAy?$AAr?$AA?$AA@ 1009c940     libucrt:lcidtoname_downlevel.obj
 0002:0002094c       ??_C@_17KPNDCPAF@?$AAd?$AAi?$AAv?$AA?$AA@ 1009c94c     libucrt:lcidtoname_downlevel.obj
 0002:00020958       ??_C@_1M@OKAHONE@?$AAa?$AAr?$AA?9?$AAS?$AAA?$AA?$AA@ 1009c958     libucrt:lcidtoname_downlevel.obj
 0002:00020968       ??_C@_1M@FFFIGIGK@?$AAb?$AAg?$AA?9?$AAB?$AAG?$AA?$AA@ 1009c968     libucrt:lcidtoname_downlevel.obj
 0002:00020978       ??_C@_1M@BJNKEDC@?$AAc?$AAa?$AA?9?$AAE?$AAS?$AA?$AA@ 1009c978     libucrt:lcidtoname_downlevel.obj
 0002:00020988       ??_C@_1M@IJJHFJHA@?$AAc?$AAs?$AA?9?$AAC?$AAZ?$AA?$AA@ 1009c988     libucrt:lcidtoname_downlevel.obj
 0002:00020998       ??_C@_1M@CLPEOBGI@?$AAd?$AAa?$AA?9?$AAD?$AAK?$AA?$AA@ 1009c998     libucrt:lcidtoname_downlevel.obj
 0002:000209a8       ??_C@_1M@MCMADGCB@?$AAd?$AAe?$AA?9?$AAD?$AAE?$AA?$AA@ 1009c9a8     libucrt:lcidtoname_downlevel.obj
 0002:000209b8       ??_C@_1M@OOCKEMAM@?$AAe?$AAl?$AA?9?$AAG?$AAR?$AA?$AA@ 1009c9b8     libucrt:lcidtoname_downlevel.obj
 0002:000209c8       ??_C@_1M@DDNJFGID@?$AAf?$AAi?$AA?9?$AAF?$AAI?$AA?$AA@ 1009c9c8     libucrt:lcidtoname_downlevel.obj
 0002:000209d8       ??_C@_1M@GLIPPMAC@?$AAf?$AAr?$AA?9?$AAF?$AAR?$AA?$AA@ 1009c9d8     libucrt:lcidtoname_downlevel.obj
 0002:000209e8       ??_C@_1M@GFMCHPE@?$AAh?$AAe?$AA?9?$AAI?$AAL?$AA?$AA@ 1009c9e8     libucrt:lcidtoname_downlevel.obj
 0002:000209f8       ??_C@_1M@MHLPGNKM@?$AAh?$AAu?$AA?9?$AAH?$AAU?$AA?$AA@ 1009c9f8     libucrt:lcidtoname_downlevel.obj
 0002:00020a08       ??_C@_1M@LPDDNNPN@?$AAi?$AAs?$AA?9?$AAI?$AAS?$AA?$AA@ 1009ca08     libucrt:lcidtoname_downlevel.obj
 0002:00020a18       ??_C@_1M@MADIPODN@?$AAi?$AAt?$AA?9?$AAI?$AAT?$AA?$AA@ 1009ca18     libucrt:lcidtoname_downlevel.obj
 0002:00020a28       ??_C@_1M@IHBJJGG@?$AAn?$AAl?$AA?9?$AAN?$AAL?$AA?$AA@ 1009ca28     libucrt:lcidtoname_downlevel.obj
 0002:00020a38       ??_C@_1M@EANAGDL@?$AAn?$AAb?$AA?9?$AAN?$AAO?$AA?$AA@ 1009ca38     libucrt:lcidtoname_downlevel.obj
 0002:00020a48       ??_C@_1M@NEIEMEGP@?$AAp?$AAl?$AA?9?$AAP?$AAL?$AA?$AA@ 1009ca48     libucrt:lcidtoname_downlevel.obj
 0002:00020a58       ??_C@_1M@BOCFIGEP@?$AAp?$AAt?$AA?9?$AAB?$AAR?$AA?$AA@ 1009ca58     libucrt:lcidtoname_downlevel.obj
 0002:00020a68       ??_C@_1M@IMPFOPBG@?$AAr?$AAo?$AA?9?$AAR?$AAO?$AA?$AA@ 1009ca68     libucrt:lcidtoname_downlevel.obj
 0002:00020a78       ??_C@_1M@IDNNEJMM@?$AAr?$AAu?$AA?9?$AAR?$AAU?$AA?$AA@ 1009ca78     libucrt:lcidtoname_downlevel.obj
 0002:00020a88       ??_C@_1M@LILEEOGM@?$AAh?$AAr?$AA?9?$AAH?$AAR?$AA?$AA@ 1009ca88     libucrt:lcidtoname_downlevel.obj
 0002:00020a98       ??_C@_1M@FKIFEHPB@?$AAs?$AAk?$AA?9?$AAS?$AAK?$AA?$AA@ 1009ca98     libucrt:lcidtoname_downlevel.obj
 0002:00020aa8       ??_C@_1M@LJMAMNPJ@?$AAs?$AAq?$AA?9?$AAA?$AAL?$AA?$AA@ 1009caa8     libucrt:lcidtoname_downlevel.obj
 0002:00020ab8       ??_C@_1M@GIAKDKJK@?$AAs?$AAv?$AA?9?$AAS?$AAE?$AA?$AA@ 1009cab8     libucrt:lcidtoname_downlevel.obj
 0002:00020ac8       ??_C@_1M@MKJKIKCL@?$AAt?$AAh?$AA?9?$AAT?$AAH?$AA?$AA@ 1009cac8     libucrt:lcidtoname_downlevel.obj
 0002:00020ad8       ??_C@_1M@MFLCCMPB@?$AAt?$AAr?$AA?9?$AAT?$AAR?$AA?$AA@ 1009cad8     libucrt:lcidtoname_downlevel.obj
 0002:00020ae8       ??_C@_1M@OIJHDKJN@?$AAu?$AAr?$AA?9?$AAP?$AAK?$AA?$AA@ 1009cae8     libucrt:lcidtoname_downlevel.obj
 0002:00020af8       ??_C@_1M@LHIPCIEK@?$AAi?$AAd?$AA?9?$AAI?$AAD?$AA?$AA@ 1009caf8     libucrt:lcidtoname_downlevel.obj
 0002:00020b08       ??_C@_1M@MFMOBGI@?$AAu?$AAk?$AA?9?$AAU?$AAA?$AA?$AA@ 1009cb08     libucrt:lcidtoname_downlevel.obj
 0002:00020b18       ??_C@_1M@OBGLJIPL@?$AAb?$AAe?$AA?9?$AAB?$AAY?$AA?$AA@ 1009cb18     libucrt:lcidtoname_downlevel.obj
 0002:00020b28       ??_C@_1M@BCFAJEAD@?$AAs?$AAl?$AA?9?$AAS?$AAI?$AA?$AA@ 1009cb28     libucrt:lcidtoname_downlevel.obj
 0002:00020b38       ??_C@_1M@FKFFEDDN@?$AAe?$AAt?$AA?9?$AAE?$AAE?$AA?$AA@ 1009cb38     libucrt:lcidtoname_downlevel.obj
 0002:00020b48       ??_C@_1M@KGKKAACI@?$AAl?$AAv?$AA?9?$AAL?$AAV?$AA?$AA@ 1009cb48     libucrt:lcidtoname_downlevel.obj
 0002:00020b58       ??_C@_1M@IFGBIJO@?$AAl?$AAt?$AA?9?$AAL?$AAT?$AA?$AA@ 1009cb58     libucrt:lcidtoname_downlevel.obj
 0002:00020b68       ??_C@_1M@FGEAHEDM@?$AAf?$AAa?$AA?9?$AAI?$AAR?$AA?$AA@ 1009cb68     libucrt:lcidtoname_downlevel.obj
 0002:00020b78       ??_C@_1M@KBMAIBFN@?$AAv?$AAi?$AA?9?$AAV?$AAN?$AA?$AA@ 1009cb78     libucrt:lcidtoname_downlevel.obj
 0002:00020b88       ??_C@_1M@GPCBKDJK@?$AAh?$AAy?$AA?9?$AAA?$AAM?$AA?$AA@ 1009cb88     libucrt:lcidtoname_downlevel.obj
 0002:00020b98       ??_C@_1BG@BECMDDJB@?$AAa?$AAz?$AA?9?$AAA?$AAZ?$AA?9?$AAL?$AAa?$AAt?$AAn?$AA?$AA@ 1009cb98     libucrt:lcidtoname_downlevel.obj
 0002:00020bb4       ??_C@_1M@MAOFCAEA@?$AAe?$AAu?$AA?9?$AAE?$AAS?$AA?$AA@ 1009cbb4     libucrt:lcidtoname_downlevel.obj
 0002:00020bc4       ??_C@_1M@IGHABKPI@?$AAm?$AAk?$AA?9?$AAM?$AAK?$AA?$AA@ 1009cbc4     libucrt:lcidtoname_downlevel.obj
 0002:00020bd4       ??_C@_1M@IAIGNEJG@?$AAt?$AAn?$AA?9?$AAZ?$AAA?$AA?$AA@ 1009cbd4     libucrt:lcidtoname_downlevel.obj
 0002:00020be4       ??_C@_1M@IIJCOJFA@?$AAx?$AAh?$AA?9?$AAZ?$AAA?$AA?$AA@ 1009cbe4     libucrt:lcidtoname_downlevel.obj
 0002:00020bf4       ??_C@_1M@LGPJHNJH@?$AAz?$AAu?$AA?9?$AAZ?$AAA?$AA?$AA@ 1009cbf4     libucrt:lcidtoname_downlevel.obj
 0002:00020c04       ??_C@_1M@HOKAOIO@?$AAa?$AAf?$AA?9?$AAZ?$AAA?$AA?$AA@ 1009cc04     libucrt:lcidtoname_downlevel.obj
 0002:00020c14       ??_C@_1M@DPCLHLIE@?$AAk?$AAa?$AA?9?$AAG?$AAE?$AA?$AA@ 1009cc14     libucrt:lcidtoname_downlevel.obj
 0002:00020c24       ??_C@_1M@BLKMHJBI@?$AAf?$AAo?$AA?9?$AAF?$AAO?$AA?$AA@ 1009cc24     libucrt:lcidtoname_downlevel.obj
 0002:00020c34       ??_C@_1M@LGGJAPPB@?$AAh?$AAi?$AA?9?$AAI?$AAN?$AA?$AA@ 1009cc34     libucrt:lcidtoname_downlevel.obj
 0002:00020c44       ??_C@_1M@FIKPIHFE@?$AAm?$AAt?$AA?9?$AAM?$AAT?$AA?$AA@ 1009cc44     libucrt:lcidtoname_downlevel.obj
 0002:00020c54       ??_C@_1M@HEGGPBFA@?$AAs?$AAe?$AA?9?$AAN?$AAO?$AA?$AA@ 1009cc54     libucrt:lcidtoname_downlevel.obj
 0002:00020c64       ??_C@_1M@EIBJEEPA@?$AAm?$AAs?$AA?9?$AAM?$AAY?$AA?$AA@ 1009cc64     libucrt:lcidtoname_downlevel.obj
 0002:00020c74       ??_C@_1M@FHLBGMPP@?$AAk?$AAk?$AA?9?$AAK?$AAZ?$AA?$AA@ 1009cc74     libucrt:lcidtoname_downlevel.obj
 0002:00020c84       ??_C@_1M@NGJJLCGI@?$AAk?$AAy?$AA?9?$AAK?$AAG?$AA?$AA@ 1009cc84     libucrt:lcidtoname_downlevel.obj
 0002:00020c94       ??_C@_1M@GIENNBFC@?$AAs?$AAw?$AA?9?$AAK?$AAE?$AA?$AA@ 1009cc94     libucrt:lcidtoname_downlevel.obj
 0002:00020ca4       ??_C@_1BG@NDGMJIMJ@?$AAu?$AAz?$AA?9?$AAU?$AAZ?$AA?9?$AAL?$AAa?$AAt?$AAn?$AA?$AA@ 1009cca4     libucrt:lcidtoname_downlevel.obj
 0002:00020cc0       ??_C@_1M@IDCCIHBC@?$AAt?$AAt?$AA?9?$AAR?$AAU?$AA?$AA@ 1009ccc0     libucrt:lcidtoname_downlevel.obj
 0002:00020cd0       ??_C@_1M@LOICPMOJ@?$AAb?$AAn?$AA?9?$AAI?$AAN?$AA?$AA@ 1009ccd0     libucrt:lcidtoname_downlevel.obj
 0002:00020ce0       ??_C@_1M@KPKKNEAH@?$AAp?$AAa?$AA?9?$AAI?$AAN?$AA?$AA@ 1009cce0     libucrt:lcidtoname_downlevel.obj
 0002:00020cf0       ??_C@_1M@PJGPPBOG@?$AAg?$AAu?$AA?9?$AAI?$AAN?$AA?$AA@ 1009ccf0     libucrt:lcidtoname_downlevel.obj
 0002:00020d00       ??_C@_1M@KMKMOPHI@?$AAt?$AAa?$AA?9?$AAI?$AAN?$AA?$AA@ 1009cd00     libucrt:lcidtoname_downlevel.obj
 0002:00020d10       ??_C@_1M@KFEHEPAC@?$AAt?$AAe?$AA?9?$AAI?$AAN?$AA?$AA@ 1009cd10     libucrt:lcidtoname_downlevel.obj
 0002:00020d20       ??_C@_1M@CDCLMGHI@?$AAk?$AAn?$AA?9?$AAI?$AAN?$AA?$AA@ 1009cd20     libucrt:lcidtoname_downlevel.obj
 0002:00020d30       ??_C@_1M@MIODLDKF@?$AAm?$AAl?$AA?9?$AAI?$AAN?$AA?$AA@ 1009cd30     libucrt:lcidtoname_downlevel.obj
 0002:00020d40       ??_C@_1M@PBIEACPO@?$AAm?$AAr?$AA?9?$AAI?$AAN?$AA?$AA@ 1009cd40     libucrt:lcidtoname_downlevel.obj
 0002:00020d50       ??_C@_1M@NIDEAGPH@?$AAs?$AAa?$AA?9?$AAI?$AAN?$AA?$AA@ 1009cd50     libucrt:lcidtoname_downlevel.obj
 0002:00020d60       ??_C@_1M@FHIHCBIO@?$AAm?$AAn?$AA?9?$AAM?$AAN?$AA?$AA@ 1009cd60     libucrt:lcidtoname_downlevel.obj
 0002:00020d70       ??_C@_1M@JAIJPENP@?$AAc?$AAy?$AA?9?$AAG?$AAB?$AA?$AA@ 1009cd70     libucrt:lcidtoname_downlevel.obj
 0002:00020d80       ??_C@_1M@PHGFBEPN@?$AAg?$AAl?$AA?9?$AAE?$AAS?$AA?$AA@ 1009cd80     libucrt:lcidtoname_downlevel.obj
 0002:00020d90       ??_C@_1O@KPIPDNCP@?$AAk?$AAo?$AAk?$AA?9?$AAI?$AAN?$AA?$AA@ 1009cd90     libucrt:lcidtoname_downlevel.obj
 0002:00020da0       ??_C@_1O@KNHJLDJA@?$AAs?$AAy?$AAr?$AA?9?$AAS?$AAY?$AA?$AA@ 1009cda0     libucrt:lcidtoname_downlevel.obj
 0002:00020db0       ??_C@_1O@MKEKBLAH@?$AAd?$AAi?$AAv?$AA?9?$AAM?$AAV?$AA?$AA@ 1009cdb0     libucrt:lcidtoname_downlevel.obj
 0002:00020dc0       ??_C@_1O@OHDCKDDF@?$AAq?$AAu?$AAz?$AA?9?$AAB?$AAO?$AA?$AA@ 1009cdc0     libucrt:lcidtoname_downlevel.obj
 0002:00020dd0       ??_C@_1M@LEPJNLFD@?$AAn?$AAs?$AA?9?$AAZ?$AAA?$AA?$AA@ 1009cdd0     libucrt:lcidtoname_downlevel.obj
 0002:00020de0       ??_C@_1M@OMLEIIJB@?$AAm?$AAi?$AA?9?$AAN?$AAZ?$AA?$AA@ 1009cde0     libucrt:lcidtoname_downlevel.obj
 0002:00020df0       ??_C@_1M@PMPEAILG@?$AAa?$AAr?$AA?9?$AAI?$AAQ?$AA?$AA@ 1009cdf0     libucrt:lcidtoname_downlevel.obj
 0002:00020e00       ??_C@_1M@CNKPNOEE@?$AAd?$AAe?$AA?9?$AAC?$AAH?$AA?$AA@ 1009ce00     libucrt:lcidtoname_downlevel.obj
 0002:00020e10       ??_C@_1M@LKMGMLKO@?$AAe?$AAn?$AA?9?$AAG?$AAB?$AA?$AA@ 1009ce10     libucrt:lcidtoname_downlevel.obj
 0002:00020e20       ??_C@_1M@PGKJFFGL@?$AAe?$AAs?$AA?9?$AAM?$AAX?$AA?$AA@ 1009ce20     libucrt:lcidtoname_downlevel.obj
 0002:00020e30       ??_C@_1M@DNNANBDC@?$AAf?$AAr?$AA?9?$AAB?$AAE?$AA?$AA@ 1009ce30     libucrt:lcidtoname_downlevel.obj
 0002:00020e40       ??_C@_1M@HLGMDFHM@?$AAi?$AAt?$AA?9?$AAC?$AAH?$AA?$AA@ 1009ce40     libucrt:lcidtoname_downlevel.obj
 0002:00020e50       ??_C@_1M@CLLBGJH@?$AAn?$AAl?$AA?9?$AAB?$AAE?$AA?$AA@ 1009ce50     libucrt:lcidtoname_downlevel.obj
 0002:00020e60       ??_C@_1M@BODBOGLF@?$AAn?$AAn?$AA?9?$AAN?$AAO?$AA?$AA@ 1009ce60     libucrt:lcidtoname_downlevel.obj
 0002:00020e70       ??_C@_1M@HFFAHKAD@?$AAp?$AAt?$AA?9?$AAP?$AAT?$AA?$AA@ 1009ce70     libucrt:lcidtoname_downlevel.obj
 0002:00020e80       ??_C@_1BG@LNOAKHIE@?$AAs?$AAr?$AA?9?$AAS?$AAP?$AA?9?$AAL?$AAa?$AAt?$AAn?$AA?$AA@ 1009ce80     libucrt:lcidtoname_downlevel.obj
 0002:00020e9c       ??_C@_1M@HBMHBGAK@?$AAs?$AAv?$AA?9?$AAF?$AAI?$AA?$AA@ 1009ce9c     libucrt:lcidtoname_downlevel.obj
 0002:00020eac       ??_C@_1BG@DGCJGJBE@?$AAa?$AAz?$AA?9?$AAA?$AAZ?$AA?9?$AAC?$AAy?$AAr?$AAl?$AA?$AA@ 1009ceac     libucrt:lcidtoname_downlevel.obj
 0002:00020ec8       ??_C@_1M@KEJDAAHB@?$AAs?$AAe?$AA?9?$AAS?$AAE?$AA?$AA@ 1009cec8     libucrt:lcidtoname_downlevel.obj
 0002:00020ed8       ??_C@_1M@HEIBJJAD@?$AAm?$AAs?$AA?9?$AAB?$AAN?$AA?$AA@ 1009ced8     libucrt:lcidtoname_downlevel.obj
 0002:00020ee8       ??_C@_1BG@PBGJMCEM@?$AAu?$AAz?$AA?9?$AAU?$AAZ?$AA?9?$AAC?$AAy?$AAr?$AAl?$AA?$AA@ 1009cee8     libucrt:lcidtoname_downlevel.obj
 0002:00020f04       ??_C@_1O@LAOBCMDF@?$AAq?$AAu?$AAz?$AA?9?$AAE?$AAC?$AA?$AA@ 1009cf04     libucrt:lcidtoname_downlevel.obj
 0002:00020f14       ??_C@_1M@POEEMAIO@?$AAa?$AAr?$AA?9?$AAE?$AAG?$AA?$AA@ 1009cf14     libucrt:lcidtoname_downlevel.obj
 0002:00020f24       ??_C@_1M@EFAKDEDL@?$AAz?$AAh?$AA?9?$AAH?$AAK?$AA?$AA@ 1009cf24     libucrt:lcidtoname_downlevel.obj
 0002:00020f34       ??_C@_1M@HKKIJHGI@?$AAd?$AAe?$AA?9?$AAA?$AAT?$AA?$AA@ 1009cf34     libucrt:lcidtoname_downlevel.obj
 0002:00020f44       ??_C@_1M@KBFBEHJF@?$AAe?$AAn?$AA?9?$AAA?$AAU?$AA?$AA@ 1009cf44     libucrt:lcidtoname_downlevel.obj
 0002:00020f54       ??_C@_1M@MNPLFAAH@?$AAe?$AAs?$AA?9?$AAE?$AAS?$AA?$AA@ 1009cf54     libucrt:lcidtoname_downlevel.obj
 0002:00020f64       ??_C@_1M@HJOOJFMA@?$AAf?$AAr?$AA?9?$AAC?$AAA?$AA?$AA@ 1009cf64     libucrt:lcidtoname_downlevel.obj
 0002:00020f74       ??_C@_1BG@JPOFPNAB@?$AAs?$AAr?$AA?9?$AAS?$AAP?$AA?9?$AAC?$AAy?$AAr?$AAl?$AA?$AA@ 1009cf74     libucrt:lcidtoname_downlevel.obj
 0002:00020f90       ??_C@_1M@LNFOCMOB@?$AAs?$AAe?$AA?9?$AAF?$AAI?$AA?$AA@ 1009cf90     libucrt:lcidtoname_downlevel.obj
 0002:00020fa0       ??_C@_1O@MGJBOAMB@?$AAq?$AAu?$AAz?$AA?9?$AAP?$AAE?$AA?$AA@ 1009cfa0     libucrt:lcidtoname_downlevel.obj
 0002:00020fb0       ??_C@_1M@GJINLBOK@?$AAa?$AAr?$AA?9?$AAL?$AAY?$AA?$AA@ 1009cfb0     libucrt:lcidtoname_downlevel.obj
 0002:00020fc0       ??_C@_1M@GGMNHJNL@?$AAz?$AAh?$AA?9?$AAS?$AAG?$AA?$AA@ 1009cfc0     libucrt:lcidtoname_downlevel.obj
 0002:00020fd0       ??_C@_1M@HOIKODND@?$AAd?$AAe?$AA?9?$AAL?$AAU?$AA?$AA@ 1009cfd0     libucrt:lcidtoname_downlevel.obj
 0002:00020fe0       ??_C@_1M@DDOCCGFG@?$AAe?$AAn?$AA?9?$AAC?$AAA?$AA?$AA@ 1009cfe0     libucrt:lcidtoname_downlevel.obj
 0002:00020ff0       ??_C@_1M@BNOEMJLF@?$AAe?$AAs?$AA?9?$AAG?$AAT?$AA?$AA@ 1009cff0     libucrt:lcidtoname_downlevel.obj
 0002:00021000       ??_C@_1M@EOGNKEK@?$AAf?$AAr?$AA?9?$AAC?$AAH?$AA?$AA@ 1009d000     libucrt:lcidtoname_downlevel.obj
 0002:00021010       ??_C@_1M@FLIDJFHL@?$AAh?$AAr?$AA?9?$AAB?$AAA?$AA?$AA@ 1009d010     libucrt:lcidtoname_downlevel.obj
 0002:00021020       ??_C@_1O@FMCELNAJ@?$AAs?$AAm?$AAj?$AA?9?$AAN?$AAO?$AA?$AA@ 1009d020     libucrt:lcidtoname_downlevel.obj
 0002:00021030       ??_C@_1M@JHGLJMGJ@?$AAa?$AAr?$AA?9?$AAD?$AAZ?$AA?$AA@ 1009d030     libucrt:lcidtoname_downlevel.obj
 0002:00021040       ??_C@_1M@JKKFDCNP@?$AAz?$AAh?$AA?9?$AAM?$AAO?$AA?$AA@ 1009d040     libucrt:lcidtoname_downlevel.obj
 0002:00021050       ??_C@_1M@GEEFALPE@?$AAd?$AAe?$AA?9?$AAL?$AAI?$AA?$AA@ 1009d050     libucrt:lcidtoname_downlevel.obj
 0002:00021060       ??_C@_1M@IGEOFBG@?$AAe?$AAn?$AA?9?$AAN?$AAZ?$AA?$AA@ 1009d060     libucrt:lcidtoname_downlevel.obj
 0002:00021070       ??_C@_1M@KDBONEHP@?$AAe?$AAs?$AA?9?$AAC?$AAR?$AA?$AA@ 1009d070     libucrt:lcidtoname_downlevel.obj
 0002:00021080       ??_C@_1M@FHMDOHNN@?$AAf?$AAr?$AA?9?$AAL?$AAU?$AA?$AA@ 1009d080     libucrt:lcidtoname_downlevel.obj
 0002:00021090       ??_C@_1BG@NFKKMAFG@?$AAb?$AAs?$AA?9?$AAB?$AAA?$AA?9?$AAL?$AAa?$AAt?$AAn?$AA?$AA@ 1009d090     libucrt:lcidtoname_downlevel.obj
 0002:000210ac       ??_C@_1O@IMNBEMCI@?$AAs?$AAm?$AAj?$AA?9?$AAS?$AAE?$AA?$AA@ 1009d0ac     libucrt:lcidtoname_downlevel.obj
 0002:000210bc       ??_C@_1M@DHHMBNDP@?$AAa?$AAr?$AA?9?$AAM?$AAA?$AA?$AA@ 1009d0bc     libucrt:lcidtoname_downlevel.obj
 0002:000210cc       ??_C@_1M@BNBLJCGH@?$AAe?$AAn?$AA?9?$AAI?$AAE?$AA?$AA@ 1009d0cc     libucrt:lcidtoname_downlevel.obj
 0002:000210dc       ??_C@_1M@GEPAFMDL@?$AAe?$AAs?$AA?9?$AAP?$AAA?$AA?$AA@ 1009d0dc     libucrt:lcidtoname_downlevel.obj
 0002:000210ec       ??_C@_1M@OJONDMDL@?$AAf?$AAr?$AA?9?$AAM?$AAC?$AA?$AA@ 1009d0ec     libucrt:lcidtoname_downlevel.obj
 0002:000210fc       ??_C@_1BG@OBCNFJB@?$AAs?$AAr?$AA?9?$AAB?$AAA?$AA?9?$AAL?$AAa?$AAt?$AAn?$AA?$AA@ 1009d0fc     libucrt:lcidtoname_downlevel.obj
 0002:00021118       ??_C@_1O@KEMEEGPO@?$AAs?$AAm?$AAa?$AA?9?$AAN?$AAO?$AA?$AA@ 1009d118     libucrt:lcidtoname_downlevel.obj
 0002:00021128       ??_C@_1M@ELMGFODK@?$AAa?$AAr?$AA?9?$AAT?$AAN?$AA?$AA@ 1009d128     libucrt:lcidtoname_downlevel.obj
 0002:00021138       ??_C@_1M@BHDLHFAF@?$AAe?$AAn?$AA?9?$AAZ?$AAA?$AA?$AA@ 1009d138     libucrt:lcidtoname_downlevel.obj
 0002:00021148       ??_C@_1M@BMGIGLIF@?$AAe?$AAs?$AA?9?$AAD?$AAO?$AA?$AA@ 1009d148     libucrt:lcidtoname_downlevel.obj
 0002:00021158       ??_C@_1BG@CMBHIPBE@?$AAs?$AAr?$AA?9?$AAB?$AAA?$AA?9?$AAC?$AAy?$AAr?$AAl?$AA?$AA@ 1009d158     libucrt:lcidtoname_downlevel.obj
 0002:00021174       ??_C@_1O@HEDBLHNP@?$AAs?$AAm?$AAa?$AA?9?$AAS?$AAE?$AA?$AA@ 1009d174     libucrt:lcidtoname_downlevel.obj
 0002:00021184       ??_C@_1M@DAGCADIM@?$AAa?$AAr?$AA?9?$AAO?$AAM?$AA?$AA@ 1009d184     libucrt:lcidtoname_downlevel.obj
 0002:00021194       ??_C@_1M@FODLMICG@?$AAe?$AAn?$AA?9?$AAJ?$AAM?$AA?$AA@ 1009d194     libucrt:lcidtoname_downlevel.obj
 0002:000211a4       ??_C@_1M@DNMLCIHB@?$AAe?$AAs?$AA?9?$AAV?$AAE?$AA?$AA@ 1009d1a4     libucrt:lcidtoname_downlevel.obj
 0002:000211b4       ??_C@_1O@EOKHMKJK@?$AAs?$AAm?$AAs?$AA?9?$AAF?$AAI?$AA?$AA@ 1009d1b4     libucrt:lcidtoname_downlevel.obj
 0002:000211c4       ??_C@_1M@CAFJMKOF@?$AAa?$AAr?$AA?9?$AAY?$AAE?$AA?$AA@ 1009d1c4     libucrt:lcidtoname_downlevel.obj
 0002:000211d4       ??_C@_1M@CBFHIJLI@?$AAe?$AAn?$AA?9?$AAC?$AAB?$AA?$AA@ 1009d1d4     libucrt:lcidtoname_downlevel.obj
 0002:000211e4       ??_C@_1M@BGNFLDN@?$AAe?$AAs?$AA?9?$AAC?$AAO?$AA?$AA@ 1009d1e4     libucrt:lcidtoname_downlevel.obj
 0002:000211f4       ??_C@_1O@JMPHMAMC@?$AAs?$AAm?$AAn?$AA?9?$AAF?$AAI?$AA?$AA@ 1009d1f4     libucrt:lcidtoname_downlevel.obj
 0002:00021204       ??_C@_1M@JLANABKE@?$AAa?$AAr?$AA?9?$AAS?$AAY?$AA?$AA@ 1009d204     libucrt:lcidtoname_downlevel.obj
 0002:00021214       ??_C@_1M@HPKGCFGN@?$AAe?$AAn?$AA?9?$AAB?$AAZ?$AA?$AA@ 1009d214     libucrt:lcidtoname_downlevel.obj
 0002:00021224       ??_C@_1M@OLJCMLGM@?$AAe?$AAs?$AA?9?$AAP?$AAE?$AA?$AA@ 1009d224     libucrt:lcidtoname_downlevel.obj
 0002:00021234       ??_C@_1M@MKKGFKLE@?$AAa?$AAr?$AA?9?$AAJ?$AAO?$AA?$AA@ 1009d234     libucrt:lcidtoname_downlevel.obj
 0002:00021244       ??_C@_1M@EKPGLDNI@?$AAe?$AAn?$AA?9?$AAT?$AAT?$AA?$AA@ 1009d244     libucrt:lcidtoname_downlevel.obj
 0002:00021254       ??_C@_1M@OONGHFHE@?$AAe?$AAs?$AA?9?$AAA?$AAR?$AA?$AA@ 1009d254     libucrt:lcidtoname_downlevel.obj
 0002:00021264       ??_C@_1M@OOJFGBHE@?$AAa?$AAr?$AA?9?$AAL?$AAB?$AA?$AA@ 1009d264     libucrt:lcidtoname_downlevel.obj
 0002:00021274       ??_C@_1M@GCEJHNEG@?$AAe?$AAn?$AA?9?$AAZ?$AAW?$AA?$AA@ 1009d274     libucrt:lcidtoname_downlevel.obj
 0002:00021284       ??_C@_1M@JNOCAHJI@?$AAe?$AAs?$AA?9?$AAE?$AAC?$AA?$AA@ 1009d284     libucrt:lcidtoname_downlevel.obj
 0002:00021294       ??_C@_1M@JEFHPGGB@?$AAa?$AAr?$AA?9?$AAK?$AAW?$AA?$AA@ 1009d294     libucrt:lcidtoname_downlevel.obj
 0002:000212a4       ??_C@_1M@MLKIBJOJ@?$AAe?$AAn?$AA?9?$AAP?$AAH?$AA?$AA@ 1009d2a4     libucrt:lcidtoname_downlevel.obj
 0002:000212b4       ??_C@_1M@BDNIPEND@?$AAe?$AAs?$AA?9?$AAC?$AAL?$AA?$AA@ 1009d2b4     libucrt:lcidtoname_downlevel.obj
 0002:000212c4       ??_C@_1M@MPNMEKBD@?$AAa?$AAr?$AA?9?$AAA?$AAE?$AA?$AA@ 1009d2c4     libucrt:lcidtoname_downlevel.obj
 0002:000212d4       ??_C@_1M@KBJALCPI@?$AAe?$AAs?$AA?9?$AAU?$AAY?$AA?$AA@ 1009d2d4     libucrt:lcidtoname_downlevel.obj
 0002:000212e4       ??_C@_1M@LLCCOAGA@?$AAa?$AAr?$AA?9?$AAB?$AAH?$AA?$AA@ 1009d2e4     libucrt:lcidtoname_downlevel.obj
 0002:000212f4       ??_C@_1M@PBFNCDEL@?$AAe?$AAs?$AA?9?$AAP?$AAY?$AA?$AA@ 1009d2f4     libucrt:lcidtoname_downlevel.obj
 0002:00021304       ??_C@_1M@EDGINPNP@?$AAa?$AAr?$AA?9?$AAQ?$AAA?$AA?$AA@ 1009d304     libucrt:lcidtoname_downlevel.obj
 0002:00021314       ??_C@_1M@MKDBIIJI@?$AAe?$AAs?$AA?9?$AAB?$AAO?$AA?$AA@ 1009d314     libucrt:lcidtoname_downlevel.obj
 0002:00021324       ??_C@_1M@CPKKEBLD@?$AAe?$AAs?$AA?9?$AAS?$AAV?$AA?$AA@ 1009d324     libucrt:lcidtoname_downlevel.obj
 0002:00021334       ??_C@_1M@NDBGMMJL@?$AAe?$AAs?$AA?9?$AAH?$AAN?$AA?$AA@ 1009d334     libucrt:lcidtoname_downlevel.obj
 0002:00021344       ??_C@_1M@JIJIBHDP@?$AAe?$AAs?$AA?9?$AAN?$AAI?$AA?$AA@ 1009d344     libucrt:lcidtoname_downlevel.obj
 0002:00021354       ??_C@_1M@CGFMKEEK@?$AAe?$AAs?$AA?9?$AAP?$AAR?$AA?$AA@ 1009d354     libucrt:lcidtoname_downlevel.obj
 0002:00021364       ??_C@_1O@ICJHKIIK@?$AAz?$AAh?$AA?9?$AAC?$AAH?$AAT?$AA?$AA@ 1009d364     libucrt:lcidtoname_downlevel.obj
 0002:00021374       ??_C@_15CLNEJCE@?$AAs?$AAr?$AA?$AA@ 1009d374     libucrt:lcidtoname_downlevel.obj
 0002:00021c0c       ??_C@_1M@KAHEKEIG@?$AAa?$AAf?$AA?9?$AAz?$AAa?$AA?$AA@ 1009dc0c     libucrt:lcidtoname_downlevel.obj
 0002:00021c1c       ??_C@_1M@GIECOABL@?$AAa?$AAr?$AA?9?$AAa?$AAe?$AA?$AA@ 1009dc1c     libucrt:lcidtoname_downlevel.obj
 0002:00021c2c       ??_C@_1M@BMLMEKGI@?$AAa?$AAr?$AA?9?$AAb?$AAh?$AA?$AA@ 1009dc2c     libucrt:lcidtoname_downlevel.obj
 0002:00021c3c       ??_C@_1M@DAPFDGGB@?$AAa?$AAr?$AA?9?$AAd?$AAz?$AA?$AA@ 1009dc3c     libucrt:lcidtoname_downlevel.obj
 0002:00021c4c       ??_C@_1M@FJNKGKIG@?$AAa?$AAr?$AA?9?$AAe?$AAg?$AA?$AA@ 1009dc4c     libucrt:lcidtoname_downlevel.obj
 0002:00021c5c       ??_C@_1M@FLGKKCLO@?$AAa?$AAr?$AA?9?$AAi?$AAq?$AA?$AA@ 1009dc5c     libucrt:lcidtoname_downlevel.obj
 0002:00021c6c       ??_C@_1M@GNDIPALM@?$AAa?$AAr?$AA?9?$AAj?$AAo?$AA?$AA@ 1009dc6c     libucrt:lcidtoname_downlevel.obj
 0002:00021c7c       ??_C@_1M@DDMJFMGJ@?$AAa?$AAr?$AA?9?$AAk?$AAw?$AA?$AA@ 1009dc7c     libucrt:lcidtoname_downlevel.obj
 0002:00021c8c       ??_C@_1M@EJALMLHM@?$AAa?$AAr?$AA?9?$AAl?$AAb?$AA?$AA@ 1009dc8c     libucrt:lcidtoname_downlevel.obj
 0002:00021c9c       ??_C@_1M@MOBDBLOC@?$AAa?$AAr?$AA?9?$AAl?$AAy?$AA?$AA@ 1009dc9c     libucrt:lcidtoname_downlevel.obj
 0002:00021cac       ??_C@_1M@JAOCLHDH@?$AAa?$AAr?$AA?9?$AAm?$AAa?$AA?$AA@ 1009dcac     libucrt:lcidtoname_downlevel.obj
 0002:00021cbc       ??_C@_1M@JHPMKJIE@?$AAa?$AAr?$AA?9?$AAo?$AAm?$AA?$AA@ 1009dcbc     libucrt:lcidtoname_downlevel.obj
 0002:00021ccc       ??_C@_1M@OEPGHFNH@?$AAa?$AAr?$AA?9?$AAq?$AAa?$AA?$AA@ 1009dccc     libucrt:lcidtoname_downlevel.obj
 0002:00021cdc       ??_C@_1M@KJDONENM@?$AAa?$AAr?$AA?9?$AAs?$AAa?$AA?$AA@ 1009dcdc     libucrt:lcidtoname_downlevel.obj
 0002:00021cec       ??_C@_1M@DMJDKLKM@?$AAa?$AAr?$AA?9?$AAs?$AAy?$AA?$AA@ 1009dcec     libucrt:lcidtoname_downlevel.obj
 0002:00021cfc       ??_C@_1M@OMFIPEDC@?$AAa?$AAr?$AA?9?$AAt?$AAn?$AA?$AA@ 1009dcfc     libucrt:lcidtoname_downlevel.obj
 0002:00021d0c       ??_C@_1M@IHMHGAON@?$AAa?$AAr?$AA?9?$AAy?$AAe?$AA?$AA@ 1009dd0c     libucrt:lcidtoname_downlevel.obj
 0002:00021d1c       ??_C@_1BG@KDCPGJGB@?$AAa?$AAz?$AA?9?$AAa?$AAz?$AA?9?$AAc?$AAy?$AAr?$AAl?$AA?$AA@ 1009dd1c     libucrt:lcidtoname_downlevel.obj
 0002:00021d38       ??_C@_1BG@IBCKDDOE@?$AAa?$AAz?$AA?9?$AAa?$AAz?$AA?9?$AAl?$AAa?$AAt?$AAn?$AA?$AA@ 1009dd38     libucrt:lcidtoname_downlevel.obj
 0002:00021d54       ??_C@_1M@EGPFDCPD@?$AAb?$AAe?$AA?9?$AAb?$AAy?$AA?$AA@ 1009dd54     libucrt:lcidtoname_downlevel.obj
 0002:00021d64       ??_C@_1M@PCMGMCGC@?$AAb?$AAg?$AA?9?$AAb?$AAg?$AA?$AA@ 1009dd64     libucrt:lcidtoname_downlevel.obj
 0002:00021d74       ??_C@_1M@BJBMFGOB@?$AAb?$AAn?$AA?9?$AAi?$AAn?$AA?$AA@ 1009dd74     libucrt:lcidtoname_downlevel.obj
 0002:00021d84       ??_C@_1BG@EAKMMACD@?$AAb?$AAs?$AA?9?$AAb?$AAa?$AA?9?$AAl?$AAa?$AAt?$AAn?$AA?$AA@ 1009dd84     libucrt:lcidtoname_downlevel.obj
 0002:00021da0       ??_C@_1M@KGADAODK@?$AAc?$AAa?$AA?9?$AAe?$AAs?$AA?$AA@ 1009dda0     libucrt:lcidtoname_downlevel.obj
 0002:00021db0       ??_C@_1M@COAJPDHI@?$AAc?$AAs?$AA?9?$AAc?$AAz?$AA?$AA@ 1009ddb0     libucrt:lcidtoname_downlevel.obj
 0002:00021dc0       ??_C@_1M@DHBHFONH@?$AAc?$AAy?$AA?9?$AAg?$AAb?$AA?$AA@ 1009ddc0     libucrt:lcidtoname_downlevel.obj
 0002:00021dd0       ??_C@_1M@IMGKELGA@?$AAd?$AAa?$AA?9?$AAd?$AAk?$AA?$AA@ 1009ddd0     libucrt:lcidtoname_downlevel.obj
 0002:00021de0       ??_C@_1M@NNDGDNGA@?$AAd?$AAe?$AA?9?$AAa?$AAt?$AA?$AA@ 1009dde0     libucrt:lcidtoname_downlevel.obj
 0002:00021df0       ??_C@_1M@IKDBHEEM@?$AAd?$AAe?$AA?9?$AAc?$AAh?$AA?$AA@ 1009ddf0     libucrt:lcidtoname_downlevel.obj
 0002:00021e00       ??_C@_1M@GFFOJMCJ@?$AAd?$AAe?$AA?9?$AAd?$AAe?$AA?$AA@ 1009de00     libucrt:lcidtoname_downlevel.obj
 0002:00021e10       ??_C@_1M@MDNLKBPM@?$AAd?$AAe?$AA?9?$AAl?$AAi?$AA?$AA@ 1009de10     libucrt:lcidtoname_downlevel.obj
 0002:00021e20       ??_C@_1M@NJBEEJNL@?$AAd?$AAe?$AA?9?$AAl?$AAu?$AA?$AA@ 1009de20     libucrt:lcidtoname_downlevel.obj
 0002:00021e30       ??_C@_1O@GNNELBAP@?$AAd?$AAi?$AAv?$AA?9?$AAm?$AAv?$AA?$AA@ 1009de30     libucrt:lcidtoname_downlevel.obj
 0002:00021e40       ??_C@_1M@EJLEOGAE@?$AAe?$AAl?$AA?9?$AAg?$AAr?$AA?$AA@ 1009de40     libucrt:lcidtoname_downlevel.obj
 0002:00021e50       ??_C@_1M@GMPONJN@?$AAe?$AAn?$AA?9?$AAa?$AAu?$AA?$AA@ 1009de50     libucrt:lcidtoname_downlevel.obj
 0002:00021e60       ??_C@_1M@NIDIIPGF@?$AAe?$AAn?$AA?9?$AAb?$AAz?$AA?$AA@ 1009de60     libucrt:lcidtoname_downlevel.obj
 0002:00021e70       ??_C@_1M@JEHMIMFO@?$AAe?$AAn?$AA?9?$AAc?$AAa?$AA?$AA@ 1009de70     libucrt:lcidtoname_downlevel.obj
 0002:00021e80       ??_C@_1M@IGMJCDLA@?$AAe?$AAn?$AA?9?$AAc?$AAb?$AA?$AA@ 1009de80     libucrt:lcidtoname_downlevel.obj
 0002:00021e90       ??_C@_1M@BNFIGBKG@?$AAe?$AAn?$AA?9?$AAg?$AAb?$AA?$AA@ 1009de90     libucrt:lcidtoname_downlevel.obj
 0002:00021ea0       ??_C@_1M@LKIFDIGP@?$AAe?$AAn?$AA?9?$AAi?$AAe?$AA?$AA@ 1009dea0     libucrt:lcidtoname_downlevel.obj
 0002:00021eb0       ??_C@_1M@PJKFGCCO@?$AAe?$AAn?$AA?9?$AAj?$AAm?$AA?$AA@ 1009deb0     libucrt:lcidtoname_downlevel.obj
 0002:00021ec0       ??_C@_1M@KPPKEPBO@?$AAe?$AAn?$AA?9?$AAn?$AAz?$AA?$AA@ 1009dec0     libucrt:lcidtoname_downlevel.obj
 0002:00021ed0       ??_C@_1M@GMDGLDOB@?$AAe?$AAn?$AA?9?$AAp?$AAh?$AA?$AA@ 1009ded0     libucrt:lcidtoname_downlevel.obj
 0002:00021ee0       ??_C@_1M@ONGIBJNA@?$AAe?$AAn?$AA?9?$AAt?$AAt?$AA?$AA@ 1009dee0     libucrt:lcidtoname_downlevel.obj
 0002:00021ef0       ??_C@_1M@LLODPCMM@?$AAe?$AAn?$AA?9?$AAu?$AAs?$AA?$AA@ 1009def0     libucrt:lcidtoname_downlevel.obj
 0002:00021f00       ??_C@_1M@LAKFNPAN@?$AAe?$AAn?$AA?9?$AAz?$AAa?$AA?$AA@ 1009df00     libucrt:lcidtoname_downlevel.obj
 0002:00021f10       ??_C@_1M@MFNHNHEO@?$AAe?$AAn?$AA?9?$AAz?$AAw?$AA?$AA@ 1009df10     libucrt:lcidtoname_downlevel.obj
 0002:00021f20       ??_C@_1M@EJEINPHM@?$AAe?$AAs?$AA?9?$AAa?$AAr?$AA?$AA@ 1009df20     libucrt:lcidtoname_downlevel.obj
 0002:00021f30       ??_C@_1M@GNKPCCJA@?$AAe?$AAs?$AA?9?$AAb?$AAo?$AA?$AA@ 1009df30     libucrt:lcidtoname_downlevel.obj
 0002:00021f40       ??_C@_1M@LEEGFONL@?$AAe?$AAs?$AA?9?$AAc?$AAl?$AA?$AA@ 1009df40     libucrt:lcidtoname_downlevel.obj
 0002:00021f50       ??_C@_1M@KGPDPBDF@?$AAe?$AAs?$AA?9?$AAc?$AAo?$AA?$AA@ 1009df50     libucrt:lcidtoname_downlevel.obj
 0002:00021f60       ??_C@_1M@EIAHOHH@?$AAe?$AAs?$AA?9?$AAc?$AAr?$AA?$AA@ 1009df60     libucrt:lcidtoname_downlevel.obj
 0002:00021f70       ??_C@_1M@LLPGMBIN@?$AAe?$AAs?$AA?9?$AAd?$AAo?$AA?$AA@ 1009df70     libucrt:lcidtoname_downlevel.obj
 0002:00021f80       ??_C@_1M@DKHMKNJA@?$AAe?$AAs?$AA?9?$AAe?$AAc?$AA?$AA@ 1009df80     libucrt:lcidtoname_downlevel.obj
 0002:00021f90       ??_C@_1M@GKGFPKAP@?$AAe?$AAs?$AA?9?$AAe?$AAs?$AA?$AA@ 1009df90     libucrt:lcidtoname_downlevel.obj
 0002:00021fa0       ??_C@_1M@LKHKGDLN@?$AAe?$AAs?$AA?9?$AAg?$AAt?$AA?$AA@ 1009dfa0     libucrt:lcidtoname_downlevel.obj
 0002:00021fb0       ??_C@_1M@HEIIGGJD@?$AAe?$AAs?$AA?9?$AAh?$AAn?$AA?$AA@ 1009dfb0     libucrt:lcidtoname_downlevel.obj
 0002:00021fc0       ??_C@_1M@FBDHPPGD@?$AAe?$AAs?$AA?9?$AAm?$AAx?$AA?$AA@ 1009dfc0     libucrt:lcidtoname_downlevel.obj
 0002:00021fd0       ??_C@_1M@DPAGLNDH@?$AAe?$AAs?$AA?9?$AAn?$AAi?$AA?$AA@ 1009dfd0     libucrt:lcidtoname_downlevel.obj
 0002:00021fe0       ??_C@_1M@MDGOPGDD@?$AAe?$AAs?$AA?9?$AAp?$AAa?$AA?$AA@ 1009dfe0     libucrt:lcidtoname_downlevel.obj
 0002:00021ff0       ??_C@_1M@EMAMGBGE@?$AAe?$AAs?$AA?9?$AAp?$AAe?$AA?$AA@ 1009dff0     libucrt:lcidtoname_downlevel.obj
 0002:00022000       ??_C@_1M@IBMCAOEC@?$AAe?$AAs?$AA?9?$AAp?$AAr?$AA?$AA@ 1009e000     libucrt:lcidtoname_downlevel.obj
 0002:00022010       ??_C@_1M@FGMDIJED@?$AAe?$AAs?$AA?9?$AAp?$AAy?$AA?$AA@ 1009e010     libucrt:lcidtoname_downlevel.obj
 0002:00022020       ??_C@_1M@IIDEOLLL@?$AAe?$AAs?$AA?9?$AAs?$AAv?$AA?$AA@ 1009e020     libucrt:lcidtoname_downlevel.obj
 0002:00022030       ??_C@_1M@GAOBIPA@?$AAe?$AAs?$AA?9?$AAu?$AAy?$AA?$AA@ 1009e030     libucrt:lcidtoname_downlevel.obj
 0002:00022040       ??_C@_1M@JKFFICHJ@?$AAe?$AAs?$AA?9?$AAv?$AAe?$AA?$AA@ 1009e040     libucrt:lcidtoname_downlevel.obj
 0002:00022050       ??_C@_1M@PNMLOJDF@?$AAe?$AAt?$AA?9?$AAe?$AAe?$AA?$AA@ 1009e050     libucrt:lcidtoname_downlevel.obj
 0002:00022060       ??_C@_1M@GHHLIKEI@?$AAe?$AAu?$AA?9?$AAe?$AAs?$AA?$AA@ 1009e060     libucrt:lcidtoname_downlevel.obj
 0002:00022070       ??_C@_1M@PBNONODE@?$AAf?$AAa?$AA?9?$AAi?$AAr?$AA?$AA@ 1009e070     libucrt:lcidtoname_downlevel.obj
 0002:00022080       ??_C@_1M@JEEHPMIL@?$AAf?$AAi?$AA?9?$AAf?$AAi?$AA?$AA@ 1009e080     libucrt:lcidtoname_downlevel.obj
 0002:00022090       ??_C@_1M@LMDCNDBA@?$AAf?$AAo?$AA?9?$AAf?$AAo?$AA?$AA@ 1009e090     libucrt:lcidtoname_downlevel.obj
 0002:000220a0       ??_C@_1M@JKEOHLDK@?$AAf?$AAr?$AA?9?$AAb?$AAe?$AA?$AA@ 1009e0a0     libucrt:lcidtoname_downlevel.obj
 0002:000220b0       ??_C@_1M@NOHADPMI@?$AAf?$AAr?$AA?9?$AAc?$AAa?$AA?$AA@ 1009e0b0     libucrt:lcidtoname_downlevel.obj
 0002:000220c0       ??_C@_1M@KDHIHAEC@?$AAf?$AAr?$AA?9?$AAc?$AAh?$AA?$AA@ 1009e0c0     libucrt:lcidtoname_downlevel.obj
 0002:000220d0       ??_C@_1M@MMBBFGAK@?$AAf?$AAr?$AA?9?$AAf?$AAr?$AA?$AA@ 1009e0d0     libucrt:lcidtoname_downlevel.obj
 0002:000220e0       ??_C@_1M@PAFNENNF@?$AAf?$AAr?$AA?9?$AAl?$AAu?$AA?$AA@ 1009e0e0     libucrt:lcidtoname_downlevel.obj
 0002:000220f0       ??_C@_1M@EOHDJGDD@?$AAf?$AAr?$AA?9?$AAm?$AAc?$AA?$AA@ 1009e0f0     libucrt:lcidtoname_downlevel.obj
 0002:00022100       ??_C@_1M@FAPLLOPF@?$AAg?$AAl?$AA?9?$AAe?$AAs?$AA?$AA@ 1009e100     libucrt:lcidtoname_downlevel.obj
 0002:00022110       ??_C@_1M@FOPBFLOO@?$AAg?$AAu?$AA?9?$AAi?$AAn?$AA?$AA@ 1009e110     libucrt:lcidtoname_downlevel.obj
 0002:00022120       ??_C@_1M@KBMCINPM@?$AAh?$AAe?$AA?9?$AAi?$AAl?$AA?$AA@ 1009e120     libucrt:lcidtoname_downlevel.obj
 0002:00022130       ??_C@_1M@BBPHKFPJ@?$AAh?$AAi?$AA?9?$AAi?$AAn?$AA?$AA@ 1009e130     libucrt:lcidtoname_downlevel.obj
 0002:00022140       ??_C@_1M@PMBNDPHD@?$AAh?$AAr?$AA?9?$AAb?$AAa?$AA?$AA@ 1009e140     libucrt:lcidtoname_downlevel.obj
 0002:00022150       ??_C@_1M@BPCKOEGE@?$AAh?$AAr?$AA?9?$AAh?$AAr?$AA?$AA@ 1009e150     libucrt:lcidtoname_downlevel.obj
 0002:00022160       ??_C@_1M@GACBMHKE@?$AAh?$AAu?$AA?9?$AAh?$AAu?$AA?$AA@ 1009e160     libucrt:lcidtoname_downlevel.obj
 0002:00022170       ??_C@_1M@MILPAJJC@?$AAh?$AAy?$AA?9?$AAa?$AAm?$AA?$AA@ 1009e170     libucrt:lcidtoname_downlevel.obj
 0002:00022180       ??_C@_1M@BABBICEC@?$AAi?$AAd?$AA?9?$AAi?$AAd?$AA?$AA@ 1009e180     libucrt:lcidtoname_downlevel.obj
 0002:00022190       ??_C@_1M@BIKNHHPF@?$AAi?$AAs?$AA?9?$AAi?$AAs?$AA?$AA@ 1009e190     libucrt:lcidtoname_downlevel.obj
 0002:000221a0       ??_C@_1M@NMPCJPHE@?$AAi?$AAt?$AA?9?$AAc?$AAh?$AA?$AA@ 1009e1a0     libucrt:lcidtoname_downlevel.obj
 0002:000221b0       ??_C@_1M@GHKGFEDF@?$AAi?$AAt?$AA?9?$AAi?$AAt?$AA?$AA@ 1009e1b0     libucrt:lcidtoname_downlevel.obj
 0002:000221c0       ??_C@_1M@NIEJCJJA@?$AAj?$AAa?$AA?9?$AAj?$AAp?$AA?$AA@ 1009e1c0     libucrt:lcidtoname_downlevel.obj
 0002:000221d0       ??_C@_1M@JILFNBIM@?$AAk?$AAa?$AA?9?$AAg?$AAe?$AA?$AA@ 1009e1d0     libucrt:lcidtoname_downlevel.obj
 0002:000221e0       ??_C@_1M@PACPMGPH@?$AAk?$AAk?$AA?9?$AAk?$AAz?$AA?$AA@ 1009e1e0     libucrt:lcidtoname_downlevel.obj
 0002:000221f0       ??_C@_1M@IELFGMHA@?$AAk?$AAn?$AA?9?$AAi?$AAn?$AA?$AA@ 1009e1f0     libucrt:lcidtoname_downlevel.obj
 0002:00022200       ??_C@_1O@IBBJHCH@?$AAk?$AAo?$AAk?$AA?9?$AAi?$AAn?$AA?$AA@ 1009e200     libucrt:lcidtoname_downlevel.obj
 0002:00022210       ??_C@_1M@DMHAEOGC@?$AAk?$AAo?$AA?9?$AAk?$AAr?$AA?$AA@ 1009e210     libucrt:lcidtoname_downlevel.obj
 0002:00022220       ??_C@_1M@HBAHBIGA@?$AAk?$AAy?$AA?9?$AAk?$AAg?$AA?$AA@ 1009e220     libucrt:lcidtoname_downlevel.obj
 0002:00022230       ??_C@_1M@KPMILCJG@?$AAl?$AAt?$AA?9?$AAl?$AAt?$AA?$AA@ 1009e230     libucrt:lcidtoname_downlevel.obj
 0002:00022240       ??_C@_1M@BDEKKCA@?$AAl?$AAv?$AA?9?$AAl?$AAv?$AA?$AA@ 1009e240     libucrt:lcidtoname_downlevel.obj
 0002:00022250       ??_C@_1M@ELCKCCJJ@?$AAm?$AAi?$AA?9?$AAn?$AAz?$AA?$AA@ 1009e250     libucrt:lcidtoname_downlevel.obj
 0002:00022260       ??_C@_1M@CBOOLAPA@?$AAm?$AAk?$AA?9?$AAm?$AAk?$AA?$AA@ 1009e260     libucrt:lcidtoname_downlevel.obj
 0002:00022270       ??_C@_1M@GPHNBJKN@?$AAm?$AAl?$AA?9?$AAi?$AAn?$AA?$AA@ 1009e270     libucrt:lcidtoname_downlevel.obj
 0002:00022280       ??_C@_1M@PABJILIG@?$AAm?$AAn?$AA?9?$AAm?$AAn?$AA?$AA@ 1009e280     libucrt:lcidtoname_downlevel.obj
 0002:00022290       ??_C@_1M@FGBKKIPG@?$AAm?$AAr?$AA?9?$AAi?$AAn?$AA?$AA@ 1009e290     libucrt:lcidtoname_downlevel.obj
 0002:000222a0       ??_C@_1M@NDBPDDAL@?$AAm?$AAs?$AA?9?$AAb?$AAn?$AA?$AA@ 1009e2a0     libucrt:lcidtoname_downlevel.obj
 0002:000222b0       ??_C@_1M@OPIHOOPI@?$AAm?$AAs?$AA?9?$AAm?$AAy?$AA?$AA@ 1009e2b0     libucrt:lcidtoname_downlevel.obj
 0002:000222c0       ??_C@_1M@PPDBCNFM@?$AAm?$AAt?$AA?9?$AAm?$AAt?$AA?$AA@ 1009e2c0     libucrt:lcidtoname_downlevel.obj
 0002:000222d0       ??_C@_1M@KDJDKMDD@?$AAn?$AAb?$AA?9?$AAn?$AAo?$AA?$AA@ 1009e2d0     libucrt:lcidtoname_downlevel.obj
 0002:000222e0       ??_C@_1M@KFCFLMJP@?$AAn?$AAl?$AA?9?$AAb?$AAe?$AA?$AA@ 1009e2e0     libucrt:lcidtoname_downlevel.obj
 0002:000222f0       ??_C@_1M@KPOPDDGO@?$AAn?$AAl?$AA?9?$AAn?$AAl?$AA?$AA@ 1009e2f0     libucrt:lcidtoname_downlevel.obj
 0002:00022300       ??_C@_1M@LJKPEMLN@?$AAn?$AAn?$AA?9?$AAn?$AAo?$AA?$AA@ 1009e300     libucrt:lcidtoname_downlevel.obj
 0002:00022310       ??_C@_1M@BDGHHBFL@?$AAn?$AAs?$AA?9?$AAz?$AAa?$AA?$AA@ 1009e310     libucrt:lcidtoname_downlevel.obj
 0002:00022320       ??_C@_1M@IDEHOAP@?$AAp?$AAa?$AA?9?$AAi?$AAn?$AA?$AA@ 1009e320     libucrt:lcidtoname_downlevel.obj
 0002:00022330       ??_C@_1M@HDBKGOGH@?$AAp?$AAl?$AA?9?$AAp?$AAl?$AA?$AA@ 1009e330     libucrt:lcidtoname_downlevel.obj
 0002:00022340       ??_C@_1M@LJLLCMEH@?$AAp?$AAt?$AA?9?$AAb?$AAr?$AA?$AA@ 1009e340     libucrt:lcidtoname_downlevel.obj
 0002:00022350       ??_C@_1M@NCMONAAL@?$AAp?$AAt?$AA?9?$AAp?$AAt?$AA?$AA@ 1009e350     libucrt:lcidtoname_downlevel.obj
 0002:00022360       ??_C@_1O@EAKMAJDN@?$AAq?$AAu?$AAz?$AA?9?$AAb?$AAo?$AA?$AA@ 1009e360     libucrt:lcidtoname_downlevel.obj
 0002:00022370       ??_C@_1O@BHHPIGDN@?$AAq?$AAu?$AAz?$AA?9?$AAe?$AAc?$AA?$AA@ 1009e370     libucrt:lcidtoname_downlevel.obj
 0002:00022380       ??_C@_1O@GBAPEKMJ@?$AAq?$AAu?$AAz?$AA?9?$AAp?$AAe?$AA?$AA@ 1009e380     libucrt:lcidtoname_downlevel.obj
 0002:00022390       ??_C@_1M@CLGLEFBO@?$AAr?$AAo?$AA?9?$AAr?$AAo?$AA?$AA@ 1009e390     libucrt:lcidtoname_downlevel.obj
 0002:000223a0       ??_C@_1M@CEEDODME@?$AAr?$AAu?$AA?9?$AAr?$AAu?$AA?$AA@ 1009e3a0     libucrt:lcidtoname_downlevel.obj
 0002:000223b0       ??_C@_1M@HPKKKMPP@?$AAs?$AAa?$AA?9?$AAi?$AAn?$AA?$AA@ 1009e3b0     libucrt:lcidtoname_downlevel.obj
 0002:000223c0       ??_C@_1M@BKMAIGOJ@?$AAs?$AAe?$AA?9?$AAf?$AAi?$AA?$AA@ 1009e3c0     libucrt:lcidtoname_downlevel.obj
 0002:000223d0       ??_C@_1M@NDPIFLFI@?$AAs?$AAe?$AA?9?$AAn?$AAo?$AA?$AA@ 1009e3d0     libucrt:lcidtoname_downlevel.obj
 0002:000223e0       ??_C@_1M@DANKKHJ@?$AAs?$AAe?$AA?9?$AAs?$AAe?$AA?$AA@ 1009e3e0     libucrt:lcidtoname_downlevel.obj
 0002:000223f0       ??_C@_1M@PNBLONPJ@?$AAs?$AAk?$AA?9?$AAs?$AAk?$AA?$AA@ 1009e3f0     libucrt:lcidtoname_downlevel.obj
 0002:00022400       ??_C@_1M@LFMODOAL@?$AAs?$AAl?$AA?9?$AAs?$AAi?$AA?$AA@ 1009e400     libucrt:lcidtoname_downlevel.obj
 0002:00022410       ??_C@_1O@DFKOMPG@?$AAs?$AAm?$AAa?$AA?9?$AAn?$AAo?$AA?$AA@ 1009e410     libucrt:lcidtoname_downlevel.obj
 0002:00022420       ??_C@_1O@NDKPBNNH@?$AAs?$AAm?$AAa?$AA?9?$AAs?$AAe?$AA?$AA@ 1009e420     libucrt:lcidtoname_downlevel.obj
 0002:00022430       ??_C@_1O@PLLKBHAB@?$AAs?$AAm?$AAj?$AA?9?$AAn?$AAo?$AA?$AA@ 1009e430     libucrt:lcidtoname_downlevel.obj
 0002:00022440       ??_C@_1O@CLEPOGCA@?$AAs?$AAm?$AAj?$AA?9?$AAs?$AAe?$AA?$AA@ 1009e440     libucrt:lcidtoname_downlevel.obj
 0002:00022450       ??_C@_1O@DLGJGKMK@?$AAs?$AAm?$AAn?$AA?9?$AAf?$AAi?$AA?$AA@ 1009e450     libucrt:lcidtoname_downlevel.obj
 0002:00022460       ??_C@_1O@OJDJGAJC@?$AAs?$AAm?$AAs?$AA?9?$AAf?$AAi?$AA?$AA@ 1009e460     libucrt:lcidtoname_downlevel.obj
 0002:00022470       ??_C@_1M@BOFOGHPB@?$AAs?$AAq?$AA?9?$AAa?$AAl?$AA?$AA@ 1009e470     libucrt:lcidtoname_downlevel.obj
 0002:00022480       ??_C@_1BG@LJBBIPGB@?$AAs?$AAr?$AA?9?$AAb?$AAa?$AA?9?$AAc?$AAy?$AAr?$AAl?$AA?$AA@ 1009e480     libucrt:lcidtoname_downlevel.obj
 0002:0002249c       ??_C@_1BG@JLBENFOE@?$AAs?$AAr?$AA?9?$AAb?$AAa?$AA?9?$AAl?$AAa?$AAt?$AAn?$AA?$AA@ 1009e49c     libucrt:lcidtoname_downlevel.obj
 0002:000224b8       ??_C@_1BG@KODPNHE@?$AAs?$AAr?$AA?9?$AAs?$AAp?$AA?9?$AAc?$AAy?$AAr?$AAl?$AA?$AA@ 1009e4b8     libucrt:lcidtoname_downlevel.obj
 0002:000224d4       ??_C@_1BG@CIOGKHPB@?$AAs?$AAr?$AA?9?$AAs?$AAp?$AA?9?$AAl?$AAa?$AAt?$AAn?$AA?$AA@ 1009e4d4     libucrt:lcidtoname_downlevel.obj
 0002:000224f0       ??_C@_1M@NGFJLMAC@?$AAs?$AAv?$AA?9?$AAf?$AAi?$AA?$AA@ 1009e4f0     libucrt:lcidtoname_downlevel.obj
 0002:00022500       ??_C@_1M@MPJEJAJC@?$AAs?$AAv?$AA?9?$AAs?$AAe?$AA?$AA@ 1009e500     libucrt:lcidtoname_downlevel.obj
 0002:00022510       ??_C@_1M@MPNDHLFK@?$AAs?$AAw?$AA?9?$AAk?$AAe?$AA?$AA@ 1009e510     libucrt:lcidtoname_downlevel.obj
 0002:00022520       ??_C@_1O@KOHBJJI@?$AAs?$AAy?$AAr?$AA?9?$AAs?$AAy?$AA?$AA@ 1009e520     libucrt:lcidtoname_downlevel.obj
 0002:00022530       ??_C@_1M@LDCEFHA@?$AAt?$AAa?$AA?9?$AAi?$AAn?$AA?$AA@ 1009e530     libucrt:lcidtoname_downlevel.obj
 0002:00022540       ??_C@_1M@CNJOFAK@?$AAt?$AAe?$AA?9?$AAi?$AAn?$AA?$AA@ 1009e540     libucrt:lcidtoname_downlevel.obj
 0002:00022550       ??_C@_1M@GNAECACD@?$AAt?$AAh?$AA?9?$AAt?$AAh?$AA?$AA@ 1009e550     libucrt:lcidtoname_downlevel.obj
 0002:00022560       ??_C@_1M@CHBIHOJO@?$AAt?$AAn?$AA?9?$AAz?$AAa?$AA?$AA@ 1009e560     libucrt:lcidtoname_downlevel.obj
 0002:00022570       ??_C@_1M@GCCMIGPJ@?$AAt?$AAr?$AA?9?$AAt?$AAr?$AA?$AA@ 1009e570     libucrt:lcidtoname_downlevel.obj
 0002:00022580       ??_C@_1M@CELMCNBK@?$AAt?$AAt?$AA?9?$AAr?$AAu?$AA?$AA@ 1009e580     libucrt:lcidtoname_downlevel.obj
 0002:00022590       ??_C@_1M@KLMCELGA@?$AAu?$AAk?$AA?9?$AAu?$AAa?$AA?$AA@ 1009e590     libucrt:lcidtoname_downlevel.obj
 0002:000225a0       ??_C@_1M@EPAJJAJF@?$AAu?$AAr?$AA?9?$AAp?$AAk?$AA?$AA@ 1009e5a0     libucrt:lcidtoname_downlevel.obj
 0002:000225b0       ??_C@_1BG@GEGPMCDJ@?$AAu?$AAz?$AA?9?$AAu?$AAz?$AA?9?$AAc?$AAy?$AAr?$AAl?$AA?$AA@ 1009e5b0     libucrt:lcidtoname_downlevel.obj
 0002:000225cc       ??_C@_1BG@EGGKJILM@?$AAu?$AAz?$AA?9?$AAu?$AAz?$AA?9?$AAl?$AAa?$AAt?$AAn?$AA?$AA@ 1009e5cc     libucrt:lcidtoname_downlevel.obj
 0002:000225e8       ??_C@_1M@GFOCLFF@?$AAv?$AAi?$AA?9?$AAv?$AAn?$AA?$AA@ 1009e5e8     libucrt:lcidtoname_downlevel.obj
 0002:000225f8       ??_C@_1M@CPAMEDFI@?$AAx?$AAh?$AA?9?$AAz?$AAa?$AA?$AA@ 1009e5f8     libucrt:lcidtoname_downlevel.obj
 0002:00022608       ??_C@_1O@EBKIFIGN@?$AAz?$AAh?$AA?9?$AAc?$AAh?$AAs?$AA?$AA@ 1009e608     libucrt:lcidtoname_downlevel.obj
 0002:00022618       ??_C@_1O@NMHPGANE@?$AAz?$AAh?$AA?9?$AAc?$AAh?$AAt?$AA?$AA@ 1009e618     libucrt:lcidtoname_downlevel.obj
 0002:00022628       ??_C@_1M@LPINJOMC@?$AAz?$AAh?$AA?9?$AAc?$AAn?$AA?$AA@ 1009e628     libucrt:lcidtoname_downlevel.obj
 0002:00022638       ??_C@_1M@OCJEJODD@?$AAz?$AAh?$AA?9?$AAh?$AAk?$AA?$AA@ 1009e638     libucrt:lcidtoname_downlevel.obj
 0002:00022648       ??_C@_1M@DNDLJINH@?$AAz?$AAh?$AA?9?$AAm?$AAo?$AA?$AA@ 1009e648     libucrt:lcidtoname_downlevel.obj
 0002:00022658       ??_C@_1M@MBFDNDND@?$AAz?$AAh?$AA?9?$AAs?$AAg?$AA?$AA@ 1009e658     libucrt:lcidtoname_downlevel.obj
 0002:00022668       ??_C@_1M@IMEPLEPE@?$AAz?$AAh?$AA?9?$AAt?$AAw?$AA?$AA@ 1009e668     libucrt:lcidtoname_downlevel.obj
 0002:00022678       ??_C@_1M@BBGHNHJP@?$AAz?$AAu?$AA?9?$AAz?$AAa?$AA?$AA@ 1009e678     libucrt:lcidtoname_downlevel.obj
 0002:00022688       ?large_power_data@?1??multiply_by_power_of_ten@__crt_strtox@@YA_NAAUbig_integer@2@I@Z@4QBIB 1009e688     libucrt:cfout.obj
 0002:00023160       ?large_power_indices@?1??multiply_by_power_of_ten@__crt_strtox@@YA_NAAUbig_integer@2@I@Z@4QBUunpack_index@?1??12@YA_N0I@Z@B 1009f160     libucrt:cfout.obj
 0002:00023218       ?small_powers_of_ten@?6??multiply_by_power_of_ten@__crt_strtox@@YA_NAAUbig_integer@2@I@Z@4QBIB 1009f218     libucrt:cfout.obj
 0002:00023244       ??_C@_01GBGANLPD@0?$AA@    1009f244     libucrt:cfout.obj
 0002:00023248       ??_C@_05DNEBIAHO@1?$CDINF?$AA@ 1009f248     libucrt:cfout.obj
 0002:00023250       ??_C@_06IMKFLFPG@1?$CDQNAN?$AA@ 1009f250     libucrt:cfout.obj
 0002:00023258       ??_C@_06PGGFOGJG@1?$CDSNAN?$AA@ 1009f258     libucrt:cfout.obj
 0002:00023260       ??_C@_05PHHOCPM@1?$CDIND?$AA@ 1009f260     libucrt:cfout.obj
 0002:00023268       ??_C@_1BC@LLOKLNP@?$AAa?$AAm?$AAe?$AAr?$AAi?$AAc?$AAa?$AAn?$AA?$AA@ 1009f268     libucrt:get_qualified_locale.obj
 0002:00023280       ??_C@_1CC@HEIGCDGG@?$AAa?$AAm?$AAe?$AAr?$AAi?$AAc?$AAa?$AAn?$AA?5?$AAe?$AAn?$AAg?$AAl?$AAi?$AAs?$AAh?$AA?$AA@ 1009f280     libucrt:get_qualified_locale.obj
 0002:000232a8       ??_C@_1CC@IHCNOMIN@?$AAa?$AAm?$AAe?$AAr?$AAi?$AAc?$AAa?$AAn?$AA?9?$AAe?$AAn?$AAg?$AAl?$AAi?$AAs?$AAh?$AA?$AA@ 1009f2a8     libucrt:get_qualified_locale.obj
 0002:000232d0       ??_C@_1BG@GKAGPCGG@?$AAa?$AAu?$AAs?$AAt?$AAr?$AAa?$AAl?$AAi?$AAa?$AAn?$AA?$AA@ 1009f2d0     libucrt:get_qualified_locale.obj
 0002:000232ec       ??_C@_1BA@GMENCENF@?$AAb?$AAe?$AAl?$AAg?$AAi?$AAa?$AAn?$AA?$AA@ 1009f2ec     libucrt:get_qualified_locale.obj
 0002:00023300       ??_C@_1BC@PJMIIAAN@?$AAc?$AAa?$AAn?$AAa?$AAd?$AAi?$AAa?$AAn?$AA?$AA@ 1009f300     libucrt:get_qualified_locale.obj
 0002:00023318       ??_C@_17NOIMNFBF@?$AAc?$AAh?$AAh?$AA?$AA@ 1009f318     libucrt:get_qualified_locale.obj
 0002:00023324       ??_C@_17GGDALCHA@?$AAc?$AAh?$AAi?$AA?$AA@ 1009f324     libucrt:get_qualified_locale.obj
 0002:00023330       ??_C@_1BA@NPNJKIBL@?$AAc?$AAh?$AAi?$AAn?$AAe?$AAs?$AAe?$AA?$AA@ 1009f330     libucrt:get_qualified_locale.obj
 0002:00023344       ??_C@_1CC@DINBAMMJ@?$AAc?$AAh?$AAi?$AAn?$AAe?$AAs?$AAe?$AA?9?$AAh?$AAo?$AAn?$AAg?$AAk?$AAo?$AAn?$AAg?$AA?$AA@ 1009f344     libucrt:get_qualified_locale.obj
 0002:0002336c       ??_C@_1CG@IOBJPACO@?$AAc?$AAh?$AAi?$AAn?$AAe?$AAs?$AAe?$AA?9?$AAs?$AAi?$AAm?$AAp?$AAl?$AAi?$AAf?$AAi?$AAe?$AAd?$AA?$AA@ 1009f36c     libucrt:get_qualified_locale.obj
 0002:0002339c       ??_C@_1CE@GAJNDCKG@?$AAc?$AAh?$AAi?$AAn?$AAe?$AAs?$AAe?$AA?9?$AAs?$AAi?$AAn?$AAg?$AAa?$AAp?$AAo?$AAr?$AAe?$AA?$AA@ 1009f39c     libucrt:get_qualified_locale.obj
 0002:000233c8       ??_C@_1CI@PAJPIOOD@?$AAc?$AAh?$AAi?$AAn?$AAe?$AAs?$AAe?$AA?9?$AAt?$AAr?$AAa?$AAd?$AAi?$AAt?$AAi?$AAo?$AAn?$AAa?$AAl?$AA?$AA@ 1009f3c8     libucrt:get_qualified_locale.obj
 0002:000233f8       ??_C@_1BM@NILJBMMD@?$AAd?$AAu?$AAt?$AAc?$AAh?$AA?9?$AAb?$AAe?$AAl?$AAg?$AAi?$AAa?$AAn?$AA?$AA@ 1009f3f8     libucrt:get_qualified_locale.obj
 0002:0002341c       ??_C@_1CC@OOJPJNEJ@?$AAe?$AAn?$AAg?$AAl?$AAi?$AAs?$AAh?$AA?9?$AAa?$AAm?$AAe?$AAr?$AAi?$AAc?$AAa?$AAn?$AA?$AA@ 1009f41c     libucrt:get_qualified_locale.obj
 0002:00023444       ??_C@_1BI@IOLFEEM@?$AAe?$AAn?$AAg?$AAl?$AAi?$AAs?$AAh?$AA?9?$AAa?$AAu?$AAs?$AA?$AA@ 1009f444     libucrt:get_qualified_locale.obj
 0002:00023460       ??_C@_1BO@HFFNLENJ@?$AAe?$AAn?$AAg?$AAl?$AAi?$AAs?$AAh?$AA?9?$AAb?$AAe?$AAl?$AAi?$AAz?$AAe?$AA?$AA@ 1009f460     libucrt:get_qualified_locale.obj
 0002:00023484       ??_C@_1BI@HAPKJMPO@?$AAe?$AAn?$AAg?$AAl?$AAi?$AAs?$AAh?$AA?9?$AAc?$AAa?$AAn?$AA?$AA@ 1009f484     libucrt:get_qualified_locale.obj
 0002:000234a0       ??_C@_1CE@HLNDMIOJ@?$AAe?$AAn?$AAg?$AAl?$AAi?$AAs?$AAh?$AA?9?$AAc?$AAa?$AAr?$AAi?$AAb?$AAb?$AAe?$AAa?$AAn?$AA?$AA@ 1009f4a0     libucrt:get_qualified_locale.obj
 0002:000234cc       ??_C@_1BI@LDHJHHAC@?$AAe?$AAn?$AAg?$AAl?$AAi?$AAs?$AAh?$AA?9?$AAi?$AAr?$AAe?$AA?$AA@ 1009f4cc     libucrt:get_qualified_locale.obj
 0002:000234e8       ??_C@_1CA@NJMMCFOC@?$AAe?$AAn?$AAg?$AAl?$AAi?$AAs?$AAh?$AA?9?$AAj?$AAa?$AAm?$AAa?$AAi?$AAc?$AAa?$AA?$AA@ 1009f4e8     libucrt:get_qualified_locale.obj
 0002:00023510       ??_C@_1BG@BHJEBBGG@?$AAe?$AAn?$AAg?$AAl?$AAi?$AAs?$AAh?$AA?9?$AAn?$AAz?$AA?$AA@ 1009f510     libucrt:get_qualified_locale.obj
 0002:0002352c       ??_C@_1CK@FGOEJJCO@?$AAe?$AAn?$AAg?$AAl?$AAi?$AAs?$AAh?$AA?9?$AAs?$AAo?$AAu?$AAt?$AAh?$AA?5?$AAa?$AAf?$AAr?$AAi?$AAc?$AAa?$AA?$AA@ 1009f52c     libucrt:get_qualified_locale.obj
 0002:00023560       ??_C@_1DE@PDBJPCJ@?$AAe?$AAn?$AAg?$AAl?$AAi?$AAs?$AAh?$AA?9?$AAt?$AAr?$AAi?$AAn?$AAi?$AAd?$AAa?$AAd?$AA?5?$AAy?$AA?5?$AAt?$AAo?$AAb?$AAa?$AAg?$AAo?$AA?$AA@ 1009f560     libucrt:get_qualified_locale.obj
 0002:000235a0       ??_C@_1BG@JGCANDME@?$AAe?$AAn?$AAg?$AAl?$AAi?$AAs?$AAh?$AA?9?$AAu?$AAk?$AA?$AA@ 1009f5a0     libucrt:get_qualified_locale.obj
 0002:000235bc       ??_C@_1BG@DINKMLE@?$AAe?$AAn?$AAg?$AAl?$AAi?$AAs?$AAh?$AA?9?$AAu?$AAs?$AA?$AA@ 1009f5bc     libucrt:get_qualified_locale.obj
 0002:000235d8       ??_C@_1BI@NMFDBHJE@?$AAe?$AAn?$AAg?$AAl?$AAi?$AAs?$AAh?$AA?9?$AAu?$AAs?$AAa?$AA?$AA@ 1009f5d8     libucrt:get_qualified_locale.obj
 0002:000235f4       ??_C@_1BO@OIHKJKII@?$AAf?$AAr?$AAe?$AAn?$AAc?$AAh?$AA?9?$AAb?$AAe?$AAl?$AAg?$AAi?$AAa?$AAn?$AA?$AA@ 1009f5f4     libucrt:get_qualified_locale.obj
 0002:00023618       ??_C@_1CA@NKAELJKI@?$AAf?$AAr?$AAe?$AAn?$AAc?$AAh?$AA?9?$AAc?$AAa?$AAn?$AAa?$AAd?$AAi?$AAa?$AAn?$AA?$AA@ 1009f618     libucrt:get_qualified_locale.obj
 0002:00023640       ??_C@_1CE@MGKCNLGN@?$AAf?$AAr?$AAe?$AAn?$AAc?$AAh?$AA?9?$AAl?$AAu?$AAx?$AAe?$AAm?$AAb?$AAo?$AAu?$AAr?$AAg?$AA?$AA@ 1009f640     libucrt:get_qualified_locale.obj
 0002:0002366c       ??_C@_1BK@CEGEAILM@?$AAf?$AAr?$AAe?$AAn?$AAc?$AAh?$AA?9?$AAs?$AAw?$AAi?$AAs?$AAs?$AA?$AA@ 1009f66c     libucrt:get_qualified_locale.obj
 0002:0002368c       ??_C@_1CA@PAFKEOCC@?$AAg?$AAe?$AAr?$AAm?$AAa?$AAn?$AA?9?$AAa?$AAu?$AAs?$AAt?$AAr?$AAi?$AAa?$AAn?$AA?$AA@ 1009f68c     libucrt:get_qualified_locale.obj
 0002:000236b4       ??_C@_1CI@HCFHGOFD@?$AAg?$AAe?$AAr?$AAm?$AAa?$AAn?$AA?9?$AAl?$AAi?$AAc?$AAh?$AAt?$AAe?$AAn?$AAs?$AAt?$AAe?$AAi?$AAn?$AA?$AA@ 1009f6b4     libucrt:get_qualified_locale.obj
 0002:000236e4       ??_C@_1CE@FEDDNPDG@?$AAg?$AAe?$AAr?$AAm?$AAa?$AAn?$AA?9?$AAl?$AAu?$AAx?$AAe?$AAm?$AAb?$AAo?$AAu?$AAr?$AAg?$AA?$AA@ 1009f6e4     libucrt:get_qualified_locale.obj
 0002:00023710       ??_C@_1BK@LIMINNMN@?$AAg?$AAe?$AAr?$AAm?$AAa?$AAn?$AA?9?$AAs?$AAw?$AAi?$AAs?$AAs?$AA?$AA@ 1009f710     libucrt:get_qualified_locale.obj
 0002:00023730       ??_C@_1BM@LGMDBEPD@?$AAi?$AAr?$AAi?$AAs?$AAh?$AA?9?$AAe?$AAn?$AAg?$AAl?$AAi?$AAs?$AAh?$AA?$AA@ 1009f730     libucrt:get_qualified_locale.obj
 0002:00023754       ??_C@_1BM@NNCFBAEE@?$AAi?$AAt?$AAa?$AAl?$AAi?$AAa?$AAn?$AA?9?$AAs?$AAw?$AAi?$AAs?$AAs?$AA?$AA@ 1009f754     libucrt:get_qualified_locale.obj
 0002:00023778       ??_C@_1BE@FEDJNPIB@?$AAn?$AAo?$AAr?$AAw?$AAe?$AAg?$AAi?$AAa?$AAn?$AA?$AA@ 1009f778     libucrt:get_qualified_locale.obj
 0002:00023790       ??_C@_1CC@CILKDEIE@?$AAn?$AAo?$AAr?$AAw?$AAe?$AAg?$AAi?$AAa?$AAn?$AA?9?$AAb?$AAo?$AAk?$AAm?$AAa?$AAl?$AA?$AA@ 1009f790     libucrt:get_qualified_locale.obj
 0002:000237b8       ??_C@_1CE@DHMMHEPL@?$AAn?$AAo?$AAr?$AAw?$AAe?$AAg?$AAi?$AAa?$AAn?$AA?9?$AAn?$AAy?$AAn?$AAo?$AAr?$AAs?$AAk?$AA?$AA@ 1009f7b8     libucrt:get_qualified_locale.obj
 0002:000237e4       ??_C@_1CK@OPNMHECD@?$AAp?$AAo?$AAr?$AAt?$AAu?$AAg?$AAu?$AAe?$AAs?$AAe?$AA?9?$AAb?$AAr?$AAa?$AAz?$AAi?$AAl?$AAi?$AAa?$AAn?$AA?$AA@ 1009f7e4     libucrt:get_qualified_locale.obj
 0002:00023818       ??_C@_1CE@KEEHCDB@?$AAs?$AAp?$AAa?$AAn?$AAi?$AAs?$AAh?$AA?9?$AAa?$AAr?$AAg?$AAe?$AAn?$AAt?$AAi?$AAn?$AAa?$AA?$AA@ 1009f818     libucrt:get_qualified_locale.obj
 0002:00023844       ??_C@_1CA@GIAOLHJD@?$AAs?$AAp?$AAa?$AAn?$AAi?$AAs?$AAh?$AA?9?$AAb?$AAo?$AAl?$AAi?$AAv?$AAi?$AAa?$AA?$AA@ 1009f844     libucrt:get_qualified_locale.obj
 0002:0002386c       ??_C@_1BM@OJNDFNPD@?$AAs?$AAp?$AAa?$AAn?$AAi?$AAs?$AAh?$AA?9?$AAc?$AAh?$AAi?$AAl?$AAe?$AA?$AA@ 1009f86c     libucrt:get_qualified_locale.obj
 0002:00023890       ??_C@_1CC@OCOLPALL@?$AAs?$AAp?$AAa?$AAn?$AAi?$AAs?$AAh?$AA?9?$AAc?$AAo?$AAl?$AAo?$AAm?$AAb?$AAi?$AAa?$AA?$AA@ 1009f890     libucrt:get_qualified_locale.obj
 0002:000238b8       ??_C@_1CG@BPOFMKBB@?$AAs?$AAp?$AAa?$AAn?$AAi?$AAs?$AAh?$AA?9?$AAc?$AAo?$AAs?$AAt?$AAa?$AA?5?$AAr?$AAi?$AAc?$AAa?$AA?$AA@ 1009f8b8     libucrt:get_qualified_locale.obj
 0002:000238e8       ??_C@_1DG@IGOBAPBB@?$AAs?$AAp?$AAa?$AAn?$AAi?$AAs?$AAh?$AA?9?$AAd?$AAo?$AAm?$AAi?$AAn?$AAi?$AAc?$AAa?$AAn?$AA?5?$AAr?$AAe?$AAp?$AAu?$AAb?$AAl?$AAi?$AAc?$AA?$AA@ 1009f8e8     libucrt:get_qualified_locale.obj
 0002:00023928       ??_C@_1CA@JHAPGEGI@?$AAs?$AAp?$AAa?$AAn?$AAi?$AAs?$AAh?$AA?9?$AAe?$AAc?$AAu?$AAa?$AAd?$AAo?$AAr?$AA?$AA@ 1009f928     libucrt:get_qualified_locale.obj
 0002:00023950       ??_C@_1CI@LAPALJPP@?$AAs?$AAp?$AAa?$AAn?$AAi?$AAs?$AAh?$AA?9?$AAe?$AAl?$AA?5?$AAs?$AAa?$AAl?$AAv?$AAa?$AAd?$AAo?$AAr?$AA?$AA@ 1009f950     libucrt:get_qualified_locale.obj
 0002:00023980       ??_C@_1CE@PDGBOFOM@?$AAs?$AAp?$AAa?$AAn?$AAi?$AAs?$AAh?$AA?9?$AAg?$AAu?$AAa?$AAt?$AAe?$AAm?$AAa?$AAl?$AAa?$AA?$AA@ 1009f980     libucrt:get_qualified_locale.obj
 0002:000239ac       ??_C@_1CC@NBEBAODI@?$AAs?$AAp?$AAa?$AAn?$AAi?$AAs?$AAh?$AA?9?$AAh?$AAo?$AAn?$AAd?$AAu?$AAr?$AAa?$AAs?$AA?$AA@ 1009f9ac     libucrt:get_qualified_locale.obj
 0002:000239d4       ??_C@_1CA@LLKGHBMF@?$AAs?$AAp?$AAa?$AAn?$AAi?$AAs?$AAh?$AA?9?$AAm?$AAe?$AAx?$AAi?$AAc?$AAa?$AAn?$AA?$AA@ 1009f9d4     libucrt:get_qualified_locale.obj
 0002:000239fc       ??_C@_1BO@LKNDOIGD@?$AAs?$AAp?$AAa?$AAn?$AAi?$AAs?$AAh?$AA?9?$AAm?$AAo?$AAd?$AAe?$AAr?$AAn?$AA?$AA@ 1009f9fc     libucrt:get_qualified_locale.obj
 0002:00023a20       ??_C@_1CE@NMDMOEEB@?$AAs?$AAp?$AAa?$AAn?$AAi?$AAs?$AAh?$AA?9?$AAn?$AAi?$AAc?$AAa?$AAr?$AAa?$AAg?$AAu?$AAa?$AA?$AA@ 1009fa20     libucrt:get_qualified_locale.obj
 0002:00023a4c       ??_C@_1BO@LLCBEJGB@?$AAs?$AAp?$AAa?$AAn?$AAi?$AAs?$AAh?$AA?9?$AAp?$AAa?$AAn?$AAa?$AAm?$AAa?$AA?$AA@ 1009fa4c     libucrt:get_qualified_locale.obj
 0002:00023a70       ??_C@_1CC@FKPGGIHO@?$AAs?$AAp?$AAa?$AAn?$AAi?$AAs?$AAh?$AA?9?$AAp?$AAa?$AAr?$AAa?$AAg?$AAu?$AAa?$AAy?$AA?$AA@ 1009fa70     libucrt:get_qualified_locale.obj
 0002:00023a98       ??_C@_1BK@CDEIHOOP@?$AAs?$AAp?$AAa?$AAn?$AAi?$AAs?$AAh?$AA?9?$AAp?$AAe?$AAr?$AAu?$AA?$AA@ 1009fa98     libucrt:get_qualified_locale.obj
 0002:00023ab8       ??_C@_1CI@GAHAKKGP@?$AAs?$AAp?$AAa?$AAn?$AAi?$AAs?$AAh?$AA?9?$AAp?$AAu?$AAe?$AAr?$AAt?$AAo?$AA?5?$AAr?$AAi?$AAc?$AAo?$AA?$AA@ 1009fab8     libucrt:get_qualified_locale.obj
 0002:00023ae8       ??_C@_1CA@NKJBCAGP@?$AAs?$AAp?$AAa?$AAn?$AAi?$AAs?$AAh?$AA?9?$AAu?$AAr?$AAu?$AAg?$AAu?$AAa?$AAy?$AA?$AA@ 1009fae8     libucrt:get_qualified_locale.obj
 0002:00023b10       ??_C@_1CE@ODILCONM@?$AAs?$AAp?$AAa?$AAn?$AAi?$AAs?$AAh?$AA?9?$AAv?$AAe?$AAn?$AAe?$AAz?$AAu?$AAe?$AAl?$AAa?$AA?$AA@ 1009fb10     libucrt:get_qualified_locale.obj
 0002:00023b3c       ??_C@_1CA@OBNMCGFO@?$AAs?$AAw?$AAe?$AAd?$AAi?$AAs?$AAh?$AA?9?$AAf?$AAi?$AAn?$AAl?$AAa?$AAn?$AAd?$AA?$AA@ 1009fb3c     libucrt:get_qualified_locale.obj
 0002:00023b64       ??_C@_1M@PIPDDPPI@?$AAs?$AAw?$AAi?$AAs?$AAs?$AA?$AA@ 1009fb64     libucrt:get_qualified_locale.obj
 0002:00023b74       ??_C@_15GMFIMNFM@?$AAu?$AAs?$AA?$AA@ 1009fb74     libucrt:get_qualified_locale.obj
 0002:00023b7c       ??_C@_17HAEBFAGL@?$AAu?$AAs?$AAa?$AA?$AA@ 1009fb7c     libucrt:get_qualified_locale.obj
 0002:00023b88       ??_C@_1BA@DPFJEPHB@?$AAa?$AAm?$AAe?$AAr?$AAi?$AAc?$AAa?$AA?$AA@ 1009fb88     libucrt:get_qualified_locale.obj
 0002:00023b9c       ??_C@_1BA@ELOGGFK@?$AAb?$AAr?$AAi?$AAt?$AAa?$AAi?$AAn?$AA?$AA@ 1009fb9c     libucrt:get_qualified_locale.obj
 0002:00023bb0       ??_C@_1M@GHBGIGDA@?$AAc?$AAh?$AAi?$AAn?$AAa?$AA?$AA@ 1009fbb0     libucrt:get_qualified_locale.obj
 0002:00023bc0       ??_C@_1M@NCHEJOPO@?$AAc?$AAz?$AAe?$AAc?$AAh?$AA?$AA@ 1009fbc0     libucrt:get_qualified_locale.obj
 0002:00023bd0       ??_C@_1BA@BKPAPBLA@?$AAe?$AAn?$AAg?$AAl?$AAa?$AAn?$AAd?$AA?$AA@ 1009fbd0     libucrt:get_qualified_locale.obj
 0002:00023be4       ??_C@_1BM@HKBCKIPC@?$AAg?$AAr?$AAe?$AAa?$AAt?$AA?5?$AAb?$AAr?$AAi?$AAt?$AAa?$AAi?$AAn?$AA?$AA@ 1009fbe4     libucrt:get_qualified_locale.obj
 0002:00023c08       ??_C@_1BA@PPCHPGJB@?$AAh?$AAo?$AAl?$AAl?$AAa?$AAn?$AAd?$AA?$AA@ 1009fc08     libucrt:get_qualified_locale.obj
 0002:00023c1c       ??_C@_1BE@JBMPEGDG@?$AAh?$AAo?$AAn?$AAg?$AA?9?$AAk?$AAo?$AAn?$AAg?$AA?$AA@ 1009fc1c     libucrt:get_qualified_locale.obj
 0002:00023c34       ??_C@_1BI@KOELBBPJ@?$AAn?$AAe?$AAw?$AA?9?$AAz?$AAe?$AAa?$AAl?$AAa?$AAn?$AAd?$AA?$AA@ 1009fc34     libucrt:get_qualified_locale.obj
 0002:00023c50       ??_C@_15HIEBHAIO@?$AAn?$AAz?$AA?$AA@ 1009fc50     libucrt:get_qualified_locale.obj
 0002:00023c58       ??_C@_1BC@CHBCPFPI@?$AAp?$AAr?$AA?5?$AAc?$AAh?$AAi?$AAn?$AAa?$AA?$AA@ 1009fc58     libucrt:get_qualified_locale.obj
 0002:00023c70       ??_C@_1BC@JAOIIFKD@?$AAp?$AAr?$AA?9?$AAc?$AAh?$AAi?$AAn?$AAa?$AA?$AA@ 1009fc70     libucrt:get_qualified_locale.obj
 0002:00023c88       ??_C@_1BI@BEHPPHKC@?$AAp?$AAu?$AAe?$AAr?$AAt?$AAo?$AA?9?$AAr?$AAi?$AAc?$AAo?$AA?$AA@ 1009fc88     libucrt:get_qualified_locale.obj
 0002:00023ca4       ??_C@_1O@PAEOFKDI@?$AAs?$AAl?$AAo?$AAv?$AAa?$AAk?$AA?$AA@ 1009fca4     libucrt:get_qualified_locale.obj
 0002:00023cb4       ??_C@_1BK@FIHMCKAM@?$AAs?$AAo?$AAu?$AAt?$AAh?$AA?5?$AAa?$AAf?$AAr?$AAi?$AAc?$AAa?$AA?$AA@ 1009fcb4     libucrt:get_qualified_locale.obj
 0002:00023cd4       ??_C@_1BI@NAEOODKB@?$AAs?$AAo?$AAu?$AAt?$AAh?$AA?5?$AAk?$AAo?$AAr?$AAe?$AAa?$AA?$AA@ 1009fcd4     libucrt:get_qualified_locale.obj
 0002:00023cf0       ??_C@_1BK@FBDGGIFF@?$AAs?$AAo?$AAu?$AAt?$AAh?$AA?9?$AAa?$AAf?$AAr?$AAi?$AAc?$AAa?$AA?$AA@ 1009fcf0     libucrt:get_qualified_locale.obj
 0002:00023d10       ??_C@_1BI@GHLEJDPK@?$AAs?$AAo?$AAu?$AAt?$AAh?$AA?9?$AAk?$AAo?$AAr?$AAe?$AAa?$AA?$AA@ 1009fd10     libucrt:get_qualified_locale.obj
 0002:00023d2c       ??_C@_1CE@PLHLOMJF@?$AAt?$AAr?$AAi?$AAn?$AAi?$AAd?$AAa?$AAd?$AA?5?$AA?$CG?$AA?5?$AAt?$AAo?$AAb?$AAa?$AAg?$AAo?$AA?$AA@ 1009fd2c     libucrt:get_qualified_locale.obj
 0002:00023d58       ??_C@_1BO@MODIMHHI@?$AAu?$AAn?$AAi?$AAt?$AAe?$AAd?$AA?9?$AAk?$AAi?$AAn?$AAg?$AAd?$AAo?$AAm?$AA?$AA@ 1009fd58     libucrt:get_qualified_locale.obj
 0002:00023d7c       ??_C@_1BM@FFHJONBJ@?$AAu?$AAn?$AAi?$AAt?$AAe?$AAd?$AA?9?$AAs?$AAt?$AAa?$AAt?$AAe?$AAs?$AA?$AA@ 1009fd7c     libucrt:get_qualified_locale.obj
 0002:00023da0       ___acrt_rg_language        1009fda0     libucrt:get_qualified_locale.obj
 0002:00024148       ___acrt_rg_language_count  100a0148     libucrt:get_qualified_locale.obj
 0002:00024150       ___acrt_rg_country         100a0150     libucrt:get_qualified_locale.obj
 0002:0002429c       ___acrt_rg_country_count   100a029c     libucrt:get_qualified_locale.obj
 0002:000242a0       ??_C@_17DNCLJFIF@?$AAA?$AAC?$AAP?$AA?$AA@ 100a02a0     libucrt:get_qualified_locale.obj
 0002:000242ac       ??_C@_17CIKBIHLH@?$AAO?$AAC?$AAP?$AA?$AA@ 100a02ac     libucrt:get_qualified_locale.obj
 0002:000242b8       ___rglangidNotDefault      100a02b8     libucrt:getqloc_downlevel.obj
 0002:00024338       ??_C@_1BA@BALFACEM@?$AAC?$AAO?$AAN?$AAO?$AAU?$AAT?$AA$?$AA?$AA@ 100a0338     libucrt:initcon.obj
 0002:00024490       __infinity                 100a0490     libucrt:87tran.obj
 0002:0002449a       __minfinity                100a049a     libucrt:87tran.obj
 0002:000244a4       __logemax                  100a04a4     libucrt:87tran.obj
 0002:000244ca       __OP_EXPjmptab             100a04ca     libucrt:87tran.obj
 0002:00024500       __indefinite               100a0500     libucrt:87disp.obj
 0002:0002450a       __piby2                    100a050a     libucrt:87disp.obj
 0002:00024514       __piby4                    100a0514     libucrt:87disp.obj
 0002:00024558       __DEFAULT_CW_in_mem        100a0558     libucrt:common.obj
 0002:0002455a       __pi_by_2_to_61            100a055a     libucrt:common.obj
 0002:000246b0       ___acrt_log10_table_t      100a06b0     libucrt:log10_tables.obj
 0002:00024b90       ___acrt_log10_table_cb     100a0b90     libucrt:log10_tables.obj
 0002:00025074       ??_7type_info@@6B@         100a1074     LIBCMT:std_type_info_static.obj
 0002:000250b8       __load_config_used         100a10b8     LIBCMT:loadcfg.obj
 0002:000258b4       ??_R4DNameNode@@6B@        100a18b4     libvcruntime:undname.obj
 0002:000258cc       ??_R3DNameNode@@8          100a18cc     libvcruntime:undname.obj
 0002:000258e0       ??_R2DNameNode@@8          100a18e0     libvcruntime:undname.obj
 0002:000258e8       ??_R1A@?0A@EA@DNameNode@@8 100a18e8     libvcruntime:undname.obj
 0002:0002590c       ??_R4charNode@@6B@         100a190c     libvcruntime:undname.obj
 0002:00025924       ??_R3charNode@@8           100a1924     libvcruntime:undname.obj
 0002:00025938       ??_R2charNode@@8           100a1938     libvcruntime:undname.obj
 0002:00025944       ??_R1A@?0A@EA@charNode@@8  100a1944     libvcruntime:undname.obj
 0002:00025968       ??_R4pcharNode@@6B@        100a1968     libvcruntime:undname.obj
 0002:00025980       ??_R3pcharNode@@8          100a1980     libvcruntime:undname.obj
 0002:00025994       ??_R2pcharNode@@8          100a1994     libvcruntime:undname.obj
 0002:000259a0       ??_R1A@?0A@EA@pcharNode@@8 100a19a0     libvcruntime:undname.obj
 0002:000259c4       ??_R4pDNameNode@@6B@       100a19c4     libvcruntime:undname.obj
 0002:000259dc       ??_R3pDNameNode@@8         100a19dc     libvcruntime:undname.obj
 0002:000259f0       ??_R2pDNameNode@@8         100a19f0     libvcruntime:undname.obj
 0002:000259fc       ??_R1A@?0A@EA@pDNameNode@@8 100a19fc     libvcruntime:undname.obj
 0002:00025a20       ??_R4DNameStatusNode@@6B@  100a1a20     libvcruntime:undname.obj
 0002:00025a38       ??_R3DNameStatusNode@@8    100a1a38     libvcruntime:undname.obj
 0002:00025a4c       ??_R2DNameStatusNode@@8    100a1a4c     libvcruntime:undname.obj
 0002:00025a58       ??_R1A@?0A@EA@DNameStatusNode@@8 100a1a58     libvcruntime:undname.obj
 0002:00025a7c       ??_R4pairNode@@6B@         100a1a7c     libvcruntime:undname.obj
 0002:00025a94       ??_R3pairNode@@8           100a1a94     libvcruntime:undname.obj
 0002:00025aa8       ??_R2pairNode@@8           100a1aa8     libvcruntime:undname.obj
 0002:00025ab4       ??_R1A@?0A@EA@pairNode@@8  100a1ab4     libvcruntime:undname.obj
 0002:00025ad8       ??_R4type_info@@6B@        100a1ad8     LIBCMT:std_type_info_static.obj
 0002:00025af0       ??_R3type_info@@8          100a1af0     LIBCMT:std_type_info_static.obj
 0002:00025b04       ??_R2type_info@@8          100a1b04     LIBCMT:std_type_info_static.obj
 0002:00025b0c       ??_R1A@?0A@EA@type_info@@8 100a1b0c     LIBCMT:std_type_info_static.obj
 0002:00025c40       ___safe_se_handler_table   100a1c40     <linker-defined>
 0002:00025d50       ?_TraceLoggingMetadata@?1??_TlgWrite@__vcrt_trace_logging_provider@@YAJPBU_TlgProvider_t@2@PBXPBU_GUID@@2IPAU_EVENT_DATA_DESCRIPTOR@@@Z@4U_TraceLoggingMetadata_t@2@B 100a1d50     libvcruntime:telemetry.obj
 0002:00026125       ?_TraceLoggingMetadataEnd@?1??_TlgWrite@__vcrt_trace_logging_provider@@YAJPBU_TlgProvider_t@2@PBXPBU_GUID@@2IPAU_EVENT_DATA_DESCRIPTOR@@@Z@4EB 100a2125     libvcruntime:telemetry.obj
 0002:000263e8       ___rtc_iaa                 100a23e8     LIBCMT:_initsect_.obj
 0002:000264ec       ___rtc_izz                 100a24ec     LIBCMT:_initsect_.obj
 0002:000265f0       ___rtc_taa                 100a25f0     LIBCMT:_initsect_.obj
 0002:000266f4       ___rtc_tzz                 100a26f4     LIBCMT:_initsect_.obj
 0003:00000e50       _Analog_Solution_P         100a4e50     Analog_Solution_data.obj
 0003:00003da0       _pci20041digout            100a7da0     xpctarget.obj
 0003:00003da4       _nipcdio24cnfg             100a7da4     xpctarget.obj
 0003:00003da8       _rtddm6604cnfg             100a7da8     xpctarget.obj
 0003:00003f60       _DPM                       100a7f60     xpcwalltime.obj
 0003:00003f94       _DPMc                      100a7f94     xpcwalltime.obj
 0003:00004a60       _DefaultCOMIOBase          100a8a60     xpcruntime:xpcimports.obj
 0003:00004a70       _DefaultCOMIRQ             100a8a70     xpcruntime:xpcimports.obj
 0003:00004a88       ___security_cookie_complement 100a8a88     LIBCMT:gs_cookie.obj
 0003:00004a8c       ___security_cookie         100a8a8c     LIBCMT:gs_cookie.obj
 0003:00004a94       __fltused                  100a8a94     LIBCMT:fltused.obj
 0003:00004aa0       ___isa_enabled             100a8aa0     LIBCMT:_cpu_disp_.obj
 0003:00004aa4       ___scrt_native_dllmain_reason 100a8aa4     LIBCMT:utility.obj
 0003:00004b10       __NLG_Destination          100a8b10     libvcruntime:_exsup_.obj
 0003:00004b28       __iob                      100a8b28     libucrt:_file.obj
 0003:00004c04       ___abort_behavior          100a8c04     libucrt:abort.obj
 0003:00004c10       ___badioinfo               100a8c10     libucrt:ioinit.obj
 0003:00004c54       ___mb_cur_max              100a8c54     libucrt:nlsdata.obj
 0003:00004c58       ___acrt_initial_locale_data 100a8c58     libucrt:nlsdata.obj
 0003:00004d34       ___acrt_initial_locale_pointers 100a8d34     libucrt:nlsdata.obj
 0003:00004d40       ___acrt_wide_c_locale_string 100a8d40     libucrt:nlsdata.obj
 0003:00004d48       __lookuptrailbytes         100a8d48     libucrt:read.obj
 0003:00004fa8       __mbctype                  100a8fa8     libucrt:mbctype.obj
 0003:000050e0       __mbcasemap                100a90e0     libucrt:mbctype.obj
 0003:00005218       ___acrt_initial_multibyte_data 100a9218     libucrt:mbctype.obj
 0003:000054a4       ___acrt_current_multibyte_data 100a94a4     libucrt:mbctype.obj
 0003:000054a8       __pctype                   100a94a8     libucrt:ctype.obj
 0003:000054ac       __pwctype                  100a94ac     libucrt:ctype.obj
 0003:000054b0       ___globallocalestatus      100a94b0     libucrt:glstatus.obj
 0003:000054b4       ___acrt_lconv_static_decimal 100a94b4     libucrt:localeconv.obj
 0003:000054b8       ___acrt_lconv_static_W_decimal 100a94b8     libucrt:localeconv.obj
 0003:000054c0       ___acrt_lconv_c            100a94c0     libucrt:localeconv.obj
 0003:00005520       ___acrt_lconv              100a9520     libucrt:localeconv.obj
 0003:00005530       ___dcrt_lowio_console_output_handle 100a9530     libucrt:initcon.obj
 0003:00005678       ??_R0?AVDNameNode@@@8      100a9678     libvcruntime:undname.obj
 0003:00005694       ??_R0?AVcharNode@@@8       100a9694     libvcruntime:undname.obj
 0003:000056b0       ??_R0?AVpcharNode@@@8      100a96b0     libvcruntime:undname.obj
 0003:000056cc       ??_R0?AVpDNameNode@@@8     100a96cc     libvcruntime:undname.obj
 0003:000056ec       ??_R0?AVDNameStatusNode@@@8 100a96ec     libvcruntime:undname.obj
 0003:00005710       ??_R0?AVpairNode@@@8       100a9710     libvcruntime:undname.obj
 0003:0000572c       ??_R0?AVtype_info@@@8      100a972c     LIBCMT:std_type_info_static.obj
 0003:00005944       ___isa_available_default   100a9944     rt_logging.obj
 0003:00005948       _xmlsize                   100a9948     xpctarget.obj
 0003:0000594c       _pci20098PortA             100a994c     xpctarget.obj
 0003:00005950       _pci20098PortB             100a9950     xpctarget.obj
 0003:00005954       _siepowercan_firmware_initialized 100a9954     xpctarget.obj
 0003:00005958       _siepowercan_port1_configured 100a9958     xpctarget.obj
 0003:0000595c       _siepowercan_port2_configured 100a995c     xpctarget.obj
 0003:00005960       _CANAC2_FIRMWARE_LOADED    100a9960     xpctarget.obj
 0003:00005964       _rs232ports                100a9964     xpctarget.obj
 0003:00005974       _NI_AT_MIO_16F_5_commreg2  100a9974     xpctarget.obj
 0003:00005978       _RTD_DM6430_init           100a9978     xpctarget.obj
 0003:0000597c       _RTD_DM6420_init           100a997c     xpctarget.obj
 0003:00005980       _CANAC2_FIRMWARE_LOADED_mb1 100a9980     xpctarget.obj
 0003:00005984       _CANAC2_FIRMWARE_LOADED_mb2 100a9984     xpctarget.obj
 0003:00005988       _CANAC2_FIRMWARE_LOADED_mb3 100a9988     xpctarget.obj
 0003:0000755c       ___isa_available           100ab55c     LIBCMT:_cpu_disp_.obj
 0003:00007560       ___favor                   100ab560     LIBCMT:_cpu_disp_.obj
 0003:0000756c       ___scrt_current_native_startup_state 100ab56c     LIBCMT:utility.obj
 0003:00007570       ___scrt_native_startup_lock 100ab570     LIBCMT:utility.obj
 0003:00007598       ?__type_info_root_node@@3U__type_info_node@@A 100ab598     LIBCMT:tncleanup.obj
 0003:000075a8       ?_OptionsStorage@?1??__local_stdio_printf_options@@9@4_KA 100ab5a8     LIBCMT:default_local_stdio_options.obj
 0003:000075b8       ?_OptionsStorage@?1??__local_stdio_scanf_options@@9@4_KA 100ab5b8     LIBCMT:default_local_stdio_options.obj
 0003:000075c4       ___scrt_debugger_hook_flag 100ab5c4     LIBCMT:utility_desktop.obj
 0003:0000765c       ___pPurecall               100ab65c     libvcruntime:purevirt_data.obj
 0003:00007660       ?pArgList@UnDecorator@@0PAVReplicator@@A 100ab660     libvcruntime:undname.obj
 0003:00007664       ?pZNameList@UnDecorator@@0PAVReplicator@@A 100ab664     libvcruntime:undname.obj
 0003:00007668       ?pTemplateArgList@UnDecorator@@0PAVReplicator@@A 100ab668     libvcruntime:undname.obj
 0003:0000766c       ?gName@UnDecorator@@0PBDB  100ab66c     libvcruntime:undname.obj
 0003:00007670       ?name@UnDecorator@@0PBDB   100ab670     libvcruntime:undname.obj
 0003:00007674       ?outputString@UnDecorator@@0PADA 100ab674     libvcruntime:undname.obj
 0003:00007678       ?maxStringLength@UnDecorator@@0HA 100ab678     libvcruntime:undname.obj
 0003:0000767c       ?disableFlags@UnDecorator@@0KA 100ab67c     libvcruntime:undname.obj
 0003:00007680       ?fExplicitTemplateParams@UnDecorator@@0_NA 100ab680     libvcruntime:undname.obj
 0003:00007681       ?fGetTemplateArgumentList@UnDecorator@@0_NA 100ab681     libvcruntime:undname.obj
 0003:00007684       ?m_pGetParameter@UnDecorator@@0P6APADJ@ZA 100ab684     libvcruntime:undname.obj
 0003:000076a8       ?nodes@?1??make@DNameStatusNode@@SAPAV2@W4DNameStatus@@@Z@4PAV2@A 100ab6a8     libvcruntime:undname.obj
 0003:000076e4       ??_B?1??make@DNameStatusNode@@SAPAV1@W4DNameStatus@@@Z@51 100ab6e4     libvcruntime:undname.obj
 0003:000076e8       __nstream                  100ab6e8     libucrt:_file.obj
 0003:000076ec       ___piob                    100ab6ec     libucrt:_file.obj
 0003:000076f4       __cflush                   100ab6f4     libucrt:_file.obj
 0003:00007704       __environ_table            100ab704     libucrt:environment_initialization.obj
 0003:00007708       __wenviron_table           100ab708     libucrt:environment_initialization.obj
 0003:00007710       ___dcrt_initial_wide_environment 100ab710     libucrt:environment_initialization.obj
 0003:00007714       ___dcrt_initial_narrow_environment 100ab714     libucrt:environment_initialization.obj
 0003:00007718       ___acrt_atexit_table       100ab718     libucrt:onexit.obj
 0003:00007728       ___acrt_at_quick_exit_table 100ab728     libucrt:onexit.obj
 0003:00007848       ___pioinfo                 100ab848     libucrt:ioinit.obj
 0003:00007ab0       __nhandle                  100abab0     libucrt:ioinit.obj
 0003:00007ab8       ___acrt_stdout_buffer      100abab8     libucrt:_sftbuf.obj
 0003:00007abc       ___acrt_stderr_buffer      100ababc     libucrt:_sftbuf.obj
 0003:00007ac0       ___acrt_locale_changed_data 100abac0     libucrt:wsetlocale.obj
 0003:00007ac4       ___acrt_current_locale_data 100abac4     libucrt:nlsdata.obj
 0003:000083d0       ___mblocalename            100ac3d0     libucrt:mbctype.obj
 0003:000083d4       ___mbcodepage              100ac3d4     libucrt:mbctype.obj
 0003:000083d8       ___ismbcodepage            100ac3d8     libucrt:mbctype.obj
 0003:000083dc       ___mbulinfo                100ac3dc     libucrt:mbctype.obj
 0003:000083f0       ___acrt_heap               100ac3f0     libucrt:heap_handle.obj
 0003:000083f4       ___argc                    100ac3f4     libucrt:argv_data.obj
 0003:000083f8       ___argv                    100ac3f8     libucrt:argv_data.obj
 0003:000083fc       ___wargv                   100ac3fc     libucrt:argv_data.obj
 0003:00008400       __acmdln                   100ac400     libucrt:argv_data.obj
 0003:00008404       __wcmdln                   100ac404     libucrt:argv_data.obj
 0003:00008408       __pgmptr                   100ac408     libucrt:argv_data.obj
 0003:0000840c       __wpgmptr                  100ac40c     libucrt:argv_data.obj
 0003:00008418       ___acrt_lconv_static_null  100ac418     libucrt:localeconv.obj
 0003:0000841c       ___acrt_lconv_static_W_null 100ac41c     libucrt:localeconv.obj
 0003:00008420       __commode                  100ac420     libucrt:ncommode.obj
 0003:00008424       __umaskval                 100ac424     libucrt:umask.obj
 0003:00008428       ___fastflag                100ac428     libucrt:fp_flags.obj
 0003:00008430       __fmode                    100ac430     libucrt:txtmode.obj
 0003:00008440       _CANAC2_2_receiveindex_mb3 100ac440     <common>
 0003:0000b514       _CANAC2_2_receivemaxindex_mb3 100af514     <common>
 0003:0000b520       _CANAC2_2_sendindex_mb3    100af520     <common>
 0003:0000b840       _CANAC2_2_sendmaxindex_mb3 100af840     <common>
 0003:0000b860       _CANAC2_1_receiveindex_mb3 100af860     <common>
 0003:0000bb80       _CANAC2_1_receivemaxindex_mb3 100afb80     <common>
 0003:0000bba0       _CANAC2_1_sendindex_mb3    100afba0     <common>
 0003:0000bec0       _CANAC2_1_sendmaxindex_mb3 100afec0     <common>
 0003:0000bee0       _CANAC2_2_receive_mb3      100afee0     <common>
 0003:0000c200       _CANAC2_2_send_mb3         100b0200     <common>
 0003:0000c520       _CANAC2_1_receive_mb3      100b0520     <common>
 0003:0000c840       _CANAC2_1_send_mb3         100b0840     <common>
 0003:0000cb60       _CANAC2_2_receiveindex_mb2 100b0b60     <common>
 0003:0000ce80       _CANAC2_2_receivemaxindex_mb2 100b0e80     <common>
 0003:0000cea0       _CANAC2_2_sendindex_mb2    100b0ea0     <common>
 0003:0000d1c0       _CANAC2_2_sendmaxindex_mb2 100b11c0     <common>
 0003:0000d1e0       _CANAC2_1_receiveindex_mb2 100b11e0     <common>
 0003:0000d500       _CANAC2_1_receivemaxindex_mb2 100b1500     <common>
 0003:0000d520       _CANAC2_1_sendindex_mb2    100b1520     <common>
 0003:0000d840       _CANAC2_1_sendmaxindex_mb2 100b1840     <common>
 0003:0000d860       _CANAC2_2_receive_mb2      100b1860     <common>
 0003:0000db80       _CANAC2_2_send_mb2         100b1b80     <common>
 0003:0000dea0       _CANAC2_1_receive_mb2      100b1ea0     <common>
 0003:0000e1c0       _CANAC2_1_send_mb2         100b21c0     <common>
 0003:0000e4e0       _CANAC2_2_receiveindex_mb1 100b24e0     <common>
 0003:0000e800       _CANAC2_2_receivemaxindex_mb1 100b2800     <common>
 0003:0000e820       _CANAC2_2_sendindex_mb1    100b2820     <common>
 0003:0000eb40       _CANAC2_2_sendmaxindex_mb1 100b2b40     <common>
 0003:0000eb60       _CANAC2_1_receiveindex_mb1 100b2b60     <common>
 0003:0000ee80       _CANAC2_1_receivemaxindex_mb1 100b2e80     <common>
 0003:0000eea0       _CANAC2_1_sendindex_mb1    100b2ea0     <common>
 0003:0000f1c0       _CANAC2_1_sendmaxindex_mb1 100b31c0     <common>
 0003:0000f1e0       _CANAC2_2_receive_mb1      100b31e0     <common>
 0003:0000f500       _CANAC2_2_send_mb1         100b3500     <common>
 0003:0000f820       _CANAC2_1_receive_mb1      100b3820     <common>
 0003:0000fb40       _CANAC2_1_send_mb1         100b3b40     <common>
 0003:0000fe60       _CANAC2_2_receiveindex     100b3e60     <common>
 0003:00010180       _CANAC2_2_receivemaxindex  100b4180     <common>
 0003:000101a0       _CANAC2_2_sendindex        100b41a0     <common>
 0003:000104c0       _CANAC2_2_sendmaxindex     100b44c0     <common>
 0003:000104e0       _CANAC2_1_receiveindex     100b44e0     <common>
 0003:00010800       _CANAC2_1_receivemaxindex  100b4800     <common>
 0003:00010820       _CANAC2_1_sendindex        100b4820     <common>
 0003:00010b40       _CANAC2_1_sendmaxindex     100b4b40     <common>
 0003:00010b60       _CANAC2_2_receive          100b4b60     <common>
 0003:00010e80       _CANAC2_2_send             100b4e80     <common>
 0003:000111a0       _CANAC2_1_receive          100b51a0     <common>
 0003:000114c0       _CANAC2_1_send             100b54c0     <common>
 0003:000117e0       _siepowercan_can_object_buffer_port2 100b57e0     <common>
 0003:00015800       _siepowercan_can_object_buffer_port1 100b9800     <common>
 0003:00019800       _rtNaNF                    100bd800     <common>
 0003:00019814       _rtMinusInfF               100bd814     <common>
 0003:00019818       _rtInfF                    100bd818     <common>
 0003:00019820       _rtNaN                     100bd820     <common>
 0003:00019828       _rtMinusInf                100bd828     <common>
 0003:00019830       _rtInf                     100bd830     <common>
 0003:00019838       ?_OptionsStorage@?1??__local_stdio_printf_options@@9@9 100bd838     <common>
 0003:0001c9a0       _Analog_Solution_M_        100c09a0     <common>
 0003:0002a560       _xpcDev_1                  100ce560     <common>
 0003:0002a5e0       _Analog_Solution_DW        100ce5e0     <common>
 0003:0002a9c0       _Analog_Solution_B         100ce9c0     <common>
 0003:0002bfe0       _CloseClientSocket         100cffe0     <common>
 0003:0002c048       _ConnectClientSocket       100d0048     <common>
 0003:0002c04c       _BindClientSocket          100d004c     <common>
 0003:0002c050       _CreateClientSocket        100d0050     <common>
 0003:0002c054       _CloseServerSocket         100d0054     <common>
 0003:0002c058       _ConnectServerSocket       100d0058     <common>
 0003:0002c05c       _OpenServerListen          100d005c     <common>
 0003:0002c060       _CreateServerSocket        100d0060     <common>
 0003:0002c064       _SocketReceive             100d0064     <common>
 0003:0002c068       _SocketSend                100d0068     <common>
 0003:0002c06c       _GetSocketState            100d006c     <common>
 0003:0002c070       _GetSocket                 100d0070     <common>
 0003:0002c074       _socket                    100d0074     <common>
 0003:0002c078       _inet_addr                 100d0078     <common>
 0003:0002c07c       _sendto                    100d007c     <common>
 0003:0002c080       _recvfrom                  100d0080     <common>
 0003:0002c084       _listen                    100d0084     <common>
 0003:0002c088       _ioctlsocket               100d0088     <common>
 0003:0002c08c       _connect                   100d008c     <common>
 0003:0002c090       _closesocket               100d0090     <common>
 0003:0002c094       _setsockopt                100d0094     <common>
 0003:0002c098       _bind                      100d0098     <common>
 0003:0002c09c       _accept                    100d009c     <common>
 0003:0002c0a0       _GetHostTarIPAdd           100d00a0     <common>
 0003:0002c0a4       _GetDCUUsage               100d00a4     <common>
 0003:0002c0a8       _DeleteRoute               100d00a8     <common>
 0003:0002c0ac       _AddGatewayRoute           100d00ac     <common>
 0003:0002c0b0       _SetIP                     100d00b0     <common>
 0003:0002c0b4       _CloseInterface            100d00b4     <common>
 0003:0002c0b8       _OpenInterface             100d00b8     <common>
 0003:0002c0bc       _SetIPTASKPriority         100d00bc     <common>
 0003:0002c0c0       _isUsedByRTIP              100d00c0     <common>
 0003:0002c0c4       _slrtWarning               100d00c4     <common>
 0003:0002c0c8       _slrtGetCPUTCelsius        100d00c8     <common>
 0003:0002c0cc       _geterrorstring            100d00cc     <common>
 0003:0002c0d0       _getlasterror              100d00d0     <common>
 0003:0002c0d4       _slrtLogEvent              100d00d4     <common>
 0003:0002c0d8       _slrtGetDefaultDrive       100d00d8     <common>
 0003:0002c0dc       _slrtfsFread               100d00dc     <common>
 0003:0002c0e0       _slrtfsGetFileStatus       100d00e0     <common>
 0003:0002c0e4       _slrtfsOpenFileAsync       100d00e4     <common>
 0003:0002c0e8       _slrtfsCloseFileAsync      100d00e8     <common>
 0003:0002c0ec       _slrtfsGetFileErrorMessage 100d00ec     <common>
 0003:0002c0f0       _slrtfsGetFileError        100d00f0     <common>
 0003:0002c0f4       _slrtfsWriteToFile         100d00f4     <common>
 0003:0002c0f8       _slrtfsCloseFile           100d00f8     <common>
 0003:0002c0fc       _slrtfsOpenFile            100d00fc     <common>
 0003:0002c100       _slrtGetSgCRBSpace         100d0100     <common>
 0003:0002c104       _slrtGetCRBScratchSpace    100d0104     <common>
 0003:0002c108       _slrteSetupMSI             100d0108     <common>
 0003:0002c10c       _slTestRegAssessment       100d010c     <common>
 0003:0002c110       _slTestTerminate           100d0110     <common>
 0003:0002c114       _slTestEvalOnFail          100d0114     <common>
 0003:0002c118       _slTestLogAssessments      100d0118     <common>
 0003:0002c11c       _slTestInitialize          100d011c     <common>
 0003:0002c120       _unRegisterPTPTimeRead     100d0120     <common>
 0003:0002c124       _registerPTPTimeRead       100d0124     <common>
 0003:0002c128       _slrteGetCurrentStepSize   100d0128     <common>
 0003:0002c12c       _slrteSetStepSizeDelta     100d012c     <common>
 0003:0002c130       _xpceGetIntTimerGranularityNS 100d0130     <common>
 0003:0002c134       _xpceDAQUpdateTimeStamp    100d0134     <common>
 0003:0002c138       _xpceDAQPostEvent          100d0138     <common>
 0003:0002c13c       _StreamVideo               100d013c     <common>
 0003:0002c140       _StopVideoDisplay          100d0140     <common>
 0003:0002c144       _StartVideoDisplay         100d0144     <common>
 0003:0002c148       _DestroyVideoDisplay       100d0148     <common>
 0003:0002c14c       _CreateVideoDisplay        100d014c     <common>
 0003:0002c150       _ConvertUImage             100d0150     <common>
 0003:0002c154       _StopVideo                 100d0154     <common>
 0003:0002c158       _ReadFrameBuffer           100d0158     <common>
 0003:0002c15c       _StartVideo                100d015c     <common>
 0003:0002c160       _GetVideoConfigs           100d0160     <common>
 0003:0002c164       _FindUsbVideoDevice        100d0164     <common>
 0003:0002c168       _xpceDeleteSemaphore       100d0168     <common>
 0003:0002c16c       _xpceSignalSemaphore       100d016c     <common>
 0003:0002c170       _xpceWaitSemaphore         100d0170     <common>
 0003:0002c174       _xpceCreateSemaphore       100d0174     <common>
 0003:0002c178       _TBGiveSpinFast            100d0178     <common>
 0003:0002c17c       _TBTakeSpinFast            100d017c     <common>
 0003:0002c180       _TBDeleteSpin              100d0180     <common>
 0003:0002c184       _TBCreateSpin              100d0184     <common>
 0003:0002c188       _xpceScopeAcqOK            100d0188     <common>
 0003:0002c18c       _rl32eRestartAcquisition   100d018c     <common>
 0003:0002c190       _rl32eSetTargetScopeSigFt  100d0190     <common>
 0003:0002c194       _rl32eSetTargetScope       100d0194     <common>
 0003:0002c198       _xpceFSScopeSet            100d0198     <common>
 0003:0002c19c       _rl32eSetScope             100d019c     <common>
 0003:0002c1a0       _rl32eAddSignal            100d01a0     <common>
 0003:0002c1a4       _rl32eGetSignalNo          100d01a4     <common>
 0003:0002c1a8       _rl32eDefScope             100d01a8     <common>
 0003:0002c1ac       _rl32eScopeExists          100d01ac     <common>
 0003:0002c1b0       _xpceGetParamDims          100d01b0     <common>
 0003:0002c1b4       _xpceGetParameter          100d01b4     <common>
 0003:0002c1b8       _xpceSetParameter          100d01b8     <common>
 0003:0002c1bc       _xpceGetSignalValue        100d01bc     <common>
 0003:0002c1c0       _xpceAssignPCIInterrupt    100d01c0     <common>
 0003:0002c1c4       _rl32eGetPCIInfoAtSlot     100d01c4     <common>
 0003:0002c1c8       _rl32eGetPCIInfo           100d01c8     <common>
 0003:0002c1cc       _rl32eShowPCIInfo          100d01cc     <common>
 0003:0002c1d0       _rl32eShowPCIDev           100d01d0     <common>
 0003:0002c1d4       _xpceGetTET                100d01d4     <common>
 0003:0002c1d8       _xpceaddEvent              100d01d8     <common>
 0003:0002c1dc       _xpceDeRegisterISR         100d01dc     <common>
 0003:0002c1e0       _xpceRegisterISR           100d01e0     <common>
 0003:0002c1e4       _xpcIsModelInit            100d01e4     <common>
 0003:0002c1e8       _xpcGetElapsedTime         100d01e8     <common>
 0003:0002c1ec       _xpcBusyWait               100d01ec     <common>
 0003:0002c1f0       _xpcFreePhysicalMemory     100d01f0     <common>
 0003:0002c1f4       _xpcAllocPhysicalMemory    100d01f4     <common>
 0003:0002c1f8       _xpcReserveMemoryRegion    100d01f8     <common>
 0003:0002c1fc       _xpcOutpB                  100d01fc     <common>
 0003:0002c200       _xpcOutpW                  100d0200     <common>
 0003:0002c204       _xpcOutpDW                 100d0204     <common>
 0003:0002c208       _xpcInpB                   100d0208     <common>
 0003:0002c20c       _xpcInpW                   100d020c     <common>
 0003:0002c210       _xpcInpDW                  100d0210     <common>
 0003:0002c214       ___scrt_ucrt_dll_is_in_use 100d0214     <common>
 0003:0002c220       ___dyn_tls_init_callback   100d0220     <common>
 0003:0002c22c       __pDestructExceptionObject 100d022c     <common>
 0003:0002c238       __pmatherr                 100d0238     <common>
 0003:0002c244       ___use_sse2_mathfcns       100d0244     <common>
 0004:00000000       __imp__SystemFunction036@8 100d1000     advapi32:ADVAPI32.dll
 0004:00000004       \177ADVAPI32_NULL_THUNK_DATA 100d1004     advapi32:ADVAPI32.dll
 0004:00000030       __imp__UnhandledExceptionFilter@4 100d1030     kernel32:KERNEL32.dll
 0004:00000034       __imp__SetUnhandledExceptionFilter@4 100d1034     kernel32:KERNEL32.dll
 0004:00000038       __imp__GetCurrentProcess@0 100d1038     kernel32:KERNEL32.dll
 0004:0000003c       __imp__TerminateProcess@8  100d103c     kernel32:KERNEL32.dll
 0004:00000040       __imp__IsProcessorFeaturePresent@4 100d1040     kernel32:KERNEL32.dll
 0004:00000044       __imp__QueryPerformanceCounter@4 100d1044     kernel32:KERNEL32.dll
 0004:00000048       __imp__GetCurrentProcessId@0 100d1048     kernel32:KERNEL32.dll
 0004:0000004c       __imp__GetCurrentThreadId@0 100d104c     kernel32:KERNEL32.dll
 0004:00000050       __imp__GetSystemTimeAsFileTime@4 100d1050     kernel32:KERNEL32.dll
 0004:00000054       __imp__InitializeSListHead@4 100d1054     kernel32:KERNEL32.dll
 0004:00000058       __imp__IsDebuggerPresent@0 100d1058     kernel32:KERNEL32.dll
 0004:0000005c       __imp__GetStartupInfoW@4   100d105c     kernel32:KERNEL32.dll
 0004:00000060       __imp__GetModuleHandleW@4  100d1060     kernel32:KERNEL32.dll
 0004:00000064       __imp__GetLastError@0      100d1064     kernel32:KERNEL32.dll
 0004:00000068       __imp__GetModuleFileNameW@12 100d1068     kernel32:KERNEL32.dll
 0004:0000006c       __imp__InterlockedPushEntrySList@8 100d106c     kernel32:KERNEL32.dll
 0004:00000070       __imp__InterlockedFlushSList@4 100d1070     kernel32:KERNEL32.dll
 0004:00000074       __imp__InitializeCriticalSectionAndSpinCount@8 100d1074     kernel32:KERNEL32.dll
 0004:00000078       __imp__TlsAlloc@0          100d1078     kernel32:KERNEL32.dll
 0004:0000007c       __imp__TlsGetValue@4       100d107c     kernel32:KERNEL32.dll
 0004:00000080       __imp__TlsSetValue@8       100d1080     kernel32:KERNEL32.dll
 0004:00000084       __imp__TlsFree@4           100d1084     kernel32:KERNEL32.dll
 0004:00000088       __imp__FreeLibrary@4       100d1088     kernel32:KERNEL32.dll
 0004:0000008c       __imp__LoadLibraryExW@12   100d108c     kernel32:KERNEL32.dll
 0004:00000090       __imp__RtlUnwind@16        100d1090     kernel32:KERNEL32.dll
 0004:00000094       __imp__SetLastError@4      100d1094     kernel32:KERNEL32.dll
 0004:00000098       __imp__EnterCriticalSection@4 100d1098     kernel32:KERNEL32.dll
 0004:0000009c       __imp__LeaveCriticalSection@4 100d109c     kernel32:KERNEL32.dll
 0004:000000a0       __imp__DeleteCriticalSection@4 100d10a0     kernel32:KERNEL32.dll
 0004:000000a4       __imp__GetStdHandle@4      100d10a4     kernel32:KERNEL32.dll
 0004:000000a8       __imp__GetFileType@4       100d10a8     kernel32:KERNEL32.dll
 0004:000000ac       __imp__GetModuleFileNameA@12 100d10ac     kernel32:KERNEL32.dll
 0004:000000b0       __imp__GetModuleHandleExW@12 100d10b0     kernel32:KERNEL32.dll
 0004:000000b4       __imp__WriteConsoleW@20    100d10b4     kernel32:KERNEL32.dll
 0004:000000b8       __imp__ExitProcess@4       100d10b8     kernel32:KERNEL32.dll
 0004:000000bc       __imp__RaiseException@16   100d10bc     kernel32:KERNEL32.dll
 0004:000000c0       __imp__MultiByteToWideChar@24 100d10c0     kernel32:KERNEL32.dll
 0004:000000c4       __imp__WideCharToMultiByte@32 100d10c4     kernel32:KERNEL32.dll
 0004:000000c8       __imp__HeapFree@12         100d10c8     kernel32:KERNEL32.dll
 0004:000000cc       __imp__HeapAlloc@12        100d10cc     kernel32:KERNEL32.dll
 0004:000000d0       __imp__GetProcAddress@8    100d10d0     kernel32:KERNEL32.dll
 0004:000000d4       __imp__GetTimeFormatW@24   100d10d4     kernel32:KERNEL32.dll
 0004:000000d8       __imp__CompareStringW@24   100d10d8     kernel32:KERNEL32.dll
 0004:000000dc       __imp__LCMapStringW@24     100d10dc     kernel32:KERNEL32.dll
 0004:000000e0       __imp__GetLocaleInfoW@16   100d10e0     kernel32:KERNEL32.dll
 0004:000000e4       __imp__IsValidLocale@8     100d10e4     kernel32:KERNEL32.dll
 0004:000000e8       __imp__GetUserDefaultLCID@0 100d10e8     kernel32:KERNEL32.dll
 0004:000000ec       __imp__EnumSystemLocalesW@8 100d10ec     kernel32:KERNEL32.dll
 0004:000000f0       __imp__GetCurrentThread@0  100d10f0     kernel32:KERNEL32.dll
 0004:000000f4       __imp__GetACP@0            100d10f4     kernel32:KERNEL32.dll
 0004:000000f8       __imp__WriteFile@20        100d10f8     kernel32:KERNEL32.dll
 0004:000000fc       __imp__OutputDebugStringA@4 100d10fc     kernel32:KERNEL32.dll
 0004:00000100       __imp__OutputDebugStringW@4 100d1100     kernel32:KERNEL32.dll
 0004:00000104       __imp__CloseHandle@4       100d1104     kernel32:KERNEL32.dll
 0004:00000108       __imp__WaitForSingleObjectEx@12 100d1108     kernel32:KERNEL32.dll
 0004:0000010c       __imp__CreateThread@24     100d110c     kernel32:KERNEL32.dll
 0004:00000110       __imp__SetConsoleCtrlHandler@8 100d1110     kernel32:KERNEL32.dll
 0004:00000114       __imp__HeapReAlloc@16      100d1114     kernel32:KERNEL32.dll
 0004:00000118       __imp__ReadFile@20         100d1118     kernel32:KERNEL32.dll
 0004:0000011c       __imp__GetConsoleMode@8    100d111c     kernel32:KERNEL32.dll
 0004:00000120       __imp__ReadConsoleW@20     100d1120     kernel32:KERNEL32.dll
 0004:00000124       __imp__GetConsoleCP@0      100d1124     kernel32:KERNEL32.dll
 0004:00000128       __imp__DeleteFileW@4       100d1128     kernel32:KERNEL32.dll
 0004:0000012c       __imp__SetFilePointerEx@20 100d112c     kernel32:KERNEL32.dll
 0004:00000130       __imp__IsValidCodePage@4   100d1130     kernel32:KERNEL32.dll
 0004:00000134       __imp__GetOEMCP@0          100d1134     kernel32:KERNEL32.dll
 0004:00000138       __imp__GetCPInfo@8         100d1138     kernel32:KERNEL32.dll
 0004:0000013c       __imp__GetEnvironmentStringsW@0 100d113c     kernel32:KERNEL32.dll
 0004:00000140       __imp__FreeEnvironmentStringsW@4 100d1140     kernel32:KERNEL32.dll
 0004:00000144       __imp__SetEnvironmentVariableA@8 100d1144     kernel32:KERNEL32.dll
 0004:00000148       __imp__SetEnvironmentVariableW@8 100d1148     kernel32:KERNEL32.dll
 0004:0000014c       __imp__GetProcessHeap@0    100d114c     kernel32:KERNEL32.dll
 0004:00000150       __imp__GetCommandLineA@0   100d1150     kernel32:KERNEL32.dll
 0004:00000154       __imp__GetCommandLineW@0   100d1154     kernel32:KERNEL32.dll
 0004:00000158       __imp__GetStringTypeW@16   100d1158     kernel32:KERNEL32.dll
 0004:0000015c       __imp__FlushFileBuffers@4  100d115c     kernel32:KERNEL32.dll
 0004:00000160       __imp__SetStdHandle@8      100d1160     kernel32:KERNEL32.dll
 0004:00000164       __imp__CreateFileW@28      100d1164     kernel32:KERNEL32.dll
 0004:00000168       __imp__HeapSize@12         100d1168     kernel32:KERNEL32.dll
 0004:0000016c       __imp__SetEndOfFile@4      100d116c     kernel32:KERNEL32.dll
 0004:00000170       __imp__EncodePointer@4     100d1170     kernel32:KERNEL32.dll
 0004:00000174       __imp__DecodePointer@4     100d1174     kernel32:KERNEL32.dll
 0004:00000178       __imp__GetDateFormatW@24   100d1178     kernel32:KERNEL32.dll
 0004:0000017c       __imp__GetModuleHandleA@4  100d117c     kernel32:KERNEL32.dll
 0004:00000180       \177KERNEL32_NULL_THUNK_DATA 100d1180     kernel32:KERNEL32.dll
 0004:000001ec       __IMPORT_DESCRIPTOR_KERNEL32 100d11ec     kernel32:KERNEL32.dll
 0004:00000200       __IMPORT_DESCRIPTOR_ADVAPI32 100d1200     advapi32:ADVAPI32.dll
 0004:00000214       __NULL_IMPORT_DESCRIPTOR   100d1214     kernel32:KERNEL32.dll
 0005:00000000       ___guard_check_icall_fptr  100d2000     LIBCMT:guard_support.obj
