 Analog_Solution_slrt

 Timestamp is 58f717fe (Wed Apr 19 09:55:42 2017)

 Preferred load address is 10000000

 Start         Length     Name                   Class
 0001:00000000 000061e6H .text                   CODE
 0001:000061f0 00073209H .text$mn                CODE
 0002:00000000 00000104H .CRT$XCA                DATA
 0002:00000104 00000104H .CRT$XCZ                DATA
 0002:00000208 00000104H .CRT$XIA                DATA
 0002:0000030c 0000010eH .CRT$XIC                DATA
 0002:0000041c 00000104H .CRT$XIZ                DATA
 0002:00000520 00000104H .CRT$XPA                DATA
 0002:00000624 00000109H .CRT$XPX                DATA
 0002:00000730 00000104H .CRT$XPXA               DATA
 0002:00000834 00000104H .CRT$XPZ                DATA
 0002:00000938 00000104H .CRT$XTA                DATA
 0002:00000a3c 00000104H .CRT$XTZ                DATA
 0002:00000b40 00022104H .rdata                  DATA
 0002:00022c44 0000038aH .rdata$r                DATA
 0002:00022fd0 0000010eH .rdata$sxdata           DATA
 0002:000230e0 00000113H .rdata$zETW0            DATA
 0002:000231f3 0000018eH .rdata$zETW1            DATA
 0002:00023381 00000134H .rdata$zETW2            DATA
 0002:000234b5 00000101H .rdata$zETW9            DATA
 0002:000235b8 000001c4H .rdata$zzzdbg           DATA
 0002:0002377c 00000104H .rtc$IAA                DATA
 0002:00023880 00000104H .rtc$IZZ                DATA
 0002:00023984 00000104H .rtc$TAA                DATA
 0002:00023a88 00000104H .rtc$TZZ                DATA
 0002:00023b90 00000ac0H .xdata$x                DATA
 0002:00024650 000001eaH .edata                  DATA
 0003:00000000 000052a4H .data                   DATA
 0003:000052a4 000001d4H .data$r                 DATA
 0003:00005480 00026850H .bss                    DATA
 0004:00000000 000001ecH .idata$5                DATA
 0004:000001ec 00000028H .idata$2                DATA
 0004:00000214 00000014H .idata$3                DATA
 0004:00000228 000001ecH .idata$4                DATA
 0004:00000414 0000080cH .idata$6                DATA
 0005:00000000 00000104H .00cfg                  DATA

  Address         Publics by Value              Rva+Base       Lib:Object

 0000:00000000       __except_list              00000000     <absolute>
 0000:00000000       ___guard_fids_table        00000000     <absolute>
 0000:00000000       ___guard_fids_count        00000000     <absolute>
 0000:00000003       ___safe_se_handler_count   00000003     <absolute>
 0000:00000100       ___guard_flags             00000100     <absolute>
 0000:00000000       ___ImageBase               10000000     <linker-defined>
 0001:00005ef1       ?TraceLoggingRegister@__vcrt_trace_logging_provider@@YAJPBU_TlgProvider_t@1@PBU_GUID@@P6GX1KE_K2PAU_EVENT_FILTER_DESCRIPTOR@@PAX@Z4@Z 10006ef1 f i libvcruntime:telemetry.obj
 0001:00005f65       ?TraceLoggingSetInformation@__vcrt_trace_logging_provider@@YAJPBU_TlgProvider_t@1@W4_EVENT_INFO_CLASS@@PAXK@Z 10006f65 f i libvcruntime:telemetry.obj
 0001:00005f9a       ?TraceLoggingUnregister@__vcrt_trace_logging_provider@@YAXPBU_TlgProvider_t@1@@Z 10006f9a f i libvcruntime:telemetry.obj
 0001:00005fc0       ?_TlgCreateSz@__vcrt_trace_logging_provider@@YAXPAU_EVENT_DATA_DESCRIPTOR@@PBD@Z 10006fc0 f i libvcruntime:telemetry.obj
 0001:00006006       ?_TlgCreateWsz@__vcrt_trace_logging_provider@@YAXPAU_EVENT_DATA_DESCRIPTOR@@PB_W@Z 10007006 f i libvcruntime:telemetry.obj
 0001:0000605b       ?_TlgEnableCallback@__vcrt_trace_logging_provider@@YGXPBU_GUID@@KE_K1PAU_EVENT_FILTER_DESCRIPTOR@@PAX@Z 1000705b f i libvcruntime:telemetry.obj
 0001:000060f1       ?_TlgKeywordOn@__vcrt_trace_logging_provider@@YAEPBU_TlgProvider_t@1@_K@Z 100070f1 f i libvcruntime:telemetry.obj
 0001:0000613c       ?_TlgWrite@__vcrt_trace_logging_provider@@YAJPBU_TlgProvider_t@1@PBXPBU_GUID@@2IPAU_EVENT_DATA_DESCRIPTOR@@@Z 1000713c f i libvcruntime:telemetry.obj
 0001:000061f0       _A_EmbeddedMATLABFunction1_g 100071f0 f   Analog_Solution.obj
 0001:00006580       _An_EmbeddedMATLABFunction_b 10007580 f   Analog_Solution.obj
 0001:00006bf0       _An_EmbeddedMATLABFunction_k 10007bf0 f   Analog_Solution.obj
 0001:00007480       _Ana_EmbeddedMATLABFunction1 10008480 f   Analog_Solution.obj
 0001:000075c0       _Anal_EmbeddedMATLABFunction 100085c0 f   Analog_Solution.obj
 0001:00007940       _Analog_Solut_RS232ISR_Start 10008940 f   Analog_Solution.obj
 0001:00007e10       _Analog_Soluti_RS232ISR_Term 10008e10 f   Analog_Solution.obj
 0001:00008030       _Analog_Solution           10009030 f   Analog_Solution.obj
 0001:00011460       _Analog_Solution_RS232ISR  10012460 f   Analog_Solution.obj
 0001:00016920       _MdlInitialize             10017920 f   Analog_Solution.obj
 0001:00016930       _MdlInitializeSampleTimes  10017930 f   Analog_Solution.obj
 0001:00016940       _MdlInitializeSizes        10017940 f   Analog_Solution.obj
 0001:00016950       _MdlOutputs                10017950 f   Analog_Solution.obj
 0001:000169a0       _MdlStart                  100179a0 f   Analog_Solution.obj
 0001:000169b0       _MdlTerminate              100179b0 f   Analog_Solution.obj
 0001:000169c0       _MdlUpdate                 100179c0 f   Analog_Solution.obj
 0001:00016a10       ___local_stdio_printf_options 10017a10 f i Analog_Solution.obj
 0001:00016a20       __vfprintf_l               10017a20 f i Analog_Solution.obj
 0001:00016a50       __vsnprintf_l              10017a50 f i Analog_Solution.obj
 0001:00016a90       __vsprintf_l               10017a90 f i Analog_Solution.obj
 0001:00016ad0       _printf                    10017ad0 f i Analog_Solution.obj
 0001:00016bf0       _rt_SimUpdateDiscreteEvents 10017bf0 f   Analog_Solution.obj
 0001:00016c40       _rt_powd_snf               10017c40 f   Analog_Solution.obj
 0001:00016ec0       _sprintf                   10017ec0 f i Analog_Solution.obj
 0001:00016f00       _xPCISR1                   10017f00 f   Analog_Solution.obj
 0001:00017000       _rt_mxCreateCharMatrixFromStrings 10018000 f   rt_matrx.obj
 0001:00017160       _rt_mxCreateDoubleMatrix   10018160 f   rt_matrx.obj
 0001:000171c0       _rt_mxCreateNumericArray   100181c0 f   rt_matrx.obj
 0001:00017240       _rt_mxCreateString         10018240 f   rt_matrx.obj
 0001:000172d0       _rt_mxDuplicateArray       100182d0 f   rt_matrx.obj
 0001:00017330       _rt_mxGetDimensions        10018330 f   rt_matrx.obj
 0001:00017370       _rt_mxGetEps               10018370 f   rt_matrx.obj
 0001:00017380       _rt_mxGetString            10018380 f   rt_matrx.obj
 0001:00017400       _rtPrintfNoOp              10018400 f   rt_printf.obj
 0001:00017410       _Analog_Solution_GetCAPIStaticMap 10018410 f   Analog_Solution_capi.obj
 0001:00017420       _Analog_Solution_InitializeDataMapInfo 10018420 f   Analog_Solution_capi.obj
 0001:000174b0       _rtGetInf                  100184b0 f   rtGetInf.obj
 0001:000174e0       _rtGetInfF                 100184e0 f   rtGetInf.obj
 0001:00017500       _rtGetMinusInf             10018500 f   rtGetInf.obj
 0001:00017530       _rtGetMinusInfF            10018530 f   rtGetInf.obj
 0001:00017550       _rtGetNaN                  10018550 f   rtGetNaN.obj
 0001:00017580       _rtGetNaNF                 10018580 f   rtGetNaN.obj
 0001:000175a0       _rtIsInf                   100185a0 f   rt_nonfinite.obj
 0001:000175e0       _rtIsInfF                  100185e0 f   rt_nonfinite.obj
 0001:00017620       _rtIsNaN                   10018620 f   rt_nonfinite.obj
 0001:00017640       _rtIsNaNF                  10018640 f   rt_nonfinite.obj
 0001:00017660       _rt_InitInfAndNaN          10018660 f   rt_nonfinite.obj
 0001:000176c0       _rt_CleanUpForStateLogWithMMI 100186c0 f   rt_logging_mmi.obj
 0001:000177d0       _rt_FillStateSigInfoFromMMI 100187d0 f   rt_logging_mmi.obj
 0001:00017b70       _rtwCAPI_CountSysRan       10018b70 f   rtw_modelmap_utils.obj
 0001:00017c10       _rtwCAPI_EncodePath        10018c10 f   rtw_modelmap_utils.obj
 0001:00017d10       _rtwCAPI_FillSysRan        10018d10 f   rtw_modelmap_utils.obj
 0001:00017e00       _rtwCAPI_FreeFullPaths     10018e00 f   rtw_modelmap_utils.obj
 0001:00017e90       _rtwCAPI_GetFullStateBlockPath 10018e90 f   rtw_modelmap_utils.obj
 0001:00018040       _rtwCAPI_GetNumContStateRecords 10019040 f   rtw_modelmap_utils.obj
 0001:00018100       _rtwCAPI_GetNumSigLogRecords 10019100 f   rtw_modelmap_utils.obj
 0001:00018150       _rtwCAPI_GetNumSigLogRecordsForRTWLogging 10019150 f   rtw_modelmap_utils.obj
 0001:000181e0       _rtwCAPI_GetNumStateRecords 100191e0 f   rtw_modelmap_utils.obj
 0001:00018230       _rtwCAPI_GetNumStateRecordsForRTWLogging 10019230 f   rtw_modelmap_utils.obj
 0001:000182c0       _rtwCAPI_GetSigAddrFromMap 100192c0 f   rtw_modelmap_utils.obj
 0001:00018380       _rtwCAPI_GetSigLogRecordInfo 10019380 f   rtw_modelmap_utils.obj
 0001:000187b0       _rtwCAPI_GetStateRecordInfo 100197b0 f   rtw_modelmap_utils.obj
 0001:00018c60       _rtwCAPI_GetStateWidth     10019c60 f   rtw_modelmap_utils.obj
 0001:00018cc0       _rtwCAPI_HasStates         10019cc0 f   rtw_modelmap_utils.obj
 0001:00018d30       _rtwCAPI_UpdateFullPaths   10019d30 f   rtw_modelmap_utils.obj
 0001:00018f10       _fprintf                   10019f10 f i rt_logging.obj
 0001:00019810       _rt_CreateLogVar           1001a810 f   rt_logging.obj
 0001:000198a0       _rt_CreateLogVarWithConvert 1001a8a0 f   rt_logging.obj
 0001:0001a1f0       _rt_CreateStructLogVar     1001b1f0 f   rt_logging.obj
 0001:0001af50       _rt_GetMxIdFromDTypeId     1001bf50 f   rt_logging.obj
 0001:0001af80       _rt_GetMxIdFromDTypeIdForRSim 1001bf80 f   rt_logging.obj
 0001:0001d850       _rt_StartDataLogging       1001e850 f   rt_logging.obj
 0001:0001dd10       _rt_StartDataLoggingWithStartTime 1001ed10 f   rt_logging.obj
 0001:0001e660       _rt_StopDataLogging        1001f660 f   rt_logging.obj
 0001:0001e680       _rt_StopDataLoggingImpl    1001f680 f   rt_logging.obj
 0001:0001e9b0       _rt_UpdateLogVar           1001f9b0 f   rt_logging.obj
 0001:0001fad0       _rt_UpdateStructLogVar     10020ad0 f   rt_logging.obj
 0001:0001fb60       _rt_UpdateTXXFYLogVars     10020b60 f   rt_logging.obj
 0001:0001fea0       _rt_UpdateTXYLogVars       10020ea0 f   rt_logging.obj
 0001:000200f0       _Analog_Solution_ChangeStepSize 100210f0 f   xpctarget.obj
 0001:00020190       _DllMain@12                10021190 f   xpctarget.obj
 0001:000201a0       _SLRTSetErrorStatus        100211a0 f   xpctarget.obj
 0001:000201c0       _changeStepSize            100211c0 f   xpctarget.obj
 0001:00020260       _getDLMVersion             10021260 f   xpctarget.obj
 0001:00020270       _getRefMdlPath             10021270 f   xpctarget.obj
 0001:000202f0       _getRefMdlSignalNumber     100212f0 f   xpctarget.obj
 0001:000203a0       _getrlmdlinfo              100213a0 f   xpctarget.obj
 0001:00020580       _updateDiscreteEvents      10021580 f   xpctarget.obj
 0001:000205e0       _getNumRef                 100215e0 f   appmappingData.obj
 0001:000205f0       _vprintf                   100215f0 f i legacy_stdio.obj
 0001:00020630       _adnipcim                  10021630 f   adnipcim.obj
 0001:00021000       _danipcim                  10022000 f   danipcim.obj
 0001:000217a0       _dinipcim                  100227a0 f   dinipcim.obj
 0001:00021b40       _donipcim                  10022b40 f   donipcim.obj
 0001:00022030       _fiforead                  10023030 f   fiforead.obj
 0001:00022750       _fiforeadhdr               10023750 f   fiforeadhdr.obj
 0001:000232a0       _fifowrite                 100242a0 f   fifowrite.obj
 0001:000239c0       _filterqua                 100249c0 f   filterqua.obj
 0001:00023cd0       _iqueryqua                 10024cd0 f   iqueryqua.obj
 0001:000243f0       _pfidinipcim               100253f0 f   pfidinipcim.obj
 0001:000249f0       _pfidonipcim               100259f0 f   pfidonipcim.obj
 0001:00024d50       _serreadqua                10025d50 f   serreadqua.obj
 0001:00025000       _sertxenable               10026000 f   sertxenable.obj
 0001:00025460       _serwritequa               10026460 f   serwritequa.obj
 0001:00025aa0       _setupqua                  10026aa0 f   setupqua.obj
 0001:00025af0       _DaysPerMonthCumulative    10026af0 f   xpcwalltime.obj
 0001:00025b30       _IsLeapYear                10026b30 f   xpcwalltime.obj
 0001:00025ba0       _LocalTimeDelta            10026ba0 f   xpcwalltime.obj
 0001:00025d60       _TimeDelta                 10026d60 f   xpcwalltime.obj
 0001:000263a0       _rt_at_clk_is_bcd          100273a0 f   xpcwalltime.obj
 0001:000263d0       _rt_at_clk_is_uip          100273d0 f   xpcwalltime.obj
 0001:00026400       _rt_at_clk_read_alarm      10027400 f   xpcwalltime.obj
 0001:000264d0       _rt_at_clk_read_date       100274d0 f   xpcwalltime.obj
 0001:000266c0       _rt_at_clk_read_dow        100276c0 f   xpcwalltime.obj
 0001:00026730       _rt_at_clk_read_status_a   10027730 f   xpcwalltime.obj
 0001:00026780       _rt_at_clk_read_status_b   10027780 f   xpcwalltime.obj
 0001:00026820       _rt_at_clk_read_status_c   10027820 f   xpcwalltime.obj
 0001:00026880       _rt_at_clk_read_status_d   10027880 f   xpcwalltime.obj
 0001:000268b0       _xpcwalltime               100278b0 f   xpcwalltime.obj
 0001:00026960       _niMIdentify               10027960 f   xpcionim.obj
 0001:00026ae0       _niM_AISetup               10027ae0 f   xpcionim.obj
 0001:00026ef0       _niM_AO_Setup              10027ef0 f   xpcionim.obj
 0001:00027080       _niM_Cont_Pulse_Train_Generation 10028080 f   xpcionim.obj
 0001:000271c0       _niM_Counter_Reset_All     100281c0 f   xpcionim.obj
 0001:00027270       _niM_CtrArm                10028270 f   xpcionim.obj
 0001:00027290       _niM_CtrDisarm             10028290 f   xpcionim.obj
 0001:000272b0       _niM_CtrReadArm            100282b0 f   xpcionim.obj
 0001:000272d0       _niM_CtrReadDisarm         100282d0 f   xpcionim.obj
 0001:000272f0       _niM_PeriodConfigure       100282f0 f   xpcionim.obj
 0001:00027460       _niM_Private_Data          10028460 f   xpcionim.obj
 0001:00027a40       _niM_SetPFIFilter          10028a40 f   xpcionim.obj
 0001:00027ac0       _niM_SetPFI_DO             10028ac0 f   xpcionim.obj
 0001:00027b00       _niM_SetPFI_Select         10028b00 f   xpcionim.obj
 0001:00027b80       _niM_aiConfigureChannel    10028b80 f   xpcionim.obj
 0001:00027bf0       _niM_aiGetScalingCoefficients 10028bf0 f   xpcionim.obj
 0001:00027dd0       _niM_aiPolynomialScaler    10028dd0 f   xpcionim.obj
 0001:00027f00       _niM_analogTriggerReset    10028f00 f   xpcionim.obj
 0001:00027f50       _niM_aoConfigureDAC        10028f50 f   xpcionim.obj
 0001:00027fa0       _niM_aoGetScalingCoefficients 10028fa0 f   xpcionim.obj
 0001:00028050       _niM_aoLinearScaler        10029050 f   xpcionim.obj
 0001:00028080       _niM_configureTimebase     10029080 f   xpcionim.obj
 0001:000280a0       _niM_eepromReadMSeries     100290a0 f   xpcionim.obj
 0001:00028170       _niM_pllReset              10029170 f   xpcionim.obj
 0001:000281a0       _niM_resetCtr              100291a0 f   xpcionim.obj
 0001:000281c0       _niM_whichBank             100291c0 f   xpcionim.obj
 0001:00028200       _niMconfig                 10029200 f   xpcionim.obj
 0001:000282a0       _quatechinit               100292a0 f   quatechinit.obj
 0001:00028500       _GetPCIDeviceFull          10029500 f   xpcruntime:xpcimports.obj
 0001:00028540       _ShowPCIDevice             10029540 f   xpcruntime:xpcimports.obj
 0001:00028d40       _xpcGetPciConfigAtSlot     10029d40 f   xpcruntime:xpcimports.obj
 0001:00029060       _xpcInitProcs              1002a060 f   xpcruntime:xpcimports.obj
 0001:0002a3c0       _xpceuploadevent           1002b3c0 f   xpcruntime:xpcimports.obj
 0001:0002a3d0       _restoreInterrupts         1002b3d0 f   xpcruntime:xpcPCFunctions.obj
 0001:0002a3e0       _rl32eGetTicksDouble       1002b3e0 f   xpcruntime:xpcPCFunctions.obj
 0001:0002a470       _saveAndDisableInterrupts  1002b470 f   xpcruntime:xpcPCFunctions.obj
 0001:0002a490       _xPCSubtractTime           1002b490 f   xpcruntime:xpcPCFunctions.obj
 0001:0002a4c0       _xpcSubtractTime           1002b4c0 f   xpcruntime:xpcPCFunctions.obj
 0001:0002a592       ___raise_securityfailure   1002b592 f   LIBCMT:gs_report.obj
 0001:0002a5c4       ___report_gsfailure        1002b5c4 f   LIBCMT:gs_report.obj
 0001:0002a6fd       ___report_rangecheckfailure 1002b6fd f   LIBCMT:gs_report.obj
 0001:0002a70c       ___report_securityfailure  1002b70c f   LIBCMT:gs_report.obj
 0001:0002a810       ___report_securityfailureEx 1002b810 f   LIBCMT:gs_report.obj
 0001:0002a96b       @__security_check_cookie@4 1002b96b f   LIBCMT:_secchk_.obj
 0001:0002a980       __ftoui3                   1002b980 f   LIBCMT:_ftol3_.obj
 0001:0002a98f       __ftoul3                   1002b98f f   LIBCMT:_ftol3_.obj
 0001:0002a99e       __ftol3                    1002b99e f   LIBCMT:_ftol3_.obj
 0001:0002a9ab       __ftol3_NaN                1002b9ab f   LIBCMT:_ftol3_.obj
 0001:0002a9c3       __ftol3_work               1002b9c3 f   LIBCMT:_ftol3_.obj
 0001:0002aa49       __ftol3_common             1002ba49 f   LIBCMT:_ftol3_.obj
 0001:0002ab0b       __ftol3_arg_error          1002bb0b f   LIBCMT:_ftol3_.obj
 0001:0002ab1d       __ftol3_except             1002bb1d f   LIBCMT:_ftol3_.obj
 0001:0002ab61       __dtoui3                   1002bb61 f   LIBCMT:_ftol3_.obj
 0001:0002ab70       __dtoul3                   1002bb70 f   LIBCMT:_ftol3_.obj
 0001:0002ab7f       __dtol3                    1002bb7f f   LIBCMT:_ftol3_.obj
 0001:0002ab8c       __dtol3_NaN                1002bb8c f   LIBCMT:_ftol3_.obj
 0001:0002aba9       __dtol3_work               1002bba9 f   LIBCMT:_ftol3_.obj
 0001:0002ac90       __ultod3                   1002bc90 f   LIBCMT:_ftol3_.obj
 0001:0002acd0       __ltod3                    1002bcd0 f   LIBCMT:_ftol3_.obj
 0001:0002add4       ___isa_available_init      1002bdd4 f   LIBCMT:_cpu_disp_.obj
 0001:0002b3b5       __CRT_INIT@12              1002c3b5 f   LIBCMT:dll_dllmain.obj
 0001:0002b3c0       __DllMainCRTStartup@12     1002c3c0 f   LIBCMT:dll_dllmain.obj
 0001:0002b3eb       ??$__crt_fast_decode_pointer@PAP6AXXZ@@YAPAP6AXXZQAP6AXXZ@Z 1002c3eb f i LIBCMT:utility.obj
 0001:0002b404       ??$__crt_fast_encode_pointer@PAP6AXXZ@@YAPAP6AXXZQAP6AXXZ@Z 1002c404 f i LIBCMT:utility.obj
 0001:0002b428       ?__crt_rotate_pointer_value@@YAIIH@Z 1002c428 f i LIBCMT:utility.obj
 0001:0002b4cc       _NtCurrentTeb              1002c4cc f i LIBCMT:utility.obj
 0001:0002b4d3       ___scrt_acquire_startup_lock 1002c4d3 f   LIBCMT:utility.obj
 0001:0002b515       ___scrt_dllmain_after_initialize_c 1002c515 f   LIBCMT:utility.obj
 0001:0002b533       ___scrt_dllmain_before_initialize_c 1002c533 f   LIBCMT:utility.obj
 0001:0002b544       ___scrt_dllmain_crt_thread_attach 1002c544 f   LIBCMT:utility.obj
 0001:0002b56a       ___scrt_dllmain_crt_thread_detach 1002c56a f   LIBCMT:utility.obj
 0001:0002b57a       ___scrt_dllmain_exception_filter 1002c57a f   LIBCMT:utility.obj
 0001:0002b5b9       ___scrt_dllmain_uninitialize_c 1002c5b9 f   LIBCMT:utility.obj
 0001:0002b5e4       ___scrt_dllmain_uninitialize_critical 1002c5e4 f   LIBCMT:utility.obj
 0001:0002b5f4       ___scrt_initialize_crt     1002c5f4 f   LIBCMT:utility.obj
 0001:0002b63b       ___scrt_initialize_onexit_tables 1002c63b f   LIBCMT:utility.obj
 0001:0002b6f7       ___scrt_is_nonwritable_in_current_image 1002c6f7 f   LIBCMT:utility.obj
 0001:0002b7a7       ___scrt_release_startup_lock 1002c7a7 f   LIBCMT:utility.obj
 0001:0002b7cb       ___scrt_uninitialize_crt   1002c7cb f   LIBCMT:utility.obj
 0001:0002b7fd       __onexit                   1002c7fd f   LIBCMT:utility.obj
 0001:0002b846       _at_quick_exit             1002c846 f   LIBCMT:utility.obj
 0001:0002b883       _atexit                    1002c883 f   LIBCMT:utility.obj
 0001:0002b89d       ___security_init_cookie    1002c89d f   LIBCMT:gs_support.obj
 0001:0002b960       ?__scrt_initialize_type_info@@YAXXZ 1002c960 f   LIBCMT:tncleanup.obj
 0001:0002b96f       ?__scrt_uninitialize_type_info@@YAXXZ 1002c96f f   LIBCMT:tncleanup.obj
 0001:0002b97e       ___local_stdio_scanf_options 1002c97e f i LIBCMT:default_local_stdio_options.obj
 0001:0002b984       ___scrt_initialize_default_local_stdio_options 1002c984 f   LIBCMT:default_local_stdio_options.obj
 0001:0002b9a8       ___scrt_get_dyn_tls_init_callback 1002c9a8 f   LIBCMT:dyn_tls_init.obj
 0001:0002b9ae       ___scrt_fastfail           1002c9ae f   LIBCMT:utility_desktop.obj
 0001:0002bb0f       ___scrt_get_show_window_mode 1002cb0f f   LIBCMT:utility_desktop.obj
 0001:0002bb4e       ___scrt_initialize_winrt   1002cb4e f   LIBCMT:utility_desktop.obj
 0001:0002bb51       ___scrt_is_managed_app     1002cb51 f   LIBCMT:utility_desktop.obj
 0001:0002bba6       ___scrt_set_unhandled_exception_filter 1002cba6 f   LIBCMT:utility_desktop.obj
 0001:0002bbb5       ___scrt_unhandled_exception_filter@4 1002cbb5 f   LIBCMT:utility_desktop.obj
 0001:0002bc06       __crt_debugger_hook        1002cc06 f   LIBCMT:utility_desktop.obj
 0001:0002bc10       __RTC_Initialize           1002cc10 f   LIBCMT:_initsect_.obj
 0001:0002bc45       __RTC_Terminate            1002cc45 f   LIBCMT:_initsect_.obj
 0001:0002bc7a       @_guard_check_icall@4      1002cc7a f i LIBCMT:checkcfg.obj
 0001:0002bc80       __SEH_prolog4              1002cc80 f   LIBCMT:_sehprolg4_.obj
 0001:0002bcc6       __SEH_epilog4              1002ccc6 f   LIBCMT:_sehprolg4_.obj
 0001:0002bcf1       ___scrt_is_ucrt_dll_in_use 1002ccf1 f   LIBCMT:ucrt_detection.obj
 0001:0002bd00       @_guard_check_icall_nop@4  1002cd00 f i LIBCMT:guard_support.obj
 0001:0002bd01       __guard_icall_checks_enforced 1002cd01 f i LIBCMT:guard_support.obj
 0001:0002bd18       _GetModuleHandleA@4        1002cd18 f   kernel32:KERNEL32.dll
 0001:0002bd1e       _GetProcAddress@8          1002cd1e f   kernel32:KERNEL32.dll
 0001:0002bd24       _UnhandledExceptionFilter@4 1002cd24 f   kernel32:KERNEL32.dll
 0001:0002bd2a       _SetUnhandledExceptionFilter@4 1002cd2a f   kernel32:KERNEL32.dll
 0001:0002bd30       _GetCurrentProcess@0       1002cd30 f   kernel32:KERNEL32.dll
 0001:0002bd36       _TerminateProcess@8        1002cd36 f   kernel32:KERNEL32.dll
 0001:0002bd3c       _IsProcessorFeaturePresent@4 1002cd3c f   kernel32:KERNEL32.dll
 0001:0002bd42       _QueryPerformanceCounter@4 1002cd42 f   kernel32:KERNEL32.dll
 0001:0002bd48       _GetCurrentProcessId@0     1002cd48 f   kernel32:KERNEL32.dll
 0001:0002bd4e       _GetCurrentThreadId@0      1002cd4e f   kernel32:KERNEL32.dll
 0001:0002bd54       _GetSystemTimeAsFileTime@4 1002cd54 f   kernel32:KERNEL32.dll
 0001:0002bd5a       _InitializeSListHead@4     1002cd5a f   kernel32:KERNEL32.dll
 0001:0002bd60       _IsDebuggerPresent@0       1002cd60 f   kernel32:KERNEL32.dll
 0001:0002bd66       _GetStartupInfoW@4         1002cd66 f   kernel32:KERNEL32.dll
 0001:0002bd6c       _GetModuleHandleW@4        1002cd6c f   kernel32:KERNEL32.dll
 0001:0002bd80       _memset                    1002cd80 f   libvcruntime:memset.obj
 0001:0002bf30       _memcpy                    1002cf30 f   libvcruntime:memcpy.obj
 0001:0002c610       _memmove                   1002d610 f   libvcruntime:memmove.obj
 0001:0002ccf0       _strchr                    1002dcf0 f   libvcruntime:strchr.obj
 0001:0002cd5e       ___from_strstr_to_strchr   1002dd5e     libvcruntime:strchr.obj
 0001:0002ceae       _EventDataDescCreate       1002deae f i libvcruntime:telemetry.obj
 0001:0002cecf       _HRESULT_FROM_WIN32        1002decf f i libvcruntime:telemetry.obj
 0001:0002cee8       ___telemetry_main_invoke_trigger 1002dee8 f   libvcruntime:telemetry.obj
 0001:0002cfab       ___telemetry_main_return_trigger 1002dfab f   libvcruntime:telemetry.obj
 0001:0002d06e       ___vcrt_initialize_telemetry_provider 1002e06e f   libvcruntime:telemetry.obj
 0001:0002d085       ___vcrt_uninitialize_telemetry_provider 1002e085 f   libvcruntime:telemetry.obj
 0001:0002d0e0       __except_handler4          1002e0e0 f   libvcruntime:_chandler4_.obj
 0001:0002d290       ___vcrt_initialize         1002e290 f   libvcruntime:initialization.obj
 0001:0002d2c9       ___vcrt_thread_attach      1002e2c9 f   libvcruntime:initialization.obj
 0001:0002d2d6       ___vcrt_thread_detach      1002e2d6 f   libvcruntime:initialization.obj
 0001:0002d2e3       ___vcrt_uninitialize       1002e2e3 f   libvcruntime:initialization.obj
 0001:0002d310       ___vcrt_uninitialize_critical 1002e310 f   libvcruntime:initialization.obj
 0001:0002d32b       ??$?RD@__crt_internal_free_policy@@QBEXQBD@Z 1002e32b f i libvcruntime:std_type_info.obj
 0001:0002d33f       ??$?RX@__crt_internal_free_policy@@QBEXQBX@Z 1002e33f f i libvcruntime:std_type_info.obj
 0001:0002d353       ??$__crt_interlocked_compare_exchange_pointer@$$CBD$$T$$T@@YAPBDPDSBD$$T1@Z 1002e353 f i libvcruntime:std_type_info.obj
 0001:0002d369       ??$__crt_interlocked_compare_exchange_pointer@$$CBDPAD$$T@@YAPBDPDSBDQAD$$T@Z 1002e369 f i libvcruntime:std_type_info.obj
 0001:0002d37f       ??$__crt_interlocked_read_pointer@$$CBD@@YAPBDPDSBD@Z 1002e37f f i libvcruntime:std_type_info.obj
 0001:0002d393       ??0?$__crt_unique_heap_ptr@DU__crt_internal_free_policy@@@@QAE@QAD@Z 1002e393 f i libvcruntime:std_type_info.obj
 0001:0002d3a4       ??0?$__crt_unique_heap_ptr@XU__crt_internal_free_policy@@@@QAE@QAX@Z 1002e3a4 f i libvcruntime:std_type_info.obj
 0001:0002d3b5       ??1?$__crt_unique_heap_ptr@DU__crt_internal_free_policy@@@@QAE@XZ 1002e3b5 f i libvcruntime:std_type_info.obj
 0001:0002d3c9       ??1?$__crt_unique_heap_ptr@XU__crt_internal_free_policy@@@@QAE@XZ 1002e3c9 f i libvcruntime:std_type_info.obj
 0001:0002d3e9       ??B?$__crt_unique_heap_ptr@DU__crt_internal_free_policy@@@@QBE_NXZ 1002e3e9 f i libvcruntime:std_type_info.obj
 0001:0002d3f3       ??B?$__crt_unique_heap_ptr@XU__crt_internal_free_policy@@@@QBE_NXZ 1002e3f3 f i libvcruntime:std_type_info.obj
 0001:0002d425       ?detach@?$__crt_unique_heap_ptr@XU__crt_internal_free_policy@@@@QAEPAXXZ 1002e425 f i libvcruntime:std_type_info.obj
 0001:0002d42b       ?get@?$__crt_unique_heap_ptr@DU__crt_internal_free_policy@@@@QBEPADXZ 1002e42b f i libvcruntime:std_type_info.obj
 0001:0002d42e       ?get@?$__crt_unique_heap_ptr@XU__crt_internal_free_policy@@@@QBEPAXXZ 1002e42e f i libvcruntime:std_type_info.obj
 0001:0002d431       ?is_valid@?$__crt_unique_heap_ptr@DU__crt_internal_free_policy@@@@QBE_NXZ 1002e431 f i libvcruntime:std_type_info.obj
 0001:0002d43b       ?is_valid@?$__crt_unique_heap_ptr@XU__crt_internal_free_policy@@@@QBE_NXZ 1002e43b f i libvcruntime:std_type_info.obj
 0001:0002d445       ?release@?$__crt_unique_heap_ptr@DU__crt_internal_free_policy@@@@QAEXXZ 1002e445 f i libvcruntime:std_type_info.obj
 0001:0002d459       ?release@?$__crt_unique_heap_ptr@XU__crt_internal_free_policy@@@@QAEXXZ 1002e459 f i libvcruntime:std_type_info.obj
 0001:0002d46d       ___std_type_info_compare   1002e46d f   libvcruntime:std_type_info.obj
 0001:0002d4b8       ___std_type_info_destroy_list 1002e4b8 f   libvcruntime:std_type_info.obj
 0001:0002d4e3       ___std_type_info_hash      1002e4e3 f   libvcruntime:std_type_info.obj
 0001:0002d512       ___std_type_info_name      1002e512 f   libvcruntime:std_type_info.obj
 0001:0002d60f       ??$?BX@__crt_fast_encoded_nullptr_t@@QBEPAXXZ 1002e60f f i libvcruntime:winapi_downlevel.obj
 0001:0002d62d       ??$__crt_fast_decode_pointer@PAX@@YAPAXQAX@Z 1002e62d f i libvcruntime:winapi_downlevel.obj
 0001:0002d646       ??$__crt_fast_encode_pointer@PAX@@YAPAXQAX@Z 1002e646 f i libvcruntime:winapi_downlevel.obj
 0001:0002d66a       ??$__crt_interlocked_compare_exchange_pointer@UHINSTANCE__@@$$T$$T@@YAPAUHINSTANCE__@@PDSAU0@$$T1@Z 1002e66a f i libvcruntime:winapi_downlevel.obj
 0001:0002d680       ??$__crt_interlocked_compare_exchange_pointer@X$$T$$T@@YAPAXPDSAX$$T1@Z 1002e680 f i libvcruntime:winapi_downlevel.obj
 0001:0002d696       ??$__crt_interlocked_exchange_pointer@UHINSTANCE__@@PAU1@@@YAPAUHINSTANCE__@@PDSAU0@QAU0@@Z 1002e696 f i libvcruntime:winapi_downlevel.obj
 0001:0002d6a6       ??$__crt_interlocked_exchange_pointer@UHINSTANCE__@@PAX@@YAPAUHINSTANCE__@@PDSAU0@QAX@Z 1002e6a6 f i libvcruntime:winapi_downlevel.obj
 0001:0002d6b6       ??$__crt_interlocked_exchange_pointer@XPAX@@YAPAXPDSAXQAX@Z 1002e6b6 f i libvcruntime:winapi_downlevel.obj
 0001:0002d6c6       ??$__crt_interlocked_read_pointer@UHINSTANCE__@@@@YAPAUHINSTANCE__@@PDSAU0@@Z 1002e6c6 f i libvcruntime:winapi_downlevel.obj
 0001:0002d6da       ??$__crt_interlocked_read_pointer@X@@YAPAXPDSAX@Z 1002e6da f i libvcruntime:winapi_downlevel.obj
 0001:0002d6ee       ?__crt_fast_encode_pointer@@YA?AU__crt_fast_encoded_nullptr_t@@$$T@Z 1002e6ee f i libvcruntime:winapi_downlevel.obj
 0001:0002da32       ___vcrt_EventRegister      1002ea32 f   libvcruntime:winapi_downlevel.obj
 0001:0002da82       ___vcrt_EventSetInformation 1002ea82 f   libvcruntime:winapi_downlevel.obj
 0001:0002dad5       ___vcrt_EventUnregister    1002ead5 f   libvcruntime:winapi_downlevel.obj
 0001:0002db1d       ___vcrt_EventWriteTransfer 1002eb1d f   libvcruntime:winapi_downlevel.obj
 0001:0002db78       ___vcrt_FlsAlloc           1002eb78 f   libvcruntime:winapi_downlevel.obj
 0001:0002dbc0       ___vcrt_FlsFree            1002ebc0 f   libvcruntime:winapi_downlevel.obj
 0001:0002dc08       ___vcrt_FlsGetValue        1002ec08 f   libvcruntime:winapi_downlevel.obj
 0001:0002dc50       ___vcrt_FlsSetValue        1002ec50 f   libvcruntime:winapi_downlevel.obj
 0001:0002dc9c       ___vcrt_InitializeCriticalSectionEx 1002ec9c f   libvcruntime:winapi_downlevel.obj
 0001:0002dcf3       ___vcrt_initialize_winapi_thunks 1002ecf3 f   libvcruntime:winapi_downlevel.obj
 0001:0002dd20       ___vcrt_uninitialize_winapi_thunks 1002ed20 f   libvcruntime:winapi_downlevel.obj
 0001:0002dd60       __local_unwind4            1002ed60 f   libvcruntime:_exsup4_.obj
 0001:0002de36       __seh_longjmp_unwind4@4    1002ee36 f   libvcruntime:_exsup4_.obj
 0001:0002de5e       @_EH4_CallFilterFunc@8     1002ee5e f   libvcruntime:_exsup4_.obj
 0001:0002de75       @_EH4_TransferToHandler@8  1002ee75 f   libvcruntime:_exsup4_.obj
 0001:0002de8e       @_EH4_GlobalUnwind2@8      1002ee8e f   libvcruntime:_exsup4_.obj
 0001:0002dea7       @_EH4_LocalUnwind@16       1002eea7 f   libvcruntime:_exsup4_.obj
 0001:0002df15       ___except_validate_context_record 1002ef15 f   libvcruntime:jbcxrval.obj
 0001:0002df16       ___except_validate_jump_buffer 1002ef16 f   libvcruntime:jbcxrval.obj
 0001:0002df17       ??$?RU__vcrt_ptd@@@__crt_internal_free_policy@@QBEXQBU__vcrt_ptd@@@Z 1002ef17 f i libvcruntime:per_thread_data.obj
 0001:0002df2b       ??0?$__crt_unique_heap_ptr@U__vcrt_ptd@@U__crt_internal_free_policy@@@@QAE@QAU__vcrt_ptd@@@Z 1002ef2b f i libvcruntime:per_thread_data.obj
 0001:0002df3c       ??1?$__crt_unique_heap_ptr@U__vcrt_ptd@@U__crt_internal_free_policy@@@@QAE@XZ 1002ef3c f i libvcruntime:per_thread_data.obj
 0001:0002df50       ??B?$__crt_unique_heap_ptr@U__vcrt_ptd@@U__crt_internal_free_policy@@@@QBE_NXZ 1002ef50 f i libvcruntime:per_thread_data.obj
 0001:0002df5a       ?detach@?$__crt_unique_heap_ptr@U__vcrt_ptd@@U__crt_internal_free_policy@@@@QAEPAU__vcrt_ptd@@XZ 1002ef5a f i libvcruntime:per_thread_data.obj
 0001:0002df60       ?get@?$__crt_unique_heap_ptr@U__vcrt_ptd@@U__crt_internal_free_policy@@@@QBEPAU__vcrt_ptd@@XZ 1002ef60 f i libvcruntime:per_thread_data.obj
 0001:0002df63       ?is_valid@?$__crt_unique_heap_ptr@U__vcrt_ptd@@U__crt_internal_free_policy@@@@QBE_NXZ 1002ef63 f i libvcruntime:per_thread_data.obj
 0001:0002df6d       ?release@?$__crt_unique_heap_ptr@U__vcrt_ptd@@U__crt_internal_free_policy@@@@QAEXXZ 1002ef6d f i libvcruntime:per_thread_data.obj
 0001:0002dfa1       ___vcrt_freefls@4          1002efa1 f   libvcruntime:per_thread_data.obj
 0001:0002dfc4       ___vcrt_freeptd            1002efc4 f   libvcruntime:per_thread_data.obj
 0001:0002e007       ___vcrt_getptd             1002f007 f   libvcruntime:per_thread_data.obj
 0001:0002e018       ___vcrt_getptd_noexit      1002f018 f   libvcruntime:per_thread_data.obj
 0001:0002e0ae       ___vcrt_initialize_ptd     1002f0ae f   libvcruntime:per_thread_data.obj
 0001:0002e0ed       ___vcrt_uninitialize_ptd   1002f0ed f   libvcruntime:per_thread_data.obj
 0001:0002e10e       ___vcrt_initialize_locks   1002f10e f   libvcruntime:locks.obj
 0001:0002e159       ___vcrt_lock               1002f159 f   libvcruntime:locks.obj
 0001:0002e173       ___vcrt_uninitialize_locks 1002f173 f   libvcruntime:locks.obj
 0001:0002e1ad       ___vcrt_unlock             1002f1ad f   libvcruntime:locks.obj
 0001:0002e1c7       ??$?B$$A6AXXZ@__crt_fast_encoded_nullptr_t@@QBEP6AXXZXZ 1002f1c7 f i libvcruntime:purevirt_data.obj
 0001:0002e1e5       ??$__crt_fast_encode_pointer@P6AXXZ@@YAP6AXXZQ6AXXZ@Z 1002f1e5 f i libvcruntime:purevirt_data.obj
 0001:0002e209       ___vcrt_initialize_pure_virtual_call_handler 1002f209 f   libvcruntime:purevirt_data.obj
 0001:0002e22d       ??$__vcrt_va_start_verify_argument_type@QBD@@YAXXZ 1002f22d f i libvcruntime:undname.obj
 0001:0002e22e       ??0Block@_HeapManager@@QAE@XZ 1002f22e f i libvcruntime:undname.obj
 0001:0002e234       ??0DName@@QAE@AAPBDD@Z     1002f234 f   libvcruntime:undname.obj
 0001:0002e31b       ??0DName@@QAE@ABV0@@Z      1002f31b f i libvcruntime:undname.obj
 0001:0002e336       ??0DName@@QAE@D@Z          1002f336 f   libvcruntime:undname.obj
 0001:0002e36d       ??0DName@@QAE@PAV0@@Z      1002f36d f   libvcruntime:undname.obj
 0001:0002e3cd       ??0DName@@QAE@PBD@Z        1002f3cd f   libvcruntime:undname.obj
 0001:0002e415       ??0DName@@QAE@W4DNameStatus@@@Z 1002f415 f   libvcruntime:undname.obj
 0001:0002e468       ??0DName@@QAE@XZ           1002f468 f i libvcruntime:undname.obj
 0001:0002e47d       ??0DName@@QAE@_J@Z         1002f47d f   libvcruntime:undname.obj
 0001:0002e537       ??0DName@@QAE@_K@Z         1002f537 f   libvcruntime:undname.obj
 0001:0002e5c1       ??0DNameNode@@IAE@XZ       1002f5c1 f   libvcruntime:undname.obj
 0001:0002e5cc       ??0DNameStatusNode@@AAE@W4DNameStatus@@@Z 1002f5cc f   libvcruntime:undname.obj
 0001:0002e5f7       ??0Replicator@@QAE@XZ      1002f5f7 f i libvcruntime:undname.obj
 0001:0002e5fd       ??0UnDecorator@@QAE@PADPBDHP6APADJ@ZK@Z 1002f5fd f i libvcruntime:undname.obj
 0001:0002e680       ??0charNode@@QAE@D@Z       1002f680 f   libvcruntime:undname.obj
 0001:0002e69a       ??0pDNameNode@@QAE@PAVDName@@@Z 1002f69a f   libvcruntime:undname.obj
 0001:0002e6cc       ??0pairNode@@QAE@PAVDNameNode@@0@Z 1002f6cc f   libvcruntime:undname.obj
 0001:0002e6f2       ??0pcharNode@@QAE@PBDH@Z   1002f6f2 f   libvcruntime:undname.obj
 0001:0002e761       ??2@YAPAXIAAV_HeapManager@@H@Z 1002f761 f i libvcruntime:undname.obj
 0001:0002e77b       ??4DName@@QAEAAV0@ABV0@@Z  1002f77b f   libvcruntime:undname.obj
 0001:0002e796       ??4DName@@QAEAAV0@D@Z      1002f796 f i libvcruntime:undname.obj
 0001:0002e7cd       ??4DName@@QAEAAV0@PAV0@@Z  1002f7cd f   libvcruntime:undname.obj
 0001:0002e828       ??4DName@@QAEAAV0@PBD@Z    1002f828 f   libvcruntime:undname.obj
 0001:0002e866       ??4DName@@QAEAAV0@W4DNameStatus@@@Z 1002f866 f   libvcruntime:undname.obj
 0001:0002e8a8       ??AReplicator@@QBE?AVDName@@H@Z 1002f8a8 f   libvcruntime:undname.obj
 0001:0002e8f3       ??BUnDecorator@@QAEPADXZ   1002f8f3 f i libvcruntime:undname.obj
 0001:0002eacc       ??H@YA?AVDName@@DABV0@@Z   1002facc f i libvcruntime:undname.obj
 0001:0002eaf9       ??H@YA?AVDName@@PBDABV0@@Z 1002faf9 f i libvcruntime:undname.obj
 0001:0002eb26       ??H@YA?AVDName@@W4DNameStatus@@ABV0@@Z 1002fb26 f i libvcruntime:undname.obj
 0001:0002eb53       ??HDName@@QBE?AV0@ABV0@@Z  1002fb53 f   libvcruntime:undname.obj
 0001:0002eb7d       ??HDName@@QBE?AV0@D@Z      1002fb7d f   libvcruntime:undname.obj
 0001:0002eba7       ??HDName@@QBE?AV0@PAV0@@Z  1002fba7 f   libvcruntime:undname.obj
 0001:0002ebd1       ??HDName@@QBE?AV0@PBD@Z    1002fbd1 f   libvcruntime:undname.obj
 0001:0002ebfb       ??HDName@@QBE?AV0@W4DNameStatus@@@Z 1002fbfb f   libvcruntime:undname.obj
 0001:0002ec25       ??YDName@@QAEAAV0@ABV0@@Z  1002fc25 f   libvcruntime:undname.obj
 0001:0002ec78       ??YDName@@QAEAAV0@D@Z      1002fc78 f   libvcruntime:undname.obj
 0001:0002ecdc       ??YDName@@QAEAAV0@PAV0@@Z  1002fcdc f   libvcruntime:undname.obj
 0001:0002ed5a       ??YDName@@QAEAAV0@PBD@Z    1002fd5a f   libvcruntime:undname.obj
 0001:0002edd3       ??YDName@@QAEAAV0@W4DNameStatus@@@Z 1002fdd3 f   libvcruntime:undname.obj
 0001:0002ee23       ??YReplicator@@QAEAAV0@ABVDName@@@Z 1002fe23 f   libvcruntime:undname.obj
 0001:0002ee7f       ??_5DName@@QAEAAV0@ABV0@@Z 1002fe7f f   libvcruntime:undname.obj
 0001:0002eea2       ?Constructor@_HeapManager@@QAEXP6APAXI@ZP6AXPAX@Z@Z 1002fea2 f i libvcruntime:undname.obj
 0001:0002eec6       ?Destructor@_HeapManager@@QAEXXZ 1002fec6 f i libvcruntime:undname.obj
 0001:0002ef0d       ?UScore@UnDecorator@@SAPBDW4Tokens@@@Z 1002ff0d f   libvcruntime:undname.obj
 0001:0002ef31       ?append@DName@@AAEXPAVDNameNode@@@Z 1002ff31 f   libvcruntime:undname.obj
 0001:0002ef88       ?composeDeclaration@UnDecorator@@CA?AVDName@@ABV2@@Z 1002ff88 f i libvcruntime:undname.obj
 0001:0002fff2       ?doAccessSpecifiers@UnDecorator@@SAHXZ 10030ff2 f i libvcruntime:undname.obj
 0001:00030003       ?doAllocationLanguage@UnDecorator@@SAHXZ 10031003 f i libvcruntime:undname.obj
 0001:00030014       ?doAllocationModel@UnDecorator@@SAHXZ 10031014 f i libvcruntime:undname.obj
 0001:00030025       ?doEcsu@UnDecorator@@SAHXZ 10031025 f i libvcruntime:undname.obj
 0001:00030036       ?doEllipsis@UnDecorator@@SAHXZ 10031036 f i libvcruntime:undname.obj
 0001:00030047       ?doFunctionReturns@UnDecorator@@SAHXZ 10031047 f i libvcruntime:undname.obj
 0001:00030058       ?doMSKeywords@UnDecorator@@SAHXZ 10031058 f i libvcruntime:undname.obj
 0001:00030068       ?doMemberTypes@UnDecorator@@SAHXZ 10031068 f i libvcruntime:undname.obj
 0001:00030079       ?doNameOnly@UnDecorator@@SAHXZ 10031079 f i libvcruntime:undname.obj
 0001:00030086       ?doNoIdentCharCheck@UnDecorator@@SAHXZ 10031086 f i libvcruntime:undname.obj
 0001:00030093       ?doPchar@DName@@AAEXPBDH@Z 10031093 f   libvcruntime:undname.obj
 0001:0003013f       ?doPtr64@UnDecorator@@SAHXZ 1003113f f i libvcruntime:undname.obj
 0001:00030150       ?doRestrictionSpec@UnDecorator@@SAHXZ 10031150 f i libvcruntime:undname.obj
 0001:00030161       ?doThisTypes@UnDecorator@@SAHXZ 10031161 f i libvcruntime:undname.obj
 0001:00030177       ?doThrowTypes@UnDecorator@@SAHXZ 10031177 f i libvcruntime:undname.obj
 0001:00030188       ?doTypeOnly@UnDecorator@@SAHXZ 10031188 f i libvcruntime:undname.obj
 0001:00030195       ?doUnderScore@UnDecorator@@SAHXZ 10031195 f i libvcruntime:undname.obj
 0001:000301a2       ?getArgumentList@UnDecorator@@CA?AVDName@@XZ 100311a2 f   libvcruntime:undname.obj
 0001:000302f1       ?getArgumentTypes@UnDecorator@@CA?AVDName@@XZ 100312f1 f   libvcruntime:undname.obj
 0001:00030409       ?getArrayType@UnDecorator@@CA?AVDName@@ABV2@@Z 10031409 f i libvcruntime:undname.obj
 0001:0003068b       ?getBasedType@UnDecorator@@CA?AVDName@@XZ 1003168b f   libvcruntime:undname.obj
 0001:0003074a       ?getBasicDataType@UnDecorator@@CA?AVDName@@ABV2@@Z 1003174a f   libvcruntime:undname.obj
 0001:00030c2f       ?getCallIndex@UnDecorator@@CA?AVDName@@XZ 10031c2f f i libvcruntime:undname.obj
 0001:00030c48       ?getCallingConvention@UnDecorator@@CA?AVDName@@XZ 10031c48 f   libvcruntime:undname.obj
 0001:00030d36       ?getDataIndirectType@UnDecorator@@CA?AVDName@@ABV2@PBD0H@Z 10031d36 f   libvcruntime:undname.obj
 0001:000314e0       ?getDataIndirectType@UnDecorator@@CA?AVDName@@XZ 100324e0 f i libvcruntime:undname.obj
 0001:00031527       ?getDataType@UnDecorator@@CA?AVDName@@PAV2@@Z 10032527 f   libvcruntime:undname.obj
 0001:0003162d       ?getDecoratedName@UnDecorator@@CA?AVDName@@XZ 1003262d f   libvcruntime:undname.obj
 0001:0003190c       ?getDimension@UnDecorator@@CA?AVDName@@_N@Z 1003290c f   libvcruntime:undname.obj
 0001:00031a90       ?getDispatchTarget@UnDecorator@@CA?AVDName@@XZ 10032a90 f   libvcruntime:undname.obj
 0001:00031b01       ?getDisplacement@UnDecorator@@CA?AVDName@@XZ 10032b01 f i libvcruntime:undname.obj
 0001:00031b1a       ?getECSUDataType@UnDecorator@@CA?AVDName@@XZ 10032b1a f   libvcruntime:undname.obj
 0001:00031c7e       ?getECSUName@UnDecorator@@CA?AVDName@@XZ 10032c7e f i libvcruntime:undname.obj
 0001:00031c93       ?getEnumType@UnDecorator@@CA?AVDName@@XZ 10032c93 f i libvcruntime:undname.obj
 0001:00031dba       ?getExtendedDataIndirectType@UnDecorator@@CA?AVDName@@AAPBDAA_NH@Z 10032dba f   libvcruntime:undname.obj
 0001:00031fcd       ?getExternalDataType@UnDecorator@@CA?AVDName@@ABV2@@Z 10032fcd f i libvcruntime:undname.obj
 0001:00032064       ?getFunctionIndirectType@UnDecorator@@CA?AVDName@@ABV2@@Z 10033064 f   libvcruntime:undname.obj
 0001:0003256f       ?getGuardNumber@UnDecorator@@CA?AVDName@@XZ 1003356f f i libvcruntime:undname.obj
 0001:00032588       ?getLastChar@DName@@QBEDXZ 10033588 f i libvcruntime:undname.obj
 0001:000325ae       ?getLastChar@DNameStatusNode@@UBEDXZ 100335ae f i libvcruntime:undname.obj
 0001:000325bd       ?getLastChar@charNode@@UBEDXZ 100335bd f i libvcruntime:undname.obj
 0001:000325c1       ?getLastChar@pDNameNode@@UBEDXZ 100335c1 f i libvcruntime:undname.obj
 0001:000325d2       ?getLastChar@pairNode@@UBEDXZ 100335d2 f i libvcruntime:undname.obj
 0001:00032611       ?getLastChar@pcharNode@@UBEDXZ 10033611 f i libvcruntime:undname.obj
 0001:00032627       ?getLexicalFrame@UnDecorator@@CA?AVDName@@XZ 10033627 f i libvcruntime:undname.obj
 0001:00032673       ?getMemory@_HeapManager@@QAEPAXIH@Z 10033673 f   libvcruntime:undname.obj
 0001:00032724       ?getNumberOfDimensions@UnDecorator@@CAHXZ 10033724 f   libvcruntime:undname.obj
 0001:0003279d       ?getOperatorName@UnDecorator@@CA?AVDName@@_NPA_N@Z 1003379d f i libvcruntime:undname.obj
 0001:00032f4c       ?getPointerType@UnDecorator@@CA?AVDName@@ABV2@0@Z 10033f4c f i libvcruntime:undname.obj
 0001:00032f71       ?getPointerTypeArray@UnDecorator@@CA?AVDName@@ABV2@0@Z 10033f71 f i libvcruntime:undname.obj
 0001:00032f96       ?getPrimaryDataType@UnDecorator@@CA?AVDName@@ABV2@@Z 10033f96 f   libvcruntime:undname.obj
 0001:000331e7       ?getPtrRefDataType@UnDecorator@@CA?AVDName@@ABV2@H@Z 100341e7 f   libvcruntime:undname.obj
 0001:00033329       ?getPtrRefType@UnDecorator@@CA?AVDName@@ABV2@0PBD@Z 10034329 f   libvcruntime:undname.obj
 0001:00033464       ?getReferenceType@UnDecorator@@CA?AVDName@@ABV2@0PBD@Z 10034464 f i libvcruntime:undname.obj
 0001:00033487       ?getRestrictionSpec@UnDecorator@@CA?AVDName@@XZ 10034487 f   libvcruntime:undname.obj
 0001:000335b5       ?getReturnType@UnDecorator@@CA?AVDName@@PAV2@@Z 100345b5 f   libvcruntime:undname.obj
 0001:000335ef       ?getScope@UnDecorator@@CA?AVDName@@XZ 100345ef f   libvcruntime:undname.obj
 0001:00033ac4       ?getScopedName@UnDecorator@@CA?AVDName@@XZ 10034ac4 f   libvcruntime:undname.obj
 0001:00033bfd       ?getSignedDimension@UnDecorator@@CA?AVDName@@XZ 10034bfd f   libvcruntime:undname.obj
 0001:00033c64       ?getStorageConvention@UnDecorator@@CA?AVDName@@XZ 10034c64 f i libvcruntime:undname.obj
 0001:00033c79       ?getString@DName@@QBEPADPAD0@Z 10034c79 f i libvcruntime:undname.obj
 0001:00033cb0       ?getString@DName@@QBEPADPADH@Z 10034cb0 f i libvcruntime:undname.obj
 0001:00033d1b       ?getString@DNameStatusNode@@UBEPADPAD0@Z 10034d1b f i libvcruntime:undname.obj
 0001:00033d4b       ?getString@charNode@@UBEPADPAD0@Z 10034d4b f i libvcruntime:undname.obj
 0001:00033d65       ?getString@pDNameNode@@UBEPADPAD0@Z 10034d65 f i libvcruntime:undname.obj
 0001:00033d81       ?getString@pairNode@@UBEPADPAD0@Z 10034d81 f i libvcruntime:undname.obj
 0001:00033dd6       ?getString@pcharNode@@UBEPADPAD0@Z 10034dd6 f i libvcruntime:undname.obj
 0001:00033df7       ?getStringEncoding@UnDecorator@@CA?AVDName@@PADH@Z 10034df7 f   libvcruntime:undname.obj
 0001:00033ec2       ?getStringHelper@@YAPADPAD00H@Z 10034ec2 f i libvcruntime:undname.obj
 0001:00033f06       ?getSymbolName@UnDecorator@@CA?AVDName@@XZ 10034f06 f i libvcruntime:undname.obj
 0001:00033f60       ?getTemplateArgumentList@UnDecorator@@CA?AVDName@@XZ 10034f60 f   libvcruntime:undname.obj
 0001:000342b8       ?getTemplateConstant@UnDecorator@@CA?AVDName@@XZ 100352b8 f   libvcruntime:undname.obj
 0001:000346cd       ?getTemplateName@UnDecorator@@CA?AVDName@@_N@Z 100356cd f   libvcruntime:undname.obj
 0001:00034878       ?getThisType@UnDecorator@@CA?AVDName@@XZ 10035878 f i libvcruntime:undname.obj
 0001:000348c0       ?getThrowTypes@UnDecorator@@CA?AVDName@@XZ 100358c0 f   libvcruntime:undname.obj
 0001:0003496c       ?getTypeEncoding@UnDecorator@@CAHXZ 1003596c f i libvcruntime:undname.obj
 0001:00034fac       ?getVCallThunkType@UnDecorator@@CA?AVDName@@XZ 10035fac f i libvcruntime:undname.obj
 0001:00034ff5       ?getVbTableType@UnDecorator@@CA?AVDName@@ABV2@@Z 10035ff5 f i libvcruntime:undname.obj
 0001:0003500f       ?getVdispMapType@UnDecorator@@CA?AVDName@@ABV2@@Z 1003600f f i libvcruntime:undname.obj
 0001:0003507a       ?getVfTableType@UnDecorator@@CA?AVDName@@ABV2@@Z 1003607a f i libvcruntime:undname.obj
 0001:00035238       ?getZName@UnDecorator@@CA?AVDName@@_N0@Z 10036238 f   libvcruntime:undname.obj
 0001:00035508       ?haveTemplateParameters@UnDecorator@@SAHXZ 10036508 f i libvcruntime:undname.obj
 0001:00035515       ?isArray@DName@@QBEHXZ     10036515 f i libvcruntime:undname.obj
 0001:00035521       ?isComArray@DName@@QBEHXZ  10036521 f i libvcruntime:undname.obj
 0001:0003552d       ?isEmpty@DName@@QBEHXZ     1003652d f i libvcruntime:undname.obj
 0001:00035537       ?isFull@Replicator@@QBEHXZ 10036537 f i libvcruntime:undname.obj
 0001:00035542       ?isNoTE@DName@@QBEHXZ      10036542 f i libvcruntime:undname.obj
 0001:0003554e       ?isPinPtr@DName@@QBEHXZ    1003654e f i libvcruntime:undname.obj
 0001:0003555a       ?isPtrRef@DName@@QBEHXZ    1003655a f i libvcruntime:undname.obj
 0001:00035566       ?isUDC@DName@@QBEHXZ       10036566 f i libvcruntime:undname.obj
 0001:0003557b       ?isUDTThunk@DName@@QBEHXZ  1003657b f i libvcruntime:undname.obj
 0001:00035590       ?isVCallThunk@DName@@QBEHXZ 10036590 f i libvcruntime:undname.obj
 0001:0003559c       ?isValid@DName@@QBEHXZ     1003659c f i libvcruntime:undname.obj
 0001:000355a8       ?length@DName@@QBEHXZ      100365a8 f i libvcruntime:undname.obj
 0001:000355cd       ?length@DNameStatusNode@@UBEHXZ 100365cd f i libvcruntime:undname.obj
 0001:000355d1       ?length@charNode@@UBEHXZ   100365d1 f i libvcruntime:undname.obj
 0001:000355d5       ?length@pDNameNode@@UBEHXZ 100365d5 f i libvcruntime:undname.obj
 0001:000355e6       ?length@pairNode@@UBEHXZ   100365e6 f i libvcruntime:undname.obj
 0001:00035642       ?length@pcharNode@@UBEHXZ  10036642 f i libvcruntime:undname.obj
 0001:00035646       ?make@DNameStatusNode@@SAPAV1@W4DNameStatus@@@Z 10036646 f i libvcruntime:undname.obj
 0001:000356ed       ?setIsArray@DName@@QAEXXZ  100366ed f i libvcruntime:undname.obj
 0001:000356f7       ?setIsComArray@DName@@QAEXXZ 100366f7 f i libvcruntime:undname.obj
 0001:00035701       ?setIsNoTE@DName@@QAEXXZ   10036701 f i libvcruntime:undname.obj
 0001:0003570b       ?setIsPinPtr@DName@@QAEXXZ 1003670b f i libvcruntime:undname.obj
 0001:00035715       ?setIsUDC@DName@@QAEXXZ    10036715 f i libvcruntime:undname.obj
 0001:00035725       ?setIsVCallThunk@DName@@QAEXXZ 10036725 f i libvcruntime:undname.obj
 0001:0003572f       ?setPtrRef@DName@@QAEAAV1@XZ 1003672f f i libvcruntime:undname.obj
 0001:0003573b       ?status@DName@@QBE?AW4DNameStatus@@XZ 1003673b f i libvcruntime:undname.obj
 0001:000357c0       ___unDName                 100367c0 f   libvcruntime:undname.obj
 0001:0003587a       ___unDNameEx               1003687a f   libvcruntime:undname.obj
 0001:00035934       __vsprintf_s_l             10036934 f i libvcruntime:undname.obj
 0001:0003596c       _sprintf_s                 1003696c f i libvcruntime:undname.obj
 0001:00035990       __global_unwind2           10036990 f   libvcruntime:_exsup_.obj
 0001:000359f5       __local_unwind2            100369f5 f   libvcruntime:_exsup_.obj
 0001:00035a79       __abnormal_termination     10036a79 f   libvcruntime:_exsup_.obj
 0001:00035a9c       __NLG_Notify1              10036a9c f   libvcruntime:_exsup_.obj
 0001:00035aa5       __NLG_Notify               10036aa5 f   libvcruntime:_exsup_.obj
 0001:00035abc       __NLG_Dispatch             10036abc     libvcruntime:_exsup_.obj
 0001:00035abc       __NLG_Dispatch2            10036abc     libvcruntime:_exsup_.obj
 0001:00035ac4       __NLG_Call                 10036ac4 f   libvcruntime:_exsup_.obj
 0001:00035ac6       __NLG_Return2              10036ac6     libvcruntime:_exsup_.obj
 0001:00035b14       ??$__crt_fast_decode_pointer@P6AXXZ@@YAP6AXXZQ6AXXZ@Z 10036b14 f i libvcruntime:purevirt.obj
 0001:00035b2d       ??$__crt_interlocked_compare_exchange_pointer@$$A6AXXZ$$T$$T@@YAP6AXXZPDS6AXXZ$$T1@Z 10036b2d f i libvcruntime:purevirt.obj
 0001:00035b43       ??$__crt_interlocked_exchange_pointer@$$A6AXXZP6AXXZ@@YAP6AXXZPDS6AXXZQ6AXXZ@Z 10036b43 f i libvcruntime:purevirt.obj
 0001:00035b53       ??$__crt_interlocked_read_pointer@$$A6AXXZ@@YAP6AXXZPDS6AXXZ@Z 10036b53 f i libvcruntime:purevirt.obj
 0001:00035b67       __get_purecall_handler     10036b67 f   libvcruntime:purevirt.obj
 0001:00035b8d       __purecall                 10036b8d f   libvcruntime:purevirt.obj
 0001:00035bae       __set_purecall_handler     10036bae f   libvcruntime:purevirt.obj
 0001:00035bdc       _malloc                    10036bdc f   libucrt:malloc.obj
 0001:00035be9       ??$?RPAU__crt_stdio_stream_data@@@__crt_internal_free_policy@@QBEXQBQAU__crt_stdio_stream_data@@@Z 10036be9 f i libucrt:_file.obj
 0001:00035bff       ??0?$__crt_unique_heap_ptr@PAU__crt_stdio_stream_data@@U__crt_internal_free_policy@@@@QAE@QAPAU__crt_stdio_stream_data@@@Z 10036bff f i libucrt:_file.obj
 0001:00035c13       ??0__crt_stdio_stream@@QAE@QAU_iobuf@@@Z 10036c13 f i libucrt:_file.obj
 0001:00035c27       ??1?$__crt_unique_heap_ptr@PAU__crt_stdio_stream_data@@U__crt_internal_free_policy@@@@QAE@XZ 10036c27 f i libucrt:_file.obj
 0001:00035c3d       ??C__crt_stdio_stream@@QBEPAU__crt_stdio_stream_data@@XZ 10036c3d f i libucrt:_file.obj
 0001:00035c40       ?detach@?$__crt_unique_heap_ptr@PAU__crt_stdio_stream_data@@U__crt_internal_free_policy@@@@QAEPAPAU__crt_stdio_stream_data@@XZ 10036c40 f i libucrt:_file.obj
 0001:00035c46       ?release@?$__crt_unique_heap_ptr@PAU__crt_stdio_stream_data@@U__crt_internal_free_policy@@@@QAEXXZ 10036c46 f i libucrt:_file.obj
 0001:00035c5c       ___acrt_initialize_stdio   10036c5c f   libucrt:_file.obj
 0001:00035d56       ___acrt_iob_func           10036d56 f   libucrt:_file.obj
 0001:00035d6a       ___acrt_uninitialize_stdio 10036d6a f   libucrt:_file.obj
 0001:00035dc9       __get_stream_buffer_pointers 10036dc9 f   libucrt:_file.obj
 0001:00035e20       __lock_file                10036e20 f   libucrt:_file.obj
 0001:00035e39       __unlock_file              10036e39 f   libucrt:_file.obj
 0001:00035e52       ??$?0ABV?$stream_output_adapter@D@__crt_stdio_output@@AB_KABQBDABQAU__crt_locale_pointers@@ABQAD@?$format_validation_base@DV?$stream_output_adapter@D@__crt_stdio_output@@@__crt_stdio_output@@IAE@ABV?$stream_output_adapter@D@1@AB_KABQBDABQAU__crt_locale_pointers@@ABQAD@Z 10036e52 f i libucrt:output.obj
 0001:00035e7d       ??$?0ABV?$stream_output_adapter@D@__crt_stdio_output@@AB_KABQBDABQAU__crt_locale_pointers@@ABQAD@?$positional_parameter_base@DV?$stream_output_adapter@D@__crt_stdio_output@@@__crt_stdio_output@@IAE@ABV?$stream_output_adapter@D@1@AB_KABQBDABQAU__crt_locale_pointers@@ABQAD@Z 10036e7d f i libucrt:output.obj
 0001:00035ed7       ??$?0ABV?$stream_output_adapter@D@__crt_stdio_output@@AB_KABQBDABQAU__crt_locale_pointers@@ABQAD@?$standard_base@DV?$stream_output_adapter@D@__crt_stdio_output@@@__crt_stdio_output@@IAE@ABV?$stream_output_adapter@D@1@AB_KABQBDABQAU__crt_locale_pointers@@ABQAD@Z 10036ed7 f i libucrt:output.obj
 0001:00035f19       ??$?0ABV?$stream_output_adapter@_W@__crt_stdio_output@@AB_KABQB_WABQAU__crt_locale_pointers@@ABQAD@?$format_validation_base@_WV?$stream_output_adapter@_W@__crt_stdio_output@@@__crt_stdio_output@@IAE@ABV?$stream_output_adapter@_W@1@AB_KABQB_WABQAU__crt_locale_pointers@@ABQAD@Z 10036f19 f i libucrt:output.obj
 0001:00035f44       ??$?0ABV?$stream_output_adapter@_W@__crt_stdio_output@@AB_KABQB_WABQAU__crt_locale_pointers@@ABQAD@?$positional_parameter_base@_WV?$stream_output_adapter@_W@__crt_stdio_output@@@__crt_stdio_output@@IAE@ABV?$stream_output_adapter@_W@1@AB_KABQB_WABQAU__crt_locale_pointers@@ABQAD@Z 10036f44 f i libucrt:output.obj
 0001:00035f9e       ??$?0ABV?$stream_output_adapter@_W@__crt_stdio_output@@AB_KABQB_WABQAU__crt_locale_pointers@@ABQAD@?$standard_base@_WV?$stream_output_adapter@_W@__crt_stdio_output@@@__crt_stdio_output@@IAE@ABV?$stream_output_adapter@_W@1@AB_KABQB_WABQAU__crt_locale_pointers@@ABQAD@Z 10036f9e f i libucrt:output.obj
 0001:00035fe0       ??$?0ABV?$string_output_adapter@D@__crt_stdio_output@@AB_KABQBDABQAU__crt_locale_pointers@@ABQAD@?$format_validation_base@DV?$string_output_adapter@D@__crt_stdio_output@@@__crt_stdio_output@@IAE@ABV?$string_output_adapter@D@1@AB_KABQBDABQAU__crt_locale_pointers@@ABQAD@Z 10036fe0 f i libucrt:output.obj
 0001:0003600b       ??$?0ABV?$string_output_adapter@D@__crt_stdio_output@@AB_KABQBDABQAU__crt_locale_pointers@@ABQAD@?$positional_parameter_base@DV?$string_output_adapter@D@__crt_stdio_output@@@__crt_stdio_output@@IAE@ABV?$string_output_adapter@D@1@AB_KABQBDABQAU__crt_locale_pointers@@ABQAD@Z 1003700b f i libucrt:output.obj
 0001:00036065       ??$?0ABV?$string_output_adapter@D@__crt_stdio_output@@AB_KABQBDABQAU__crt_locale_pointers@@ABQAD@?$standard_base@DV?$string_output_adapter@D@__crt_stdio_output@@@__crt_stdio_output@@IAE@ABV?$string_output_adapter@D@1@AB_KABQBDABQAU__crt_locale_pointers@@ABQAD@Z 10037065 f i libucrt:output.obj
 0001:000360a7       ??$?0ABV?$string_output_adapter@_W@__crt_stdio_output@@AB_KABQB_WABQAU__crt_locale_pointers@@ABQAD@?$format_validation_base@_WV?$string_output_adapter@_W@__crt_stdio_output@@@__crt_stdio_output@@IAE@ABV?$string_output_adapter@_W@1@AB_KABQB_WABQAU__crt_locale_pointers@@ABQAD@Z 100370a7 f i libucrt:output.obj
 0001:000360d2       ??$?0ABV?$string_output_adapter@_W@__crt_stdio_output@@AB_KABQB_WABQAU__crt_locale_pointers@@ABQAD@?$positional_parameter_base@_WV?$string_output_adapter@_W@__crt_stdio_output@@@__crt_stdio_output@@IAE@ABV?$string_output_adapter@_W@1@AB_KABQB_WABQAU__crt_locale_pointers@@ABQAD@Z 100370d2 f i libucrt:output.obj
 0001:0003612c       ??$?0ABV?$string_output_adapter@_W@__crt_stdio_output@@AB_KABQB_WABQAU__crt_locale_pointers@@ABQAD@?$standard_base@_WV?$string_output_adapter@_W@__crt_stdio_output@@@__crt_stdio_output@@IAE@ABV?$string_output_adapter@_W@1@AB_KABQB_WABQAU__crt_locale_pointers@@ABQAD@Z 1003712c f i libucrt:output.obj
 0001:0003616e       ??$?RV<lambda_2293f24e3ce1ad6fe22ccfb9dec07671>@@AAV<lambda_2565fc715a641e539f44ad02d6823606>@@V<lambda_d3217f279b832965d9ca670dc2993570>@@@?$__crt_seh_guarded_call@H@@QAEH$$QAV<lambda_2293f24e3ce1ad6fe22ccfb9dec07671>@@AAV<lambda_2565fc715a641e539f44ad02d6823606>@@$$QAV<lambda_d3217f279b832965d9ca670dc2993570>@@@Z 1003716e f i libucrt:output.obj
 0001:000361d3       ??$?RV<lambda_4d4ac866be0fa3c441830420fabdd2cb>@@AAV<lambda_63a10c2dc8dbb9e4dd1890be52af7c93>@@V<lambda_002af9fa0f8fe472b648c51882d4fc32>@@@?$__crt_seh_guarded_call@H@@QAEH$$QAV<lambda_4d4ac866be0fa3c441830420fabdd2cb>@@AAV<lambda_63a10c2dc8dbb9e4dd1890be52af7c93>@@$$QAV<lambda_002af9fa0f8fe472b648c51882d4fc32>@@@Z 100371d3 f i libucrt:output.obj
 0001:00036238       ??$?RV<lambda_5be909dfbae0a631386585770cd7b676>@@AAV<lambda_e516058a9c289d98c8ca9fea99247804>@@V<lambda_afe2e0cdc5e0ecf6f0d6f5e2f8985e38>@@@?$__crt_seh_guarded_call@H@@QAEH$$QAV<lambda_5be909dfbae0a631386585770cd7b676>@@AAV<lambda_e516058a9c289d98c8ca9fea99247804>@@$$QAV<lambda_afe2e0cdc5e0ecf6f0d6f5e2f8985e38>@@@Z 10037238 f i libucrt:output.obj
 0001:0003629d       ??$?RV<lambda_823d65812123d985753d53e2a8c25d20>@@AAV<lambda_0a97c9e57da7be065955385c79108ff2>@@V<lambda_4d2973f3ad2d226f00468307185dca1b>@@@?$__crt_seh_guarded_call@H@@QAEH$$QAV<lambda_823d65812123d985753d53e2a8c25d20>@@AAV<lambda_0a97c9e57da7be065955385c79108ff2>@@$$QAV<lambda_4d2973f3ad2d226f00468307185dca1b>@@@Z 1003729d f i libucrt:output.obj
 0001:00036302       ??$?RV<lambda_ab9923ffb5d694ec0d78876dd103e44f>@@AAV<lambda_481dd5778c961fbcd3b60b650e9b9dc4>@@V<lambda_7923d86c9e3f319b415918ec4b39749c>@@@?$__crt_seh_guarded_call@H@@QAEH$$QAV<lambda_ab9923ffb5d694ec0d78876dd103e44f>@@AAV<lambda_481dd5778c961fbcd3b60b650e9b9dc4>@@$$QAV<lambda_7923d86c9e3f319b415918ec4b39749c>@@@Z 10037302 f i libucrt:output.obj
 0001:00036367       ??$?RV<lambda_db08b09ef7aa9d4f8620ce68402612bc>@@AAV<lambda_4f2c1eaeead2a5fc776db5b62ea0fb9b>@@V<lambda_3ae262bc35d4ba6a3825c4f6bcaaf95c>@@@?$__crt_seh_guarded_call@H@@QAEH$$QAV<lambda_db08b09ef7aa9d4f8620ce68402612bc>@@AAV<lambda_4f2c1eaeead2a5fc776db5b62ea0fb9b>@@$$QAV<lambda_3ae262bc35d4ba6a3825c4f6bcaaf95c>@@@Z 10037367 f i libucrt:output.obj
 0001:000363cc       ??$__acrt_lock_stream_and_call@V<lambda_0a97c9e57da7be065955385c79108ff2>@@@@YAHQAU_iobuf@@$$QAV<lambda_0a97c9e57da7be065955385c79108ff2>@@@Z 100373cc f i libucrt:output.obj
 0001:000363fe       ??$__acrt_lock_stream_and_call@V<lambda_2565fc715a641e539f44ad02d6823606>@@@@YAHQAU_iobuf@@$$QAV<lambda_2565fc715a641e539f44ad02d6823606>@@@Z 100373fe f i libucrt:output.obj
 0001:00036430       ??$__acrt_lock_stream_and_call@V<lambda_481dd5778c961fbcd3b60b650e9b9dc4>@@@@YAHQAU_iobuf@@$$QAV<lambda_481dd5778c961fbcd3b60b650e9b9dc4>@@@Z 10037430 f i libucrt:output.obj
 0001:00036462       ??$__acrt_lock_stream_and_call@V<lambda_4f2c1eaeead2a5fc776db5b62ea0fb9b>@@@@YAHQAU_iobuf@@$$QAV<lambda_4f2c1eaeead2a5fc776db5b62ea0fb9b>@@@Z 10037462 f i libucrt:output.obj
 0001:00036494       ??$__acrt_lock_stream_and_call@V<lambda_63a10c2dc8dbb9e4dd1890be52af7c93>@@@@YAHQAU_iobuf@@$$QAV<lambda_63a10c2dc8dbb9e4dd1890be52af7c93>@@@Z 10037494 f i libucrt:output.obj
 0001:000364c6       ??$__acrt_lock_stream_and_call@V<lambda_e516058a9c289d98c8ca9fea99247804>@@@@YAHQAU_iobuf@@$$QAV<lambda_e516058a9c289d98c8ca9fea99247804>@@@Z 100374c6 f i libucrt:output.obj
 0001:000364f8       ??$__crt_interlocked_read@J@@YAJPDJ@Z 100374f8 f i libucrt:output.obj
 0001:00037743       ??$count@D@formatting_buffer@__crt_stdio_output@@QBEIXZ 10038743 f i libucrt:output.obj
 0001:00037761       ??$data@D@formatting_buffer@__crt_stdio_output@@QAEPADXZ 10038761 f i libucrt:output.obj
 0001:00037771       ??$data@_W@formatting_buffer@__crt_stdio_output@@QAEPA_WXZ 10038771 f i libucrt:output.obj
 0001:00037781       ??$ensure_buffer_is_big_enough@D@formatting_buffer@__crt_stdio_output@@QAE_NI@Z 10038781 f i libucrt:output.obj
 0001:00037828       ??$extract_argument_from_va_list@C_J@?$positional_parameter_base@DV?$stream_output_adapter@D@__crt_stdio_output@@@__crt_stdio_output@@IAE_NAA_J@Z 10038828 f i libucrt:output.obj
 0001:000378c6       ??$extract_argument_from_va_list@C_J@?$positional_parameter_base@DV?$string_output_adapter@D@__crt_stdio_output@@@__crt_stdio_output@@IAE_NAA_J@Z 100388c6 f i libucrt:output.obj
 0001:00037964       ??$extract_argument_from_va_list@C_J@?$positional_parameter_base@_WV?$stream_output_adapter@_W@__crt_stdio_output@@@__crt_stdio_output@@IAE_NAA_J@Z 10038964 f i libucrt:output.obj
 0001:00037a02       ??$extract_argument_from_va_list@C_J@?$positional_parameter_base@_WV?$string_output_adapter@_W@__crt_stdio_output@@@__crt_stdio_output@@IAE_NAA_J@Z 10038a02 f i libucrt:output.obj
 0001:00037aa0       ??$extract_argument_from_va_list@C_J@?$standard_base@DV?$stream_output_adapter@D@__crt_stdio_output@@@__crt_stdio_output@@IAE_NAA_J@Z 10038aa0 f i libucrt:output.obj
 0001:00037ac6       ??$extract_argument_from_va_list@C_J@?$standard_base@DV?$string_output_adapter@D@__crt_stdio_output@@@__crt_stdio_output@@IAE_NAA_J@Z 10038ac6 f i libucrt:output.obj
 0001:00037aec       ??$extract_argument_from_va_list@C_J@?$standard_base@_WV?$stream_output_adapter@_W@__crt_stdio_output@@@__crt_stdio_output@@IAE_NAA_J@Z 10038aec f i libucrt:output.obj
 0001:00037b12       ??$extract_argument_from_va_list@C_J@?$standard_base@_WV?$string_output_adapter@_W@__crt_stdio_output@@@__crt_stdio_output@@IAE_NAA_J@Z 10038b12 f i libucrt:output.obj
 0001:00037b38       ??$extract_argument_from_va_list@E_J@?$positional_parameter_base@DV?$stream_output_adapter@D@__crt_stdio_output@@@__crt_stdio_output@@IAE_NAA_J@Z 10038b38 f i libucrt:output.obj
 0001:00037bd6       ??$extract_argument_from_va_list@E_J@?$positional_parameter_base@DV?$string_output_adapter@D@__crt_stdio_output@@@__crt_stdio_output@@IAE_NAA_J@Z 10038bd6 f i libucrt:output.obj
 0001:00037c74       ??$extract_argument_from_va_list@E_J@?$positional_parameter_base@_WV?$stream_output_adapter@_W@__crt_stdio_output@@@__crt_stdio_output@@IAE_NAA_J@Z 10038c74 f i libucrt:output.obj
 0001:00037d12       ??$extract_argument_from_va_list@E_J@?$positional_parameter_base@_WV?$string_output_adapter@_W@__crt_stdio_output@@@__crt_stdio_output@@IAE_NAA_J@Z 10038d12 f i libucrt:output.obj
 0001:00037db0       ??$extract_argument_from_va_list@E_J@?$standard_base@DV?$stream_output_adapter@D@__crt_stdio_output@@@__crt_stdio_output@@IAE_NAA_J@Z 10038db0 f i libucrt:output.obj
 0001:00037dd6       ??$extract_argument_from_va_list@E_J@?$standard_base@DV?$string_output_adapter@D@__crt_stdio_output@@@__crt_stdio_output@@IAE_NAA_J@Z 10038dd6 f i libucrt:output.obj
 0001:00037dfc       ??$extract_argument_from_va_list@E_J@?$standard_base@_WV?$stream_output_adapter@_W@__crt_stdio_output@@@__crt_stdio_output@@IAE_NAA_J@Z 10038dfc f i libucrt:output.obj
 0001:00037e22       ??$extract_argument_from_va_list@E_J@?$standard_base@_WV?$string_output_adapter@_W@__crt_stdio_output@@@__crt_stdio_output@@IAE_NAA_J@Z 10038e22 f i libucrt:output.obj
 0001:00037e48       ??$extract_argument_from_va_list@F_J@?$positional_parameter_base@DV?$stream_output_adapter@D@__crt_stdio_output@@@__crt_stdio_output@@IAE_NAA_J@Z 10038e48 f i libucrt:output.obj
 0001:00037ee6       ??$extract_argument_from_va_list@F_J@?$positional_parameter_base@DV?$string_output_adapter@D@__crt_stdio_output@@@__crt_stdio_output@@IAE_NAA_J@Z 10038ee6 f i libucrt:output.obj
 0001:00037f84       ??$extract_argument_from_va_list@F_J@?$positional_parameter_base@_WV?$stream_output_adapter@_W@__crt_stdio_output@@@__crt_stdio_output@@IAE_NAA_J@Z 10038f84 f i libucrt:output.obj
 0001:00038022       ??$extract_argument_from_va_list@F_J@?$positional_parameter_base@_WV?$string_output_adapter@_W@__crt_stdio_output@@@__crt_stdio_output@@IAE_NAA_J@Z 10039022 f i libucrt:output.obj
 0001:000380c0       ??$extract_argument_from_va_list@F_J@?$standard_base@DV?$stream_output_adapter@D@__crt_stdio_output@@@__crt_stdio_output@@IAE_NAA_J@Z 100390c0 f i libucrt:output.obj
 0001:000380e6       ??$extract_argument_from_va_list@F_J@?$standard_base@DV?$string_output_adapter@D@__crt_stdio_output@@@__crt_stdio_output@@IAE_NAA_J@Z 100390e6 f i libucrt:output.obj
 0001:0003810c       ??$extract_argument_from_va_list@F_J@?$standard_base@_WV?$stream_output_adapter@_W@__crt_stdio_output@@@__crt_stdio_output@@IAE_NAA_J@Z 1003910c f i libucrt:output.obj
 0001:00038132       ??$extract_argument_from_va_list@F_J@?$standard_base@_WV?$string_output_adapter@_W@__crt_stdio_output@@@__crt_stdio_output@@IAE_NAA_J@Z 10039132 f i libucrt:output.obj
 0001:00038158       ??$extract_argument_from_va_list@GD@?$positional_parameter_base@DV?$stream_output_adapter@D@__crt_stdio_output@@@__crt_stdio_output@@IAE_NAAD@Z 10039158 f i libucrt:output.obj
 0001:000381f5       ??$extract_argument_from_va_list@GD@?$positional_parameter_base@DV?$string_output_adapter@D@__crt_stdio_output@@@__crt_stdio_output@@IAE_NAAD@Z 100391f5 f i libucrt:output.obj
 0001:00038292       ??$extract_argument_from_va_list@GD@?$standard_base@DV?$stream_output_adapter@D@__crt_stdio_output@@@__crt_stdio_output@@IAE_NAAD@Z 10039292 f i libucrt:output.obj
 0001:000382b2       ??$extract_argument_from_va_list@GD@?$standard_base@DV?$string_output_adapter@D@__crt_stdio_output@@@__crt_stdio_output@@IAE_NAAD@Z 100392b2 f i libucrt:output.obj
 0001:000382d2       ??$extract_argument_from_va_list@G_J@?$positional_parameter_base@DV?$stream_output_adapter@D@__crt_stdio_output@@@__crt_stdio_output@@IAE_NAA_J@Z 100392d2 f i libucrt:output.obj
 0001:00038370       ??$extract_argument_from_va_list@G_J@?$positional_parameter_base@DV?$string_output_adapter@D@__crt_stdio_output@@@__crt_stdio_output@@IAE_NAA_J@Z 10039370 f i libucrt:output.obj
 0001:0003840e       ??$extract_argument_from_va_list@G_J@?$positional_parameter_base@_WV?$stream_output_adapter@_W@__crt_stdio_output@@@__crt_stdio_output@@IAE_NAA_J@Z 1003940e f i libucrt:output.obj
 0001:000384ac       ??$extract_argument_from_va_list@G_J@?$positional_parameter_base@_WV?$string_output_adapter@_W@__crt_stdio_output@@@__crt_stdio_output@@IAE_NAA_J@Z 100394ac f i libucrt:output.obj
 0001:0003854a       ??$extract_argument_from_va_list@G_J@?$standard_base@DV?$stream_output_adapter@D@__crt_stdio_output@@@__crt_stdio_output@@IAE_NAA_J@Z 1003954a f i libucrt:output.obj
 0001:00038570       ??$extract_argument_from_va_list@G_J@?$standard_base@DV?$string_output_adapter@D@__crt_stdio_output@@@__crt_stdio_output@@IAE_NAA_J@Z 10039570 f i libucrt:output.obj
 0001:00038596       ??$extract_argument_from_va_list@G_J@?$standard_base@_WV?$stream_output_adapter@_W@__crt_stdio_output@@@__crt_stdio_output@@IAE_NAA_J@Z 10039596 f i libucrt:output.obj
 0001:000385bc       ??$extract_argument_from_va_list@G_J@?$standard_base@_WV?$string_output_adapter@_W@__crt_stdio_output@@@__crt_stdio_output@@IAE_NAA_J@Z 100395bc f i libucrt:output.obj
 0001:000385e2       ??$extract_argument_from_va_list@H_J@?$positional_parameter_base@DV?$stream_output_adapter@D@__crt_stdio_output@@@__crt_stdio_output@@IAE_NAA_J@Z 100395e2 f i libucrt:output.obj
 0001:0003867e       ??$extract_argument_from_va_list@H_J@?$positional_parameter_base@DV?$string_output_adapter@D@__crt_stdio_output@@@__crt_stdio_output@@IAE_NAA_J@Z 1003967e f i libucrt:output.obj
 0001:0003871a       ??$extract_argument_from_va_list@H_J@?$positional_parameter_base@_WV?$stream_output_adapter@_W@__crt_stdio_output@@@__crt_stdio_output@@IAE_NAA_J@Z 1003971a f i libucrt:output.obj
 0001:000387b6       ??$extract_argument_from_va_list@H_J@?$positional_parameter_base@_WV?$string_output_adapter@_W@__crt_stdio_output@@@__crt_stdio_output@@IAE_NAA_J@Z 100397b6 f i libucrt:output.obj
 0001:00038852       ??$extract_argument_from_va_list@H_J@?$standard_base@DV?$stream_output_adapter@D@__crt_stdio_output@@@__crt_stdio_output@@IAE_NAA_J@Z 10039852 f i libucrt:output.obj
 0001:00038877       ??$extract_argument_from_va_list@H_J@?$standard_base@DV?$string_output_adapter@D@__crt_stdio_output@@@__crt_stdio_output@@IAE_NAA_J@Z 10039877 f i libucrt:output.obj
 0001:0003889c       ??$extract_argument_from_va_list@H_J@?$standard_base@_WV?$stream_output_adapter@_W@__crt_stdio_output@@@__crt_stdio_output@@IAE_NAA_J@Z 1003989c f i libucrt:output.obj
 0001:000388c1       ??$extract_argument_from_va_list@H_J@?$standard_base@_WV?$string_output_adapter@_W@__crt_stdio_output@@@__crt_stdio_output@@IAE_NAA_J@Z 100398c1 f i libucrt:output.obj
 0001:000388e6       ??$extract_argument_from_va_list@I_J@?$positional_parameter_base@DV?$stream_output_adapter@D@__crt_stdio_output@@@__crt_stdio_output@@IAE_NAA_J@Z 100398e6 f i libucrt:output.obj
 0001:0003898d       ??$extract_argument_from_va_list@I_J@?$positional_parameter_base@DV?$string_output_adapter@D@__crt_stdio_output@@@__crt_stdio_output@@IAE_NAA_J@Z 1003998d f i libucrt:output.obj
 0001:00038a34       ??$extract_argument_from_va_list@I_J@?$positional_parameter_base@_WV?$stream_output_adapter@_W@__crt_stdio_output@@@__crt_stdio_output@@IAE_NAA_J@Z 10039a34 f i libucrt:output.obj
 0001:00038adb       ??$extract_argument_from_va_list@I_J@?$positional_parameter_base@_WV?$string_output_adapter@_W@__crt_stdio_output@@@__crt_stdio_output@@IAE_NAA_J@Z 10039adb f i libucrt:output.obj
 0001:00038b82       ??$extract_argument_from_va_list@I_J@?$standard_base@DV?$stream_output_adapter@D@__crt_stdio_output@@@__crt_stdio_output@@IAE_NAA_J@Z 10039b82 f i libucrt:output.obj
 0001:00038ba7       ??$extract_argument_from_va_list@I_J@?$standard_base@DV?$string_output_adapter@D@__crt_stdio_output@@@__crt_stdio_output@@IAE_NAA_J@Z 10039ba7 f i libucrt:output.obj
 0001:00038bcc       ??$extract_argument_from_va_list@I_J@?$standard_base@_WV?$stream_output_adapter@_W@__crt_stdio_output@@@__crt_stdio_output@@IAE_NAA_J@Z 10039bcc f i libucrt:output.obj
 0001:00038bf1       ??$extract_argument_from_va_list@I_J@?$standard_base@_WV?$string_output_adapter@_W@__crt_stdio_output@@@__crt_stdio_output@@IAE_NAA_J@Z 10039bf1 f i libucrt:output.obj
 0001:00038c16       ??$extract_argument_from_va_list@PADPAD@?$positional_parameter_base@DV?$stream_output_adapter@D@__crt_stdio_output@@@__crt_stdio_output@@IAE_NAAPAD@Z 10039c16 f i libucrt:output.obj
 0001:00038cb3       ??$extract_argument_from_va_list@PADPAD@?$positional_parameter_base@DV?$string_output_adapter@D@__crt_stdio_output@@@__crt_stdio_output@@IAE_NAAPAD@Z 10039cb3 f i libucrt:output.obj
 0001:00038d50       ??$extract_argument_from_va_list@PADPAD@?$positional_parameter_base@_WV?$stream_output_adapter@_W@__crt_stdio_output@@@__crt_stdio_output@@IAE_NAAPAD@Z 10039d50 f i libucrt:output.obj
 0001:00038ded       ??$extract_argument_from_va_list@PADPAD@?$positional_parameter_base@_WV?$string_output_adapter@_W@__crt_stdio_output@@@__crt_stdio_output@@IAE_NAAPAD@Z 10039ded f i libucrt:output.obj
 0001:00038e8a       ??$extract_argument_from_va_list@PADPAD@?$standard_base@DV?$stream_output_adapter@D@__crt_stdio_output@@@__crt_stdio_output@@IAE_NAAPAD@Z 10039e8a f i libucrt:output.obj
 0001:00038eaa       ??$extract_argument_from_va_list@PADPAD@?$standard_base@DV?$string_output_adapter@D@__crt_stdio_output@@@__crt_stdio_output@@IAE_NAAPAD@Z 10039eaa f i libucrt:output.obj
 0001:00038eca       ??$extract_argument_from_va_list@PADPAD@?$standard_base@_WV?$stream_output_adapter@_W@__crt_stdio_output@@@__crt_stdio_output@@IAE_NAAPAD@Z 10039eca f i libucrt:output.obj
 0001:00038eea       ??$extract_argument_from_va_list@PADPAD@?$standard_base@_WV?$string_output_adapter@_W@__crt_stdio_output@@@__crt_stdio_output@@IAE_NAAPAD@Z 10039eea f i libucrt:output.obj
 0001:00038f0a       ??$extract_argument_from_va_list@PAUansi_string@?1??type_case_Z@?$output_processor@DV?$stream_output_adapter@D@__crt_stdio_output@@V?$format_validation_base@DV?$stream_output_adapter@D@__crt_stdio_output@@@2@@__crt_stdio_output@@AAE_NXZ@PAU1?1??234@AAE_NXZ@@?$standard_base@DV?$stream_output_adapter@D@__crt_stdio_output@@@__crt_stdio_output@@IAE_NAAPAUansi_string@?1??type_case_Z@?$output_processor@DV?$stream_output_adapter@D@__crt_stdio_output@@V?$format_validation_base@DV?$stream_output_adapter@D@__crt_stdio_output@@@2@@1@AAE_NXZ@@Z 10039f0a f i libucrt:output.obj
 0001:00038f2a       ??$extract_argument_from_va_list@PAUansi_string@?1??type_case_Z@?$output_processor@DV?$stream_output_adapter@D@__crt_stdio_output@@V?$positional_parameter_base@DV?$stream_output_adapter@D@__crt_stdio_output@@@2@@__crt_stdio_output@@AAE_NXZ@PAU1?1??234@AAE_NXZ@@?$positional_parameter_base@DV?$stream_output_adapter@D@__crt_stdio_output@@@__crt_stdio_output@@IAE_NAAPAUansi_string@?1??type_case_Z@?$output_processor@DV?$stream_output_adapter@D@__crt_stdio_output@@V?$positional_parameter_base@DV?$stream_output_adapter@D@__crt_stdio_output@@@2@@1@AAE_NXZ@@Z 10039f2a f i libucrt:output.obj
 0001:00038fc7       ??$extract_argument_from_va_list@PAUansi_string@?1??type_case_Z@?$output_processor@DV?$stream_output_adapter@D@__crt_stdio_output@@V?$positional_parameter_base@DV?$stream_output_adapter@D@__crt_stdio_output@@@2@@__crt_stdio_output@@AAE_NXZ@PAU1?1??234@AAE_NXZ@@?$standard_base@DV?$stream_output_adapter@D@__crt_stdio_output@@@__crt_stdio_output@@IAE_NAAPAUansi_string@?1??type_case_Z@?$output_processor@DV?$stream_output_adapter@D@__crt_stdio_output@@V?$positional_parameter_base@DV?$stream_output_adapter@D@__crt_stdio_output@@@2@@1@AAE_NXZ@@Z 10039fc7 f i libucrt:output.obj
 0001:00038fe7       ??$extract_argument_from_va_list@PAUansi_string@?1??type_case_Z@?$output_processor@DV?$stream_output_adapter@D@__crt_stdio_output@@V?$standard_base@DV?$stream_output_adapter@D@__crt_stdio_output@@@2@@__crt_stdio_output@@AAE_NXZ@PAU1?1??234@AAE_NXZ@@?$standard_base@DV?$stream_output_adapter@D@__crt_stdio_output@@@__crt_stdio_output@@IAE_NAAPAUansi_string@?1??type_case_Z@?$output_processor@DV?$stream_output_adapter@D@__crt_stdio_output@@V?$standard_base@DV?$stream_output_adapter@D@__crt_stdio_output@@@2@@1@AAE_NXZ@@Z 10039fe7 f i libucrt:output.obj
 0001:00039007       ??$extract_argument_from_va_list@PAUansi_string@?1??type_case_Z@?$output_processor@DV?$string_output_adapter@D@__crt_stdio_output@@V?$format_validation_base@DV?$string_output_adapter@D@__crt_stdio_output@@@2@@__crt_stdio_output@@AAE_NXZ@PAU1?1??234@AAE_NXZ@@?$standard_base@DV?$string_output_adapter@D@__crt_stdio_output@@@__crt_stdio_output@@IAE_NAAPAUansi_string@?1??type_case_Z@?$output_processor@DV?$string_output_adapter@D@__crt_stdio_output@@V?$format_validation_base@DV?$string_output_adapter@D@__crt_stdio_output@@@2@@1@AAE_NXZ@@Z 1003a007 f i libucrt:output.obj
 0001:00039027       ??$extract_argument_from_va_list@PAUansi_string@?1??type_case_Z@?$output_processor@DV?$string_output_adapter@D@__crt_stdio_output@@V?$positional_parameter_base@DV?$string_output_adapter@D@__crt_stdio_output@@@2@@__crt_stdio_output@@AAE_NXZ@PAU1?1??234@AAE_NXZ@@?$positional_parameter_base@DV?$string_output_adapter@D@__crt_stdio_output@@@__crt_stdio_output@@IAE_NAAPAUansi_string@?1??type_case_Z@?$output_processor@DV?$string_output_adapter@D@__crt_stdio_output@@V?$positional_parameter_base@DV?$string_output_adapter@D@__crt_stdio_output@@@2@@1@AAE_NXZ@@Z 1003a027 f i libucrt:output.obj
 0001:000390c4       ??$extract_argument_from_va_list@PAUansi_string@?1??type_case_Z@?$output_processor@DV?$string_output_adapter@D@__crt_stdio_output@@V?$positional_parameter_base@DV?$string_output_adapter@D@__crt_stdio_output@@@2@@__crt_stdio_output@@AAE_NXZ@PAU1?1??234@AAE_NXZ@@?$standard_base@DV?$string_output_adapter@D@__crt_stdio_output@@@__crt_stdio_output@@IAE_NAAPAUansi_string@?1??type_case_Z@?$output_processor@DV?$string_output_adapter@D@__crt_stdio_output@@V?$positional_parameter_base@DV?$string_output_adapter@D@__crt_stdio_output@@@2@@1@AAE_NXZ@@Z 1003a0c4 f i libucrt:output.obj
 0001:000390e4       ??$extract_argument_from_va_list@PAUansi_string@?1??type_case_Z@?$output_processor@DV?$string_output_adapter@D@__crt_stdio_output@@V?$standard_base@DV?$string_output_adapter@D@__crt_stdio_output@@@2@@__crt_stdio_output@@AAE_NXZ@PAU1?1??234@AAE_NXZ@@?$standard_base@DV?$string_output_adapter@D@__crt_stdio_output@@@__crt_stdio_output@@IAE_NAAPAUansi_string@?1??type_case_Z@?$output_processor@DV?$string_output_adapter@D@__crt_stdio_output@@V?$standard_base@DV?$string_output_adapter@D@__crt_stdio_output@@@2@@1@AAE_NXZ@@Z 1003a0e4 f i libucrt:output.obj
 0001:00039104       ??$extract_argument_from_va_list@PAUansi_string@?1??type_case_Z@?$output_processor@_WV?$stream_output_adapter@_W@__crt_stdio_output@@V?$format_validation_base@_WV?$stream_output_adapter@_W@__crt_stdio_output@@@2@@__crt_stdio_output@@AAE_NXZ@PAU1?1??234@AAE_NXZ@@?$standard_base@_WV?$stream_output_adapter@_W@__crt_stdio_output@@@__crt_stdio_output@@IAE_NAAPAUansi_string@?1??type_case_Z@?$output_processor@_WV?$stream_output_adapter@_W@__crt_stdio_output@@V?$format_validation_base@_WV?$stream_output_adapter@_W@__crt_stdio_output@@@2@@1@AAE_NXZ@@Z 1003a104 f i libucrt:output.obj
 0001:00039124       ??$extract_argument_from_va_list@PAUansi_string@?1??type_case_Z@?$output_processor@_WV?$stream_output_adapter@_W@__crt_stdio_output@@V?$positional_parameter_base@_WV?$stream_output_adapter@_W@__crt_stdio_output@@@2@@__crt_stdio_output@@AAE_NXZ@PAU1?1??234@AAE_NXZ@@?$positional_parameter_base@_WV?$stream_output_adapter@_W@__crt_stdio_output@@@__crt_stdio_output@@IAE_NAAPAUansi_string@?1??type_case_Z@?$output_processor@_WV?$stream_output_adapter@_W@__crt_stdio_output@@V?$positional_parameter_base@_WV?$stream_output_adapter@_W@__crt_stdio_output@@@2@@1@AAE_NXZ@@Z 1003a124 f i libucrt:output.obj
 0001:000391c1       ??$extract_argument_from_va_list@PAUansi_string@?1??type_case_Z@?$output_processor@_WV?$stream_output_adapter@_W@__crt_stdio_output@@V?$positional_parameter_base@_WV?$stream_output_adapter@_W@__crt_stdio_output@@@2@@__crt_stdio_output@@AAE_NXZ@PAU1?1??234@AAE_NXZ@@?$standard_base@_WV?$stream_output_adapter@_W@__crt_stdio_output@@@__crt_stdio_output@@IAE_NAAPAUansi_string@?1??type_case_Z@?$output_processor@_WV?$stream_output_adapter@_W@__crt_stdio_output@@V?$positional_parameter_base@_WV?$stream_output_adapter@_W@__crt_stdio_output@@@2@@1@AAE_NXZ@@Z 1003a1c1 f i libucrt:output.obj
 0001:000391e1       ??$extract_argument_from_va_list@PAUansi_string@?1??type_case_Z@?$output_processor@_WV?$stream_output_adapter@_W@__crt_stdio_output@@V?$standard_base@_WV?$stream_output_adapter@_W@__crt_stdio_output@@@2@@__crt_stdio_output@@AAE_NXZ@PAU1?1??234@AAE_NXZ@@?$standard_base@_WV?$stream_output_adapter@_W@__crt_stdio_output@@@__crt_stdio_output@@IAE_NAAPAUansi_string@?1??type_case_Z@?$output_processor@_WV?$stream_output_adapter@_W@__crt_stdio_output@@V?$standard_base@_WV?$stream_output_adapter@_W@__crt_stdio_output@@@2@@1@AAE_NXZ@@Z 1003a1e1 f i libucrt:output.obj
 0001:00039201       ??$extract_argument_from_va_list@PAUansi_string@?1??type_case_Z@?$output_processor@_WV?$string_output_adapter@_W@__crt_stdio_output@@V?$format_validation_base@_WV?$string_output_adapter@_W@__crt_stdio_output@@@2@@__crt_stdio_output@@AAE_NXZ@PAU1?1??234@AAE_NXZ@@?$standard_base@_WV?$string_output_adapter@_W@__crt_stdio_output@@@__crt_stdio_output@@IAE_NAAPAUansi_string@?1??type_case_Z@?$output_processor@_WV?$string_output_adapter@_W@__crt_stdio_output@@V?$format_validation_base@_WV?$string_output_adapter@_W@__crt_stdio_output@@@2@@1@AAE_NXZ@@Z 1003a201 f i libucrt:output.obj
 0001:00039221       ??$extract_argument_from_va_list@PAUansi_string@?1??type_case_Z@?$output_processor@_WV?$string_output_adapter@_W@__crt_stdio_output@@V?$positional_parameter_base@_WV?$string_output_adapter@_W@__crt_stdio_output@@@2@@__crt_stdio_output@@AAE_NXZ@PAU1?1??234@AAE_NXZ@@?$positional_parameter_base@_WV?$string_output_adapter@_W@__crt_stdio_output@@@__crt_stdio_output@@IAE_NAAPAUansi_string@?1??type_case_Z@?$output_processor@_WV?$string_output_adapter@_W@__crt_stdio_output@@V?$positional_parameter_base@_WV?$string_output_adapter@_W@__crt_stdio_output@@@2@@1@AAE_NXZ@@Z 1003a221 f i libucrt:output.obj
 0001:000392be       ??$extract_argument_from_va_list@PAUansi_string@?1??type_case_Z@?$output_processor@_WV?$string_output_adapter@_W@__crt_stdio_output@@V?$positional_parameter_base@_WV?$string_output_adapter@_W@__crt_stdio_output@@@2@@__crt_stdio_output@@AAE_NXZ@PAU1?1??234@AAE_NXZ@@?$standard_base@_WV?$string_output_adapter@_W@__crt_stdio_output@@@__crt_stdio_output@@IAE_NAAPAUansi_string@?1??type_case_Z@?$output_processor@_WV?$string_output_adapter@_W@__crt_stdio_output@@V?$positional_parameter_base@_WV?$string_output_adapter@_W@__crt_stdio_output@@@2@@1@AAE_NXZ@@Z 1003a2be f i libucrt:output.obj
 0001:000392de       ??$extract_argument_from_va_list@PAUansi_string@?1??type_case_Z@?$output_processor@_WV?$string_output_adapter@_W@__crt_stdio_output@@V?$standard_base@_WV?$string_output_adapter@_W@__crt_stdio_output@@@2@@__crt_stdio_output@@AAE_NXZ@PAU1?1??234@AAE_NXZ@@?$standard_base@_WV?$string_output_adapter@_W@__crt_stdio_output@@@__crt_stdio_output@@IAE_NAAPAUansi_string@?1??type_case_Z@?$output_processor@_WV?$string_output_adapter@_W@__crt_stdio_output@@V?$standard_base@_WV?$string_output_adapter@_W@__crt_stdio_output@@@2@@1@AAE_NXZ@@Z 1003a2de f i libucrt:output.obj
 0001:000392fe       ??$extract_argument_from_va_list@PAXPAX@?$positional_parameter_base@DV?$stream_output_adapter@D@__crt_stdio_output@@@__crt_stdio_output@@IAE_NAAPAX@Z 1003a2fe f i libucrt:output.obj
 0001:0003939b       ??$extract_argument_from_va_list@PAXPAX@?$positional_parameter_base@DV?$string_output_adapter@D@__crt_stdio_output@@@__crt_stdio_output@@IAE_NAAPAX@Z 1003a39b f i libucrt:output.obj
 0001:00039438       ??$extract_argument_from_va_list@PAXPAX@?$positional_parameter_base@_WV?$stream_output_adapter@_W@__crt_stdio_output@@@__crt_stdio_output@@IAE_NAAPAX@Z 1003a438 f i libucrt:output.obj
 0001:000394d5       ??$extract_argument_from_va_list@PAXPAX@?$positional_parameter_base@_WV?$string_output_adapter@_W@__crt_stdio_output@@@__crt_stdio_output@@IAE_NAAPAX@Z 1003a4d5 f i libucrt:output.obj
 0001:00039572       ??$extract_argument_from_va_list@PAXPAX@?$standard_base@DV?$stream_output_adapter@D@__crt_stdio_output@@@__crt_stdio_output@@IAE_NAAPAX@Z 1003a572 f i libucrt:output.obj
 0001:00039592       ??$extract_argument_from_va_list@PAXPAX@?$standard_base@DV?$string_output_adapter@D@__crt_stdio_output@@@__crt_stdio_output@@IAE_NAAPAX@Z 1003a592 f i libucrt:output.obj
 0001:000395b2       ??$extract_argument_from_va_list@PAXPAX@?$standard_base@_WV?$stream_output_adapter@_W@__crt_stdio_output@@@__crt_stdio_output@@IAE_NAAPAX@Z 1003a5b2 f i libucrt:output.obj
 0001:000395d2       ??$extract_argument_from_va_list@PAXPAX@?$standard_base@_WV?$string_output_adapter@_W@__crt_stdio_output@@@__crt_stdio_output@@IAE_NAAPAX@Z 1003a5d2 f i libucrt:output.obj
 0001:000395f2       ??$extract_argument_from_va_list@U_CRT_DOUBLE@@U1@@?$positional_parameter_base@DV?$stream_output_adapter@D@__crt_stdio_output@@@__crt_stdio_output@@IAE_NAAU_CRT_DOUBLE@@@Z 1003a5f2 f i libucrt:output.obj
 0001:000396a3       ??$extract_argument_from_va_list@U_CRT_DOUBLE@@U1@@?$positional_parameter_base@DV?$string_output_adapter@D@__crt_stdio_output@@@__crt_stdio_output@@IAE_NAAU_CRT_DOUBLE@@@Z 1003a6a3 f i libucrt:output.obj
 0001:00039754       ??$extract_argument_from_va_list@U_CRT_DOUBLE@@U1@@?$positional_parameter_base@_WV?$stream_output_adapter@_W@__crt_stdio_output@@@__crt_stdio_output@@IAE_NAAU_CRT_DOUBLE@@@Z 1003a754 f i libucrt:output.obj
 0001:00039805       ??$extract_argument_from_va_list@U_CRT_DOUBLE@@U1@@?$positional_parameter_base@_WV?$string_output_adapter@_W@__crt_stdio_output@@@__crt_stdio_output@@IAE_NAAU_CRT_DOUBLE@@@Z 1003a805 f i libucrt:output.obj
 0001:000398b6       ??$extract_argument_from_va_list@U_CRT_DOUBLE@@U1@@?$standard_base@DV?$stream_output_adapter@D@__crt_stdio_output@@@__crt_stdio_output@@IAE_NAAU_CRT_DOUBLE@@@Z 1003a8b6 f i libucrt:output.obj
 0001:000398de       ??$extract_argument_from_va_list@U_CRT_DOUBLE@@U1@@?$standard_base@DV?$string_output_adapter@D@__crt_stdio_output@@@__crt_stdio_output@@IAE_NAAU_CRT_DOUBLE@@@Z 1003a8de f i libucrt:output.obj
 0001:00039906       ??$extract_argument_from_va_list@U_CRT_DOUBLE@@U1@@?$standard_base@_WV?$stream_output_adapter@_W@__crt_stdio_output@@@__crt_stdio_output@@IAE_NAAU_CRT_DOUBLE@@@Z 1003a906 f i libucrt:output.obj
 0001:0003992e       ??$extract_argument_from_va_list@U_CRT_DOUBLE@@U1@@?$standard_base@_WV?$string_output_adapter@_W@__crt_stdio_output@@@__crt_stdio_output@@IAE_NAAU_CRT_DOUBLE@@@Z 1003a92e f i libucrt:output.obj
 0001:00039956       ??$extract_argument_from_va_list@_J_J@?$positional_parameter_base@DV?$stream_output_adapter@D@__crt_stdio_output@@@__crt_stdio_output@@IAE_NAA_J@Z 1003a956 f i libucrt:output.obj
 0001:00039a07       ??$extract_argument_from_va_list@_J_J@?$positional_parameter_base@DV?$string_output_adapter@D@__crt_stdio_output@@@__crt_stdio_output@@IAE_NAA_J@Z 1003aa07 f i libucrt:output.obj
 0001:00039ab8       ??$extract_argument_from_va_list@_J_J@?$positional_parameter_base@_WV?$stream_output_adapter@_W@__crt_stdio_output@@@__crt_stdio_output@@IAE_NAA_J@Z 1003aab8 f i libucrt:output.obj
 0001:00039b69       ??$extract_argument_from_va_list@_J_J@?$positional_parameter_base@_WV?$string_output_adapter@_W@__crt_stdio_output@@@__crt_stdio_output@@IAE_NAA_J@Z 1003ab69 f i libucrt:output.obj
 0001:00039c1a       ??$extract_argument_from_va_list@_J_J@?$standard_base@DV?$stream_output_adapter@D@__crt_stdio_output@@@__crt_stdio_output@@IAE_NAA_J@Z 1003ac1a f i libucrt:output.obj
 0001:00039c42       ??$extract_argument_from_va_list@_J_J@?$standard_base@DV?$string_output_adapter@D@__crt_stdio_output@@@__crt_stdio_output@@IAE_NAA_J@Z 1003ac42 f i libucrt:output.obj
 0001:00039c6a       ??$extract_argument_from_va_list@_J_J@?$standard_base@_WV?$stream_output_adapter@_W@__crt_stdio_output@@@__crt_stdio_output@@IAE_NAA_J@Z 1003ac6a f i libucrt:output.obj
 0001:00039c92       ??$extract_argument_from_va_list@_J_J@?$standard_base@_WV?$string_output_adapter@_W@__crt_stdio_output@@@__crt_stdio_output@@IAE_NAA_J@Z 1003ac92 f i libucrt:output.obj
 0001:00039cba       ??$extract_argument_from_va_list@_K_J@?$positional_parameter_base@DV?$stream_output_adapter@D@__crt_stdio_output@@@__crt_stdio_output@@IAE_NAA_J@Z 1003acba f i libucrt:output.obj
 0001:00039d6b       ??$extract_argument_from_va_list@_K_J@?$positional_parameter_base@DV?$string_output_adapter@D@__crt_stdio_output@@@__crt_stdio_output@@IAE_NAA_J@Z 1003ad6b f i libucrt:output.obj
 0001:00039e1c       ??$extract_argument_from_va_list@_K_J@?$positional_parameter_base@_WV?$stream_output_adapter@_W@__crt_stdio_output@@@__crt_stdio_output@@IAE_NAA_J@Z 1003ae1c f i libucrt:output.obj
 0001:00039ecd       ??$extract_argument_from_va_list@_K_J@?$positional_parameter_base@_WV?$string_output_adapter@_W@__crt_stdio_output@@@__crt_stdio_output@@IAE_NAA_J@Z 1003aecd f i libucrt:output.obj
 0001:00039f7e       ??$extract_argument_from_va_list@_K_J@?$standard_base@DV?$stream_output_adapter@D@__crt_stdio_output@@@__crt_stdio_output@@IAE_NAA_J@Z 1003af7e f i libucrt:output.obj
 0001:00039fa6       ??$extract_argument_from_va_list@_K_J@?$standard_base@DV?$string_output_adapter@D@__crt_stdio_output@@@__crt_stdio_output@@IAE_NAA_J@Z 1003afa6 f i libucrt:output.obj
 0001:00039fce       ??$extract_argument_from_va_list@_K_J@?$standard_base@_WV?$stream_output_adapter@_W@__crt_stdio_output@@@__crt_stdio_output@@IAE_NAA_J@Z 1003afce f i libucrt:output.obj
 0001:00039ff6       ??$extract_argument_from_va_list@_K_J@?$standard_base@_WV?$string_output_adapter@_W@__crt_stdio_output@@@__crt_stdio_output@@IAE_NAA_J@Z 1003aff6 f i libucrt:output.obj
 0001:0003a01e       ??$extract_argument_from_va_list@_W_W@?$positional_parameter_base@DV?$stream_output_adapter@D@__crt_stdio_output@@@__crt_stdio_output@@IAE_NAA_W@Z 1003b01e f i libucrt:output.obj
 0001:0003a0c0       ??$extract_argument_from_va_list@_W_W@?$positional_parameter_base@DV?$string_output_adapter@D@__crt_stdio_output@@@__crt_stdio_output@@IAE_NAA_W@Z 1003b0c0 f i libucrt:output.obj
 0001:0003a162       ??$extract_argument_from_va_list@_W_W@?$positional_parameter_base@_WV?$stream_output_adapter@_W@__crt_stdio_output@@@__crt_stdio_output@@IAE_NAA_W@Z 1003b162 f i libucrt:output.obj
 0001:0003a204       ??$extract_argument_from_va_list@_W_W@?$positional_parameter_base@_WV?$string_output_adapter@_W@__crt_stdio_output@@@__crt_stdio_output@@IAE_NAA_W@Z 1003b204 f i libucrt:output.obj
 0001:0003a2a6       ??$extract_argument_from_va_list@_W_W@?$standard_base@DV?$stream_output_adapter@D@__crt_stdio_output@@@__crt_stdio_output@@IAE_NAA_W@Z 1003b2a6 f i libucrt:output.obj
 0001:0003a2c9       ??$extract_argument_from_va_list@_W_W@?$standard_base@DV?$string_output_adapter@D@__crt_stdio_output@@@__crt_stdio_output@@IAE_NAA_W@Z 1003b2c9 f i libucrt:output.obj
 0001:0003a2ec       ??$extract_argument_from_va_list@_W_W@?$standard_base@_WV?$stream_output_adapter@_W@__crt_stdio_output@@@__crt_stdio_output@@IAE_NAA_W@Z 1003b2ec f i libucrt:output.obj
 0001:0003a30f       ??$extract_argument_from_va_list@_W_W@?$standard_base@_WV?$string_output_adapter@_W@__crt_stdio_output@@@__crt_stdio_output@@IAE_NAA_W@Z 1003b30f f i libucrt:output.obj
 0001:0003a332       ??$get_parameter_type@D@?$positional_parameter_base@DV?$stream_output_adapter@D@__crt_stdio_output@@@__crt_stdio_output@@CA?AW4parameter_type@01@PAD@Z 1003b332 f i libucrt:output.obj
 0001:0003a336       ??$get_parameter_type@D@?$positional_parameter_base@DV?$string_output_adapter@D@__crt_stdio_output@@@__crt_stdio_output@@CA?AW4parameter_type@01@PAD@Z 1003b336 f i libucrt:output.obj
 0001:0003a33a       ??$get_parameter_type@D@?$positional_parameter_base@_WV?$stream_output_adapter@_W@__crt_stdio_output@@@__crt_stdio_output@@CA?AW4parameter_type@01@PAD@Z 1003b33a f i libucrt:output.obj
 0001:0003a33e       ??$get_parameter_type@D@?$positional_parameter_base@_WV?$string_output_adapter@_W@__crt_stdio_output@@@__crt_stdio_output@@CA?AW4parameter_type@01@PAD@Z 1003b33e f i libucrt:output.obj
 0001:0003a342       ??$get_parameter_type@Uansi_string@?1??type_case_Z@?$output_processor@DV?$stream_output_adapter@D@__crt_stdio_output@@V?$positional_parameter_base@DV?$stream_output_adapter@D@__crt_stdio_output@@@2@@__crt_stdio_output@@AAE_NXZ@@?$positional_parameter_base@DV?$stream_output_adapter@D@__crt_stdio_output@@@__crt_stdio_output@@CA?AW4parameter_type@01@PAUansi_string@?1??type_case_Z@?$output_processor@DV?$stream_output_adapter@D@__crt_stdio_output@@V?$positional_parameter_base@DV?$stream_output_adapter@D@__crt_stdio_output@@@2@@1@AAE_NXZ@@Z 1003b342 f i libucrt:output.obj
 0001:0003a346       ??$get_parameter_type@Uansi_string@?1??type_case_Z@?$output_processor@DV?$string_output_adapter@D@__crt_stdio_output@@V?$positional_parameter_base@DV?$string_output_adapter@D@__crt_stdio_output@@@2@@__crt_stdio_output@@AAE_NXZ@@?$positional_parameter_base@DV?$string_output_adapter@D@__crt_stdio_output@@@__crt_stdio_output@@CA?AW4parameter_type@01@PAUansi_string@?1??type_case_Z@?$output_processor@DV?$string_output_adapter@D@__crt_stdio_output@@V?$positional_parameter_base@DV?$string_output_adapter@D@__crt_stdio_output@@@2@@1@AAE_NXZ@@Z 1003b346 f i libucrt:output.obj
 0001:0003a34a       ??$get_parameter_type@Uansi_string@?1??type_case_Z@?$output_processor@_WV?$stream_output_adapter@_W@__crt_stdio_output@@V?$positional_parameter_base@_WV?$stream_output_adapter@_W@__crt_stdio_output@@@2@@__crt_stdio_output@@AAE_NXZ@@?$positional_parameter_base@_WV?$stream_output_adapter@_W@__crt_stdio_output@@@__crt_stdio_output@@CA?AW4parameter_type@01@PAUansi_string@?1??type_case_Z@?$output_processor@_WV?$stream_output_adapter@_W@__crt_stdio_output@@V?$positional_parameter_base@_WV?$stream_output_adapter@_W@__crt_stdio_output@@@2@@1@AAE_NXZ@@Z 1003b34a f i libucrt:output.obj
 0001:0003a34e       ??$get_parameter_type@Uansi_string@?1??type_case_Z@?$output_processor@_WV?$string_output_adapter@_W@__crt_stdio_output@@V?$positional_parameter_base@_WV?$string_output_adapter@_W@__crt_stdio_output@@@2@@__crt_stdio_output@@AAE_NXZ@@?$positional_parameter_base@_WV?$string_output_adapter@_W@__crt_stdio_output@@@__crt_stdio_output@@CA?AW4parameter_type@01@PAUansi_string@?1??type_case_Z@?$output_processor@_WV?$string_output_adapter@_W@__crt_stdio_output@@V?$positional_parameter_base@_WV?$string_output_adapter@_W@__crt_stdio_output@@@2@@1@AAE_NXZ@@Z 1003b34e f i libucrt:output.obj
 0001:0003a352       ??$get_parameter_type@X@?$positional_parameter_base@DV?$stream_output_adapter@D@__crt_stdio_output@@@__crt_stdio_output@@CA?AW4parameter_type@01@PAX@Z 1003b352 f i libucrt:output.obj
 0001:0003a356       ??$get_parameter_type@X@?$positional_parameter_base@DV?$string_output_adapter@D@__crt_stdio_output@@@__crt_stdio_output@@CA?AW4parameter_type@01@PAX@Z 1003b356 f i libucrt:output.obj
 0001:0003a35a       ??$get_parameter_type@X@?$positional_parameter_base@_WV?$stream_output_adapter@_W@__crt_stdio_output@@@__crt_stdio_output@@CA?AW4parameter_type@01@PAX@Z 1003b35a f i libucrt:output.obj
 0001:0003a35e       ??$get_parameter_type@X@?$positional_parameter_base@_WV?$string_output_adapter@_W@__crt_stdio_output@@@__crt_stdio_output@@CA?AW4parameter_type@01@PAX@Z 1003b35e f i libucrt:output.obj
 0001:0003a362       ??$is_character_specifier@D@?$positional_parameter_base@DV?$stream_output_adapter@D@__crt_stdio_output@@@__crt_stdio_output@@CA_ND@Z 1003b362 f i libucrt:output.obj
 0001:0003a381       ??$is_character_specifier@D@?$positional_parameter_base@DV?$string_output_adapter@D@__crt_stdio_output@@@__crt_stdio_output@@CA_ND@Z 1003b381 f i libucrt:output.obj
 0001:0003a3a0       ??$is_character_specifier@_W@?$positional_parameter_base@_WV?$stream_output_adapter@_W@__crt_stdio_output@@@__crt_stdio_output@@CA_N_W@Z 1003b3a0 f i libucrt:output.obj
 0001:0003a3c3       ??$is_character_specifier@_W@?$positional_parameter_base@_WV?$string_output_adapter@_W@__crt_stdio_output@@@__crt_stdio_output@@CA_N_W@Z 1003b3c3 f i libucrt:output.obj
 0001:0003a3e6       ??$is_integral_specifier@D@?$positional_parameter_base@DV?$stream_output_adapter@D@__crt_stdio_output@@@__crt_stdio_output@@CA_ND@Z 1003b3e6 f i libucrt:output.obj
 0001:0003a41e       ??$is_integral_specifier@D@?$positional_parameter_base@DV?$string_output_adapter@D@__crt_stdio_output@@@__crt_stdio_output@@CA_ND@Z 1003b41e f i libucrt:output.obj
 0001:0003a456       ??$is_integral_specifier@_W@?$positional_parameter_base@_WV?$stream_output_adapter@_W@__crt_stdio_output@@@__crt_stdio_output@@CA_N_W@Z 1003b456 f i libucrt:output.obj
 0001:0003a4a1       ??$is_integral_specifier@_W@?$positional_parameter_base@_WV?$string_output_adapter@_W@__crt_stdio_output@@@__crt_stdio_output@@CA_N_W@Z 1003b4a1 f i libucrt:output.obj
 0001:0003a4ec       ??$is_pointer_specifier@D@?$positional_parameter_base@DV?$stream_output_adapter@D@__crt_stdio_output@@@__crt_stdio_output@@CA_ND@Z 1003b4ec f i libucrt:output.obj
 0001:0003a500       ??$is_pointer_specifier@D@?$positional_parameter_base@DV?$string_output_adapter@D@__crt_stdio_output@@@__crt_stdio_output@@CA_ND@Z 1003b500 f i libucrt:output.obj
 0001:0003a514       ??$is_pointer_specifier@_W@?$positional_parameter_base@_WV?$stream_output_adapter@_W@__crt_stdio_output@@@__crt_stdio_output@@CA_N_W@Z 1003b514 f i libucrt:output.obj
 0001:0003a529       ??$is_pointer_specifier@_W@?$positional_parameter_base@_WV?$string_output_adapter@_W@__crt_stdio_output@@@__crt_stdio_output@@CA_N_W@Z 1003b529 f i libucrt:output.obj
 0001:0003a53e       ??$is_string_specifier@D@?$positional_parameter_base@DV?$stream_output_adapter@D@__crt_stdio_output@@@__crt_stdio_output@@CA_ND@Z 1003b53e f i libucrt:output.obj
 0001:0003a55d       ??$is_string_specifier@D@?$positional_parameter_base@DV?$string_output_adapter@D@__crt_stdio_output@@@__crt_stdio_output@@CA_ND@Z 1003b55d f i libucrt:output.obj
 0001:0003a57c       ??$is_string_specifier@_W@?$positional_parameter_base@_WV?$stream_output_adapter@_W@__crt_stdio_output@@@__crt_stdio_output@@CA_N_W@Z 1003b57c f i libucrt:output.obj
 0001:0003a59f       ??$is_string_specifier@_W@?$positional_parameter_base@_WV?$string_output_adapter@_W@__crt_stdio_output@@@__crt_stdio_output@@CA_N_W@Z 1003b59f f i libucrt:output.obj
 0001:0003a5c2       ??$is_wide_character_specifier@D@__crt_stdio_output@@YA_N_KDW4length_modifier@0@@Z 1003b5c2 f i libucrt:output.obj
 0001:0003a612       ??$is_wide_character_specifier@_W@__crt_stdio_output@@YA_N_K_WW4length_modifier@0@@Z 1003b612 f i libucrt:output.obj
 0001:0003a674       ??$peek_va_arg@C@__crt_stdio_output@@YACPAD@Z 1003b674 f i libucrt:output.obj
 0001:0003a683       ??$peek_va_arg@E@__crt_stdio_output@@YAEPAD@Z 1003b683 f i libucrt:output.obj
 0001:0003a692       ??$peek_va_arg@F@__crt_stdio_output@@YAFPAD@Z 1003b692 f i libucrt:output.obj
 0001:0003a6a2       ??$peek_va_arg@G@__crt_stdio_output@@YAGPAD@Z 1003b6a2 f i libucrt:output.obj
 0001:0003a6b2       ??$peek_va_arg@H@__crt_stdio_output@@YAHPAD@Z 1003b6b2 f i libucrt:output.obj
 0001:0003a6c1       ??$peek_va_arg@I@__crt_stdio_output@@YAIPAD@Z 1003b6c1 f i libucrt:output.obj
 0001:0003a6d0       ??$peek_va_arg@PAD@__crt_stdio_output@@YAPADPAD@Z 1003b6d0 f i libucrt:output.obj
 0001:0003a6df       ??$peek_va_arg@PAUansi_string@?1??type_case_Z@?$output_processor@DV?$stream_output_adapter@D@__crt_stdio_output@@V?$positional_parameter_base@DV?$stream_output_adapter@D@__crt_stdio_output@@@2@@__crt_stdio_output@@AAE_NXZ@@__crt_stdio_output@@YAPAUansi_string@?1??type_case_Z@?$output_processor@DV?$stream_output_adapter@D@__crt_stdio_output@@V?$positional_parameter_base@DV?$stream_output_adapter@D@__crt_stdio_output@@@2@@0@AAE_NXZ@PAD@Z 1003b6df f i libucrt:output.obj
 0001:0003a6ee       ??$peek_va_arg@PAUansi_string@?1??type_case_Z@?$output_processor@DV?$string_output_adapter@D@__crt_stdio_output@@V?$positional_parameter_base@DV?$string_output_adapter@D@__crt_stdio_output@@@2@@__crt_stdio_output@@AAE_NXZ@@__crt_stdio_output@@YAPAUansi_string@?1??type_case_Z@?$output_processor@DV?$string_output_adapter@D@__crt_stdio_output@@V?$positional_parameter_base@DV?$string_output_adapter@D@__crt_stdio_output@@@2@@0@AAE_NXZ@PAD@Z 1003b6ee f i libucrt:output.obj
 0001:0003a6fd       ??$peek_va_arg@PAUansi_string@?1??type_case_Z@?$output_processor@_WV?$stream_output_adapter@_W@__crt_stdio_output@@V?$positional_parameter_base@_WV?$stream_output_adapter@_W@__crt_stdio_output@@@2@@__crt_stdio_output@@AAE_NXZ@@__crt_stdio_output@@YAPAUansi_string@?1??type_case_Z@?$output_processor@_WV?$stream_output_adapter@_W@__crt_stdio_output@@V?$positional_parameter_base@_WV?$stream_output_adapter@_W@__crt_stdio_output@@@2@@0@AAE_NXZ@PAD@Z 1003b6fd f i libucrt:output.obj
 0001:0003a70c       ??$peek_va_arg@PAUansi_string@?1??type_case_Z@?$output_processor@_WV?$string_output_adapter@_W@__crt_stdio_output@@V?$positional_parameter_base@_WV?$string_output_adapter@_W@__crt_stdio_output@@@2@@__crt_stdio_output@@AAE_NXZ@@__crt_stdio_output@@YAPAUansi_string@?1??type_case_Z@?$output_processor@_WV?$string_output_adapter@_W@__crt_stdio_output@@V?$positional_parameter_base@_WV?$string_output_adapter@_W@__crt_stdio_output@@@2@@0@AAE_NXZ@PAD@Z 1003b70c f i libucrt:output.obj
 0001:0003a71b       ??$peek_va_arg@PAX@__crt_stdio_output@@YAPAXPAD@Z 1003b71b f i libucrt:output.obj
 0001:0003a72a       ??$peek_va_arg@U_CRT_DOUBLE@@@__crt_stdio_output@@YA?AU_CRT_DOUBLE@@PAD@Z 1003b72a f i libucrt:output.obj
 0001:0003a73c       ??$peek_va_arg@_J@__crt_stdio_output@@YA_JPAD@Z 1003b73c f i libucrt:output.obj
 0001:0003a74e       ??$peek_va_arg@_K@__crt_stdio_output@@YA_KPAD@Z 1003b74e f i libucrt:output.obj
 0001:0003a760       ??$peek_va_arg@_W@__crt_stdio_output@@YA_WPAD@Z 1003b760 f i libucrt:output.obj
 0001:0003a770       ??$puttc_nolock@ABDPAU_iobuf@@@?$__crt_char_traits@D@@SAHABD$$QAPAU_iobuf@@@Z 1003b770 f i libucrt:output.obj
 0001:0003a790       ??$puttc_nolock@AB_WPAU_iobuf@@@?$__crt_char_traits@_W@@SAGAB_W$$QAPAU_iobuf@@@Z 1003b790 f i libucrt:output.obj
 0001:0003a7b0       ??$read_va_arg@C@__crt_stdio_output@@YACAAPAD@Z 1003b7b0 f i libucrt:output.obj
 0001:0003a7c6       ??$read_va_arg@E@__crt_stdio_output@@YAEAAPAD@Z 1003b7c6 f i libucrt:output.obj
 0001:0003a7dc       ??$read_va_arg@F@__crt_stdio_output@@YAFAAPAD@Z 1003b7dc f i libucrt:output.obj
 0001:0003a7f3       ??$read_va_arg@G@__crt_stdio_output@@YAGAAPAD@Z 1003b7f3 f i libucrt:output.obj
 0001:0003a80a       ??$read_va_arg@H@__crt_stdio_output@@YAHAAPAD@Z 1003b80a f i libucrt:output.obj
 0001:0003a820       ??$read_va_arg@I@__crt_stdio_output@@YAIAAPAD@Z 1003b820 f i libucrt:output.obj
 0001:0003a836       ??$read_va_arg@PAD@__crt_stdio_output@@YAPADAAPAD@Z 1003b836 f i libucrt:output.obj
 0001:0003a84c       ??$read_va_arg@PAUansi_string@?1??type_case_Z@?$output_processor@DV?$stream_output_adapter@D@__crt_stdio_output@@V?$format_validation_base@DV?$stream_output_adapter@D@__crt_stdio_output@@@2@@__crt_stdio_output@@AAE_NXZ@@__crt_stdio_output@@YAPAUansi_string@?1??type_case_Z@?$output_processor@DV?$stream_output_adapter@D@__crt_stdio_output@@V?$format_validation_base@DV?$stream_output_adapter@D@__crt_stdio_output@@@2@@0@AAE_NXZ@AAPAD@Z 1003b84c f i libucrt:output.obj
 0001:0003a862       ??$read_va_arg@PAUansi_string@?1??type_case_Z@?$output_processor@DV?$stream_output_adapter@D@__crt_stdio_output@@V?$positional_parameter_base@DV?$stream_output_adapter@D@__crt_stdio_output@@@2@@__crt_stdio_output@@AAE_NXZ@@__crt_stdio_output@@YAPAUansi_string@?1??type_case_Z@?$output_processor@DV?$stream_output_adapter@D@__crt_stdio_output@@V?$positional_parameter_base@DV?$stream_output_adapter@D@__crt_stdio_output@@@2@@0@AAE_NXZ@AAPAD@Z 1003b862 f i libucrt:output.obj
 0001:0003a878       ??$read_va_arg@PAUansi_string@?1??type_case_Z@?$output_processor@DV?$stream_output_adapter@D@__crt_stdio_output@@V?$standard_base@DV?$stream_output_adapter@D@__crt_stdio_output@@@2@@__crt_stdio_output@@AAE_NXZ@@__crt_stdio_output@@YAPAUansi_string@?1??type_case_Z@?$output_processor@DV?$stream_output_adapter@D@__crt_stdio_output@@V?$standard_base@DV?$stream_output_adapter@D@__crt_stdio_output@@@2@@0@AAE_NXZ@AAPAD@Z 1003b878 f i libucrt:output.obj
 0001:0003a88e       ??$read_va_arg@PAUansi_string@?1??type_case_Z@?$output_processor@DV?$string_output_adapter@D@__crt_stdio_output@@V?$format_validation_base@DV?$string_output_adapter@D@__crt_stdio_output@@@2@@__crt_stdio_output@@AAE_NXZ@@__crt_stdio_output@@YAPAUansi_string@?1??type_case_Z@?$output_processor@DV?$string_output_adapter@D@__crt_stdio_output@@V?$format_validation_base@DV?$string_output_adapter@D@__crt_stdio_output@@@2@@0@AAE_NXZ@AAPAD@Z 1003b88e f i libucrt:output.obj
 0001:0003a8a4       ??$read_va_arg@PAUansi_string@?1??type_case_Z@?$output_processor@DV?$string_output_adapter@D@__crt_stdio_output@@V?$positional_parameter_base@DV?$string_output_adapter@D@__crt_stdio_output@@@2@@__crt_stdio_output@@AAE_NXZ@@__crt_stdio_output@@YAPAUansi_string@?1??type_case_Z@?$output_processor@DV?$string_output_adapter@D@__crt_stdio_output@@V?$positional_parameter_base@DV?$string_output_adapter@D@__crt_stdio_output@@@2@@0@AAE_NXZ@AAPAD@Z 1003b8a4 f i libucrt:output.obj
 0001:0003a8ba       ??$read_va_arg@PAUansi_string@?1??type_case_Z@?$output_processor@DV?$string_output_adapter@D@__crt_stdio_output@@V?$standard_base@DV?$string_output_adapter@D@__crt_stdio_output@@@2@@__crt_stdio_output@@AAE_NXZ@@__crt_stdio_output@@YAPAUansi_string@?1??type_case_Z@?$output_processor@DV?$string_output_adapter@D@__crt_stdio_output@@V?$standard_base@DV?$string_output_adapter@D@__crt_stdio_output@@@2@@0@AAE_NXZ@AAPAD@Z 1003b8ba f i libucrt:output.obj
 0001:0003a8d0       ??$read_va_arg@PAUansi_string@?1??type_case_Z@?$output_processor@_WV?$stream_output_adapter@_W@__crt_stdio_output@@V?$format_validation_base@_WV?$stream_output_adapter@_W@__crt_stdio_output@@@2@@__crt_stdio_output@@AAE_NXZ@@__crt_stdio_output@@YAPAUansi_string@?1??type_case_Z@?$output_processor@_WV?$stream_output_adapter@_W@__crt_stdio_output@@V?$format_validation_base@_WV?$stream_output_adapter@_W@__crt_stdio_output@@@2@@0@AAE_NXZ@AAPAD@Z 1003b8d0 f i libucrt:output.obj
 0001:0003a8e6       ??$read_va_arg@PAUansi_string@?1??type_case_Z@?$output_processor@_WV?$stream_output_adapter@_W@__crt_stdio_output@@V?$positional_parameter_base@_WV?$stream_output_adapter@_W@__crt_stdio_output@@@2@@__crt_stdio_output@@AAE_NXZ@@__crt_stdio_output@@YAPAUansi_string@?1??type_case_Z@?$output_processor@_WV?$stream_output_adapter@_W@__crt_stdio_output@@V?$positional_parameter_base@_WV?$stream_output_adapter@_W@__crt_stdio_output@@@2@@0@AAE_NXZ@AAPAD@Z 1003b8e6 f i libucrt:output.obj
 0001:0003a8fc       ??$read_va_arg@PAUansi_string@?1??type_case_Z@?$output_processor@_WV?$stream_output_adapter@_W@__crt_stdio_output@@V?$standard_base@_WV?$stream_output_adapter@_W@__crt_stdio_output@@@2@@__crt_stdio_output@@AAE_NXZ@@__crt_stdio_output@@YAPAUansi_string@?1??type_case_Z@?$output_processor@_WV?$stream_output_adapter@_W@__crt_stdio_output@@V?$standard_base@_WV?$stream_output_adapter@_W@__crt_stdio_output@@@2@@0@AAE_NXZ@AAPAD@Z 1003b8fc f i libucrt:output.obj
 0001:0003a912       ??$read_va_arg@PAUansi_string@?1??type_case_Z@?$output_processor@_WV?$string_output_adapter@_W@__crt_stdio_output@@V?$format_validation_base@_WV?$string_output_adapter@_W@__crt_stdio_output@@@2@@__crt_stdio_output@@AAE_NXZ@@__crt_stdio_output@@YAPAUansi_string@?1??type_case_Z@?$output_processor@_WV?$string_output_adapter@_W@__crt_stdio_output@@V?$format_validation_base@_WV?$string_output_adapter@_W@__crt_stdio_output@@@2@@0@AAE_NXZ@AAPAD@Z 1003b912 f i libucrt:output.obj
 0001:0003a928       ??$read_va_arg@PAUansi_string@?1??type_case_Z@?$output_processor@_WV?$string_output_adapter@_W@__crt_stdio_output@@V?$positional_parameter_base@_WV?$string_output_adapter@_W@__crt_stdio_output@@@2@@__crt_stdio_output@@AAE_NXZ@@__crt_stdio_output@@YAPAUansi_string@?1??type_case_Z@?$output_processor@_WV?$string_output_adapter@_W@__crt_stdio_output@@V?$positional_parameter_base@_WV?$string_output_adapter@_W@__crt_stdio_output@@@2@@0@AAE_NXZ@AAPAD@Z 1003b928 f i libucrt:output.obj
 0001:0003a93e       ??$read_va_arg@PAUansi_string@?1??type_case_Z@?$output_processor@_WV?$string_output_adapter@_W@__crt_stdio_output@@V?$standard_base@_WV?$string_output_adapter@_W@__crt_stdio_output@@@2@@__crt_stdio_output@@AAE_NXZ@@__crt_stdio_output@@YAPAUansi_string@?1??type_case_Z@?$output_processor@_WV?$string_output_adapter@_W@__crt_stdio_output@@V?$standard_base@_WV?$string_output_adapter@_W@__crt_stdio_output@@@2@@0@AAE_NXZ@AAPAD@Z 1003b93e f i libucrt:output.obj
 0001:0003a954       ??$read_va_arg@PAX@__crt_stdio_output@@YAPAXAAPAD@Z 1003b954 f i libucrt:output.obj
 0001:0003a96a       ??$read_va_arg@U_CRT_DOUBLE@@@__crt_stdio_output@@YA?AU_CRT_DOUBLE@@AAPAD@Z 1003b96a f i libucrt:output.obj
 0001:0003a984       ??$read_va_arg@_J@__crt_stdio_output@@YA_JAAPAD@Z 1003b984 f i libucrt:output.obj
 0001:0003a99e       ??$read_va_arg@_K@__crt_stdio_output@@YA_KAAPAD@Z 1003b99e f i libucrt:output.obj
 0001:0003a9b8       ??$read_va_arg@_W@__crt_stdio_output@@YA_WAAPAD@Z 1003b9b8 f i libucrt:output.obj
 0001:0003a9cf       ??$scratch_count@D@formatting_buffer@__crt_stdio_output@@QBEIXZ 1003b9cf f i libucrt:output.obj
 0001:0003a9d4       ??$scratch_data@D@formatting_buffer@__crt_stdio_output@@QAEPADXZ 1003b9d4 f i libucrt:output.obj
 0001:0003a9f9       ??$tcstol@AAPBDPAPADH@?$__crt_char_traits@D@@SAJAAPBD$$QAPAPAD$$QAH@Z 1003b9f9 f i libucrt:output.obj
 0001:0003aa1e       ??$tcstol@AAPB_WPAPA_WH@?$__crt_char_traits@_W@@SAJAAPB_W$$QAPAPA_W$$QAH@Z 1003ba1e f i libucrt:output.obj
 0001:0003aa43       ??$tcstol@PBDPAPADH@?$__crt_char_traits@D@@SAJ$$QAPBD$$QAPAPAD$$QAH@Z 1003ba43 f i libucrt:output.obj
 0001:0003aa68       ??$tcstol@PB_WPAPA_WH@?$__crt_char_traits@_W@@SAJ$$QAPB_W$$QAPAPA_W$$QAH@Z 1003ba68 f i libucrt:output.obj
 0001:0003aa8d       ??$type_case_integer_parse_into_buffer@I@?$output_processor@DV?$stream_output_adapter@D@__crt_stdio_output@@V?$format_validation_base@DV?$stream_output_adapter@D@__crt_stdio_output@@@2@@__crt_stdio_output@@AAEXII_N@Z 1003ba8d f i libucrt:output.obj
 0001:0003ab1f       ??$type_case_integer_parse_into_buffer@I@?$output_processor@DV?$stream_output_adapter@D@__crt_stdio_output@@V?$positional_parameter_base@DV?$stream_output_adapter@D@__crt_stdio_output@@@2@@__crt_stdio_output@@AAEXII_N@Z 1003bb1f f i libucrt:output.obj
 0001:0003abb1       ??$type_case_integer_parse_into_buffer@I@?$output_processor@DV?$stream_output_adapter@D@__crt_stdio_output@@V?$standard_base@DV?$stream_output_adapter@D@__crt_stdio_output@@@2@@__crt_stdio_output@@AAEXII_N@Z 1003bbb1 f i libucrt:output.obj
 0001:0003ac43       ??$type_case_integer_parse_into_buffer@I@?$output_processor@DV?$string_output_adapter@D@__crt_stdio_output@@V?$format_validation_base@DV?$string_output_adapter@D@__crt_stdio_output@@@2@@__crt_stdio_output@@AAEXII_N@Z 1003bc43 f i libucrt:output.obj
 0001:0003acd5       ??$type_case_integer_parse_into_buffer@I@?$output_processor@DV?$string_output_adapter@D@__crt_stdio_output@@V?$positional_parameter_base@DV?$string_output_adapter@D@__crt_stdio_output@@@2@@__crt_stdio_output@@AAEXII_N@Z 1003bcd5 f i libucrt:output.obj
 0001:0003ad67       ??$type_case_integer_parse_into_buffer@I@?$output_processor@DV?$string_output_adapter@D@__crt_stdio_output@@V?$standard_base@DV?$string_output_adapter@D@__crt_stdio_output@@@2@@__crt_stdio_output@@AAEXII_N@Z 1003bd67 f i libucrt:output.obj
 0001:0003adf9       ??$type_case_integer_parse_into_buffer@I@?$output_processor@_WV?$stream_output_adapter@_W@__crt_stdio_output@@V?$format_validation_base@_WV?$stream_output_adapter@_W@__crt_stdio_output@@@2@@__crt_stdio_output@@AAEXII_N@Z 1003bdf9 f i libucrt:output.obj
 0001:0003ae8b       ??$type_case_integer_parse_into_buffer@I@?$output_processor@_WV?$stream_output_adapter@_W@__crt_stdio_output@@V?$positional_parameter_base@_WV?$stream_output_adapter@_W@__crt_stdio_output@@@2@@__crt_stdio_output@@AAEXII_N@Z 1003be8b f i libucrt:output.obj
 0001:0003af1d       ??$type_case_integer_parse_into_buffer@I@?$output_processor@_WV?$stream_output_adapter@_W@__crt_stdio_output@@V?$standard_base@_WV?$stream_output_adapter@_W@__crt_stdio_output@@@2@@__crt_stdio_output@@AAEXII_N@Z 1003bf1d f i libucrt:output.obj
 0001:0003afaf       ??$type_case_integer_parse_into_buffer@I@?$output_processor@_WV?$string_output_adapter@_W@__crt_stdio_output@@V?$format_validation_base@_WV?$string_output_adapter@_W@__crt_stdio_output@@@2@@__crt_stdio_output@@AAEXII_N@Z 1003bfaf f i libucrt:output.obj
 0001:0003b041       ??$type_case_integer_parse_into_buffer@I@?$output_processor@_WV?$string_output_adapter@_W@__crt_stdio_output@@V?$positional_parameter_base@_WV?$string_output_adapter@_W@__crt_stdio_output@@@2@@__crt_stdio_output@@AAEXII_N@Z 1003c041 f i libucrt:output.obj
 0001:0003b0d3       ??$type_case_integer_parse_into_buffer@I@?$output_processor@_WV?$string_output_adapter@_W@__crt_stdio_output@@V?$standard_base@_WV?$string_output_adapter@_W@__crt_stdio_output@@@2@@__crt_stdio_output@@AAEXII_N@Z 1003c0d3 f i libucrt:output.obj
 0001:0003b165       ??$type_case_integer_parse_into_buffer@_K@?$output_processor@DV?$stream_output_adapter@D@__crt_stdio_output@@V?$format_validation_base@DV?$stream_output_adapter@D@__crt_stdio_output@@@2@@__crt_stdio_output@@AAEX_KI_N@Z 1003c165 f i libucrt:output.obj
 0001:0003b20f       ??$type_case_integer_parse_into_buffer@_K@?$output_processor@DV?$stream_output_adapter@D@__crt_stdio_output@@V?$positional_parameter_base@DV?$stream_output_adapter@D@__crt_stdio_output@@@2@@__crt_stdio_output@@AAEX_KI_N@Z 1003c20f f i libucrt:output.obj
 0001:0003b2b9       ??$type_case_integer_parse_into_buffer@_K@?$output_processor@DV?$stream_output_adapter@D@__crt_stdio_output@@V?$standard_base@DV?$stream_output_adapter@D@__crt_stdio_output@@@2@@__crt_stdio_output@@AAEX_KI_N@Z 1003c2b9 f i libucrt:output.obj
 0001:0003b363       ??$type_case_integer_parse_into_buffer@_K@?$output_processor@DV?$string_output_adapter@D@__crt_stdio_output@@V?$format_validation_base@DV?$string_output_adapter@D@__crt_stdio_output@@@2@@__crt_stdio_output@@AAEX_KI_N@Z 1003c363 f i libucrt:output.obj
 0001:0003b40d       ??$type_case_integer_parse_into_buffer@_K@?$output_processor@DV?$string_output_adapter@D@__crt_stdio_output@@V?$positional_parameter_base@DV?$string_output_adapter@D@__crt_stdio_output@@@2@@__crt_stdio_output@@AAEX_KI_N@Z 1003c40d f i libucrt:output.obj
 0001:0003b4b7       ??$type_case_integer_parse_into_buffer@_K@?$output_processor@DV?$string_output_adapter@D@__crt_stdio_output@@V?$standard_base@DV?$string_output_adapter@D@__crt_stdio_output@@@2@@__crt_stdio_output@@AAEX_KI_N@Z 1003c4b7 f i libucrt:output.obj
 0001:0003b561       ??$type_case_integer_parse_into_buffer@_K@?$output_processor@_WV?$stream_output_adapter@_W@__crt_stdio_output@@V?$format_validation_base@_WV?$stream_output_adapter@_W@__crt_stdio_output@@@2@@__crt_stdio_output@@AAEX_KI_N@Z 1003c561 f i libucrt:output.obj
 0001:0003b60b       ??$type_case_integer_parse_into_buffer@_K@?$output_processor@_WV?$stream_output_adapter@_W@__crt_stdio_output@@V?$positional_parameter_base@_WV?$stream_output_adapter@_W@__crt_stdio_output@@@2@@__crt_stdio_output@@AAEX_KI_N@Z 1003c60b f i libucrt:output.obj
 0001:0003b6b5       ??$type_case_integer_parse_into_buffer@_K@?$output_processor@_WV?$stream_output_adapter@_W@__crt_stdio_output@@V?$standard_base@_WV?$stream_output_adapter@_W@__crt_stdio_output@@@2@@__crt_stdio_output@@AAEX_KI_N@Z 1003c6b5 f i libucrt:output.obj
 0001:0003b75f       ??$type_case_integer_parse_into_buffer@_K@?$output_processor@_WV?$string_output_adapter@_W@__crt_stdio_output@@V?$format_validation_base@_WV?$string_output_adapter@_W@__crt_stdio_output@@@2@@__crt_stdio_output@@AAEX_KI_N@Z 1003c75f f i libucrt:output.obj
 0001:0003b809       ??$type_case_integer_parse_into_buffer@_K@?$output_processor@_WV?$string_output_adapter@_W@__crt_stdio_output@@V?$positional_parameter_base@_WV?$string_output_adapter@_W@__crt_stdio_output@@@2@@__crt_stdio_output@@AAEX_KI_N@Z 1003c809 f i libucrt:output.obj
 0001:0003b8b3       ??$type_case_integer_parse_into_buffer@_K@?$output_processor@_WV?$string_output_adapter@_W@__crt_stdio_output@@V?$standard_base@_WV?$string_output_adapter@_W@__crt_stdio_output@@@2@@__crt_stdio_output@@AAEX_KI_N@Z 1003c8b3 f i libucrt:output.obj
 0001:0003b95d       ??$write_multiple_characters@V?$stream_output_adapter@D@__crt_stdio_output@@D@__crt_stdio_output@@YAXABV?$stream_output_adapter@D@0@DHQAH@Z 1003c95d f i libucrt:output.obj
 0001:0003b994       ??$write_multiple_characters@V?$stream_output_adapter@_W@__crt_stdio_output@@D@__crt_stdio_output@@YAXABV?$stream_output_adapter@_W@0@DHQAH@Z 1003c994 f i libucrt:output.obj
 0001:0003b9d1       ??$write_multiple_characters@V?$string_output_adapter@D@__crt_stdio_output@@D@__crt_stdio_output@@YAXABV?$string_output_adapter@D@0@DHQAH@Z 1003c9d1 f i libucrt:output.obj
 0001:0003ba08       ??$write_multiple_characters@V?$string_output_adapter@_W@__crt_stdio_output@@D@__crt_stdio_output@@YAXABV?$string_output_adapter@_W@0@DHQAH@Z 1003ca08 f i libucrt:output.obj
 0001:0003bc79       ??0?$common_data@D@__crt_stdio_output@@IAE@XZ 1003cc79 f i libucrt:output.obj
 0001:0003bcd1       ??0?$common_data@_W@__crt_stdio_output@@IAE@XZ 1003ccd1 f i libucrt:output.obj
 0001:0003bd30       ??0?$output_adapter_data@DV?$stream_output_adapter@D@__crt_stdio_output@@@__crt_stdio_output@@IAE@ABV?$stream_output_adapter@D@1@_KQBDQAU__crt_locale_pointers@@QAD@Z 1003cd30 f i libucrt:output.obj
 0001:0003bd7b       ??0?$output_adapter_data@DV?$string_output_adapter@D@__crt_stdio_output@@@__crt_stdio_output@@IAE@ABV?$string_output_adapter@D@1@_KQBDQAU__crt_locale_pointers@@QAD@Z 1003cd7b f i libucrt:output.obj
 0001:0003bdc6       ??0?$output_adapter_data@_WV?$stream_output_adapter@_W@__crt_stdio_output@@@__crt_stdio_output@@IAE@ABV?$stream_output_adapter@_W@1@_KQB_WQAU__crt_locale_pointers@@QAD@Z 1003cdc6 f i libucrt:output.obj
 0001:0003be11       ??0?$output_adapter_data@_WV?$string_output_adapter@_W@__crt_stdio_output@@@__crt_stdio_output@@IAE@ABV?$string_output_adapter@_W@1@_KQB_WQAU__crt_locale_pointers@@QAD@Z 1003ce11 f i libucrt:output.obj
 0001:0003be5c       ??0?$output_processor@DV?$stream_output_adapter@D@__crt_stdio_output@@V?$format_validation_base@DV?$stream_output_adapter@D@__crt_stdio_output@@@2@@__crt_stdio_output@@QAE@ABV?$stream_output_adapter@D@1@_KQBDQAU__crt_locale_pointers@@QAD@Z 1003ce5c f i libucrt:output.obj
 0001:0003be9e       ??0?$output_processor@DV?$stream_output_adapter@D@__crt_stdio_output@@V?$positional_parameter_base@DV?$stream_output_adapter@D@__crt_stdio_output@@@2@@__crt_stdio_output@@QAE@ABV?$stream_output_adapter@D@1@_KQBDQAU__crt_locale_pointers@@QAD@Z 1003ce9e f i libucrt:output.obj
 0001:0003bed8       ??0?$output_processor@DV?$stream_output_adapter@D@__crt_stdio_output@@V?$standard_base@DV?$stream_output_adapter@D@__crt_stdio_output@@@2@@__crt_stdio_output@@QAE@ABV?$stream_output_adapter@D@1@_KQBDQAU__crt_locale_pointers@@QAD@Z 1003ced8 f i libucrt:output.obj
 0001:0003bf1a       ??0?$output_processor@DV?$string_output_adapter@D@__crt_stdio_output@@V?$format_validation_base@DV?$string_output_adapter@D@__crt_stdio_output@@@2@@__crt_stdio_output@@QAE@ABV?$string_output_adapter@D@1@_KQBDQAU__crt_locale_pointers@@QAD@Z 1003cf1a f i libucrt:output.obj
 0001:0003bf5c       ??0?$output_processor@DV?$string_output_adapter@D@__crt_stdio_output@@V?$positional_parameter_base@DV?$string_output_adapter@D@__crt_stdio_output@@@2@@__crt_stdio_output@@QAE@ABV?$string_output_adapter@D@1@_KQBDQAU__crt_locale_pointers@@QAD@Z 1003cf5c f i libucrt:output.obj
 0001:0003bf96       ??0?$output_processor@DV?$string_output_adapter@D@__crt_stdio_output@@V?$standard_base@DV?$string_output_adapter@D@__crt_stdio_output@@@2@@__crt_stdio_output@@QAE@ABV?$string_output_adapter@D@1@_KQBDQAU__crt_locale_pointers@@QAD@Z 1003cf96 f i libucrt:output.obj
 0001:0003bfd8       ??0?$output_processor@_WV?$stream_output_adapter@_W@__crt_stdio_output@@V?$format_validation_base@_WV?$stream_output_adapter@_W@__crt_stdio_output@@@2@@__crt_stdio_output@@QAE@ABV?$stream_output_adapter@_W@1@_KQB_WQAU__crt_locale_pointers@@QAD@Z 1003cfd8 f i libucrt:output.obj
 0001:0003c01a       ??0?$output_processor@_WV?$stream_output_adapter@_W@__crt_stdio_output@@V?$positional_parameter_base@_WV?$stream_output_adapter@_W@__crt_stdio_output@@@2@@__crt_stdio_output@@QAE@ABV?$stream_output_adapter@_W@1@_KQB_WQAU__crt_locale_pointers@@QAD@Z 1003d01a f i libucrt:output.obj
 0001:0003c054       ??0?$output_processor@_WV?$stream_output_adapter@_W@__crt_stdio_output@@V?$standard_base@_WV?$stream_output_adapter@_W@__crt_stdio_output@@@2@@__crt_stdio_output@@QAE@ABV?$stream_output_adapter@_W@1@_KQB_WQAU__crt_locale_pointers@@QAD@Z 1003d054 f i libucrt:output.obj
 0001:0003c096       ??0?$output_processor@_WV?$string_output_adapter@_W@__crt_stdio_output@@V?$format_validation_base@_WV?$string_output_adapter@_W@__crt_stdio_output@@@2@@__crt_stdio_output@@QAE@ABV?$string_output_adapter@_W@1@_KQB_WQAU__crt_locale_pointers@@QAD@Z 1003d096 f i libucrt:output.obj
 0001:0003c0d8       ??0?$output_processor@_WV?$string_output_adapter@_W@__crt_stdio_output@@V?$positional_parameter_base@_WV?$string_output_adapter@_W@__crt_stdio_output@@@2@@__crt_stdio_output@@QAE@ABV?$string_output_adapter@_W@1@_KQB_WQAU__crt_locale_pointers@@QAD@Z 1003d0d8 f i libucrt:output.obj
 0001:0003c112       ??0?$output_processor@_WV?$string_output_adapter@_W@__crt_stdio_output@@V?$standard_base@_WV?$string_output_adapter@_W@__crt_stdio_output@@@2@@__crt_stdio_output@@QAE@ABV?$string_output_adapter@_W@1@_KQB_WQAU__crt_locale_pointers@@QAD@Z 1003d112 f i libucrt:output.obj
 0001:0003c154       ??0?$stream_output_adapter@D@__crt_stdio_output@@QAE@QAU_iobuf@@@Z 1003d154 f i libucrt:output.obj
 0001:0003c168       ??0?$stream_output_adapter@_W@__crt_stdio_output@@QAE@QAU_iobuf@@@Z 1003d168 f i libucrt:output.obj
 0001:0003c17c       ??0?$string_output_adapter@D@__crt_stdio_output@@QAE@QAU?$string_output_adapter_context@D@1@@Z 1003d17c f i libucrt:output.obj
 0001:0003c190       ??0?$string_output_adapter@_W@__crt_stdio_output@@QAE@QAU?$string_output_adapter_context@_W@1@@Z 1003d190 f i libucrt:output.obj
 0001:0003c1a4       ??0_LocaleUpdate@@QAE@QAU__crt_locale_pointers@@@Z 1003d1a4 f i libucrt:output.obj
 0001:0003c247       ??0__acrt_stdio_temporary_buffering_guard@@QAE@QAU_iobuf@@@Z 1003d247 f i libucrt:output.obj
 0001:0003c26c       ??0__crt_errno_guard@@QAE@QAH@Z 1003d26c f i libucrt:output.obj
 0001:0003c28a       ??0formatting_buffer@__crt_stdio_output@@QAE@XZ 1003d28a f i libucrt:output.obj
 0001:0003c29f       ??1?$common_data@D@__crt_stdio_output@@QAE@XZ 1003d29f f i libucrt:output.obj
 0001:0003c2a9       ??1?$common_data@_W@__crt_stdio_output@@QAE@XZ 1003d2a9 f i libucrt:output.obj
 0001:0003c2b3       ??1?$format_validation_base@DV?$stream_output_adapter@D@__crt_stdio_output@@@__crt_stdio_output@@QAE@XZ 1003d2b3 f i libucrt:output.obj
 0001:0003c2bd       ??1?$format_validation_base@DV?$string_output_adapter@D@__crt_stdio_output@@@__crt_stdio_output@@QAE@XZ 1003d2bd f i libucrt:output.obj
 0001:0003c2c7       ??1?$format_validation_base@_WV?$stream_output_adapter@_W@__crt_stdio_output@@@__crt_stdio_output@@QAE@XZ 1003d2c7 f i libucrt:output.obj
 0001:0003c2d1       ??1?$format_validation_base@_WV?$string_output_adapter@_W@__crt_stdio_output@@@__crt_stdio_output@@QAE@XZ 1003d2d1 f i libucrt:output.obj
 0001:0003c2db       ??1?$output_adapter_data@DV?$stream_output_adapter@D@__crt_stdio_output@@@__crt_stdio_output@@QAE@XZ 1003d2db f i libucrt:output.obj
 0001:0003c2e5       ??1?$output_adapter_data@DV?$string_output_adapter@D@__crt_stdio_output@@@__crt_stdio_output@@QAE@XZ 1003d2e5 f i libucrt:output.obj
 0001:0003c2ef       ??1?$output_adapter_data@_WV?$stream_output_adapter@_W@__crt_stdio_output@@@__crt_stdio_output@@QAE@XZ 1003d2ef f i libucrt:output.obj
 0001:0003c2f9       ??1?$output_adapter_data@_WV?$string_output_adapter@_W@__crt_stdio_output@@@__crt_stdio_output@@QAE@XZ 1003d2f9 f i libucrt:output.obj
 0001:0003c303       ??1?$output_processor@DV?$stream_output_adapter@D@__crt_stdio_output@@V?$format_validation_base@DV?$stream_output_adapter@D@__crt_stdio_output@@@2@@__crt_stdio_output@@QAE@XZ 1003d303 f i libucrt:output.obj
 0001:0003c30d       ??1?$output_processor@DV?$stream_output_adapter@D@__crt_stdio_output@@V?$positional_parameter_base@DV?$stream_output_adapter@D@__crt_stdio_output@@@2@@__crt_stdio_output@@QAE@XZ 1003d30d f i libucrt:output.obj
 0001:0003c317       ??1?$output_processor@DV?$stream_output_adapter@D@__crt_stdio_output@@V?$standard_base@DV?$stream_output_adapter@D@__crt_stdio_output@@@2@@__crt_stdio_output@@QAE@XZ 1003d317 f i libucrt:output.obj
 0001:0003c321       ??1?$output_processor@DV?$string_output_adapter@D@__crt_stdio_output@@V?$format_validation_base@DV?$string_output_adapter@D@__crt_stdio_output@@@2@@__crt_stdio_output@@QAE@XZ 1003d321 f i libucrt:output.obj
 0001:0003c32b       ??1?$output_processor@DV?$string_output_adapter@D@__crt_stdio_output@@V?$positional_parameter_base@DV?$string_output_adapter@D@__crt_stdio_output@@@2@@__crt_stdio_output@@QAE@XZ 1003d32b f i libucrt:output.obj
 0001:0003c335       ??1?$output_processor@DV?$string_output_adapter@D@__crt_stdio_output@@V?$standard_base@DV?$string_output_adapter@D@__crt_stdio_output@@@2@@__crt_stdio_output@@QAE@XZ 1003d335 f i libucrt:output.obj
 0001:0003c33f       ??1?$output_processor@_WV?$stream_output_adapter@_W@__crt_stdio_output@@V?$format_validation_base@_WV?$stream_output_adapter@_W@__crt_stdio_output@@@2@@__crt_stdio_output@@QAE@XZ 1003d33f f i libucrt:output.obj
 0001:0003c349       ??1?$output_processor@_WV?$stream_output_adapter@_W@__crt_stdio_output@@V?$positional_parameter_base@_WV?$stream_output_adapter@_W@__crt_stdio_output@@@2@@__crt_stdio_output@@QAE@XZ 1003d349 f i libucrt:output.obj
 0001:0003c353       ??1?$output_processor@_WV?$stream_output_adapter@_W@__crt_stdio_output@@V?$standard_base@_WV?$stream_output_adapter@_W@__crt_stdio_output@@@2@@__crt_stdio_output@@QAE@XZ 1003d353 f i libucrt:output.obj
 0001:0003c35d       ??1?$output_processor@_WV?$string_output_adapter@_W@__crt_stdio_output@@V?$format_validation_base@_WV?$string_output_adapter@_W@__crt_stdio_output@@@2@@__crt_stdio_output@@QAE@XZ 1003d35d f i libucrt:output.obj
 0001:0003c367       ??1?$output_processor@_WV?$string_output_adapter@_W@__crt_stdio_output@@V?$positional_parameter_base@_WV?$string_output_adapter@_W@__crt_stdio_output@@@2@@__crt_stdio_output@@QAE@XZ 1003d367 f i libucrt:output.obj
 0001:0003c371       ??1?$output_processor@_WV?$string_output_adapter@_W@__crt_stdio_output@@V?$standard_base@_WV?$string_output_adapter@_W@__crt_stdio_output@@@2@@__crt_stdio_output@@QAE@XZ 1003d371 f i libucrt:output.obj
 0001:0003c37b       ??1?$positional_parameter_base@DV?$stream_output_adapter@D@__crt_stdio_output@@@__crt_stdio_output@@QAE@XZ 1003d37b f i libucrt:output.obj
 0001:0003c385       ??1?$positional_parameter_base@DV?$string_output_adapter@D@__crt_stdio_output@@@__crt_stdio_output@@QAE@XZ 1003d385 f i libucrt:output.obj
 0001:0003c38f       ??1?$positional_parameter_base@_WV?$stream_output_adapter@_W@__crt_stdio_output@@@__crt_stdio_output@@QAE@XZ 1003d38f f i libucrt:output.obj
 0001:0003c399       ??1?$positional_parameter_base@_WV?$string_output_adapter@_W@__crt_stdio_output@@@__crt_stdio_output@@QAE@XZ 1003d399 f i libucrt:output.obj
 0001:0003c3a3       ??1?$standard_base@DV?$stream_output_adapter@D@__crt_stdio_output@@@__crt_stdio_output@@QAE@XZ 1003d3a3 f i libucrt:output.obj
 0001:0003c3ad       ??1?$standard_base@DV?$string_output_adapter@D@__crt_stdio_output@@@__crt_stdio_output@@QAE@XZ 1003d3ad f i libucrt:output.obj
 0001:0003c3b7       ??1?$standard_base@_WV?$stream_output_adapter@_W@__crt_stdio_output@@@__crt_stdio_output@@QAE@XZ 1003d3b7 f i libucrt:output.obj
 0001:0003c3c1       ??1?$standard_base@_WV?$string_output_adapter@_W@__crt_stdio_output@@@__crt_stdio_output@@QAE@XZ 1003d3c1 f i libucrt:output.obj
 0001:0003c3cb       ??1_LocaleUpdate@@QAE@XZ   1003d3cb f i libucrt:output.obj
 0001:0003c3df       ??1__acrt_stdio_temporary_buffering_guard@@QAE@XZ 1003d3df f i libucrt:output.obj
 0001:0003c3f1       ??1__crt_errno_guard@@QAE@XZ 1003d3f1 f i libucrt:output.obj
 0001:0003c406       ??1formatting_buffer@__crt_stdio_output@@QAE@XZ 1003d406 f i libucrt:output.obj
 0001:0003c426       ??4?$__crt_unique_heap_ptr@DU__crt_internal_free_policy@@@@QAEAAV0@$$QAV0@@Z 1003d426 f i libucrt:output.obj
 0001:0003cb09       ?GetLocaleT@_LocaleUpdate@@QAEPAU__crt_locale_pointers@@XZ 1003db09 f i libucrt:output.obj
 0001:0003cb0d       ?__crt_interlocked_read_32@@YAHPDH@Z 1003db0d f i libucrt:output.obj
 0001:0003cb1c       ?adjust_hexit@?$output_processor@DV?$stream_output_adapter@D@__crt_stdio_output@@V?$format_validation_base@DV?$stream_output_adapter@D@__crt_stdio_output@@@2@@__crt_stdio_output@@CADH_N@Z 1003db1c f i libucrt:output.obj
 0001:0003cb41       ?adjust_hexit@?$output_processor@DV?$stream_output_adapter@D@__crt_stdio_output@@V?$positional_parameter_base@DV?$stream_output_adapter@D@__crt_stdio_output@@@2@@__crt_stdio_output@@CADH_N@Z 1003db41 f i libucrt:output.obj
 0001:0003cb66       ?adjust_hexit@?$output_processor@DV?$stream_output_adapter@D@__crt_stdio_output@@V?$standard_base@DV?$stream_output_adapter@D@__crt_stdio_output@@@2@@__crt_stdio_output@@CADH_N@Z 1003db66 f i libucrt:output.obj
 0001:0003cb8b       ?adjust_hexit@?$output_processor@DV?$string_output_adapter@D@__crt_stdio_output@@V?$format_validation_base@DV?$string_output_adapter@D@__crt_stdio_output@@@2@@__crt_stdio_output@@CADH_N@Z 1003db8b f i libucrt:output.obj
 0001:0003cbb0       ?adjust_hexit@?$output_processor@DV?$string_output_adapter@D@__crt_stdio_output@@V?$positional_parameter_base@DV?$string_output_adapter@D@__crt_stdio_output@@@2@@__crt_stdio_output@@CADH_N@Z 1003dbb0 f i libucrt:output.obj
 0001:0003cbd5       ?adjust_hexit@?$output_processor@DV?$string_output_adapter@D@__crt_stdio_output@@V?$standard_base@DV?$string_output_adapter@D@__crt_stdio_output@@@2@@__crt_stdio_output@@CADH_N@Z 1003dbd5 f i libucrt:output.obj
 0001:0003cbfa       ?adjust_hexit@?$output_processor@_WV?$stream_output_adapter@_W@__crt_stdio_output@@V?$format_validation_base@_WV?$stream_output_adapter@_W@__crt_stdio_output@@@2@@__crt_stdio_output@@CADH_N@Z 1003dbfa f i libucrt:output.obj
 0001:0003cc1f       ?adjust_hexit@?$output_processor@_WV?$stream_output_adapter@_W@__crt_stdio_output@@V?$positional_parameter_base@_WV?$stream_output_adapter@_W@__crt_stdio_output@@@2@@__crt_stdio_output@@CADH_N@Z 1003dc1f f i libucrt:output.obj
 0001:0003cc44       ?adjust_hexit@?$output_processor@_WV?$stream_output_adapter@_W@__crt_stdio_output@@V?$standard_base@_WV?$stream_output_adapter@_W@__crt_stdio_output@@@2@@__crt_stdio_output@@CADH_N@Z 1003dc44 f i libucrt:output.obj
 0001:0003cc69       ?adjust_hexit@?$output_processor@_WV?$string_output_adapter@_W@__crt_stdio_output@@V?$format_validation_base@_WV?$string_output_adapter@_W@__crt_stdio_output@@@2@@__crt_stdio_output@@CADH_N@Z 1003dc69 f i libucrt:output.obj
 0001:0003cc8e       ?adjust_hexit@?$output_processor@_WV?$string_output_adapter@_W@__crt_stdio_output@@V?$positional_parameter_base@_WV?$string_output_adapter@_W@__crt_stdio_output@@@2@@__crt_stdio_output@@CADH_N@Z 1003dc8e f i libucrt:output.obj
 0001:0003ccb3       ?adjust_hexit@?$output_processor@_WV?$string_output_adapter@_W@__crt_stdio_output@@V?$standard_base@_WV?$string_output_adapter@_W@__crt_stdio_output@@@2@@__crt_stdio_output@@CADH_N@Z 1003dcb3 f i libucrt:output.obj
 0001:0003ccd8       ?advance_to_next_pass@?$positional_parameter_base@DV?$stream_output_adapter@D@__crt_stdio_output@@@__crt_stdio_output@@IAE_NXZ 1003dcd8 f i libucrt:output.obj
 0001:0003cd37       ?advance_to_next_pass@?$positional_parameter_base@DV?$string_output_adapter@D@__crt_stdio_output@@@__crt_stdio_output@@IAE_NXZ 1003dd37 f i libucrt:output.obj
 0001:0003cd96       ?advance_to_next_pass@?$positional_parameter_base@_WV?$stream_output_adapter@_W@__crt_stdio_output@@@__crt_stdio_output@@IAE_NXZ 1003dd96 f i libucrt:output.obj
 0001:0003cdf5       ?advance_to_next_pass@?$positional_parameter_base@_WV?$string_output_adapter@_W@__crt_stdio_output@@@__crt_stdio_output@@IAE_NXZ 1003ddf5 f i libucrt:output.obj
 0001:0003ce54       ?advance_to_next_pass@?$standard_base@DV?$stream_output_adapter@D@__crt_stdio_output@@@__crt_stdio_output@@IAE_NXZ 1003de54 f i libucrt:output.obj
 0001:0003ce6b       ?advance_to_next_pass@?$standard_base@DV?$string_output_adapter@D@__crt_stdio_output@@@__crt_stdio_output@@IAE_NXZ 1003de6b f i libucrt:output.obj
 0001:0003ce82       ?advance_to_next_pass@?$standard_base@_WV?$stream_output_adapter@_W@__crt_stdio_output@@@__crt_stdio_output@@IAE_NXZ 1003de82 f i libucrt:output.obj
 0001:0003ce99       ?advance_to_next_pass@?$standard_base@_WV?$string_output_adapter@_W@__crt_stdio_output@@@__crt_stdio_output@@IAE_NXZ 1003de99 f i libucrt:output.obj
 0001:0003ceb0       ?crop_zeroes@__crt_stdio_output@@YAXPADQAU__crt_locale_pointers@@@Z 1003deb0 f i libucrt:output.obj
 0001:0003cf1c       ?find_next_state@?$output_processor@DV?$stream_output_adapter@D@__crt_stdio_output@@V?$format_validation_base@DV?$stream_output_adapter@D@__crt_stdio_output@@@2@@__crt_stdio_output@@ABE?AW4state@2@DW432@@Z 1003df1c f i libucrt:output.obj
 0001:0003cf5e       ?find_next_state@?$output_processor@DV?$stream_output_adapter@D@__crt_stdio_output@@V?$positional_parameter_base@DV?$stream_output_adapter@D@__crt_stdio_output@@@2@@__crt_stdio_output@@ABE?AW4state@2@DW432@@Z 1003df5e f i libucrt:output.obj
 0001:0003cfa0       ?find_next_state@?$output_processor@DV?$stream_output_adapter@D@__crt_stdio_output@@V?$standard_base@DV?$stream_output_adapter@D@__crt_stdio_output@@@2@@__crt_stdio_output@@ABE?AW4state@2@DW432@@Z 1003dfa0 f i libucrt:output.obj
 0001:0003cfde       ?find_next_state@?$output_processor@DV?$string_output_adapter@D@__crt_stdio_output@@V?$format_validation_base@DV?$string_output_adapter@D@__crt_stdio_output@@@2@@__crt_stdio_output@@ABE?AW4state@2@DW432@@Z 1003dfde f i libucrt:output.obj
 0001:0003d020       ?find_next_state@?$output_processor@DV?$string_output_adapter@D@__crt_stdio_output@@V?$positional_parameter_base@DV?$string_output_adapter@D@__crt_stdio_output@@@2@@__crt_stdio_output@@ABE?AW4state@2@DW432@@Z 1003e020 f i libucrt:output.obj
 0001:0003d062       ?find_next_state@?$output_processor@DV?$string_output_adapter@D@__crt_stdio_output@@V?$standard_base@DV?$string_output_adapter@D@__crt_stdio_output@@@2@@__crt_stdio_output@@ABE?AW4state@2@DW432@@Z 1003e062 f i libucrt:output.obj
 0001:0003d0a0       ?find_next_state@?$output_processor@_WV?$stream_output_adapter@_W@__crt_stdio_output@@V?$format_validation_base@_WV?$stream_output_adapter@_W@__crt_stdio_output@@@2@@__crt_stdio_output@@ABE?AW4state@2@_WW432@@Z 1003e0a0 f i libucrt:output.obj
 0001:0003d0e4       ?find_next_state@?$output_processor@_WV?$stream_output_adapter@_W@__crt_stdio_output@@V?$positional_parameter_base@_WV?$stream_output_adapter@_W@__crt_stdio_output@@@2@@__crt_stdio_output@@ABE?AW4state@2@_WW432@@Z 1003e0e4 f i libucrt:output.obj
 0001:0003d128       ?find_next_state@?$output_processor@_WV?$stream_output_adapter@_W@__crt_stdio_output@@V?$standard_base@_WV?$stream_output_adapter@_W@__crt_stdio_output@@@2@@__crt_stdio_output@@ABE?AW4state@2@_WW432@@Z 1003e128 f i libucrt:output.obj
 0001:0003d169       ?find_next_state@?$output_processor@_WV?$string_output_adapter@_W@__crt_stdio_output@@V?$format_validation_base@_WV?$string_output_adapter@_W@__crt_stdio_output@@@2@@__crt_stdio_output@@ABE?AW4state@2@_WW432@@Z 1003e169 f i libucrt:output.obj
 0001:0003d1ad       ?find_next_state@?$output_processor@_WV?$string_output_adapter@_W@__crt_stdio_output@@V?$positional_parameter_base@_WV?$string_output_adapter@_W@__crt_stdio_output@@@2@@__crt_stdio_output@@ABE?AW4state@2@_WW432@@Z 1003e1ad f i libucrt:output.obj
 0001:0003d1f1       ?find_next_state@?$output_processor@_WV?$string_output_adapter@_W@__crt_stdio_output@@V?$standard_base@_WV?$string_output_adapter@_W@__crt_stdio_output@@@2@@__crt_stdio_output@@ABE?AW4state@2@_WW432@@Z 1003e1f1 f i libucrt:output.obj
 0001:0003d232       ?force_decimal_point@__crt_stdio_output@@YAXPADQAU__crt_locale_pointers@@@Z 1003e232 f i libucrt:output.obj
 0001:0003d2a5       ?get_flags@__crt_stdio_stream@@QBEJXZ 1003e2a5 f i libucrt:output.obj
 0001:0003d2ab       ?get_parameter_type@?$positional_parameter_base@DV?$stream_output_adapter@D@__crt_stdio_output@@@__crt_stdio_output@@CA?AW4parameter_type@12@F@Z 1003e2ab f i libucrt:output.obj
 0001:0003d2af       ?get_parameter_type@?$positional_parameter_base@DV?$stream_output_adapter@D@__crt_stdio_output@@@__crt_stdio_output@@CA?AW4parameter_type@12@G@Z 1003e2af f i libucrt:output.obj
 0001:0003d2b3       ?get_parameter_type@?$positional_parameter_base@DV?$stream_output_adapter@D@__crt_stdio_output@@@__crt_stdio_output@@CA?AW4parameter_type@12@H@Z 1003e2b3 f i libucrt:output.obj
 0001:0003d2b7       ?get_parameter_type@?$positional_parameter_base@DV?$stream_output_adapter@D@__crt_stdio_output@@@__crt_stdio_output@@CA?AW4parameter_type@12@I@Z 1003e2b7 f i libucrt:output.obj
 0001:0003d2bb       ?get_parameter_type@?$positional_parameter_base@DV?$stream_output_adapter@D@__crt_stdio_output@@@__crt_stdio_output@@CA?AW4parameter_type@12@U_CRT_DOUBLE@@@Z 1003e2bb f i libucrt:output.obj
 0001:0003d2bf       ?get_parameter_type@?$positional_parameter_base@DV?$stream_output_adapter@D@__crt_stdio_output@@@__crt_stdio_output@@CA?AW4parameter_type@12@_J@Z 1003e2bf f i libucrt:output.obj
 0001:0003d2c3       ?get_parameter_type@?$positional_parameter_base@DV?$stream_output_adapter@D@__crt_stdio_output@@@__crt_stdio_output@@CA?AW4parameter_type@12@_K@Z 1003e2c3 f i libucrt:output.obj
 0001:0003d2c7       ?get_parameter_type@?$positional_parameter_base@DV?$stream_output_adapter@D@__crt_stdio_output@@@__crt_stdio_output@@CA?AW4parameter_type@12@_W@Z 1003e2c7 f i libucrt:output.obj
 0001:0003d2cb       ?get_parameter_type@?$positional_parameter_base@DV?$string_output_adapter@D@__crt_stdio_output@@@__crt_stdio_output@@CA?AW4parameter_type@12@F@Z 1003e2cb f i libucrt:output.obj
 0001:0003d2cf       ?get_parameter_type@?$positional_parameter_base@DV?$string_output_adapter@D@__crt_stdio_output@@@__crt_stdio_output@@CA?AW4parameter_type@12@G@Z 1003e2cf f i libucrt:output.obj
 0001:0003d2d3       ?get_parameter_type@?$positional_parameter_base@DV?$string_output_adapter@D@__crt_stdio_output@@@__crt_stdio_output@@CA?AW4parameter_type@12@H@Z 1003e2d3 f i libucrt:output.obj
 0001:0003d2d7       ?get_parameter_type@?$positional_parameter_base@DV?$string_output_adapter@D@__crt_stdio_output@@@__crt_stdio_output@@CA?AW4parameter_type@12@I@Z 1003e2d7 f i libucrt:output.obj
 0001:0003d2db       ?get_parameter_type@?$positional_parameter_base@DV?$string_output_adapter@D@__crt_stdio_output@@@__crt_stdio_output@@CA?AW4parameter_type@12@U_CRT_DOUBLE@@@Z 1003e2db f i libucrt:output.obj
 0001:0003d2df       ?get_parameter_type@?$positional_parameter_base@DV?$string_output_adapter@D@__crt_stdio_output@@@__crt_stdio_output@@CA?AW4parameter_type@12@_J@Z 1003e2df f i libucrt:output.obj
 0001:0003d2e3       ?get_parameter_type@?$positional_parameter_base@DV?$string_output_adapter@D@__crt_stdio_output@@@__crt_stdio_output@@CA?AW4parameter_type@12@_K@Z 1003e2e3 f i libucrt:output.obj
 0001:0003d2e7       ?get_parameter_type@?$positional_parameter_base@DV?$string_output_adapter@D@__crt_stdio_output@@@__crt_stdio_output@@CA?AW4parameter_type@12@_W@Z 1003e2e7 f i libucrt:output.obj
 0001:0003d2eb       ?get_parameter_type@?$positional_parameter_base@_WV?$stream_output_adapter@_W@__crt_stdio_output@@@__crt_stdio_output@@CA?AW4parameter_type@12@F@Z 1003e2eb f i libucrt:output.obj
 0001:0003d2ef       ?get_parameter_type@?$positional_parameter_base@_WV?$stream_output_adapter@_W@__crt_stdio_output@@@__crt_stdio_output@@CA?AW4parameter_type@12@G@Z 1003e2ef f i libucrt:output.obj
 0001:0003d2f3       ?get_parameter_type@?$positional_parameter_base@_WV?$stream_output_adapter@_W@__crt_stdio_output@@@__crt_stdio_output@@CA?AW4parameter_type@12@H@Z 1003e2f3 f i libucrt:output.obj
 0001:0003d2f7       ?get_parameter_type@?$positional_parameter_base@_WV?$stream_output_adapter@_W@__crt_stdio_output@@@__crt_stdio_output@@CA?AW4parameter_type@12@I@Z 1003e2f7 f i libucrt:output.obj
 0001:0003d2fb       ?get_parameter_type@?$positional_parameter_base@_WV?$stream_output_adapter@_W@__crt_stdio_output@@@__crt_stdio_output@@CA?AW4parameter_type@12@U_CRT_DOUBLE@@@Z 1003e2fb f i libucrt:output.obj
 0001:0003d2ff       ?get_parameter_type@?$positional_parameter_base@_WV?$stream_output_adapter@_W@__crt_stdio_output@@@__crt_stdio_output@@CA?AW4parameter_type@12@_J@Z 1003e2ff f i libucrt:output.obj
 0001:0003d303       ?get_parameter_type@?$positional_parameter_base@_WV?$stream_output_adapter@_W@__crt_stdio_output@@@__crt_stdio_output@@CA?AW4parameter_type@12@_K@Z 1003e303 f i libucrt:output.obj
 0001:0003d307       ?get_parameter_type@?$positional_parameter_base@_WV?$stream_output_adapter@_W@__crt_stdio_output@@@__crt_stdio_output@@CA?AW4parameter_type@12@_W@Z 1003e307 f i libucrt:output.obj
 0001:0003d30b       ?get_parameter_type@?$positional_parameter_base@_WV?$string_output_adapter@_W@__crt_stdio_output@@@__crt_stdio_output@@CA?AW4parameter_type@12@F@Z 1003e30b f i libucrt:output.obj
 0001:0003d30f       ?get_parameter_type@?$positional_parameter_base@_WV?$string_output_adapter@_W@__crt_stdio_output@@@__crt_stdio_output@@CA?AW4parameter_type@12@G@Z 1003e30f f i libucrt:output.obj
 0001:0003d313       ?get_parameter_type@?$positional_parameter_base@_WV?$string_output_adapter@_W@__crt_stdio_output@@@__crt_stdio_output@@CA?AW4parameter_type@12@H@Z 1003e313 f i libucrt:output.obj
 0001:0003d317       ?get_parameter_type@?$positional_parameter_base@_WV?$string_output_adapter@_W@__crt_stdio_output@@@__crt_stdio_output@@CA?AW4parameter_type@12@I@Z 1003e317 f i libucrt:output.obj
 0001:0003d31b       ?get_parameter_type@?$positional_parameter_base@_WV?$string_output_adapter@_W@__crt_stdio_output@@@__crt_stdio_output@@CA?AW4parameter_type@12@U_CRT_DOUBLE@@@Z 1003e31b f i libucrt:output.obj
 0001:0003d31f       ?get_parameter_type@?$positional_parameter_base@_WV?$string_output_adapter@_W@__crt_stdio_output@@@__crt_stdio_output@@CA?AW4parameter_type@12@_J@Z 1003e31f f i libucrt:output.obj
 0001:0003d323       ?get_parameter_type@?$positional_parameter_base@_WV?$string_output_adapter@_W@__crt_stdio_output@@@__crt_stdio_output@@CA?AW4parameter_type@12@_K@Z 1003e323 f i libucrt:output.obj
 0001:0003d327       ?get_parameter_type@?$positional_parameter_base@_WV?$string_output_adapter@_W@__crt_stdio_output@@@__crt_stdio_output@@CA?AW4parameter_type@12@_W@Z 1003e327 f i libucrt:output.obj
 0001:0003d32b       ?has_flag@?$output_processor@DV?$stream_output_adapter@D@__crt_stdio_output@@V?$format_validation_base@DV?$stream_output_adapter@D@__crt_stdio_output@@@2@@__crt_stdio_output@@ABE_NI@Z 1003e32b f i libucrt:output.obj
 0001:0003d345       ?has_flag@?$output_processor@DV?$stream_output_adapter@D@__crt_stdio_output@@V?$positional_parameter_base@DV?$stream_output_adapter@D@__crt_stdio_output@@@2@@__crt_stdio_output@@ABE_NI@Z 1003e345 f i libucrt:output.obj
 0001:0003d35f       ?has_flag@?$output_processor@DV?$stream_output_adapter@D@__crt_stdio_output@@V?$standard_base@DV?$stream_output_adapter@D@__crt_stdio_output@@@2@@__crt_stdio_output@@ABE_NI@Z 1003e35f f i libucrt:output.obj
 0001:0003d379       ?has_flag@?$output_processor@DV?$string_output_adapter@D@__crt_stdio_output@@V?$format_validation_base@DV?$string_output_adapter@D@__crt_stdio_output@@@2@@__crt_stdio_output@@ABE_NI@Z 1003e379 f i libucrt:output.obj
 0001:0003d393       ?has_flag@?$output_processor@DV?$string_output_adapter@D@__crt_stdio_output@@V?$positional_parameter_base@DV?$string_output_adapter@D@__crt_stdio_output@@@2@@__crt_stdio_output@@ABE_NI@Z 1003e393 f i libucrt:output.obj
 0001:0003d3ad       ?has_flag@?$output_processor@DV?$string_output_adapter@D@__crt_stdio_output@@V?$standard_base@DV?$string_output_adapter@D@__crt_stdio_output@@@2@@__crt_stdio_output@@ABE_NI@Z 1003e3ad f i libucrt:output.obj
 0001:0003d3c7       ?has_flag@?$output_processor@_WV?$stream_output_adapter@_W@__crt_stdio_output@@V?$format_validation_base@_WV?$stream_output_adapter@_W@__crt_stdio_output@@@2@@__crt_stdio_output@@ABE_NI@Z 1003e3c7 f i libucrt:output.obj
 0001:0003d3e1       ?has_flag@?$output_processor@_WV?$stream_output_adapter@_W@__crt_stdio_output@@V?$positional_parameter_base@_WV?$stream_output_adapter@_W@__crt_stdio_output@@@2@@__crt_stdio_output@@ABE_NI@Z 1003e3e1 f i libucrt:output.obj
 0001:0003d3fb       ?has_flag@?$output_processor@_WV?$stream_output_adapter@_W@__crt_stdio_output@@V?$standard_base@_WV?$stream_output_adapter@_W@__crt_stdio_output@@@2@@__crt_stdio_output@@ABE_NI@Z 1003e3fb f i libucrt:output.obj
 0001:0003d415       ?has_flag@?$output_processor@_WV?$string_output_adapter@_W@__crt_stdio_output@@V?$format_validation_base@_WV?$string_output_adapter@_W@__crt_stdio_output@@@2@@__crt_stdio_output@@ABE_NI@Z 1003e415 f i libucrt:output.obj
 0001:0003d42f       ?has_flag@?$output_processor@_WV?$string_output_adapter@_W@__crt_stdio_output@@V?$positional_parameter_base@_WV?$string_output_adapter@_W@__crt_stdio_output@@@2@@__crt_stdio_output@@ABE_NI@Z 1003e42f f i libucrt:output.obj
 0001:0003d449       ?has_flag@?$output_processor@_WV?$string_output_adapter@_W@__crt_stdio_output@@V?$standard_base@_WV?$string_output_adapter@_W@__crt_stdio_output@@@2@@__crt_stdio_output@@ABE_NI@Z 1003e449 f i libucrt:output.obj
 0001:0003d463       ?is_positional_parameter_reappearance_consistent@?$positional_parameter_base@DV?$stream_output_adapter@D@__crt_stdio_output@@@__crt_stdio_output@@AAE_NABUparameter_data@12@W4parameter_type@12@DW4length_modifier@2@@Z 1003e463 f i libucrt:output.obj
 0001:0003d5dc       ?is_positional_parameter_reappearance_consistent@?$positional_parameter_base@DV?$string_output_adapter@D@__crt_stdio_output@@@__crt_stdio_output@@AAE_NABUparameter_data@12@W4parameter_type@12@DW4length_modifier@2@@Z 1003e5dc f i libucrt:output.obj
 0001:0003d755       ?is_positional_parameter_reappearance_consistent@?$positional_parameter_base@_WV?$stream_output_adapter@_W@__crt_stdio_output@@@__crt_stdio_output@@AAE_NABUparameter_data@12@W4parameter_type@12@_WW4length_modifier@2@@Z 1003e755 f i libucrt:output.obj
 0001:0003d8c0       ?is_positional_parameter_reappearance_consistent@?$positional_parameter_base@_WV?$string_output_adapter@_W@__crt_stdio_output@@@__crt_stdio_output@@AAE_NABUparameter_data@12@W4parameter_type@12@_WW4length_modifier@2@@Z 1003e8c0 f i libucrt:output.obj
 0001:0003da2b       ?is_string_backed@__crt_stdio_stream@@QBE_NXZ 1003ea2b f i libucrt:output.obj
 0001:0003da3a       ?narrow_null_string@?$output_processor@DV?$stream_output_adapter@D@__crt_stdio_output@@V?$format_validation_base@DV?$stream_output_adapter@D@__crt_stdio_output@@@2@@__crt_stdio_output@@CAPADXZ 1003ea3a f i libucrt:output.obj
 0001:0003da40       ?narrow_null_string@?$output_processor@DV?$stream_output_adapter@D@__crt_stdio_output@@V?$positional_parameter_base@DV?$stream_output_adapter@D@__crt_stdio_output@@@2@@__crt_stdio_output@@CAPADXZ 1003ea40 f i libucrt:output.obj
 0001:0003da46       ?narrow_null_string@?$output_processor@DV?$stream_output_adapter@D@__crt_stdio_output@@V?$standard_base@DV?$stream_output_adapter@D@__crt_stdio_output@@@2@@__crt_stdio_output@@CAPADXZ 1003ea46 f i libucrt:output.obj
 0001:0003da4c       ?narrow_null_string@?$output_processor@DV?$string_output_adapter@D@__crt_stdio_output@@V?$format_validation_base@DV?$string_output_adapter@D@__crt_stdio_output@@@2@@__crt_stdio_output@@CAPADXZ 1003ea4c f i libucrt:output.obj
 0001:0003da52       ?narrow_null_string@?$output_processor@DV?$string_output_adapter@D@__crt_stdio_output@@V?$positional_parameter_base@DV?$string_output_adapter@D@__crt_stdio_output@@@2@@__crt_stdio_output@@CAPADXZ 1003ea52 f i libucrt:output.obj
 0001:0003da58       ?narrow_null_string@?$output_processor@DV?$string_output_adapter@D@__crt_stdio_output@@V?$standard_base@DV?$string_output_adapter@D@__crt_stdio_output@@@2@@__crt_stdio_output@@CAPADXZ 1003ea58 f i libucrt:output.obj
 0001:0003da5e       ?narrow_null_string@?$output_processor@_WV?$stream_output_adapter@_W@__crt_stdio_output@@V?$format_validation_base@_WV?$stream_output_adapter@_W@__crt_stdio_output@@@2@@__crt_stdio_output@@CAPADXZ 1003ea5e f i libucrt:output.obj
 0001:0003da64       ?narrow_null_string@?$output_processor@_WV?$stream_output_adapter@_W@__crt_stdio_output@@V?$positional_parameter_base@_WV?$stream_output_adapter@_W@__crt_stdio_output@@@2@@__crt_stdio_output@@CAPADXZ 1003ea64 f i libucrt:output.obj
 0001:0003da6a       ?narrow_null_string@?$output_processor@_WV?$stream_output_adapter@_W@__crt_stdio_output@@V?$standard_base@_WV?$stream_output_adapter@_W@__crt_stdio_output@@@2@@__crt_stdio_output@@CAPADXZ 1003ea6a f i libucrt:output.obj
 0001:0003da70       ?narrow_null_string@?$output_processor@_WV?$string_output_adapter@_W@__crt_stdio_output@@V?$format_validation_base@_WV?$string_output_adapter@_W@__crt_stdio_output@@@2@@__crt_stdio_output@@CAPADXZ 1003ea70 f i libucrt:output.obj
 0001:0003da76       ?narrow_null_string@?$output_processor@_WV?$string_output_adapter@_W@__crt_stdio_output@@V?$positional_parameter_base@_WV?$string_output_adapter@_W@__crt_stdio_output@@@2@@__crt_stdio_output@@CAPADXZ 1003ea76 f i libucrt:output.obj
 0001:0003da7c       ?narrow_null_string@?$output_processor@_WV?$string_output_adapter@_W@__crt_stdio_output@@V?$standard_base@_WV?$string_output_adapter@_W@__crt_stdio_output@@@2@@__crt_stdio_output@@CAPADXZ 1003ea7c f i libucrt:output.obj
 0001:0003da82       ?parse_int_from_format_string@?$output_processor@DV?$stream_output_adapter@D@__crt_stdio_output@@V?$format_validation_base@DV?$stream_output_adapter@D@__crt_stdio_output@@@2@@__crt_stdio_output@@AAE_NQAH@Z 1003ea82 f i libucrt:output.obj
 0001:0003daf5       ?parse_int_from_format_string@?$output_processor@DV?$stream_output_adapter@D@__crt_stdio_output@@V?$positional_parameter_base@DV?$stream_output_adapter@D@__crt_stdio_output@@@2@@__crt_stdio_output@@AAE_NQAH@Z 1003eaf5 f i libucrt:output.obj
 0001:0003db68       ?parse_int_from_format_string@?$output_processor@DV?$stream_output_adapter@D@__crt_stdio_output@@V?$standard_base@DV?$stream_output_adapter@D@__crt_stdio_output@@@2@@__crt_stdio_output@@AAE_NQAH@Z 1003eb68 f i libucrt:output.obj
 0001:0003dbdb       ?parse_int_from_format_string@?$output_processor@DV?$string_output_adapter@D@__crt_stdio_output@@V?$format_validation_base@DV?$string_output_adapter@D@__crt_stdio_output@@@2@@__crt_stdio_output@@AAE_NQAH@Z 1003ebdb f i libucrt:output.obj
 0001:0003dc4e       ?parse_int_from_format_string@?$output_processor@DV?$string_output_adapter@D@__crt_stdio_output@@V?$positional_parameter_base@DV?$string_output_adapter@D@__crt_stdio_output@@@2@@__crt_stdio_output@@AAE_NQAH@Z 1003ec4e f i libucrt:output.obj
 0001:0003dcc1       ?parse_int_from_format_string@?$output_processor@DV?$string_output_adapter@D@__crt_stdio_output@@V?$standard_base@DV?$string_output_adapter@D@__crt_stdio_output@@@2@@__crt_stdio_output@@AAE_NQAH@Z 1003ecc1 f i libucrt:output.obj
 0001:0003dd34       ?parse_int_from_format_string@?$output_processor@_WV?$stream_output_adapter@_W@__crt_stdio_output@@V?$format_validation_base@_WV?$stream_output_adapter@_W@__crt_stdio_output@@@2@@__crt_stdio_output@@AAE_NQAH@Z 1003ed34 f i libucrt:output.obj
 0001:0003dda9       ?parse_int_from_format_string@?$output_processor@_WV?$stream_output_adapter@_W@__crt_stdio_output@@V?$positional_parameter_base@_WV?$stream_output_adapter@_W@__crt_stdio_output@@@2@@__crt_stdio_output@@AAE_NQAH@Z 1003eda9 f i libucrt:output.obj
 0001:0003de1e       ?parse_int_from_format_string@?$output_processor@_WV?$stream_output_adapter@_W@__crt_stdio_output@@V?$standard_base@_WV?$stream_output_adapter@_W@__crt_stdio_output@@@2@@__crt_stdio_output@@AAE_NQAH@Z 1003ee1e f i libucrt:output.obj
 0001:0003de93       ?parse_int_from_format_string@?$output_processor@_WV?$string_output_adapter@_W@__crt_stdio_output@@V?$format_validation_base@_WV?$string_output_adapter@_W@__crt_stdio_output@@@2@@__crt_stdio_output@@AAE_NQAH@Z 1003ee93 f i libucrt:output.obj
 0001:0003df08       ?parse_int_from_format_string@?$output_processor@_WV?$string_output_adapter@_W@__crt_stdio_output@@V?$positional_parameter_base@_WV?$string_output_adapter@_W@__crt_stdio_output@@@2@@__crt_stdio_output@@AAE_NQAH@Z 1003ef08 f i libucrt:output.obj
 0001:0003df7d       ?parse_int_from_format_string@?$output_processor@_WV?$string_output_adapter@_W@__crt_stdio_output@@V?$standard_base@_WV?$string_output_adapter@_W@__crt_stdio_output@@@2@@__crt_stdio_output@@AAE_NQAH@Z 1003ef7d f i libucrt:output.obj
 0001:0003dff2       ?process@?$output_processor@DV?$stream_output_adapter@D@__crt_stdio_output@@V?$format_validation_base@DV?$stream_output_adapter@D@__crt_stdio_output@@@2@@__crt_stdio_output@@QAEHXZ 1003eff2 f i libucrt:output.obj
 0001:0003e164       ?process@?$output_processor@DV?$stream_output_adapter@D@__crt_stdio_output@@V?$positional_parameter_base@DV?$stream_output_adapter@D@__crt_stdio_output@@@2@@__crt_stdio_output@@QAEHXZ 1003f164 f i libucrt:output.obj
 0001:0003e317       ?process@?$output_processor@DV?$stream_output_adapter@D@__crt_stdio_output@@V?$standard_base@DV?$stream_output_adapter@D@__crt_stdio_output@@@2@@__crt_stdio_output@@QAEHXZ 1003f317 f i libucrt:output.obj
 0001:0003e47a       ?process@?$output_processor@DV?$string_output_adapter@D@__crt_stdio_output@@V?$format_validation_base@DV?$string_output_adapter@D@__crt_stdio_output@@@2@@__crt_stdio_output@@QAEHXZ 1003f47a f i libucrt:output.obj
 0001:0003e5ec       ?process@?$output_processor@DV?$string_output_adapter@D@__crt_stdio_output@@V?$positional_parameter_base@DV?$string_output_adapter@D@__crt_stdio_output@@@2@@__crt_stdio_output@@QAEHXZ 1003f5ec f i libucrt:output.obj
 0001:0003e79f       ?process@?$output_processor@DV?$string_output_adapter@D@__crt_stdio_output@@V?$standard_base@DV?$string_output_adapter@D@__crt_stdio_output@@@2@@__crt_stdio_output@@QAEHXZ 1003f79f f i libucrt:output.obj
 0001:0003e902       ?process@?$output_processor@_WV?$stream_output_adapter@_W@__crt_stdio_output@@V?$format_validation_base@_WV?$stream_output_adapter@_W@__crt_stdio_output@@@2@@__crt_stdio_output@@QAEHXZ 1003f902 f i libucrt:output.obj
 0001:0003ea7e       ?process@?$output_processor@_WV?$stream_output_adapter@_W@__crt_stdio_output@@V?$positional_parameter_base@_WV?$stream_output_adapter@_W@__crt_stdio_output@@@2@@__crt_stdio_output@@QAEHXZ 1003fa7e f i libucrt:output.obj
 0001:0003ec36       ?process@?$output_processor@_WV?$stream_output_adapter@_W@__crt_stdio_output@@V?$standard_base@_WV?$stream_output_adapter@_W@__crt_stdio_output@@@2@@__crt_stdio_output@@QAEHXZ 1003fc36 f i libucrt:output.obj
 0001:0003ed9e       ?process@?$output_processor@_WV?$string_output_adapter@_W@__crt_stdio_output@@V?$format_validation_base@_WV?$string_output_adapter@_W@__crt_stdio_output@@@2@@__crt_stdio_output@@QAEHXZ 1003fd9e f i libucrt:output.obj
 0001:0003ef1a       ?process@?$output_processor@_WV?$string_output_adapter@_W@__crt_stdio_output@@V?$positional_parameter_base@_WV?$string_output_adapter@_W@__crt_stdio_output@@@2@@__crt_stdio_output@@QAEHXZ 1003ff1a f i libucrt:output.obj
 0001:0003f0d2       ?process@?$output_processor@_WV?$string_output_adapter@_W@__crt_stdio_output@@V?$standard_base@_WV?$string_output_adapter@_W@__crt_stdio_output@@@2@@__crt_stdio_output@@QAEHXZ 100400d2 f i libucrt:output.obj
 0001:0003f23a       ?public_stream@__crt_stdio_stream@@QBEPAU_iobuf@@XZ 1004023a f i libucrt:output.obj
 0001:0003f23d       ?set_flag@?$output_processor@DV?$stream_output_adapter@D@__crt_stdio_output@@V?$format_validation_base@DV?$stream_output_adapter@D@__crt_stdio_output@@@2@@__crt_stdio_output@@AAEXI@Z 1004023d f i libucrt:output.obj
 0001:0003f24f       ?set_flag@?$output_processor@DV?$stream_output_adapter@D@__crt_stdio_output@@V?$positional_parameter_base@DV?$stream_output_adapter@D@__crt_stdio_output@@@2@@__crt_stdio_output@@AAEXI@Z 1004024f f i libucrt:output.obj
 0001:0003f261       ?set_flag@?$output_processor@DV?$stream_output_adapter@D@__crt_stdio_output@@V?$standard_base@DV?$stream_output_adapter@D@__crt_stdio_output@@@2@@__crt_stdio_output@@AAEXI@Z 10040261 f i libucrt:output.obj
 0001:0003f273       ?set_flag@?$output_processor@DV?$string_output_adapter@D@__crt_stdio_output@@V?$format_validation_base@DV?$string_output_adapter@D@__crt_stdio_output@@@2@@__crt_stdio_output@@AAEXI@Z 10040273 f i libucrt:output.obj
 0001:0003f285       ?set_flag@?$output_processor@DV?$string_output_adapter@D@__crt_stdio_output@@V?$positional_parameter_base@DV?$string_output_adapter@D@__crt_stdio_output@@@2@@__crt_stdio_output@@AAEXI@Z 10040285 f i libucrt:output.obj
 0001:0003f297       ?set_flag@?$output_processor@DV?$string_output_adapter@D@__crt_stdio_output@@V?$standard_base@DV?$string_output_adapter@D@__crt_stdio_output@@@2@@__crt_stdio_output@@AAEXI@Z 10040297 f i libucrt:output.obj
 0001:0003f2a9       ?set_flag@?$output_processor@_WV?$stream_output_adapter@_W@__crt_stdio_output@@V?$format_validation_base@_WV?$stream_output_adapter@_W@__crt_stdio_output@@@2@@__crt_stdio_output@@AAEXI@Z 100402a9 f i libucrt:output.obj
 0001:0003f2bb       ?set_flag@?$output_processor@_WV?$stream_output_adapter@_W@__crt_stdio_output@@V?$positional_parameter_base@_WV?$stream_output_adapter@_W@__crt_stdio_output@@@2@@__crt_stdio_output@@AAEXI@Z 100402bb f i libucrt:output.obj
 0001:0003f2cd       ?set_flag@?$output_processor@_WV?$stream_output_adapter@_W@__crt_stdio_output@@V?$standard_base@_WV?$stream_output_adapter@_W@__crt_stdio_output@@@2@@__crt_stdio_output@@AAEXI@Z 100402cd f i libucrt:output.obj
 0001:0003f2df       ?set_flag@?$output_processor@_WV?$string_output_adapter@_W@__crt_stdio_output@@V?$format_validation_base@_WV?$string_output_adapter@_W@__crt_stdio_output@@@2@@__crt_stdio_output@@AAEXI@Z 100402df f i libucrt:output.obj
 0001:0003f2f1       ?set_flag@?$output_processor@_WV?$string_output_adapter@_W@__crt_stdio_output@@V?$positional_parameter_base@_WV?$string_output_adapter@_W@__crt_stdio_output@@@2@@__crt_stdio_output@@AAEXI@Z 100402f1 f i libucrt:output.obj
 0001:0003f303       ?set_flag@?$output_processor@_WV?$string_output_adapter@_W@__crt_stdio_output@@V?$standard_base@_WV?$string_output_adapter@_W@__crt_stdio_output@@@2@@__crt_stdio_output@@AAEXI@Z 10040303 f i libucrt:output.obj
 0001:0003f315       ?should_format@?$positional_parameter_base@DV?$stream_output_adapter@D@__crt_stdio_output@@@__crt_stdio_output@@IAE_NXZ 10040315 f i libucrt:output.obj
 0001:0003f330       ?should_format@?$positional_parameter_base@DV?$string_output_adapter@D@__crt_stdio_output@@@__crt_stdio_output@@IAE_NXZ 10040330 f i libucrt:output.obj
 0001:0003f34b       ?should_format@?$positional_parameter_base@_WV?$stream_output_adapter@_W@__crt_stdio_output@@@__crt_stdio_output@@IAE_NXZ 1004034b f i libucrt:output.obj
 0001:0003f366       ?should_format@?$positional_parameter_base@_WV?$string_output_adapter@_W@__crt_stdio_output@@@__crt_stdio_output@@IAE_NXZ 10040366 f i libucrt:output.obj
 0001:0003f381       ?should_format@?$standard_base@DV?$stream_output_adapter@D@__crt_stdio_output@@@__crt_stdio_output@@IAE_NXZ 10040381 f i libucrt:output.obj
 0001:0003f384       ?should_format@?$standard_base@DV?$string_output_adapter@D@__crt_stdio_output@@@__crt_stdio_output@@IAE_NXZ 10040384 f i libucrt:output.obj
 0001:0003f387       ?should_format@?$standard_base@_WV?$stream_output_adapter@_W@__crt_stdio_output@@@__crt_stdio_output@@IAE_NXZ 10040387 f i libucrt:output.obj
 0001:0003f38a       ?should_format@?$standard_base@_WV?$string_output_adapter@_W@__crt_stdio_output@@@__crt_stdio_output@@IAE_NXZ 1004038a f i libucrt:output.obj
 0001:0003f38d       ?should_skip_normal_state_processing@?$positional_parameter_base@DV?$stream_output_adapter@D@__crt_stdio_output@@@__crt_stdio_output@@IAE_NXZ 1004038d f i libucrt:output.obj
 0001:0003f3bf       ?should_skip_normal_state_processing@?$positional_parameter_base@DV?$string_output_adapter@D@__crt_stdio_output@@@__crt_stdio_output@@IAE_NXZ 100403bf f i libucrt:output.obj
 0001:0003f3f1       ?should_skip_normal_state_processing@?$positional_parameter_base@_WV?$stream_output_adapter@_W@__crt_stdio_output@@@__crt_stdio_output@@IAE_NXZ 100403f1 f i libucrt:output.obj
 0001:0003f423       ?should_skip_normal_state_processing@?$positional_parameter_base@_WV?$string_output_adapter@_W@__crt_stdio_output@@@__crt_stdio_output@@IAE_NXZ 10040423 f i libucrt:output.obj
 0001:0003f455       ?should_skip_normal_state_processing@?$standard_base@DV?$stream_output_adapter@D@__crt_stdio_output@@@__crt_stdio_output@@IAE_NXZ 10040455 f i libucrt:output.obj
 0001:0003f458       ?should_skip_normal_state_processing@?$standard_base@DV?$string_output_adapter@D@__crt_stdio_output@@@__crt_stdio_output@@IAE_NXZ 10040458 f i libucrt:output.obj
 0001:0003f45b       ?should_skip_normal_state_processing@?$standard_base@_WV?$stream_output_adapter@_W@__crt_stdio_output@@@__crt_stdio_output@@IAE_NXZ 1004045b f i libucrt:output.obj
 0001:0003f45e       ?should_skip_normal_state_processing@?$standard_base@_WV?$string_output_adapter@_W@__crt_stdio_output@@@__crt_stdio_output@@IAE_NXZ 1004045e f i libucrt:output.obj
 0001:0003f461       ?should_skip_type_state_output@?$positional_parameter_base@DV?$stream_output_adapter@D@__crt_stdio_output@@@__crt_stdio_output@@IBE_NXZ 10040461 f i libucrt:output.obj
 0001:0003f47d       ?should_skip_type_state_output@?$positional_parameter_base@DV?$string_output_adapter@D@__crt_stdio_output@@@__crt_stdio_output@@IBE_NXZ 1004047d f i libucrt:output.obj
 0001:0003f499       ?should_skip_type_state_output@?$positional_parameter_base@_WV?$stream_output_adapter@_W@__crt_stdio_output@@@__crt_stdio_output@@IBE_NXZ 10040499 f i libucrt:output.obj
 0001:0003f4b5       ?should_skip_type_state_output@?$positional_parameter_base@_WV?$string_output_adapter@_W@__crt_stdio_output@@@__crt_stdio_output@@IBE_NXZ 100404b5 f i libucrt:output.obj
 0001:0003f4d1       ?should_skip_type_state_output@?$standard_base@DV?$stream_output_adapter@D@__crt_stdio_output@@@__crt_stdio_output@@IBE_NXZ 100404d1 f i libucrt:output.obj
 0001:0003f4d4       ?should_skip_type_state_output@?$standard_base@DV?$string_output_adapter@D@__crt_stdio_output@@@__crt_stdio_output@@IBE_NXZ 100404d4 f i libucrt:output.obj
 0001:0003f4d7       ?should_skip_type_state_output@?$standard_base@_WV?$stream_output_adapter@_W@__crt_stdio_output@@@__crt_stdio_output@@IBE_NXZ 100404d7 f i libucrt:output.obj
 0001:0003f4da       ?should_skip_type_state_output@?$standard_base@_WV?$string_output_adapter@_W@__crt_stdio_output@@@__crt_stdio_output@@IBE_NXZ 100404da f i libucrt:output.obj
 0001:0003f4dd       ?state_case_dot@?$output_processor@DV?$stream_output_adapter@D@__crt_stdio_output@@V?$format_validation_base@DV?$stream_output_adapter@D@__crt_stdio_output@@@2@@__crt_stdio_output@@AAE_NXZ 100404dd f i libucrt:output.obj
 0001:0003f4e4       ?state_case_dot@?$output_processor@DV?$stream_output_adapter@D@__crt_stdio_output@@V?$positional_parameter_base@DV?$stream_output_adapter@D@__crt_stdio_output@@@2@@__crt_stdio_output@@AAE_NXZ 100404e4 f i libucrt:output.obj
 0001:0003f4eb       ?state_case_dot@?$output_processor@DV?$stream_output_adapter@D@__crt_stdio_output@@V?$standard_base@DV?$stream_output_adapter@D@__crt_stdio_output@@@2@@__crt_stdio_output@@AAE_NXZ 100404eb f i libucrt:output.obj
 0001:0003f4f2       ?state_case_dot@?$output_processor@DV?$string_output_adapter@D@__crt_stdio_output@@V?$format_validation_base@DV?$string_output_adapter@D@__crt_stdio_output@@@2@@__crt_stdio_output@@AAE_NXZ 100404f2 f i libucrt:output.obj
 0001:0003f4f9       ?state_case_dot@?$output_processor@DV?$string_output_adapter@D@__crt_stdio_output@@V?$positional_parameter_base@DV?$string_output_adapter@D@__crt_stdio_output@@@2@@__crt_stdio_output@@AAE_NXZ 100404f9 f i libucrt:output.obj
 0001:0003f500       ?state_case_dot@?$output_processor@DV?$string_output_adapter@D@__crt_stdio_output@@V?$standard_base@DV?$string_output_adapter@D@__crt_stdio_output@@@2@@__crt_stdio_output@@AAE_NXZ 10040500 f i libucrt:output.obj
 0001:0003f507       ?state_case_dot@?$output_processor@_WV?$stream_output_adapter@_W@__crt_stdio_output@@V?$format_validation_base@_WV?$stream_output_adapter@_W@__crt_stdio_output@@@2@@__crt_stdio_output@@AAE_NXZ 10040507 f i libucrt:output.obj
 0001:0003f50e       ?state_case_dot@?$output_processor@_WV?$stream_output_adapter@_W@__crt_stdio_output@@V?$positional_parameter_base@_WV?$stream_output_adapter@_W@__crt_stdio_output@@@2@@__crt_stdio_output@@AAE_NXZ 1004050e f i libucrt:output.obj
 0001:0003f515       ?state_case_dot@?$output_processor@_WV?$stream_output_adapter@_W@__crt_stdio_output@@V?$standard_base@_WV?$stream_output_adapter@_W@__crt_stdio_output@@@2@@__crt_stdio_output@@AAE_NXZ 10040515 f i libucrt:output.obj
 0001:0003f51c       ?state_case_dot@?$output_processor@_WV?$string_output_adapter@_W@__crt_stdio_output@@V?$format_validation_base@_WV?$string_output_adapter@_W@__crt_stdio_output@@@2@@__crt_stdio_output@@AAE_NXZ 1004051c f i libucrt:output.obj
 0001:0003f523       ?state_case_dot@?$output_processor@_WV?$string_output_adapter@_W@__crt_stdio_output@@V?$positional_parameter_base@_WV?$string_output_adapter@_W@__crt_stdio_output@@@2@@__crt_stdio_output@@AAE_NXZ 10040523 f i libucrt:output.obj
 0001:0003f52a       ?state_case_dot@?$output_processor@_WV?$string_output_adapter@_W@__crt_stdio_output@@V?$standard_base@_WV?$string_output_adapter@_W@__crt_stdio_output@@@2@@__crt_stdio_output@@AAE_NXZ 1004052a f i libucrt:output.obj
 0001:0003f531       ?state_case_flag@?$output_processor@DV?$stream_output_adapter@D@__crt_stdio_output@@V?$format_validation_base@DV?$stream_output_adapter@D@__crt_stdio_output@@@2@@__crt_stdio_output@@AAE_NXZ 10040531 f i libucrt:output.obj
 0001:0003f57d       ?state_case_flag@?$output_processor@DV?$stream_output_adapter@D@__crt_stdio_output@@V?$positional_parameter_base@DV?$stream_output_adapter@D@__crt_stdio_output@@@2@@__crt_stdio_output@@AAE_NXZ 1004057d f i libucrt:output.obj
 0001:0003f5c9       ?state_case_flag@?$output_processor@DV?$stream_output_adapter@D@__crt_stdio_output@@V?$standard_base@DV?$stream_output_adapter@D@__crt_stdio_output@@@2@@__crt_stdio_output@@AAE_NXZ 100405c9 f i libucrt:output.obj
 0001:0003f615       ?state_case_flag@?$output_processor@DV?$string_output_adapter@D@__crt_stdio_output@@V?$format_validation_base@DV?$string_output_adapter@D@__crt_stdio_output@@@2@@__crt_stdio_output@@AAE_NXZ 10040615 f i libucrt:output.obj
 0001:0003f661       ?state_case_flag@?$output_processor@DV?$string_output_adapter@D@__crt_stdio_output@@V?$positional_parameter_base@DV?$string_output_adapter@D@__crt_stdio_output@@@2@@__crt_stdio_output@@AAE_NXZ 10040661 f i libucrt:output.obj
 0001:0003f6ad       ?state_case_flag@?$output_processor@DV?$string_output_adapter@D@__crt_stdio_output@@V?$standard_base@DV?$string_output_adapter@D@__crt_stdio_output@@@2@@__crt_stdio_output@@AAE_NXZ 100406ad f i libucrt:output.obj
 0001:0003f6f9       ?state_case_flag@?$output_processor@_WV?$stream_output_adapter@_W@__crt_stdio_output@@V?$format_validation_base@_WV?$stream_output_adapter@_W@__crt_stdio_output@@@2@@__crt_stdio_output@@AAE_NXZ 100406f9 f i libucrt:output.obj
 0001:0003f745       ?state_case_flag@?$output_processor@_WV?$stream_output_adapter@_W@__crt_stdio_output@@V?$positional_parameter_base@_WV?$stream_output_adapter@_W@__crt_stdio_output@@@2@@__crt_stdio_output@@AAE_NXZ 10040745 f i libucrt:output.obj
 0001:0003f791       ?state_case_flag@?$output_processor@_WV?$stream_output_adapter@_W@__crt_stdio_output@@V?$standard_base@_WV?$stream_output_adapter@_W@__crt_stdio_output@@@2@@__crt_stdio_output@@AAE_NXZ 10040791 f i libucrt:output.obj
 0001:0003f7dd       ?state_case_flag@?$output_processor@_WV?$string_output_adapter@_W@__crt_stdio_output@@V?$format_validation_base@_WV?$string_output_adapter@_W@__crt_stdio_output@@@2@@__crt_stdio_output@@AAE_NXZ 100407dd f i libucrt:output.obj
 0001:0003f829       ?state_case_flag@?$output_processor@_WV?$string_output_adapter@_W@__crt_stdio_output@@V?$positional_parameter_base@_WV?$string_output_adapter@_W@__crt_stdio_output@@@2@@__crt_stdio_output@@AAE_NXZ 10040829 f i libucrt:output.obj
 0001:0003f875       ?state_case_flag@?$output_processor@_WV?$string_output_adapter@_W@__crt_stdio_output@@V?$standard_base@_WV?$string_output_adapter@_W@__crt_stdio_output@@@2@@__crt_stdio_output@@AAE_NXZ 10040875 f i libucrt:output.obj
 0001:0003f8c1       ?state_case_normal@?$output_processor@DV?$stream_output_adapter@D@__crt_stdio_output@@V?$format_validation_base@DV?$stream_output_adapter@D@__crt_stdio_output@@@2@@__crt_stdio_output@@AAE_NXZ 100408c1 f i libucrt:output.obj
 0001:0003f8e7       ?state_case_normal@?$output_processor@DV?$stream_output_adapter@D@__crt_stdio_output@@V?$positional_parameter_base@DV?$stream_output_adapter@D@__crt_stdio_output@@@2@@__crt_stdio_output@@AAE_NXZ 100408e7 f i libucrt:output.obj
 0001:0003f924       ?state_case_normal@?$output_processor@DV?$stream_output_adapter@D@__crt_stdio_output@@V?$standard_base@DV?$stream_output_adapter@D@__crt_stdio_output@@@2@@__crt_stdio_output@@AAE_NXZ 10040924 f i libucrt:output.obj
 0001:0003f94a       ?state_case_normal@?$output_processor@DV?$string_output_adapter@D@__crt_stdio_output@@V?$format_validation_base@DV?$string_output_adapter@D@__crt_stdio_output@@@2@@__crt_stdio_output@@AAE_NXZ 1004094a f i libucrt:output.obj
 0001:0003f970       ?state_case_normal@?$output_processor@DV?$string_output_adapter@D@__crt_stdio_output@@V?$positional_parameter_base@DV?$string_output_adapter@D@__crt_stdio_output@@@2@@__crt_stdio_output@@AAE_NXZ 10040970 f i libucrt:output.obj
 0001:0003f9ad       ?state_case_normal@?$output_processor@DV?$string_output_adapter@D@__crt_stdio_output@@V?$standard_base@DV?$string_output_adapter@D@__crt_stdio_output@@@2@@__crt_stdio_output@@AAE_NXZ 100409ad f i libucrt:output.obj
 0001:0003f9d3       ?state_case_normal@?$output_processor@_WV?$stream_output_adapter@_W@__crt_stdio_output@@V?$format_validation_base@_WV?$stream_output_adapter@_W@__crt_stdio_output@@@2@@__crt_stdio_output@@AAE_NXZ 100409d3 f i libucrt:output.obj
 0001:0003f9f9       ?state_case_normal@?$output_processor@_WV?$stream_output_adapter@_W@__crt_stdio_output@@V?$positional_parameter_base@_WV?$stream_output_adapter@_W@__crt_stdio_output@@@2@@__crt_stdio_output@@AAE_NXZ 100409f9 f i libucrt:output.obj
 0001:0003fa36       ?state_case_normal@?$output_processor@_WV?$stream_output_adapter@_W@__crt_stdio_output@@V?$standard_base@_WV?$stream_output_adapter@_W@__crt_stdio_output@@@2@@__crt_stdio_output@@AAE_NXZ 10040a36 f i libucrt:output.obj
 0001:0003fa5c       ?state_case_normal@?$output_processor@_WV?$string_output_adapter@_W@__crt_stdio_output@@V?$format_validation_base@_WV?$string_output_adapter@_W@__crt_stdio_output@@@2@@__crt_stdio_output@@AAE_NXZ 10040a5c f i libucrt:output.obj
 0001:0003fa82       ?state_case_normal@?$output_processor@_WV?$string_output_adapter@_W@__crt_stdio_output@@V?$positional_parameter_base@_WV?$string_output_adapter@_W@__crt_stdio_output@@@2@@__crt_stdio_output@@AAE_NXZ 10040a82 f i libucrt:output.obj
 0001:0003fabf       ?state_case_normal@?$output_processor@_WV?$string_output_adapter@_W@__crt_stdio_output@@V?$standard_base@_WV?$string_output_adapter@_W@__crt_stdio_output@@@2@@__crt_stdio_output@@AAE_NXZ 10040abf f i libucrt:output.obj
 0001:0003fae5       ?state_case_normal_common@?$output_processor@DV?$stream_output_adapter@D@__crt_stdio_output@@V?$format_validation_base@DV?$stream_output_adapter@D@__crt_stdio_output@@@2@@__crt_stdio_output@@AAE_NXZ 10040ae5 f i libucrt:output.obj
 0001:0003fb19       ?state_case_normal_common@?$output_processor@DV?$stream_output_adapter@D@__crt_stdio_output@@V?$positional_parameter_base@DV?$stream_output_adapter@D@__crt_stdio_output@@@2@@__crt_stdio_output@@AAE_NXZ 10040b19 f i libucrt:output.obj
 0001:0003fb4d       ?state_case_normal_common@?$output_processor@DV?$stream_output_adapter@D@__crt_stdio_output@@V?$standard_base@DV?$stream_output_adapter@D@__crt_stdio_output@@@2@@__crt_stdio_output@@AAE_NXZ 10040b4d f i libucrt:output.obj
 0001:0003fb81       ?state_case_normal_common@?$output_processor@DV?$string_output_adapter@D@__crt_stdio_output@@V?$format_validation_base@DV?$string_output_adapter@D@__crt_stdio_output@@@2@@__crt_stdio_output@@AAE_NXZ 10040b81 f i libucrt:output.obj
 0001:0003fbb5       ?state_case_normal_common@?$output_processor@DV?$string_output_adapter@D@__crt_stdio_output@@V?$positional_parameter_base@DV?$string_output_adapter@D@__crt_stdio_output@@@2@@__crt_stdio_output@@AAE_NXZ 10040bb5 f i libucrt:output.obj
 0001:0003fbe9       ?state_case_normal_common@?$output_processor@DV?$string_output_adapter@D@__crt_stdio_output@@V?$standard_base@DV?$string_output_adapter@D@__crt_stdio_output@@@2@@__crt_stdio_output@@AAE_NXZ 10040be9 f i libucrt:output.obj
 0001:0003fc1d       ?state_case_normal_common@?$output_processor@_WV?$stream_output_adapter@_W@__crt_stdio_output@@V?$format_validation_base@_WV?$stream_output_adapter@_W@__crt_stdio_output@@@2@@__crt_stdio_output@@AAE_NXZ 10040c1d f i libucrt:output.obj
 0001:0003fc3e       ?state_case_normal_common@?$output_processor@_WV?$stream_output_adapter@_W@__crt_stdio_output@@V?$positional_parameter_base@_WV?$stream_output_adapter@_W@__crt_stdio_output@@@2@@__crt_stdio_output@@AAE_NXZ 10040c3e f i libucrt:output.obj
 0001:0003fc5f       ?state_case_normal_common@?$output_processor@_WV?$stream_output_adapter@_W@__crt_stdio_output@@V?$standard_base@_WV?$stream_output_adapter@_W@__crt_stdio_output@@@2@@__crt_stdio_output@@AAE_NXZ 10040c5f f i libucrt:output.obj
 0001:0003fc80       ?state_case_normal_common@?$output_processor@_WV?$string_output_adapter@_W@__crt_stdio_output@@V?$format_validation_base@_WV?$string_output_adapter@_W@__crt_stdio_output@@@2@@__crt_stdio_output@@AAE_NXZ 10040c80 f i libucrt:output.obj
 0001:0003fca1       ?state_case_normal_common@?$output_processor@_WV?$string_output_adapter@_W@__crt_stdio_output@@V?$positional_parameter_base@_WV?$string_output_adapter@_W@__crt_stdio_output@@@2@@__crt_stdio_output@@AAE_NXZ 10040ca1 f i libucrt:output.obj
 0001:0003fcc2       ?state_case_normal_common@?$output_processor@_WV?$string_output_adapter@_W@__crt_stdio_output@@V?$standard_base@_WV?$string_output_adapter@_W@__crt_stdio_output@@@2@@__crt_stdio_output@@AAE_NXZ 10040cc2 f i libucrt:output.obj
 0001:0003fce3       ?state_case_normal_tchar@?$output_processor@DV?$stream_output_adapter@D@__crt_stdio_output@@V?$format_validation_base@DV?$stream_output_adapter@D@__crt_stdio_output@@@2@@__crt_stdio_output@@AAE_ND@Z 10040ce3 f i libucrt:output.obj
 0001:0003fd5c       ?state_case_normal_tchar@?$output_processor@DV?$stream_output_adapter@D@__crt_stdio_output@@V?$positional_parameter_base@DV?$stream_output_adapter@D@__crt_stdio_output@@@2@@__crt_stdio_output@@AAE_ND@Z 10040d5c f i libucrt:output.obj
 0001:0003fdd5       ?state_case_normal_tchar@?$output_processor@DV?$stream_output_adapter@D@__crt_stdio_output@@V?$standard_base@DV?$stream_output_adapter@D@__crt_stdio_output@@@2@@__crt_stdio_output@@AAE_ND@Z 10040dd5 f i libucrt:output.obj
 0001:0003fe4e       ?state_case_normal_tchar@?$output_processor@DV?$string_output_adapter@D@__crt_stdio_output@@V?$format_validation_base@DV?$string_output_adapter@D@__crt_stdio_output@@@2@@__crt_stdio_output@@AAE_ND@Z 10040e4e f i libucrt:output.obj
 0001:0003fec7       ?state_case_normal_tchar@?$output_processor@DV?$string_output_adapter@D@__crt_stdio_output@@V?$positional_parameter_base@DV?$string_output_adapter@D@__crt_stdio_output@@@2@@__crt_stdio_output@@AAE_ND@Z 10040ec7 f i libucrt:output.obj
 0001:0003ff40       ?state_case_normal_tchar@?$output_processor@DV?$string_output_adapter@D@__crt_stdio_output@@V?$standard_base@DV?$string_output_adapter@D@__crt_stdio_output@@@2@@__crt_stdio_output@@AAE_ND@Z 10040f40 f i libucrt:output.obj
 0001:0003ffb9       ?state_case_normal_tchar@?$output_processor@_WV?$stream_output_adapter@_W@__crt_stdio_output@@V?$format_validation_base@_WV?$stream_output_adapter@_W@__crt_stdio_output@@@2@@__crt_stdio_output@@AAE_N_W@Z 10040fb9 f i libucrt:output.obj
 0001:0003ffc4       ?state_case_normal_tchar@?$output_processor@_WV?$stream_output_adapter@_W@__crt_stdio_output@@V?$positional_parameter_base@_WV?$stream_output_adapter@_W@__crt_stdio_output@@@2@@__crt_stdio_output@@AAE_N_W@Z 10040fc4 f i libucrt:output.obj
 0001:0003ffcf       ?state_case_normal_tchar@?$output_processor@_WV?$stream_output_adapter@_W@__crt_stdio_output@@V?$standard_base@_WV?$stream_output_adapter@_W@__crt_stdio_output@@@2@@__crt_stdio_output@@AAE_N_W@Z 10040fcf f i libucrt:output.obj
 0001:0003ffda       ?state_case_normal_tchar@?$output_processor@_WV?$string_output_adapter@_W@__crt_stdio_output@@V?$format_validation_base@_WV?$string_output_adapter@_W@__crt_stdio_output@@@2@@__crt_stdio_output@@AAE_N_W@Z 10040fda f i libucrt:output.obj
 0001:0003ffe5       ?state_case_normal_tchar@?$output_processor@_WV?$string_output_adapter@_W@__crt_stdio_output@@V?$positional_parameter_base@_WV?$string_output_adapter@_W@__crt_stdio_output@@@2@@__crt_stdio_output@@AAE_N_W@Z 10040fe5 f i libucrt:output.obj
 0001:0003fff0       ?state_case_normal_tchar@?$output_processor@_WV?$string_output_adapter@_W@__crt_stdio_output@@V?$standard_base@_WV?$string_output_adapter@_W@__crt_stdio_output@@@2@@__crt_stdio_output@@AAE_N_W@Z 10040ff0 f i libucrt:output.obj
 0001:0003fffb       ?state_case_percent@?$output_processor@DV?$stream_output_adapter@D@__crt_stdio_output@@V?$format_validation_base@DV?$stream_output_adapter@D@__crt_stdio_output@@@2@@__crt_stdio_output@@AAE_NXZ 10040ffb f i libucrt:output.obj
 0001:00040019       ?state_case_percent@?$output_processor@DV?$stream_output_adapter@D@__crt_stdio_output@@V?$positional_parameter_base@DV?$stream_output_adapter@D@__crt_stdio_output@@@2@@__crt_stdio_output@@AAE_NXZ 10041019 f i libucrt:output.obj
 0001:00040037       ?state_case_percent@?$output_processor@DV?$stream_output_adapter@D@__crt_stdio_output@@V?$standard_base@DV?$stream_output_adapter@D@__crt_stdio_output@@@2@@__crt_stdio_output@@AAE_NXZ 10041037 f i libucrt:output.obj
 0001:00040055       ?state_case_percent@?$output_processor@DV?$string_output_adapter@D@__crt_stdio_output@@V?$format_validation_base@DV?$string_output_adapter@D@__crt_stdio_output@@@2@@__crt_stdio_output@@AAE_NXZ 10041055 f i libucrt:output.obj
 0001:00040073       ?state_case_percent@?$output_processor@DV?$string_output_adapter@D@__crt_stdio_output@@V?$positional_parameter_base@DV?$string_output_adapter@D@__crt_stdio_output@@@2@@__crt_stdio_output@@AAE_NXZ 10041073 f i libucrt:output.obj
 0001:00040091       ?state_case_percent@?$output_processor@DV?$string_output_adapter@D@__crt_stdio_output@@V?$standard_base@DV?$string_output_adapter@D@__crt_stdio_output@@@2@@__crt_stdio_output@@AAE_NXZ 10041091 f i libucrt:output.obj
 0001:000400af       ?state_case_percent@?$output_processor@_WV?$stream_output_adapter@_W@__crt_stdio_output@@V?$format_validation_base@_WV?$stream_output_adapter@_W@__crt_stdio_output@@@2@@__crt_stdio_output@@AAE_NXZ 100410af f i libucrt:output.obj
 0001:000400cd       ?state_case_percent@?$output_processor@_WV?$stream_output_adapter@_W@__crt_stdio_output@@V?$positional_parameter_base@_WV?$stream_output_adapter@_W@__crt_stdio_output@@@2@@__crt_stdio_output@@AAE_NXZ 100410cd f i libucrt:output.obj
 0001:000400eb       ?state_case_percent@?$output_processor@_WV?$stream_output_adapter@_W@__crt_stdio_output@@V?$standard_base@_WV?$stream_output_adapter@_W@__crt_stdio_output@@@2@@__crt_stdio_output@@AAE_NXZ 100410eb f i libucrt:output.obj
 0001:00040109       ?state_case_percent@?$output_processor@_WV?$string_output_adapter@_W@__crt_stdio_output@@V?$format_validation_base@_WV?$string_output_adapter@_W@__crt_stdio_output@@@2@@__crt_stdio_output@@AAE_NXZ 10041109 f i libucrt:output.obj
 0001:00040127       ?state_case_percent@?$output_processor@_WV?$string_output_adapter@_W@__crt_stdio_output@@V?$positional_parameter_base@_WV?$string_output_adapter@_W@__crt_stdio_output@@@2@@__crt_stdio_output@@AAE_NXZ 10041127 f i libucrt:output.obj
 0001:00040145       ?state_case_percent@?$output_processor@_WV?$string_output_adapter@_W@__crt_stdio_output@@V?$standard_base@_WV?$string_output_adapter@_W@__crt_stdio_output@@@2@@__crt_stdio_output@@AAE_NXZ 10041145 f i libucrt:output.obj
 0001:00040163       ?state_case_precision@?$output_processor@DV?$stream_output_adapter@D@__crt_stdio_output@@V?$format_validation_base@DV?$stream_output_adapter@D@__crt_stdio_output@@@2@@__crt_stdio_output@@AAE_NXZ 10041163 f i libucrt:output.obj
 0001:00040195       ?state_case_precision@?$output_processor@DV?$stream_output_adapter@D@__crt_stdio_output@@V?$positional_parameter_base@DV?$stream_output_adapter@D@__crt_stdio_output@@@2@@__crt_stdio_output@@AAE_NXZ 10041195 f i libucrt:output.obj
 0001:000401dd       ?state_case_precision@?$output_processor@DV?$stream_output_adapter@D@__crt_stdio_output@@V?$standard_base@DV?$stream_output_adapter@D@__crt_stdio_output@@@2@@__crt_stdio_output@@AAE_NXZ 100411dd f i libucrt:output.obj
 0001:0004020f       ?state_case_precision@?$output_processor@DV?$string_output_adapter@D@__crt_stdio_output@@V?$format_validation_base@DV?$string_output_adapter@D@__crt_stdio_output@@@2@@__crt_stdio_output@@AAE_NXZ 1004120f f i libucrt:output.obj
 0001:00040241       ?state_case_precision@?$output_processor@DV?$string_output_adapter@D@__crt_stdio_output@@V?$positional_parameter_base@DV?$string_output_adapter@D@__crt_stdio_output@@@2@@__crt_stdio_output@@AAE_NXZ 10041241 f i libucrt:output.obj
 0001:00040289       ?state_case_precision@?$output_processor@DV?$string_output_adapter@D@__crt_stdio_output@@V?$standard_base@DV?$string_output_adapter@D@__crt_stdio_output@@@2@@__crt_stdio_output@@AAE_NXZ 10041289 f i libucrt:output.obj
 0001:000402bb       ?state_case_precision@?$output_processor@_WV?$stream_output_adapter@_W@__crt_stdio_output@@V?$format_validation_base@_WV?$stream_output_adapter@_W@__crt_stdio_output@@@2@@__crt_stdio_output@@AAE_NXZ 100412bb f i libucrt:output.obj
 0001:000402ee       ?state_case_precision@?$output_processor@_WV?$stream_output_adapter@_W@__crt_stdio_output@@V?$positional_parameter_base@_WV?$stream_output_adapter@_W@__crt_stdio_output@@@2@@__crt_stdio_output@@AAE_NXZ 100412ee f i libucrt:output.obj
 0001:00040337       ?state_case_precision@?$output_processor@_WV?$stream_output_adapter@_W@__crt_stdio_output@@V?$standard_base@_WV?$stream_output_adapter@_W@__crt_stdio_output@@@2@@__crt_stdio_output@@AAE_NXZ 10041337 f i libucrt:output.obj
 0001:0004036a       ?state_case_precision@?$output_processor@_WV?$string_output_adapter@_W@__crt_stdio_output@@V?$format_validation_base@_WV?$string_output_adapter@_W@__crt_stdio_output@@@2@@__crt_stdio_output@@AAE_NXZ 1004136a f i libucrt:output.obj
 0001:0004039d       ?state_case_precision@?$output_processor@_WV?$string_output_adapter@_W@__crt_stdio_output@@V?$positional_parameter_base@_WV?$string_output_adapter@_W@__crt_stdio_output@@@2@@__crt_stdio_output@@AAE_NXZ 1004139d f i libucrt:output.obj
 0001:000403e6       ?state_case_precision@?$output_processor@_WV?$string_output_adapter@_W@__crt_stdio_output@@V?$standard_base@_WV?$string_output_adapter@_W@__crt_stdio_output@@@2@@__crt_stdio_output@@AAE_NXZ 100413e6 f i libucrt:output.obj
 0001:00040419       ?state_case_size@?$output_processor@DV?$stream_output_adapter@D@__crt_stdio_output@@V?$format_validation_base@DV?$stream_output_adapter@D@__crt_stdio_output@@@2@@__crt_stdio_output@@AAE_NXZ 10041419 f i libucrt:output.obj
 0001:000405dc       ?state_case_size@?$output_processor@DV?$stream_output_adapter@D@__crt_stdio_output@@V?$positional_parameter_base@DV?$stream_output_adapter@D@__crt_stdio_output@@@2@@__crt_stdio_output@@AAE_NXZ 100415dc f i libucrt:output.obj
 0001:0004079f       ?state_case_size@?$output_processor@DV?$stream_output_adapter@D@__crt_stdio_output@@V?$standard_base@DV?$stream_output_adapter@D@__crt_stdio_output@@@2@@__crt_stdio_output@@AAE_NXZ 1004179f f i libucrt:output.obj
 0001:00040962       ?state_case_size@?$output_processor@DV?$string_output_adapter@D@__crt_stdio_output@@V?$format_validation_base@DV?$string_output_adapter@D@__crt_stdio_output@@@2@@__crt_stdio_output@@AAE_NXZ 10041962 f i libucrt:output.obj
 0001:00040b25       ?state_case_size@?$output_processor@DV?$string_output_adapter@D@__crt_stdio_output@@V?$positional_parameter_base@DV?$string_output_adapter@D@__crt_stdio_output@@@2@@__crt_stdio_output@@AAE_NXZ 10041b25 f i libucrt:output.obj
 0001:00040ce8       ?state_case_size@?$output_processor@DV?$string_output_adapter@D@__crt_stdio_output@@V?$standard_base@DV?$string_output_adapter@D@__crt_stdio_output@@@2@@__crt_stdio_output@@AAE_NXZ 10041ce8 f i libucrt:output.obj
 0001:00040eab       ?state_case_size@?$output_processor@_WV?$stream_output_adapter@_W@__crt_stdio_output@@V?$format_validation_base@_WV?$stream_output_adapter@_W@__crt_stdio_output@@@2@@__crt_stdio_output@@AAE_NXZ 10041eab f i libucrt:output.obj
 0001:00041086       ?state_case_size@?$output_processor@_WV?$stream_output_adapter@_W@__crt_stdio_output@@V?$positional_parameter_base@_WV?$stream_output_adapter@_W@__crt_stdio_output@@@2@@__crt_stdio_output@@AAE_NXZ 10042086 f i libucrt:output.obj
 0001:00041261       ?state_case_size@?$output_processor@_WV?$stream_output_adapter@_W@__crt_stdio_output@@V?$standard_base@_WV?$stream_output_adapter@_W@__crt_stdio_output@@@2@@__crt_stdio_output@@AAE_NXZ 10042261 f i libucrt:output.obj
 0001:0004143c       ?state_case_size@?$output_processor@_WV?$string_output_adapter@_W@__crt_stdio_output@@V?$format_validation_base@_WV?$string_output_adapter@_W@__crt_stdio_output@@@2@@__crt_stdio_output@@AAE_NXZ 1004243c f i libucrt:output.obj
 0001:00041617       ?state_case_size@?$output_processor@_WV?$string_output_adapter@_W@__crt_stdio_output@@V?$positional_parameter_base@_WV?$string_output_adapter@_W@__crt_stdio_output@@@2@@__crt_stdio_output@@AAE_NXZ 10042617 f i libucrt:output.obj
 0001:000417f2       ?state_case_size@?$output_processor@_WV?$string_output_adapter@_W@__crt_stdio_output@@V?$standard_base@_WV?$string_output_adapter@_W@__crt_stdio_output@@@2@@__crt_stdio_output@@AAE_NXZ 100427f2 f i libucrt:output.obj
 0001:000419cd       ?state_case_type@?$output_processor@DV?$stream_output_adapter@D@__crt_stdio_output@@V?$format_validation_base@DV?$stream_output_adapter@D@__crt_stdio_output@@@2@@__crt_stdio_output@@AAE_NXZ 100429cd f i libucrt:output.obj
 0001:00041c87       ?state_case_type@?$output_processor@DV?$stream_output_adapter@D@__crt_stdio_output@@V?$positional_parameter_base@DV?$stream_output_adapter@D@__crt_stdio_output@@@2@@__crt_stdio_output@@AAE_NXZ 10042c87 f i libucrt:output.obj
 0001:00041f4f       ?state_case_type@?$output_processor@DV?$stream_output_adapter@D@__crt_stdio_output@@V?$standard_base@DV?$stream_output_adapter@D@__crt_stdio_output@@@2@@__crt_stdio_output@@AAE_NXZ 10042f4f f i libucrt:output.obj
 0001:00042209       ?state_case_type@?$output_processor@DV?$string_output_adapter@D@__crt_stdio_output@@V?$format_validation_base@DV?$string_output_adapter@D@__crt_stdio_output@@@2@@__crt_stdio_output@@AAE_NXZ 10043209 f i libucrt:output.obj
 0001:000424c3       ?state_case_type@?$output_processor@DV?$string_output_adapter@D@__crt_stdio_output@@V?$positional_parameter_base@DV?$string_output_adapter@D@__crt_stdio_output@@@2@@__crt_stdio_output@@AAE_NXZ 100434c3 f i libucrt:output.obj
 0001:0004278b       ?state_case_type@?$output_processor@DV?$string_output_adapter@D@__crt_stdio_output@@V?$standard_base@DV?$string_output_adapter@D@__crt_stdio_output@@@2@@__crt_stdio_output@@AAE_NXZ 1004378b f i libucrt:output.obj
 0001:00042a45       ?state_case_type@?$output_processor@_WV?$stream_output_adapter@_W@__crt_stdio_output@@V?$format_validation_base@_WV?$stream_output_adapter@_W@__crt_stdio_output@@@2@@__crt_stdio_output@@AAE_NXZ 10043a45 f i libucrt:output.obj
 0001:00042d39       ?state_case_type@?$output_processor@_WV?$stream_output_adapter@_W@__crt_stdio_output@@V?$positional_parameter_base@_WV?$stream_output_adapter@_W@__crt_stdio_output@@@2@@__crt_stdio_output@@AAE_NXZ 10043d39 f i libucrt:output.obj
 0001:00043040       ?state_case_type@?$output_processor@_WV?$stream_output_adapter@_W@__crt_stdio_output@@V?$standard_base@_WV?$stream_output_adapter@_W@__crt_stdio_output@@@2@@__crt_stdio_output@@AAE_NXZ 10044040 f i libucrt:output.obj
 0001:00043334       ?state_case_type@?$output_processor@_WV?$string_output_adapter@_W@__crt_stdio_output@@V?$format_validation_base@_WV?$string_output_adapter@_W@__crt_stdio_output@@@2@@__crt_stdio_output@@AAE_NXZ 10044334 f i libucrt:output.obj
 0001:00043628       ?state_case_type@?$output_processor@_WV?$string_output_adapter@_W@__crt_stdio_output@@V?$positional_parameter_base@_WV?$string_output_adapter@_W@__crt_stdio_output@@@2@@__crt_stdio_output@@AAE_NXZ 10044628 f i libucrt:output.obj
 0001:0004392f       ?state_case_type@?$output_processor@_WV?$string_output_adapter@_W@__crt_stdio_output@@V?$standard_base@_WV?$string_output_adapter@_W@__crt_stdio_output@@@2@@__crt_stdio_output@@AAE_NXZ 1004492f f i libucrt:output.obj
 0001:00043c23       ?state_case_width@?$output_processor@DV?$stream_output_adapter@D@__crt_stdio_output@@V?$format_validation_base@DV?$stream_output_adapter@D@__crt_stdio_output@@@2@@__crt_stdio_output@@AAE_NXZ 10044c23 f i libucrt:output.obj
 0001:00043c58       ?state_case_width@?$output_processor@DV?$stream_output_adapter@D@__crt_stdio_output@@V?$positional_parameter_base@DV?$stream_output_adapter@D@__crt_stdio_output@@@2@@__crt_stdio_output@@AAE_NXZ 10044c58 f i libucrt:output.obj
 0001:00043ca8       ?state_case_width@?$output_processor@DV?$stream_output_adapter@D@__crt_stdio_output@@V?$standard_base@DV?$stream_output_adapter@D@__crt_stdio_output@@@2@@__crt_stdio_output@@AAE_NXZ 10044ca8 f i libucrt:output.obj
 0001:00043cdd       ?state_case_width@?$output_processor@DV?$string_output_adapter@D@__crt_stdio_output@@V?$format_validation_base@DV?$string_output_adapter@D@__crt_stdio_output@@@2@@__crt_stdio_output@@AAE_NXZ 10044cdd f i libucrt:output.obj
 0001:00043d12       ?state_case_width@?$output_processor@DV?$string_output_adapter@D@__crt_stdio_output@@V?$positional_parameter_base@DV?$string_output_adapter@D@__crt_stdio_output@@@2@@__crt_stdio_output@@AAE_NXZ 10044d12 f i libucrt:output.obj
 0001:00043d62       ?state_case_width@?$output_processor@DV?$string_output_adapter@D@__crt_stdio_output@@V?$standard_base@DV?$string_output_adapter@D@__crt_stdio_output@@@2@@__crt_stdio_output@@AAE_NXZ 10044d62 f i libucrt:output.obj
 0001:00043d97       ?state_case_width@?$output_processor@_WV?$stream_output_adapter@_W@__crt_stdio_output@@V?$format_validation_base@_WV?$stream_output_adapter@_W@__crt_stdio_output@@@2@@__crt_stdio_output@@AAE_NXZ 10044d97 f i libucrt:output.obj
 0001:00043dce       ?state_case_width@?$output_processor@_WV?$stream_output_adapter@_W@__crt_stdio_output@@V?$positional_parameter_base@_WV?$stream_output_adapter@_W@__crt_stdio_output@@@2@@__crt_stdio_output@@AAE_NXZ 10044dce f i libucrt:output.obj
 0001:00043e1f       ?state_case_width@?$output_processor@_WV?$stream_output_adapter@_W@__crt_stdio_output@@V?$standard_base@_WV?$stream_output_adapter@_W@__crt_stdio_output@@@2@@__crt_stdio_output@@AAE_NXZ 10044e1f f i libucrt:output.obj
 0001:00043e56       ?state_case_width@?$output_processor@_WV?$string_output_adapter@_W@__crt_stdio_output@@V?$format_validation_base@_WV?$string_output_adapter@_W@__crt_stdio_output@@@2@@__crt_stdio_output@@AAE_NXZ 10044e56 f i libucrt:output.obj
 0001:00043e8d       ?state_case_width@?$output_processor@_WV?$string_output_adapter@_W@__crt_stdio_output@@V?$positional_parameter_base@_WV?$string_output_adapter@_W@__crt_stdio_output@@@2@@__crt_stdio_output@@AAE_NXZ 10044e8d f i libucrt:output.obj
 0001:00043ede       ?state_case_width@?$output_processor@_WV?$string_output_adapter@_W@__crt_stdio_output@@V?$standard_base@_WV?$string_output_adapter@_W@__crt_stdio_output@@@2@@__crt_stdio_output@@AAE_NXZ 10044ede f i libucrt:output.obj
 0001:00043f15       ?state_count@?$format_validation_base@DV?$stream_output_adapter@D@__crt_stdio_output@@@__crt_stdio_output@@KAIXZ 10044f15 f i libucrt:output.obj
 0001:00043f19       ?state_count@?$format_validation_base@DV?$string_output_adapter@D@__crt_stdio_output@@@__crt_stdio_output@@KAIXZ 10044f19 f i libucrt:output.obj
 0001:00043f1d       ?state_count@?$format_validation_base@_WV?$stream_output_adapter@_W@__crt_stdio_output@@@__crt_stdio_output@@KAIXZ 10044f1d f i libucrt:output.obj
 0001:00043f21       ?state_count@?$format_validation_base@_WV?$string_output_adapter@_W@__crt_stdio_output@@@__crt_stdio_output@@KAIXZ 10044f21 f i libucrt:output.obj
 0001:00043f25       ?state_count@?$standard_base@DV?$stream_output_adapter@D@__crt_stdio_output@@@__crt_stdio_output@@KAIXZ 10044f25 f i libucrt:output.obj
 0001:00043f29       ?state_count@?$standard_base@DV?$string_output_adapter@D@__crt_stdio_output@@@__crt_stdio_output@@KAIXZ 10044f29 f i libucrt:output.obj
 0001:00043f2d       ?state_count@?$standard_base@_WV?$stream_output_adapter@_W@__crt_stdio_output@@@__crt_stdio_output@@KAIXZ 10044f2d f i libucrt:output.obj
 0001:00043f31       ?state_count@?$standard_base@_WV?$string_output_adapter@_W@__crt_stdio_output@@@__crt_stdio_output@@KAIXZ 10044f31 f i libucrt:output.obj
 0001:00043f35       ?state_transition_table@?$format_validation_base@DV?$stream_output_adapter@D@__crt_stdio_output@@@__crt_stdio_output@@KAPBEXZ 10044f35 f i libucrt:output.obj
 0001:00043f3b       ?state_transition_table@?$format_validation_base@DV?$string_output_adapter@D@__crt_stdio_output@@@__crt_stdio_output@@KAPBEXZ 10044f3b f i libucrt:output.obj
 0001:00043f41       ?state_transition_table@?$format_validation_base@_WV?$stream_output_adapter@_W@__crt_stdio_output@@@__crt_stdio_output@@KAPBEXZ 10044f41 f i libucrt:output.obj
 0001:00043f47       ?state_transition_table@?$format_validation_base@_WV?$string_output_adapter@_W@__crt_stdio_output@@@__crt_stdio_output@@KAPBEXZ 10044f47 f i libucrt:output.obj
 0001:00043f4d       ?state_transition_table@?$standard_base@DV?$stream_output_adapter@D@__crt_stdio_output@@@__crt_stdio_output@@KAPBEXZ 10044f4d f i libucrt:output.obj
 0001:00043f53       ?state_transition_table@?$standard_base@DV?$string_output_adapter@D@__crt_stdio_output@@@__crt_stdio_output@@KAPBEXZ 10044f53 f i libucrt:output.obj
 0001:00043f59       ?state_transition_table@?$standard_base@_WV?$stream_output_adapter@_W@__crt_stdio_output@@@__crt_stdio_output@@KAPBEXZ 10044f59 f i libucrt:output.obj
 0001:00043f5f       ?state_transition_table@?$standard_base@_WV?$string_output_adapter@_W@__crt_stdio_output@@@__crt_stdio_output@@KAPBEXZ 10044f5f f i libucrt:output.obj
 0001:00043f65       ?to_integer_size@__crt_stdio_output@@YAIW4length_modifier@1@@Z 10044f65 f i libucrt:output.obj
 0001:00043fd8       ?type_case_X@?$output_processor@DV?$stream_output_adapter@D@__crt_stdio_output@@V?$format_validation_base@DV?$stream_output_adapter@D@__crt_stdio_output@@@2@@__crt_stdio_output@@AAE_NXZ 10044fd8 f i libucrt:output.obj
 0001:00043fe4       ?type_case_X@?$output_processor@DV?$stream_output_adapter@D@__crt_stdio_output@@V?$positional_parameter_base@DV?$stream_output_adapter@D@__crt_stdio_output@@@2@@__crt_stdio_output@@AAE_NXZ 10044fe4 f i libucrt:output.obj
 0001:00043ff0       ?type_case_X@?$output_processor@DV?$stream_output_adapter@D@__crt_stdio_output@@V?$standard_base@DV?$stream_output_adapter@D@__crt_stdio_output@@@2@@__crt_stdio_output@@AAE_NXZ 10044ff0 f i libucrt:output.obj
 0001:00043ffc       ?type_case_X@?$output_processor@DV?$string_output_adapter@D@__crt_stdio_output@@V?$format_validation_base@DV?$string_output_adapter@D@__crt_stdio_output@@@2@@__crt_stdio_output@@AAE_NXZ 10044ffc f i libucrt:output.obj
 0001:00044008       ?type_case_X@?$output_processor@DV?$string_output_adapter@D@__crt_stdio_output@@V?$positional_parameter_base@DV?$string_output_adapter@D@__crt_stdio_output@@@2@@__crt_stdio_output@@AAE_NXZ 10045008 f i libucrt:output.obj
 0001:00044014       ?type_case_X@?$output_processor@DV?$string_output_adapter@D@__crt_stdio_output@@V?$standard_base@DV?$string_output_adapter@D@__crt_stdio_output@@@2@@__crt_stdio_output@@AAE_NXZ 10045014 f i libucrt:output.obj
 0001:00044020       ?type_case_X@?$output_processor@_WV?$stream_output_adapter@_W@__crt_stdio_output@@V?$format_validation_base@_WV?$stream_output_adapter@_W@__crt_stdio_output@@@2@@__crt_stdio_output@@AAE_NXZ 10045020 f i libucrt:output.obj
 0001:0004402c       ?type_case_X@?$output_processor@_WV?$stream_output_adapter@_W@__crt_stdio_output@@V?$positional_parameter_base@_WV?$stream_output_adapter@_W@__crt_stdio_output@@@2@@__crt_stdio_output@@AAE_NXZ 1004502c f i libucrt:output.obj
 0001:00044038       ?type_case_X@?$output_processor@_WV?$stream_output_adapter@_W@__crt_stdio_output@@V?$standard_base@_WV?$stream_output_adapter@_W@__crt_stdio_output@@@2@@__crt_stdio_output@@AAE_NXZ 10045038 f i libucrt:output.obj
 0001:00044044       ?type_case_X@?$output_processor@_WV?$string_output_adapter@_W@__crt_stdio_output@@V?$format_validation_base@_WV?$string_output_adapter@_W@__crt_stdio_output@@@2@@__crt_stdio_output@@AAE_NXZ 10045044 f i libucrt:output.obj
 0001:00044050       ?type_case_X@?$output_processor@_WV?$string_output_adapter@_W@__crt_stdio_output@@V?$positional_parameter_base@_WV?$string_output_adapter@_W@__crt_stdio_output@@@2@@__crt_stdio_output@@AAE_NXZ 10045050 f i libucrt:output.obj
 0001:0004405c       ?type_case_X@?$output_processor@_WV?$string_output_adapter@_W@__crt_stdio_output@@V?$standard_base@_WV?$string_output_adapter@_W@__crt_stdio_output@@@2@@__crt_stdio_output@@AAE_NXZ 1004505c f i libucrt:output.obj
 0001:00044068       ?type_case_Z@?$output_processor@DV?$stream_output_adapter@D@__crt_stdio_output@@V?$format_validation_base@DV?$stream_output_adapter@D@__crt_stdio_output@@@2@@__crt_stdio_output@@AAE_NXZ 10045068 f i libucrt:output.obj
 0001:000440e3       ?type_case_Z@?$output_processor@DV?$stream_output_adapter@D@__crt_stdio_output@@V?$positional_parameter_base@DV?$stream_output_adapter@D@__crt_stdio_output@@@2@@__crt_stdio_output@@AAE_NXZ 100450e3 f i libucrt:output.obj
 0001:00044181       ?type_case_Z@?$output_processor@DV?$stream_output_adapter@D@__crt_stdio_output@@V?$standard_base@DV?$stream_output_adapter@D@__crt_stdio_output@@@2@@__crt_stdio_output@@AAE_NXZ 10045181 f i libucrt:output.obj
 0001:000441fc       ?type_case_Z@?$output_processor@DV?$string_output_adapter@D@__crt_stdio_output@@V?$format_validation_base@DV?$string_output_adapter@D@__crt_stdio_output@@@2@@__crt_stdio_output@@AAE_NXZ 100451fc f i libucrt:output.obj
 0001:00044277       ?type_case_Z@?$output_processor@DV?$string_output_adapter@D@__crt_stdio_output@@V?$positional_parameter_base@DV?$string_output_adapter@D@__crt_stdio_output@@@2@@__crt_stdio_output@@AAE_NXZ 10045277 f i libucrt:output.obj
 0001:00044315       ?type_case_Z@?$output_processor@DV?$string_output_adapter@D@__crt_stdio_output@@V?$standard_base@DV?$string_output_adapter@D@__crt_stdio_output@@@2@@__crt_stdio_output@@AAE_NXZ 10045315 f i libucrt:output.obj
 0001:00044390       ?type_case_Z@?$output_processor@_WV?$stream_output_adapter@_W@__crt_stdio_output@@V?$format_validation_base@_WV?$stream_output_adapter@_W@__crt_stdio_output@@@2@@__crt_stdio_output@@AAE_NXZ 10045390 f i libucrt:output.obj
 0001:0004440b       ?type_case_Z@?$output_processor@_WV?$stream_output_adapter@_W@__crt_stdio_output@@V?$positional_parameter_base@_WV?$stream_output_adapter@_W@__crt_stdio_output@@@2@@__crt_stdio_output@@AAE_NXZ 1004540b f i libucrt:output.obj
 0001:000444a9       ?type_case_Z@?$output_processor@_WV?$stream_output_adapter@_W@__crt_stdio_output@@V?$standard_base@_WV?$stream_output_adapter@_W@__crt_stdio_output@@@2@@__crt_stdio_output@@AAE_NXZ 100454a9 f i libucrt:output.obj
 0001:00044524       ?type_case_Z@?$output_processor@_WV?$string_output_adapter@_W@__crt_stdio_output@@V?$format_validation_base@_WV?$string_output_adapter@_W@__crt_stdio_output@@@2@@__crt_stdio_output@@AAE_NXZ 10045524 f i libucrt:output.obj
 0001:0004459f       ?type_case_Z@?$output_processor@_WV?$string_output_adapter@_W@__crt_stdio_output@@V?$positional_parameter_base@_WV?$string_output_adapter@_W@__crt_stdio_output@@@2@@__crt_stdio_output@@AAE_NXZ 1004559f f i libucrt:output.obj
 0001:0004463d       ?type_case_Z@?$output_processor@_WV?$string_output_adapter@_W@__crt_stdio_output@@V?$standard_base@_WV?$string_output_adapter@_W@__crt_stdio_output@@@2@@__crt_stdio_output@@AAE_NXZ 1004563d f i libucrt:output.obj
 0001:000446b8       ?type_case_a@?$output_processor@DV?$stream_output_adapter@D@__crt_stdio_output@@V?$format_validation_base@DV?$stream_output_adapter@D@__crt_stdio_output@@@2@@__crt_stdio_output@@AAE_NXZ 100456b8 f i libucrt:output.obj
 0001:00044868       ?type_case_a@?$output_processor@DV?$stream_output_adapter@D@__crt_stdio_output@@V?$positional_parameter_base@DV?$stream_output_adapter@D@__crt_stdio_output@@@2@@__crt_stdio_output@@AAE_NXZ 10045868 f i libucrt:output.obj
 0001:00044a3f       ?type_case_a@?$output_processor@DV?$stream_output_adapter@D@__crt_stdio_output@@V?$standard_base@DV?$stream_output_adapter@D@__crt_stdio_output@@@2@@__crt_stdio_output@@AAE_NXZ 10045a3f f i libucrt:output.obj
 0001:00044bef       ?type_case_a@?$output_processor@DV?$string_output_adapter@D@__crt_stdio_output@@V?$format_validation_base@DV?$string_output_adapter@D@__crt_stdio_output@@@2@@__crt_stdio_output@@AAE_NXZ 10045bef f i libucrt:output.obj
 0001:00044d9f       ?type_case_a@?$output_processor@DV?$string_output_adapter@D@__crt_stdio_output@@V?$positional_parameter_base@DV?$string_output_adapter@D@__crt_stdio_output@@@2@@__crt_stdio_output@@AAE_NXZ 10045d9f f i libucrt:output.obj
 0001:00044f76       ?type_case_a@?$output_processor@DV?$string_output_adapter@D@__crt_stdio_output@@V?$standard_base@DV?$string_output_adapter@D@__crt_stdio_output@@@2@@__crt_stdio_output@@AAE_NXZ 10045f76 f i libucrt:output.obj
 0001:00045126       ?type_case_a@?$output_processor@_WV?$stream_output_adapter@_W@__crt_stdio_output@@V?$format_validation_base@_WV?$stream_output_adapter@_W@__crt_stdio_output@@@2@@__crt_stdio_output@@AAE_NXZ 10046126 f i libucrt:output.obj
 0001:000452f4       ?type_case_a@?$output_processor@_WV?$stream_output_adapter@_W@__crt_stdio_output@@V?$positional_parameter_base@_WV?$stream_output_adapter@_W@__crt_stdio_output@@@2@@__crt_stdio_output@@AAE_NXZ 100462f4 f i libucrt:output.obj
 0001:000454e9       ?type_case_a@?$output_processor@_WV?$stream_output_adapter@_W@__crt_stdio_output@@V?$standard_base@_WV?$stream_output_adapter@_W@__crt_stdio_output@@@2@@__crt_stdio_output@@AAE_NXZ 100464e9 f i libucrt:output.obj
 0001:000456b7       ?type_case_a@?$output_processor@_WV?$string_output_adapter@_W@__crt_stdio_output@@V?$format_validation_base@_WV?$string_output_adapter@_W@__crt_stdio_output@@@2@@__crt_stdio_output@@AAE_NXZ 100466b7 f i libucrt:output.obj
 0001:00045885       ?type_case_a@?$output_processor@_WV?$string_output_adapter@_W@__crt_stdio_output@@V?$positional_parameter_base@_WV?$string_output_adapter@_W@__crt_stdio_output@@@2@@__crt_stdio_output@@AAE_NXZ 10046885 f i libucrt:output.obj
 0001:00045a7a       ?type_case_a@?$output_processor@_WV?$string_output_adapter@_W@__crt_stdio_output@@V?$standard_base@_WV?$string_output_adapter@_W@__crt_stdio_output@@@2@@__crt_stdio_output@@AAE_NXZ 10046a7a f i libucrt:output.obj
 0001:00045c48       ?type_case_c@?$output_processor@DV?$stream_output_adapter@D@__crt_stdio_output@@V?$format_validation_base@DV?$stream_output_adapter@D@__crt_stdio_output@@@2@@__crt_stdio_output@@AAE_NXZ 10046c48 f i libucrt:output.obj
 0001:00045c52       ?type_case_c@?$output_processor@DV?$stream_output_adapter@D@__crt_stdio_output@@V?$positional_parameter_base@DV?$stream_output_adapter@D@__crt_stdio_output@@@2@@__crt_stdio_output@@AAE_NXZ 10046c52 f i libucrt:output.obj
 0001:00045c5c       ?type_case_c@?$output_processor@DV?$stream_output_adapter@D@__crt_stdio_output@@V?$standard_base@DV?$stream_output_adapter@D@__crt_stdio_output@@@2@@__crt_stdio_output@@AAE_NXZ 10046c5c f i libucrt:output.obj
 0001:00045c66       ?type_case_c@?$output_processor@DV?$string_output_adapter@D@__crt_stdio_output@@V?$format_validation_base@DV?$string_output_adapter@D@__crt_stdio_output@@@2@@__crt_stdio_output@@AAE_NXZ 10046c66 f i libucrt:output.obj
 0001:00045c70       ?type_case_c@?$output_processor@DV?$string_output_adapter@D@__crt_stdio_output@@V?$positional_parameter_base@DV?$string_output_adapter@D@__crt_stdio_output@@@2@@__crt_stdio_output@@AAE_NXZ 10046c70 f i libucrt:output.obj
 0001:00045c7a       ?type_case_c@?$output_processor@DV?$string_output_adapter@D@__crt_stdio_output@@V?$standard_base@DV?$string_output_adapter@D@__crt_stdio_output@@@2@@__crt_stdio_output@@AAE_NXZ 10046c7a f i libucrt:output.obj
 0001:00045c84       ?type_case_c@?$output_processor@_WV?$stream_output_adapter@_W@__crt_stdio_output@@V?$format_validation_base@_WV?$stream_output_adapter@_W@__crt_stdio_output@@@2@@__crt_stdio_output@@AAE_NXZ 10046c84 f i libucrt:output.obj
 0001:00045c8e       ?type_case_c@?$output_processor@_WV?$stream_output_adapter@_W@__crt_stdio_output@@V?$positional_parameter_base@_WV?$stream_output_adapter@_W@__crt_stdio_output@@@2@@__crt_stdio_output@@AAE_NXZ 10046c8e f i libucrt:output.obj
 0001:00045c98       ?type_case_c@?$output_processor@_WV?$stream_output_adapter@_W@__crt_stdio_output@@V?$standard_base@_WV?$stream_output_adapter@_W@__crt_stdio_output@@@2@@__crt_stdio_output@@AAE_NXZ 10046c98 f i libucrt:output.obj
 0001:00045ca2       ?type_case_c@?$output_processor@_WV?$string_output_adapter@_W@__crt_stdio_output@@V?$format_validation_base@_WV?$string_output_adapter@_W@__crt_stdio_output@@@2@@__crt_stdio_output@@AAE_NXZ 10046ca2 f i libucrt:output.obj
 0001:00045cac       ?type_case_c@?$output_processor@_WV?$string_output_adapter@_W@__crt_stdio_output@@V?$positional_parameter_base@_WV?$string_output_adapter@_W@__crt_stdio_output@@@2@@__crt_stdio_output@@AAE_NXZ 10046cac f i libucrt:output.obj
 0001:00045cb6       ?type_case_c@?$output_processor@_WV?$string_output_adapter@_W@__crt_stdio_output@@V?$standard_base@_WV?$string_output_adapter@_W@__crt_stdio_output@@@2@@__crt_stdio_output@@AAE_NXZ 10046cb6 f i libucrt:output.obj
 0001:00045cc0       ?type_case_c_tchar@?$output_processor@DV?$stream_output_adapter@D@__crt_stdio_output@@V?$format_validation_base@DV?$stream_output_adapter@D@__crt_stdio_output@@@2@@__crt_stdio_output@@AAE_ND@Z 10046cc0 f i libucrt:output.obj
 0001:00045d74       ?type_case_c_tchar@?$output_processor@DV?$stream_output_adapter@D@__crt_stdio_output@@V?$positional_parameter_base@DV?$stream_output_adapter@D@__crt_stdio_output@@@2@@__crt_stdio_output@@AAE_ND@Z 10046d74 f i libucrt:output.obj
 0001:00045e64       ?type_case_c_tchar@?$output_processor@DV?$stream_output_adapter@D@__crt_stdio_output@@V?$standard_base@DV?$stream_output_adapter@D@__crt_stdio_output@@@2@@__crt_stdio_output@@AAE_ND@Z 10046e64 f i libucrt:output.obj
 0001:00045f18       ?type_case_c_tchar@?$output_processor@DV?$string_output_adapter@D@__crt_stdio_output@@V?$format_validation_base@DV?$string_output_adapter@D@__crt_stdio_output@@@2@@__crt_stdio_output@@AAE_ND@Z 10046f18 f i libucrt:output.obj
 0001:00045fcc       ?type_case_c_tchar@?$output_processor@DV?$string_output_adapter@D@__crt_stdio_output@@V?$positional_parameter_base@DV?$string_output_adapter@D@__crt_stdio_output@@@2@@__crt_stdio_output@@AAE_ND@Z 10046fcc f i libucrt:output.obj
 0001:000460bc       ?type_case_c_tchar@?$output_processor@DV?$string_output_adapter@D@__crt_stdio_output@@V?$standard_base@DV?$string_output_adapter@D@__crt_stdio_output@@@2@@__crt_stdio_output@@AAE_ND@Z 100470bc f i libucrt:output.obj
 0001:00046170       ?type_case_c_tchar@?$output_processor@_WV?$stream_output_adapter@_W@__crt_stdio_output@@V?$format_validation_base@_WV?$stream_output_adapter@_W@__crt_stdio_output@@@2@@__crt_stdio_output@@AAE_N_W@Z 10047170 f i libucrt:output.obj
 0001:0004622e       ?type_case_c_tchar@?$output_processor@_WV?$stream_output_adapter@_W@__crt_stdio_output@@V?$positional_parameter_base@_WV?$stream_output_adapter@_W@__crt_stdio_output@@@2@@__crt_stdio_output@@AAE_N_W@Z 1004722e f i libucrt:output.obj
 0001:00046308       ?type_case_c_tchar@?$output_processor@_WV?$stream_output_adapter@_W@__crt_stdio_output@@V?$standard_base@_WV?$stream_output_adapter@_W@__crt_stdio_output@@@2@@__crt_stdio_output@@AAE_N_W@Z 10047308 f i libucrt:output.obj
 0001:000463c6       ?type_case_c_tchar@?$output_processor@_WV?$string_output_adapter@_W@__crt_stdio_output@@V?$format_validation_base@_WV?$string_output_adapter@_W@__crt_stdio_output@@@2@@__crt_stdio_output@@AAE_N_W@Z 100473c6 f i libucrt:output.obj
 0001:00046484       ?type_case_c_tchar@?$output_processor@_WV?$string_output_adapter@_W@__crt_stdio_output@@V?$positional_parameter_base@_WV?$string_output_adapter@_W@__crt_stdio_output@@@2@@__crt_stdio_output@@AAE_N_W@Z 10047484 f i libucrt:output.obj
 0001:0004655e       ?type_case_c_tchar@?$output_processor@_WV?$string_output_adapter@_W@__crt_stdio_output@@V?$standard_base@_WV?$string_output_adapter@_W@__crt_stdio_output@@@2@@__crt_stdio_output@@AAE_N_W@Z 1004755e f i libucrt:output.obj
 0001:0004661c       ?type_case_d@?$output_processor@DV?$stream_output_adapter@D@__crt_stdio_output@@V?$format_validation_base@DV?$stream_output_adapter@D@__crt_stdio_output@@@2@@__crt_stdio_output@@AAE_NXZ 1004761c f i libucrt:output.obj
 0001:0004662d       ?type_case_d@?$output_processor@DV?$stream_output_adapter@D@__crt_stdio_output@@V?$positional_parameter_base@DV?$stream_output_adapter@D@__crt_stdio_output@@@2@@__crt_stdio_output@@AAE_NXZ 1004762d f i libucrt:output.obj
 0001:0004663e       ?type_case_d@?$output_processor@DV?$stream_output_adapter@D@__crt_stdio_output@@V?$standard_base@DV?$stream_output_adapter@D@__crt_stdio_output@@@2@@__crt_stdio_output@@AAE_NXZ 1004763e f i libucrt:output.obj
 0001:0004664f       ?type_case_d@?$output_processor@DV?$string_output_adapter@D@__crt_stdio_output@@V?$format_validation_base@DV?$string_output_adapter@D@__crt_stdio_output@@@2@@__crt_stdio_output@@AAE_NXZ 1004764f f i libucrt:output.obj
 0001:00046660       ?type_case_d@?$output_processor@DV?$string_output_adapter@D@__crt_stdio_output@@V?$positional_parameter_base@DV?$string_output_adapter@D@__crt_stdio_output@@@2@@__crt_stdio_output@@AAE_NXZ 10047660 f i libucrt:output.obj
 0001:00046671       ?type_case_d@?$output_processor@DV?$string_output_adapter@D@__crt_stdio_output@@V?$standard_base@DV?$string_output_adapter@D@__crt_stdio_output@@@2@@__crt_stdio_output@@AAE_NXZ 10047671 f i libucrt:output.obj
 0001:00046682       ?type_case_d@?$output_processor@_WV?$stream_output_adapter@_W@__crt_stdio_output@@V?$format_validation_base@_WV?$stream_output_adapter@_W@__crt_stdio_output@@@2@@__crt_stdio_output@@AAE_NXZ 10047682 f i libucrt:output.obj
 0001:00046693       ?type_case_d@?$output_processor@_WV?$stream_output_adapter@_W@__crt_stdio_output@@V?$positional_parameter_base@_WV?$stream_output_adapter@_W@__crt_stdio_output@@@2@@__crt_stdio_output@@AAE_NXZ 10047693 f i libucrt:output.obj
 0001:000466a4       ?type_case_d@?$output_processor@_WV?$stream_output_adapter@_W@__crt_stdio_output@@V?$standard_base@_WV?$stream_output_adapter@_W@__crt_stdio_output@@@2@@__crt_stdio_output@@AAE_NXZ 100476a4 f i libucrt:output.obj
 0001:000466b5       ?type_case_d@?$output_processor@_WV?$string_output_adapter@_W@__crt_stdio_output@@V?$format_validation_base@_WV?$string_output_adapter@_W@__crt_stdio_output@@@2@@__crt_stdio_output@@AAE_NXZ 100476b5 f i libucrt:output.obj
 0001:000466c6       ?type_case_d@?$output_processor@_WV?$string_output_adapter@_W@__crt_stdio_output@@V?$positional_parameter_base@_WV?$string_output_adapter@_W@__crt_stdio_output@@@2@@__crt_stdio_output@@AAE_NXZ 100476c6 f i libucrt:output.obj
 0001:000466d7       ?type_case_d@?$output_processor@_WV?$string_output_adapter@_W@__crt_stdio_output@@V?$standard_base@_WV?$string_output_adapter@_W@__crt_stdio_output@@@2@@__crt_stdio_output@@AAE_NXZ 100476d7 f i libucrt:output.obj
 0001:000466e8       ?type_case_integer@?$output_processor@DV?$stream_output_adapter@D@__crt_stdio_output@@V?$format_validation_base@DV?$stream_output_adapter@D@__crt_stdio_output@@@2@@__crt_stdio_output@@AAE_NI_N@Z 100476e8 f i libucrt:output.obj
 0001:00046884       ?type_case_integer@?$output_processor@DV?$stream_output_adapter@D@__crt_stdio_output@@V?$positional_parameter_base@DV?$stream_output_adapter@D@__crt_stdio_output@@@2@@__crt_stdio_output@@AAE_NI_N@Z 10047884 f i libucrt:output.obj
 0001:00046a61       ?type_case_integer@?$output_processor@DV?$stream_output_adapter@D@__crt_stdio_output@@V?$standard_base@DV?$stream_output_adapter@D@__crt_stdio_output@@@2@@__crt_stdio_output@@AAE_NI_N@Z 10047a61 f i libucrt:output.obj
 0001:00046bfd       ?type_case_integer@?$output_processor@DV?$string_output_adapter@D@__crt_stdio_output@@V?$format_validation_base@DV?$string_output_adapter@D@__crt_stdio_output@@@2@@__crt_stdio_output@@AAE_NI_N@Z 10047bfd f i libucrt:output.obj
 0001:00046d99       ?type_case_integer@?$output_processor@DV?$string_output_adapter@D@__crt_stdio_output@@V?$positional_parameter_base@DV?$string_output_adapter@D@__crt_stdio_output@@@2@@__crt_stdio_output@@AAE_NI_N@Z 10047d99 f i libucrt:output.obj
 0001:00046f76       ?type_case_integer@?$output_processor@DV?$string_output_adapter@D@__crt_stdio_output@@V?$standard_base@DV?$string_output_adapter@D@__crt_stdio_output@@@2@@__crt_stdio_output@@AAE_NI_N@Z 10047f76 f i libucrt:output.obj
 0001:00047112       ?type_case_integer@?$output_processor@_WV?$stream_output_adapter@_W@__crt_stdio_output@@V?$format_validation_base@_WV?$stream_output_adapter@_W@__crt_stdio_output@@@2@@__crt_stdio_output@@AAE_NI_N@Z 10048112 f i libucrt:output.obj
 0001:000472ae       ?type_case_integer@?$output_processor@_WV?$stream_output_adapter@_W@__crt_stdio_output@@V?$positional_parameter_base@_WV?$stream_output_adapter@_W@__crt_stdio_output@@@2@@__crt_stdio_output@@AAE_NI_N@Z 100482ae f i libucrt:output.obj
 0001:0004748b       ?type_case_integer@?$output_processor@_WV?$stream_output_adapter@_W@__crt_stdio_output@@V?$standard_base@_WV?$stream_output_adapter@_W@__crt_stdio_output@@@2@@__crt_stdio_output@@AAE_NI_N@Z 1004848b f i libucrt:output.obj
 0001:00047627       ?type_case_integer@?$output_processor@_WV?$string_output_adapter@_W@__crt_stdio_output@@V?$format_validation_base@_WV?$string_output_adapter@_W@__crt_stdio_output@@@2@@__crt_stdio_output@@AAE_NI_N@Z 10048627 f i libucrt:output.obj
 0001:000477c3       ?type_case_integer@?$output_processor@_WV?$string_output_adapter@_W@__crt_stdio_output@@V?$positional_parameter_base@_WV?$string_output_adapter@_W@__crt_stdio_output@@@2@@__crt_stdio_output@@AAE_NI_N@Z 100487c3 f i libucrt:output.obj
 0001:000479a0       ?type_case_integer@?$output_processor@_WV?$string_output_adapter@_W@__crt_stdio_output@@V?$standard_base@_WV?$string_output_adapter@_W@__crt_stdio_output@@@2@@__crt_stdio_output@@AAE_NI_N@Z 100489a0 f i libucrt:output.obj
 0001:00047b3c       ?type_case_n@?$output_processor@DV?$stream_output_adapter@D@__crt_stdio_output@@V?$format_validation_base@DV?$stream_output_adapter@D@__crt_stdio_output@@@2@@__crt_stdio_output@@AAE_NXZ 10048b3c f i libucrt:output.obj
 0001:00047bcd       ?type_case_n@?$output_processor@DV?$stream_output_adapter@D@__crt_stdio_output@@V?$positional_parameter_base@DV?$stream_output_adapter@D@__crt_stdio_output@@@2@@__crt_stdio_output@@AAE_NXZ 10048bcd f i libucrt:output.obj
 0001:00047c8c       ?type_case_n@?$output_processor@DV?$stream_output_adapter@D@__crt_stdio_output@@V?$standard_base@DV?$stream_output_adapter@D@__crt_stdio_output@@@2@@__crt_stdio_output@@AAE_NXZ 10048c8c f i libucrt:output.obj
 0001:00047d1d       ?type_case_n@?$output_processor@DV?$string_output_adapter@D@__crt_stdio_output@@V?$format_validation_base@DV?$string_output_adapter@D@__crt_stdio_output@@@2@@__crt_stdio_output@@AAE_NXZ 10048d1d f i libucrt:output.obj
 0001:00047dae       ?type_case_n@?$output_processor@DV?$string_output_adapter@D@__crt_stdio_output@@V?$positional_parameter_base@DV?$string_output_adapter@D@__crt_stdio_output@@@2@@__crt_stdio_output@@AAE_NXZ 10048dae f i libucrt:output.obj
 0001:00047e6d       ?type_case_n@?$output_processor@DV?$string_output_adapter@D@__crt_stdio_output@@V?$standard_base@DV?$string_output_adapter@D@__crt_stdio_output@@@2@@__crt_stdio_output@@AAE_NXZ 10048e6d f i libucrt:output.obj
 0001:00047efe       ?type_case_n@?$output_processor@_WV?$stream_output_adapter@_W@__crt_stdio_output@@V?$format_validation_base@_WV?$stream_output_adapter@_W@__crt_stdio_output@@@2@@__crt_stdio_output@@AAE_NXZ 10048efe f i libucrt:output.obj
 0001:00047f8f       ?type_case_n@?$output_processor@_WV?$stream_output_adapter@_W@__crt_stdio_output@@V?$positional_parameter_base@_WV?$stream_output_adapter@_W@__crt_stdio_output@@@2@@__crt_stdio_output@@AAE_NXZ 10048f8f f i libucrt:output.obj
 0001:0004804e       ?type_case_n@?$output_processor@_WV?$stream_output_adapter@_W@__crt_stdio_output@@V?$standard_base@_WV?$stream_output_adapter@_W@__crt_stdio_output@@@2@@__crt_stdio_output@@AAE_NXZ 1004904e f i libucrt:output.obj
 0001:000480df       ?type_case_n@?$output_processor@_WV?$string_output_adapter@_W@__crt_stdio_output@@V?$format_validation_base@_WV?$string_output_adapter@_W@__crt_stdio_output@@@2@@__crt_stdio_output@@AAE_NXZ 100490df f i libucrt:output.obj
 0001:00048170       ?type_case_n@?$output_processor@_WV?$string_output_adapter@_W@__crt_stdio_output@@V?$positional_parameter_base@_WV?$string_output_adapter@_W@__crt_stdio_output@@@2@@__crt_stdio_output@@AAE_NXZ 10049170 f i libucrt:output.obj
 0001:0004822f       ?type_case_n@?$output_processor@_WV?$string_output_adapter@_W@__crt_stdio_output@@V?$standard_base@_WV?$string_output_adapter@_W@__crt_stdio_output@@@2@@__crt_stdio_output@@AAE_NXZ 1004922f f i libucrt:output.obj
 0001:000482c0       ?type_case_o@?$output_processor@DV?$stream_output_adapter@D@__crt_stdio_output@@V?$format_validation_base@DV?$stream_output_adapter@D@__crt_stdio_output@@@2@@__crt_stdio_output@@AAE_NXZ 100492c0 f i libucrt:output.obj
 0001:000482e6       ?type_case_o@?$output_processor@DV?$stream_output_adapter@D@__crt_stdio_output@@V?$positional_parameter_base@DV?$stream_output_adapter@D@__crt_stdio_output@@@2@@__crt_stdio_output@@AAE_NXZ 100492e6 f i libucrt:output.obj
 0001:0004830c       ?type_case_o@?$output_processor@DV?$stream_output_adapter@D@__crt_stdio_output@@V?$standard_base@DV?$stream_output_adapter@D@__crt_stdio_output@@@2@@__crt_stdio_output@@AAE_NXZ 1004930c f i libucrt:output.obj
 0001:00048332       ?type_case_o@?$output_processor@DV?$string_output_adapter@D@__crt_stdio_output@@V?$format_validation_base@DV?$string_output_adapter@D@__crt_stdio_output@@@2@@__crt_stdio_output@@AAE_NXZ 10049332 f i libucrt:output.obj
 0001:00048358       ?type_case_o@?$output_processor@DV?$string_output_adapter@D@__crt_stdio_output@@V?$positional_parameter_base@DV?$string_output_adapter@D@__crt_stdio_output@@@2@@__crt_stdio_output@@AAE_NXZ 10049358 f i libucrt:output.obj
 0001:0004837e       ?type_case_o@?$output_processor@DV?$string_output_adapter@D@__crt_stdio_output@@V?$standard_base@DV?$string_output_adapter@D@__crt_stdio_output@@@2@@__crt_stdio_output@@AAE_NXZ 1004937e f i libucrt:output.obj
 0001:000483a4       ?type_case_o@?$output_processor@_WV?$stream_output_adapter@_W@__crt_stdio_output@@V?$format_validation_base@_WV?$stream_output_adapter@_W@__crt_stdio_output@@@2@@__crt_stdio_output@@AAE_NXZ 100493a4 f i libucrt:output.obj
 0001:000483ca       ?type_case_o@?$output_processor@_WV?$stream_output_adapter@_W@__crt_stdio_output@@V?$positional_parameter_base@_WV?$stream_output_adapter@_W@__crt_stdio_output@@@2@@__crt_stdio_output@@AAE_NXZ 100493ca f i libucrt:output.obj
 0001:000483f0       ?type_case_o@?$output_processor@_WV?$stream_output_adapter@_W@__crt_stdio_output@@V?$standard_base@_WV?$stream_output_adapter@_W@__crt_stdio_output@@@2@@__crt_stdio_output@@AAE_NXZ 100493f0 f i libucrt:output.obj
 0001:00048416       ?type_case_o@?$output_processor@_WV?$string_output_adapter@_W@__crt_stdio_output@@V?$format_validation_base@_WV?$string_output_adapter@_W@__crt_stdio_output@@@2@@__crt_stdio_output@@AAE_NXZ 10049416 f i libucrt:output.obj
 0001:0004843c       ?type_case_o@?$output_processor@_WV?$string_output_adapter@_W@__crt_stdio_output@@V?$positional_parameter_base@_WV?$string_output_adapter@_W@__crt_stdio_output@@@2@@__crt_stdio_output@@AAE_NXZ 1004943c f i libucrt:output.obj
 0001:00048462       ?type_case_o@?$output_processor@_WV?$string_output_adapter@_W@__crt_stdio_output@@V?$standard_base@_WV?$string_output_adapter@_W@__crt_stdio_output@@@2@@__crt_stdio_output@@AAE_NXZ 10049462 f i libucrt:output.obj
 0001:00048488       ?type_case_p@?$output_processor@DV?$stream_output_adapter@D@__crt_stdio_output@@V?$format_validation_base@DV?$stream_output_adapter@D@__crt_stdio_output@@@2@@__crt_stdio_output@@AAE_NXZ 10049488 f i libucrt:output.obj
 0001:000484a6       ?type_case_p@?$output_processor@DV?$stream_output_adapter@D@__crt_stdio_output@@V?$positional_parameter_base@DV?$stream_output_adapter@D@__crt_stdio_output@@@2@@__crt_stdio_output@@AAE_NXZ 100494a6 f i libucrt:output.obj
 0001:000484c4       ?type_case_p@?$output_processor@DV?$stream_output_adapter@D@__crt_stdio_output@@V?$standard_base@DV?$stream_output_adapter@D@__crt_stdio_output@@@2@@__crt_stdio_output@@AAE_NXZ 100494c4 f i libucrt:output.obj
 0001:000484e2       ?type_case_p@?$output_processor@DV?$string_output_adapter@D@__crt_stdio_output@@V?$format_validation_base@DV?$string_output_adapter@D@__crt_stdio_output@@@2@@__crt_stdio_output@@AAE_NXZ 100494e2 f i libucrt:output.obj
 0001:00048500       ?type_case_p@?$output_processor@DV?$string_output_adapter@D@__crt_stdio_output@@V?$positional_parameter_base@DV?$string_output_adapter@D@__crt_stdio_output@@@2@@__crt_stdio_output@@AAE_NXZ 10049500 f i libucrt:output.obj
 0001:0004851e       ?type_case_p@?$output_processor@DV?$string_output_adapter@D@__crt_stdio_output@@V?$standard_base@DV?$string_output_adapter@D@__crt_stdio_output@@@2@@__crt_stdio_output@@AAE_NXZ 1004951e f i libucrt:output.obj
 0001:0004853c       ?type_case_p@?$output_processor@_WV?$stream_output_adapter@_W@__crt_stdio_output@@V?$format_validation_base@_WV?$stream_output_adapter@_W@__crt_stdio_output@@@2@@__crt_stdio_output@@AAE_NXZ 1004953c f i libucrt:output.obj
 0001:0004855a       ?type_case_p@?$output_processor@_WV?$stream_output_adapter@_W@__crt_stdio_output@@V?$positional_parameter_base@_WV?$stream_output_adapter@_W@__crt_stdio_output@@@2@@__crt_stdio_output@@AAE_NXZ 1004955a f i libucrt:output.obj
 0001:00048578       ?type_case_p@?$output_processor@_WV?$stream_output_adapter@_W@__crt_stdio_output@@V?$standard_base@_WV?$stream_output_adapter@_W@__crt_stdio_output@@@2@@__crt_stdio_output@@AAE_NXZ 10049578 f i libucrt:output.obj
 0001:00048596       ?type_case_p@?$output_processor@_WV?$string_output_adapter@_W@__crt_stdio_output@@V?$format_validation_base@_WV?$string_output_adapter@_W@__crt_stdio_output@@@2@@__crt_stdio_output@@AAE_NXZ 10049596 f i libucrt:output.obj
 0001:000485b4       ?type_case_p@?$output_processor@_WV?$string_output_adapter@_W@__crt_stdio_output@@V?$positional_parameter_base@_WV?$string_output_adapter@_W@__crt_stdio_output@@@2@@__crt_stdio_output@@AAE_NXZ 100495b4 f i libucrt:output.obj
 0001:000485d2       ?type_case_p@?$output_processor@_WV?$string_output_adapter@_W@__crt_stdio_output@@V?$standard_base@_WV?$string_output_adapter@_W@__crt_stdio_output@@@2@@__crt_stdio_output@@AAE_NXZ 100495d2 f i libucrt:output.obj
 0001:000485f0       ?type_case_s@?$output_processor@DV?$stream_output_adapter@D@__crt_stdio_output@@V?$format_validation_base@DV?$stream_output_adapter@D@__crt_stdio_output@@@2@@__crt_stdio_output@@AAE_NXZ 100495f0 f i libucrt:output.obj
 0001:0004867f       ?type_case_s@?$output_processor@DV?$stream_output_adapter@D@__crt_stdio_output@@V?$positional_parameter_base@DV?$stream_output_adapter@D@__crt_stdio_output@@@2@@__crt_stdio_output@@AAE_NXZ 1004967f f i libucrt:output.obj
 0001:0004871a       ?type_case_s@?$output_processor@DV?$stream_output_adapter@D@__crt_stdio_output@@V?$standard_base@DV?$stream_output_adapter@D@__crt_stdio_output@@@2@@__crt_stdio_output@@AAE_NXZ 1004971a f i libucrt:output.obj
 0001:000487a9       ?type_case_s@?$output_processor@DV?$string_output_adapter@D@__crt_stdio_output@@V?$format_validation_base@DV?$string_output_adapter@D@__crt_stdio_output@@@2@@__crt_stdio_output@@AAE_NXZ 100497a9 f i libucrt:output.obj
 0001:00048838       ?type_case_s@?$output_processor@DV?$string_output_adapter@D@__crt_stdio_output@@V?$positional_parameter_base@DV?$string_output_adapter@D@__crt_stdio_output@@@2@@__crt_stdio_output@@AAE_NXZ 10049838 f i libucrt:output.obj
 0001:000488d3       ?type_case_s@?$output_processor@DV?$string_output_adapter@D@__crt_stdio_output@@V?$standard_base@DV?$string_output_adapter@D@__crt_stdio_output@@@2@@__crt_stdio_output@@AAE_NXZ 100498d3 f i libucrt:output.obj
 0001:00048962       ?type_case_s@?$output_processor@_WV?$stream_output_adapter@_W@__crt_stdio_output@@V?$format_validation_base@_WV?$stream_output_adapter@_W@__crt_stdio_output@@@2@@__crt_stdio_output@@AAE_NXZ 10049962 f i libucrt:output.obj
 0001:000489f3       ?type_case_s@?$output_processor@_WV?$stream_output_adapter@_W@__crt_stdio_output@@V?$positional_parameter_base@_WV?$stream_output_adapter@_W@__crt_stdio_output@@@2@@__crt_stdio_output@@AAE_NXZ 100499f3 f i libucrt:output.obj
 0001:00048a90       ?type_case_s@?$output_processor@_WV?$stream_output_adapter@_W@__crt_stdio_output@@V?$standard_base@_WV?$stream_output_adapter@_W@__crt_stdio_output@@@2@@__crt_stdio_output@@AAE_NXZ 10049a90 f i libucrt:output.obj
 0001:00048b21       ?type_case_s@?$output_processor@_WV?$string_output_adapter@_W@__crt_stdio_output@@V?$format_validation_base@_WV?$string_output_adapter@_W@__crt_stdio_output@@@2@@__crt_stdio_output@@AAE_NXZ 10049b21 f i libucrt:output.obj
 0001:00048bb2       ?type_case_s@?$output_processor@_WV?$string_output_adapter@_W@__crt_stdio_output@@V?$positional_parameter_base@_WV?$string_output_adapter@_W@__crt_stdio_output@@@2@@__crt_stdio_output@@AAE_NXZ 10049bb2 f i libucrt:output.obj
 0001:00048c4f       ?type_case_s@?$output_processor@_WV?$string_output_adapter@_W@__crt_stdio_output@@V?$standard_base@_WV?$string_output_adapter@_W@__crt_stdio_output@@@2@@__crt_stdio_output@@AAE_NXZ 10049c4f f i libucrt:output.obj
 0001:00048ce0       ?type_case_s_compute_narrow_string_length@?$output_processor@DV?$stream_output_adapter@D@__crt_stdio_output@@V?$format_validation_base@DV?$stream_output_adapter@D@__crt_stdio_output@@@2@@__crt_stdio_output@@ABEHHD@Z 10049ce0 f i libucrt:output.obj
 0001:00048cfb       ?type_case_s_compute_narrow_string_length@?$output_processor@DV?$stream_output_adapter@D@__crt_stdio_output@@V?$positional_parameter_base@DV?$stream_output_adapter@D@__crt_stdio_output@@@2@@__crt_stdio_output@@ABEHHD@Z 10049cfb f i libucrt:output.obj
 0001:00048d16       ?type_case_s_compute_narrow_string_length@?$output_processor@DV?$stream_output_adapter@D@__crt_stdio_output@@V?$standard_base@DV?$stream_output_adapter@D@__crt_stdio_output@@@2@@__crt_stdio_output@@ABEHHD@Z 10049d16 f i libucrt:output.obj
 0001:00048d31       ?type_case_s_compute_narrow_string_length@?$output_processor@DV?$string_output_adapter@D@__crt_stdio_output@@V?$format_validation_base@DV?$string_output_adapter@D@__crt_stdio_output@@@2@@__crt_stdio_output@@ABEHHD@Z 10049d31 f i libucrt:output.obj
 0001:00048d4c       ?type_case_s_compute_narrow_string_length@?$output_processor@DV?$string_output_adapter@D@__crt_stdio_output@@V?$positional_parameter_base@DV?$string_output_adapter@D@__crt_stdio_output@@@2@@__crt_stdio_output@@ABEHHD@Z 10049d4c f i libucrt:output.obj
 0001:00048d67       ?type_case_s_compute_narrow_string_length@?$output_processor@DV?$string_output_adapter@D@__crt_stdio_output@@V?$standard_base@DV?$string_output_adapter@D@__crt_stdio_output@@@2@@__crt_stdio_output@@ABEHHD@Z 10049d67 f i libucrt:output.obj
 0001:00048d82       ?type_case_s_compute_narrow_string_length@?$output_processor@_WV?$stream_output_adapter@_W@__crt_stdio_output@@V?$format_validation_base@_WV?$stream_output_adapter@_W@__crt_stdio_output@@@2@@__crt_stdio_output@@ABEHH_W@Z 10049d82 f i libucrt:output.obj
 0001:00048dd2       ?type_case_s_compute_narrow_string_length@?$output_processor@_WV?$stream_output_adapter@_W@__crt_stdio_output@@V?$positional_parameter_base@_WV?$stream_output_adapter@_W@__crt_stdio_output@@@2@@__crt_stdio_output@@ABEHH_W@Z 10049dd2 f i libucrt:output.obj
 0001:00048e22       ?type_case_s_compute_narrow_string_length@?$output_processor@_WV?$stream_output_adapter@_W@__crt_stdio_output@@V?$standard_base@_WV?$stream_output_adapter@_W@__crt_stdio_output@@@2@@__crt_stdio_output@@ABEHH_W@Z 10049e22 f i libucrt:output.obj
 0001:00048e72       ?type_case_s_compute_narrow_string_length@?$output_processor@_WV?$string_output_adapter@_W@__crt_stdio_output@@V?$format_validation_base@_WV?$string_output_adapter@_W@__crt_stdio_output@@@2@@__crt_stdio_output@@ABEHH_W@Z 10049e72 f i libucrt:output.obj
 0001:00048ec2       ?type_case_s_compute_narrow_string_length@?$output_processor@_WV?$string_output_adapter@_W@__crt_stdio_output@@V?$positional_parameter_base@_WV?$string_output_adapter@_W@__crt_stdio_output@@@2@@__crt_stdio_output@@ABEHH_W@Z 10049ec2 f i libucrt:output.obj
 0001:00048f12       ?type_case_s_compute_narrow_string_length@?$output_processor@_WV?$string_output_adapter@_W@__crt_stdio_output@@V?$standard_base@_WV?$string_output_adapter@_W@__crt_stdio_output@@@2@@__crt_stdio_output@@ABEHH_W@Z 10049f12 f i libucrt:output.obj
 0001:00048f62       ?type_case_u@?$output_processor@DV?$stream_output_adapter@D@__crt_stdio_output@@V?$format_validation_base@DV?$stream_output_adapter@D@__crt_stdio_output@@@2@@__crt_stdio_output@@AAE_NXZ 10049f62 f i libucrt:output.obj
 0001:00048f6e       ?type_case_u@?$output_processor@DV?$stream_output_adapter@D@__crt_stdio_output@@V?$positional_parameter_base@DV?$stream_output_adapter@D@__crt_stdio_output@@@2@@__crt_stdio_output@@AAE_NXZ 10049f6e f i libucrt:output.obj
 0001:00048f7a       ?type_case_u@?$output_processor@DV?$stream_output_adapter@D@__crt_stdio_output@@V?$standard_base@DV?$stream_output_adapter@D@__crt_stdio_output@@@2@@__crt_stdio_output@@AAE_NXZ 10049f7a f i libucrt:output.obj
 0001:00048f86       ?type_case_u@?$output_processor@DV?$string_output_adapter@D@__crt_stdio_output@@V?$format_validation_base@DV?$string_output_adapter@D@__crt_stdio_output@@@2@@__crt_stdio_output@@AAE_NXZ 10049f86 f i libucrt:output.obj
 0001:00048f92       ?type_case_u@?$output_processor@DV?$string_output_adapter@D@__crt_stdio_output@@V?$positional_parameter_base@DV?$string_output_adapter@D@__crt_stdio_output@@@2@@__crt_stdio_output@@AAE_NXZ 10049f92 f i libucrt:output.obj
 0001:00048f9e       ?type_case_u@?$output_processor@DV?$string_output_adapter@D@__crt_stdio_output@@V?$standard_base@DV?$string_output_adapter@D@__crt_stdio_output@@@2@@__crt_stdio_output@@AAE_NXZ 10049f9e f i libucrt:output.obj
 0001:00048faa       ?type_case_u@?$output_processor@_WV?$stream_output_adapter@_W@__crt_stdio_output@@V?$format_validation_base@_WV?$stream_output_adapter@_W@__crt_stdio_output@@@2@@__crt_stdio_output@@AAE_NXZ 10049faa f i libucrt:output.obj
 0001:00048fb6       ?type_case_u@?$output_processor@_WV?$stream_output_adapter@_W@__crt_stdio_output@@V?$positional_parameter_base@_WV?$stream_output_adapter@_W@__crt_stdio_output@@@2@@__crt_stdio_output@@AAE_NXZ 10049fb6 f i libucrt:output.obj
 0001:00048fc2       ?type_case_u@?$output_processor@_WV?$stream_output_adapter@_W@__crt_stdio_output@@V?$standard_base@_WV?$stream_output_adapter@_W@__crt_stdio_output@@@2@@__crt_stdio_output@@AAE_NXZ 10049fc2 f i libucrt:output.obj
 0001:00048fce       ?type_case_u@?$output_processor@_WV?$string_output_adapter@_W@__crt_stdio_output@@V?$format_validation_base@_WV?$string_output_adapter@_W@__crt_stdio_output@@@2@@__crt_stdio_output@@AAE_NXZ 10049fce f i libucrt:output.obj
 0001:00048fda       ?type_case_u@?$output_processor@_WV?$string_output_adapter@_W@__crt_stdio_output@@V?$positional_parameter_base@_WV?$string_output_adapter@_W@__crt_stdio_output@@@2@@__crt_stdio_output@@AAE_NXZ 10049fda f i libucrt:output.obj
 0001:00048fe6       ?type_case_u@?$output_processor@_WV?$string_output_adapter@_W@__crt_stdio_output@@V?$standard_base@_WV?$string_output_adapter@_W@__crt_stdio_output@@@2@@__crt_stdio_output@@AAE_NXZ 10049fe6 f i libucrt:output.obj
 0001:00048ff2       ?type_case_x@?$output_processor@DV?$stream_output_adapter@D@__crt_stdio_output@@V?$format_validation_base@DV?$stream_output_adapter@D@__crt_stdio_output@@@2@@__crt_stdio_output@@AAE_NXZ 10049ff2 f i libucrt:output.obj
 0001:00048ffe       ?type_case_x@?$output_processor@DV?$stream_output_adapter@D@__crt_stdio_output@@V?$positional_parameter_base@DV?$stream_output_adapter@D@__crt_stdio_output@@@2@@__crt_stdio_output@@AAE_NXZ 10049ffe f i libucrt:output.obj
 0001:0004900a       ?type_case_x@?$output_processor@DV?$stream_output_adapter@D@__crt_stdio_output@@V?$standard_base@DV?$stream_output_adapter@D@__crt_stdio_output@@@2@@__crt_stdio_output@@AAE_NXZ 1004a00a f i libucrt:output.obj
 0001:00049016       ?type_case_x@?$output_processor@DV?$string_output_adapter@D@__crt_stdio_output@@V?$format_validation_base@DV?$string_output_adapter@D@__crt_stdio_output@@@2@@__crt_stdio_output@@AAE_NXZ 1004a016 f i libucrt:output.obj
 0001:00049022       ?type_case_x@?$output_processor@DV?$string_output_adapter@D@__crt_stdio_output@@V?$positional_parameter_base@DV?$string_output_adapter@D@__crt_stdio_output@@@2@@__crt_stdio_output@@AAE_NXZ 1004a022 f i libucrt:output.obj
 0001:0004902e       ?type_case_x@?$output_processor@DV?$string_output_adapter@D@__crt_stdio_output@@V?$standard_base@DV?$string_output_adapter@D@__crt_stdio_output@@@2@@__crt_stdio_output@@AAE_NXZ 1004a02e f i libucrt:output.obj
 0001:0004903a       ?type_case_x@?$output_processor@_WV?$stream_output_adapter@_W@__crt_stdio_output@@V?$format_validation_base@_WV?$stream_output_adapter@_W@__crt_stdio_output@@@2@@__crt_stdio_output@@AAE_NXZ 1004a03a f i libucrt:output.obj
 0001:00049046       ?type_case_x@?$output_processor@_WV?$stream_output_adapter@_W@__crt_stdio_output@@V?$positional_parameter_base@_WV?$stream_output_adapter@_W@__crt_stdio_output@@@2@@__crt_stdio_output@@AAE_NXZ 1004a046 f i libucrt:output.obj
 0001:00049052       ?type_case_x@?$output_processor@_WV?$stream_output_adapter@_W@__crt_stdio_output@@V?$standard_base@_WV?$stream_output_adapter@_W@__crt_stdio_output@@@2@@__crt_stdio_output@@AAE_NXZ 1004a052 f i libucrt:output.obj
 0001:0004905e       ?type_case_x@?$output_processor@_WV?$string_output_adapter@_W@__crt_stdio_output@@V?$format_validation_base@_WV?$string_output_adapter@_W@__crt_stdio_output@@@2@@__crt_stdio_output@@AAE_NXZ 1004a05e f i libucrt:output.obj
 0001:0004906a       ?type_case_x@?$output_processor@_WV?$string_output_adapter@_W@__crt_stdio_output@@V?$positional_parameter_base@_WV?$string_output_adapter@_W@__crt_stdio_output@@@2@@__crt_stdio_output@@AAE_NXZ 1004a06a f i libucrt:output.obj
 0001:00049076       ?type_case_x@?$output_processor@_WV?$string_output_adapter@_W@__crt_stdio_output@@V?$standard_base@_WV?$string_output_adapter@_W@__crt_stdio_output@@@2@@__crt_stdio_output@@AAE_NXZ 1004a076 f i libucrt:output.obj
 0001:00049082       ?unset_flag@?$output_processor@DV?$stream_output_adapter@D@__crt_stdio_output@@V?$format_validation_base@DV?$stream_output_adapter@D@__crt_stdio_output@@@2@@__crt_stdio_output@@AAEXI@Z 1004a082 f i libucrt:output.obj
 0001:00049097       ?unset_flag@?$output_processor@DV?$stream_output_adapter@D@__crt_stdio_output@@V?$positional_parameter_base@DV?$stream_output_adapter@D@__crt_stdio_output@@@2@@__crt_stdio_output@@AAEXI@Z 1004a097 f i libucrt:output.obj
 0001:000490ac       ?unset_flag@?$output_processor@DV?$stream_output_adapter@D@__crt_stdio_output@@V?$standard_base@DV?$stream_output_adapter@D@__crt_stdio_output@@@2@@__crt_stdio_output@@AAEXI@Z 1004a0ac f i libucrt:output.obj
 0001:000490c1       ?unset_flag@?$output_processor@DV?$string_output_adapter@D@__crt_stdio_output@@V?$format_validation_base@DV?$string_output_adapter@D@__crt_stdio_output@@@2@@__crt_stdio_output@@AAEXI@Z 1004a0c1 f i libucrt:output.obj
 0001:000490d6       ?unset_flag@?$output_processor@DV?$string_output_adapter@D@__crt_stdio_output@@V?$positional_parameter_base@DV?$string_output_adapter@D@__crt_stdio_output@@@2@@__crt_stdio_output@@AAEXI@Z 1004a0d6 f i libucrt:output.obj
 0001:000490eb       ?unset_flag@?$output_processor@DV?$string_output_adapter@D@__crt_stdio_output@@V?$standard_base@DV?$string_output_adapter@D@__crt_stdio_output@@@2@@__crt_stdio_output@@AAEXI@Z 1004a0eb f i libucrt:output.obj
 0001:00049100       ?unset_flag@?$output_processor@_WV?$stream_output_adapter@_W@__crt_stdio_output@@V?$format_validation_base@_WV?$stream_output_adapter@_W@__crt_stdio_output@@@2@@__crt_stdio_output@@AAEXI@Z 1004a100 f i libucrt:output.obj
 0001:00049115       ?unset_flag@?$output_processor@_WV?$stream_output_adapter@_W@__crt_stdio_output@@V?$positional_parameter_base@_WV?$stream_output_adapter@_W@__crt_stdio_output@@@2@@__crt_stdio_output@@AAEXI@Z 1004a115 f i libucrt:output.obj
 0001:0004912a       ?unset_flag@?$output_processor@_WV?$stream_output_adapter@_W@__crt_stdio_output@@V?$standard_base@_WV?$stream_output_adapter@_W@__crt_stdio_output@@@2@@__crt_stdio_output@@AAEXI@Z 1004a12a f i libucrt:output.obj
 0001:0004913f       ?unset_flag@?$output_processor@_WV?$string_output_adapter@_W@__crt_stdio_output@@V?$format_validation_base@_WV?$string_output_adapter@_W@__crt_stdio_output@@@2@@__crt_stdio_output@@AAEXI@Z 1004a13f f i libucrt:output.obj
 0001:00049154       ?unset_flag@?$output_processor@_WV?$string_output_adapter@_W@__crt_stdio_output@@V?$positional_parameter_base@_WV?$string_output_adapter@_W@__crt_stdio_output@@@2@@__crt_stdio_output@@AAEXI@Z 1004a154 f i libucrt:output.obj
 0001:00049169       ?unset_flag@?$output_processor@_WV?$string_output_adapter@_W@__crt_stdio_output@@V?$standard_base@_WV?$string_output_adapter@_W@__crt_stdio_output@@@2@@__crt_stdio_output@@AAEXI@Z 1004a169 f i libucrt:output.obj
 0001:0004917e       ?update_field_width@?$positional_parameter_base@DV?$stream_output_adapter@D@__crt_stdio_output@@@__crt_stdio_output@@IAE_NXZ 1004a17e f i libucrt:output.obj
 0001:00049261       ?update_field_width@?$positional_parameter_base@DV?$string_output_adapter@D@__crt_stdio_output@@@__crt_stdio_output@@IAE_NXZ 1004a261 f i libucrt:output.obj
 0001:00049344       ?update_field_width@?$positional_parameter_base@_WV?$stream_output_adapter@_W@__crt_stdio_output@@@__crt_stdio_output@@IAE_NXZ 1004a344 f i libucrt:output.obj
 0001:00049428       ?update_field_width@?$positional_parameter_base@_WV?$string_output_adapter@_W@__crt_stdio_output@@@__crt_stdio_output@@IAE_NXZ 1004a428 f i libucrt:output.obj
 0001:0004950c       ?update_field_width@?$standard_base@DV?$stream_output_adapter@D@__crt_stdio_output@@@__crt_stdio_output@@IAE_NXZ 1004a50c f i libucrt:output.obj
 0001:00049520       ?update_field_width@?$standard_base@DV?$string_output_adapter@D@__crt_stdio_output@@@__crt_stdio_output@@IAE_NXZ 1004a520 f i libucrt:output.obj
 0001:00049534       ?update_field_width@?$standard_base@_WV?$stream_output_adapter@_W@__crt_stdio_output@@@__crt_stdio_output@@IAE_NXZ 1004a534 f i libucrt:output.obj
 0001:00049548       ?update_field_width@?$standard_base@_WV?$string_output_adapter@_W@__crt_stdio_output@@@__crt_stdio_output@@IAE_NXZ 1004a548 f i libucrt:output.obj
 0001:0004955c       ?update_precision@?$positional_parameter_base@DV?$stream_output_adapter@D@__crt_stdio_output@@@__crt_stdio_output@@IAE_NXZ 1004a55c f i libucrt:output.obj
 0001:0004963f       ?update_precision@?$positional_parameter_base@DV?$string_output_adapter@D@__crt_stdio_output@@@__crt_stdio_output@@IAE_NXZ 1004a63f f i libucrt:output.obj
 0001:00049722       ?update_precision@?$positional_parameter_base@_WV?$stream_output_adapter@_W@__crt_stdio_output@@@__crt_stdio_output@@IAE_NXZ 1004a722 f i libucrt:output.obj
 0001:00049806       ?update_precision@?$positional_parameter_base@_WV?$string_output_adapter@_W@__crt_stdio_output@@@__crt_stdio_output@@IAE_NXZ 1004a806 f i libucrt:output.obj
 0001:000498ea       ?update_precision@?$standard_base@DV?$stream_output_adapter@D@__crt_stdio_output@@@__crt_stdio_output@@IAE_NXZ 1004a8ea f i libucrt:output.obj
 0001:000498fe       ?update_precision@?$standard_base@DV?$string_output_adapter@D@__crt_stdio_output@@@__crt_stdio_output@@IAE_NXZ 1004a8fe f i libucrt:output.obj
 0001:00049912       ?update_precision@?$standard_base@_WV?$stream_output_adapter@_W@__crt_stdio_output@@@__crt_stdio_output@@IAE_NXZ 1004a912 f i libucrt:output.obj
 0001:00049926       ?update_precision@?$standard_base@_WV?$string_output_adapter@_W@__crt_stdio_output@@@__crt_stdio_output@@IAE_NXZ 1004a926 f i libucrt:output.obj
 0001:0004993a       ?valid@__crt_stdio_stream@@QBE_NXZ 1004a93a f i libucrt:output.obj
 0001:00049944       ?validate@?$stream_output_adapter@D@__crt_stdio_output@@QBE_NXZ 1004a944 f i libucrt:output.obj
 0001:0004996d       ?validate@?$stream_output_adapter@_W@__crt_stdio_output@@QBE_NXZ 1004a96d f i libucrt:output.obj
 0001:0004998e       ?validate@?$string_output_adapter@D@__crt_stdio_output@@QBE_NXZ 1004a98e f i libucrt:output.obj
 0001:000499af       ?validate@?$string_output_adapter@_W@__crt_stdio_output@@QBE_NXZ 1004a9af f i libucrt:output.obj
 0001:000499d0       ?validate_and_store_parameter_data@?$positional_parameter_base@DV?$stream_output_adapter@D@__crt_stdio_output@@@__crt_stdio_output@@AAE_NAAUparameter_data@12@W4parameter_type@12@DW4length_modifier@2@@Z 1004a9d0 f i libucrt:output.obj
 0001:00049a2d       ?validate_and_store_parameter_data@?$positional_parameter_base@DV?$string_output_adapter@D@__crt_stdio_output@@@__crt_stdio_output@@AAE_NAAUparameter_data@12@W4parameter_type@12@DW4length_modifier@2@@Z 1004aa2d f i libucrt:output.obj
 0001:00049a8a       ?validate_and_store_parameter_data@?$positional_parameter_base@_WV?$stream_output_adapter@_W@__crt_stdio_output@@@__crt_stdio_output@@AAE_NAAUparameter_data@12@W4parameter_type@12@_WW4length_modifier@2@@Z 1004aa8a f i libucrt:output.obj
 0001:00049aea       ?validate_and_store_parameter_data@?$positional_parameter_base@_WV?$string_output_adapter@_W@__crt_stdio_output@@@__crt_stdio_output@@AAE_NAAUparameter_data@12@W4parameter_type@12@_WW4length_modifier@2@@Z 1004aaea f i libucrt:output.obj
 0001:00049b4a       ?validate_and_update_state_at_beginning_of_format_character@?$positional_parameter_base@DV?$stream_output_adapter@D@__crt_stdio_output@@@__crt_stdio_output@@IAE_NXZ 1004ab4a f i libucrt:output.obj
 0001:00049c80       ?validate_and_update_state_at_beginning_of_format_character@?$positional_parameter_base@DV?$string_output_adapter@D@__crt_stdio_output@@@__crt_stdio_output@@IAE_NXZ 1004ac80 f i libucrt:output.obj
 0001:00049db6       ?validate_and_update_state_at_beginning_of_format_character@?$positional_parameter_base@_WV?$stream_output_adapter@_W@__crt_stdio_output@@@__crt_stdio_output@@IAE_NXZ 1004adb6 f i libucrt:output.obj
 0001:00049ef8       ?validate_and_update_state_at_beginning_of_format_character@?$positional_parameter_base@_WV?$string_output_adapter@_W@__crt_stdio_output@@@__crt_stdio_output@@IAE_NXZ 1004aef8 f i libucrt:output.obj
 0001:0004a03a       ?validate_and_update_state_at_beginning_of_format_character@?$standard_base@DV?$stream_output_adapter@D@__crt_stdio_output@@@__crt_stdio_output@@IAE_NXZ 1004b03a f i libucrt:output.obj
 0001:0004a03d       ?validate_and_update_state_at_beginning_of_format_character@?$standard_base@DV?$string_output_adapter@D@__crt_stdio_output@@@__crt_stdio_output@@IAE_NXZ 1004b03d f i libucrt:output.obj
 0001:0004a040       ?validate_and_update_state_at_beginning_of_format_character@?$standard_base@_WV?$stream_output_adapter@_W@__crt_stdio_output@@@__crt_stdio_output@@IAE_NXZ 1004b040 f i libucrt:output.obj
 0001:0004a043       ?validate_and_update_state_at_beginning_of_format_character@?$standard_base@_WV?$string_output_adapter@_W@__crt_stdio_output@@@__crt_stdio_output@@IAE_NXZ 1004b043 f i libucrt:output.obj
 0001:0004a046       ?validate_and_update_state_at_end_of_format_string@?$format_validation_base@DV?$stream_output_adapter@D@__crt_stdio_output@@@__crt_stdio_output@@IBE_NXZ 1004b046 f i libucrt:output.obj
 0001:0004a070       ?validate_and_update_state_at_end_of_format_string@?$format_validation_base@DV?$string_output_adapter@D@__crt_stdio_output@@@__crt_stdio_output@@IBE_NXZ 1004b070 f i libucrt:output.obj
 0001:0004a09a       ?validate_and_update_state_at_end_of_format_string@?$format_validation_base@_WV?$stream_output_adapter@_W@__crt_stdio_output@@@__crt_stdio_output@@IBE_NXZ 1004b09a f i libucrt:output.obj
 0001:0004a0c4       ?validate_and_update_state_at_end_of_format_string@?$format_validation_base@_WV?$string_output_adapter@_W@__crt_stdio_output@@@__crt_stdio_output@@IBE_NXZ 1004b0c4 f i libucrt:output.obj
 0001:0004a0ee       ?validate_and_update_state_at_end_of_format_string@?$positional_parameter_base@DV?$stream_output_adapter@D@__crt_stdio_output@@@__crt_stdio_output@@IAE_NXZ 1004b0ee f i libucrt:output.obj
 0001:0004a18e       ?validate_and_update_state_at_end_of_format_string@?$positional_parameter_base@DV?$string_output_adapter@D@__crt_stdio_output@@@__crt_stdio_output@@IAE_NXZ 1004b18e f i libucrt:output.obj
 0001:0004a22e       ?validate_and_update_state_at_end_of_format_string@?$positional_parameter_base@_WV?$stream_output_adapter@_W@__crt_stdio_output@@@__crt_stdio_output@@IAE_NXZ 1004b22e f i libucrt:output.obj
 0001:0004a2ce       ?validate_and_update_state_at_end_of_format_string@?$positional_parameter_base@_WV?$string_output_adapter@_W@__crt_stdio_output@@@__crt_stdio_output@@IAE_NXZ 1004b2ce f i libucrt:output.obj
 0001:0004a36e       ?validate_and_update_state_at_end_of_format_string@?$standard_base@DV?$stream_output_adapter@D@__crt_stdio_output@@@__crt_stdio_output@@IBE_NXZ 1004b36e f i libucrt:output.obj
 0001:0004a371       ?validate_and_update_state_at_end_of_format_string@?$standard_base@DV?$string_output_adapter@D@__crt_stdio_output@@@__crt_stdio_output@@IBE_NXZ 1004b371 f i libucrt:output.obj
 0001:0004a374       ?validate_and_update_state_at_end_of_format_string@?$standard_base@_WV?$stream_output_adapter@_W@__crt_stdio_output@@@__crt_stdio_output@@IBE_NXZ 1004b374 f i libucrt:output.obj
 0001:0004a377       ?validate_and_update_state_at_end_of_format_string@?$standard_base@_WV?$string_output_adapter@_W@__crt_stdio_output@@@__crt_stdio_output@@IBE_NXZ 1004b377 f i libucrt:output.obj
 0001:0004a37a       ?validate_state_for_type_case_a@?$positional_parameter_base@DV?$stream_output_adapter@D@__crt_stdio_output@@@__crt_stdio_output@@IAE_NXZ 1004b37a f i libucrt:output.obj
 0001:0004a3e1       ?validate_state_for_type_case_a@?$positional_parameter_base@DV?$string_output_adapter@D@__crt_stdio_output@@@__crt_stdio_output@@IAE_NXZ 1004b3e1 f i libucrt:output.obj
 0001:0004a448       ?validate_state_for_type_case_a@?$positional_parameter_base@_WV?$stream_output_adapter@_W@__crt_stdio_output@@@__crt_stdio_output@@IAE_NXZ 1004b448 f i libucrt:output.obj
 0001:0004a4af       ?validate_state_for_type_case_a@?$positional_parameter_base@_WV?$string_output_adapter@_W@__crt_stdio_output@@@__crt_stdio_output@@IAE_NXZ 1004b4af f i libucrt:output.obj
 0001:0004a516       ?validate_state_for_type_case_a@?$standard_base@DV?$stream_output_adapter@D@__crt_stdio_output@@@__crt_stdio_output@@IBE_NXZ 1004b516 f i libucrt:output.obj
 0001:0004a519       ?validate_state_for_type_case_a@?$standard_base@DV?$string_output_adapter@D@__crt_stdio_output@@@__crt_stdio_output@@IBE_NXZ 1004b519 f i libucrt:output.obj
 0001:0004a51c       ?validate_state_for_type_case_a@?$standard_base@_WV?$stream_output_adapter@_W@__crt_stdio_output@@@__crt_stdio_output@@IBE_NXZ 1004b51c f i libucrt:output.obj
 0001:0004a51f       ?validate_state_for_type_case_a@?$standard_base@_WV?$string_output_adapter@_W@__crt_stdio_output@@@__crt_stdio_output@@IBE_NXZ 1004b51f f i libucrt:output.obj
 0001:0004a522       ?validate_stream_is_ansi_if_required@?$__acrt_stdio_char_traits@D@@SA_NQAU_iobuf@@@Z 1004b522 f i libucrt:output.obj
 0001:0004a5c4       ?validate_stream_is_ansi_if_required@?$__acrt_stdio_char_traits@_W@@SA_NQAU_iobuf@@@Z 1004b5c4 f i libucrt:output.obj
 0001:0004a5c7       ?wide_null_string@?$output_processor@DV?$stream_output_adapter@D@__crt_stdio_output@@V?$format_validation_base@DV?$stream_output_adapter@D@__crt_stdio_output@@@2@@__crt_stdio_output@@CAPA_WXZ 1004b5c7 f i libucrt:output.obj
 0001:0004a5cd       ?wide_null_string@?$output_processor@DV?$stream_output_adapter@D@__crt_stdio_output@@V?$positional_parameter_base@DV?$stream_output_adapter@D@__crt_stdio_output@@@2@@__crt_stdio_output@@CAPA_WXZ 1004b5cd f i libucrt:output.obj
 0001:0004a5d3       ?wide_null_string@?$output_processor@DV?$stream_output_adapter@D@__crt_stdio_output@@V?$standard_base@DV?$stream_output_adapter@D@__crt_stdio_output@@@2@@__crt_stdio_output@@CAPA_WXZ 1004b5d3 f i libucrt:output.obj
 0001:0004a5d9       ?wide_null_string@?$output_processor@DV?$string_output_adapter@D@__crt_stdio_output@@V?$format_validation_base@DV?$string_output_adapter@D@__crt_stdio_output@@@2@@__crt_stdio_output@@CAPA_WXZ 1004b5d9 f i libucrt:output.obj
 0001:0004a5df       ?wide_null_string@?$output_processor@DV?$string_output_adapter@D@__crt_stdio_output@@V?$positional_parameter_base@DV?$string_output_adapter@D@__crt_stdio_output@@@2@@__crt_stdio_output@@CAPA_WXZ 1004b5df f i libucrt:output.obj
 0001:0004a5e5       ?wide_null_string@?$output_processor@DV?$string_output_adapter@D@__crt_stdio_output@@V?$standard_base@DV?$string_output_adapter@D@__crt_stdio_output@@@2@@__crt_stdio_output@@CAPA_WXZ 1004b5e5 f i libucrt:output.obj
 0001:0004a5eb       ?wide_null_string@?$output_processor@_WV?$stream_output_adapter@_W@__crt_stdio_output@@V?$format_validation_base@_WV?$stream_output_adapter@_W@__crt_stdio_output@@@2@@__crt_stdio_output@@CAPA_WXZ 1004b5eb f i libucrt:output.obj
 0001:0004a5f1       ?wide_null_string@?$output_processor@_WV?$stream_output_adapter@_W@__crt_stdio_output@@V?$positional_parameter_base@_WV?$stream_output_adapter@_W@__crt_stdio_output@@@2@@__crt_stdio_output@@CAPA_WXZ 1004b5f1 f i libucrt:output.obj
 0001:0004a5f7       ?wide_null_string@?$output_processor@_WV?$stream_output_adapter@_W@__crt_stdio_output@@V?$standard_base@_WV?$stream_output_adapter@_W@__crt_stdio_output@@@2@@__crt_stdio_output@@CAPA_WXZ 1004b5f7 f i libucrt:output.obj
 0001:0004a5fd       ?wide_null_string@?$output_processor@_WV?$string_output_adapter@_W@__crt_stdio_output@@V?$format_validation_base@_WV?$string_output_adapter@_W@__crt_stdio_output@@@2@@__crt_stdio_output@@CAPA_WXZ 1004b5fd f i libucrt:output.obj
 0001:0004a603       ?wide_null_string@?$output_processor@_WV?$string_output_adapter@_W@__crt_stdio_output@@V?$positional_parameter_base@_WV?$string_output_adapter@_W@__crt_stdio_output@@@2@@__crt_stdio_output@@CAPA_WXZ 1004b603 f i libucrt:output.obj
 0001:0004a609       ?wide_null_string@?$output_processor@_WV?$string_output_adapter@_W@__crt_stdio_output@@V?$standard_base@_WV?$string_output_adapter@_W@__crt_stdio_output@@@2@@__crt_stdio_output@@CAPA_WXZ 1004b609 f i libucrt:output.obj
 0001:0004a60f       ?write_character@?$stream_output_adapter@D@__crt_stdio_output@@QBEXDQAH@Z 1004b60f f i libucrt:output.obj
 0001:0004a65b       ?write_character@?$stream_output_adapter@_W@__crt_stdio_output@@QBEX_WQAH@Z 1004b65b f i libucrt:output.obj
 0001:0004a6ab       ?write_character@?$string_output_adapter@D@__crt_stdio_output@@QBE_NDQAH@Z 1004b6ab f i libucrt:output.obj
 0001:0004a6fd       ?write_character@?$string_output_adapter@_W@__crt_stdio_output@@QBE_N_WQAH@Z 1004b6fd f i libucrt:output.obj
 0001:0004a753       ?write_stored_string_tchar@?$output_processor@DV?$stream_output_adapter@D@__crt_stdio_output@@V?$format_validation_base@DV?$stream_output_adapter@D@__crt_stdio_output@@@2@@__crt_stdio_output@@AAE_ND@Z 1004b753 f i libucrt:output.obj
 0001:0004a823       ?write_stored_string_tchar@?$output_processor@DV?$stream_output_adapter@D@__crt_stdio_output@@V?$positional_parameter_base@DV?$stream_output_adapter@D@__crt_stdio_output@@@2@@__crt_stdio_output@@AAE_ND@Z 1004b823 f i libucrt:output.obj
 0001:0004a8f3       ?write_stored_string_tchar@?$output_processor@DV?$stream_output_adapter@D@__crt_stdio_output@@V?$standard_base@DV?$stream_output_adapter@D@__crt_stdio_output@@@2@@__crt_stdio_output@@AAE_ND@Z 1004b8f3 f i libucrt:output.obj
 0001:0004a9c3       ?write_stored_string_tchar@?$output_processor@DV?$string_output_adapter@D@__crt_stdio_output@@V?$format_validation_base@DV?$string_output_adapter@D@__crt_stdio_output@@@2@@__crt_stdio_output@@AAE_ND@Z 1004b9c3 f i libucrt:output.obj
 0001:0004aa93       ?write_stored_string_tchar@?$output_processor@DV?$string_output_adapter@D@__crt_stdio_output@@V?$positional_parameter_base@DV?$string_output_adapter@D@__crt_stdio_output@@@2@@__crt_stdio_output@@AAE_ND@Z 1004ba93 f i libucrt:output.obj
 0001:0004ab63       ?write_stored_string_tchar@?$output_processor@DV?$string_output_adapter@D@__crt_stdio_output@@V?$standard_base@DV?$string_output_adapter@D@__crt_stdio_output@@@2@@__crt_stdio_output@@AAE_ND@Z 1004bb63 f i libucrt:output.obj
 0001:0004ac33       ?write_stored_string_tchar@?$output_processor@_WV?$stream_output_adapter@_W@__crt_stdio_output@@V?$format_validation_base@_WV?$stream_output_adapter@_W@__crt_stdio_output@@@2@@__crt_stdio_output@@AAE_N_W@Z 1004bc33 f i libucrt:output.obj
 0001:0004ace0       ?write_stored_string_tchar@?$output_processor@_WV?$stream_output_adapter@_W@__crt_stdio_output@@V?$positional_parameter_base@_WV?$stream_output_adapter@_W@__crt_stdio_output@@@2@@__crt_stdio_output@@AAE_N_W@Z 1004bce0 f i libucrt:output.obj
 0001:0004ad8d       ?write_stored_string_tchar@?$output_processor@_WV?$stream_output_adapter@_W@__crt_stdio_output@@V?$standard_base@_WV?$stream_output_adapter@_W@__crt_stdio_output@@@2@@__crt_stdio_output@@AAE_N_W@Z 1004bd8d f i libucrt:output.obj
 0001:0004ae3a       ?write_stored_string_tchar@?$output_processor@_WV?$string_output_adapter@_W@__crt_stdio_output@@V?$format_validation_base@_WV?$string_output_adapter@_W@__crt_stdio_output@@@2@@__crt_stdio_output@@AAE_N_W@Z 1004be3a f i libucrt:output.obj
 0001:0004aee7       ?write_stored_string_tchar@?$output_processor@_WV?$string_output_adapter@_W@__crt_stdio_output@@V?$positional_parameter_base@_WV?$string_output_adapter@_W@__crt_stdio_output@@@2@@__crt_stdio_output@@AAE_N_W@Z 1004bee7 f i libucrt:output.obj
 0001:0004af94       ?write_stored_string_tchar@?$output_processor@_WV?$string_output_adapter@_W@__crt_stdio_output@@V?$standard_base@_WV?$string_output_adapter@_W@__crt_stdio_output@@@2@@__crt_stdio_output@@AAE_N_W@Z 1004bf94 f i libucrt:output.obj
 0001:0004b041       ?write_string@?$stream_output_adapter@D@__crt_stdio_output@@QBEXQBDHQAH1@Z 1004c041 f i libucrt:output.obj
 0001:0004b0ed       ?write_string@?$stream_output_adapter@_W@__crt_stdio_output@@QBEXQB_WHQAH1@Z 1004c0ed f i libucrt:output.obj
 0001:0004b19d       ?write_string@?$string_output_adapter@D@__crt_stdio_output@@QBEXQBDHQAH1@Z 1004c19d f i libucrt:output.obj
 0001:0004b254       ?write_string@?$string_output_adapter@_W@__crt_stdio_output@@QBEXQB_WHQAH1@Z 1004c254 f i libucrt:output.obj
 0001:0004b314       ___acrt_isleadbyte_l_noupdate 1004c314 f i libucrt:output.obj
 0001:0004b335       ___acrt_locale_changed     1004c335 f i libucrt:output.obj
 0001:0004b346       ___stdio_common_vfprintf   1004c346 f   libucrt:output.obj
 0001:0004b3da       ___stdio_common_vfprintf_p 1004c3da f   libucrt:output.obj
 0001:0004b46e       ___stdio_common_vfprintf_s 1004c46e f   libucrt:output.obj
 0001:0004b502       ___stdio_common_vfwprintf  1004c502 f   libucrt:output.obj
 0001:0004b596       ___stdio_common_vfwprintf_p 1004c596 f   libucrt:output.obj
 0001:0004b62a       ___stdio_common_vfwprintf_s 1004c62a f   libucrt:output.obj
 0001:0004b6be       ___stdio_common_vsnprintf_s 1004c6be f   libucrt:output.obj
 0001:0004b6ee       ___stdio_common_vsnwprintf_s 1004c6ee f   libucrt:output.obj
 0001:0004b71e       ___stdio_common_vsprintf   1004c71e f   libucrt:output.obj
 0001:0004b74b       ___stdio_common_vsprintf_p 1004c74b f   libucrt:output.obj
 0001:0004b778       ___stdio_common_vsprintf_s 1004c778 f   libucrt:output.obj
 0001:0004b7a5       ___stdio_common_vswprintf  1004c7a5 f   libucrt:output.obj
 0001:0004b7d2       ___stdio_common_vswprintf_p 1004c7d2 f   libucrt:output.obj
 0001:0004b7ff       ___stdio_common_vswprintf_s 1004c7ff f   libucrt:output.obj
 0001:0004b82c       ___libm_sse2_pow           1004c82c f   libucrt:pow_sse2.obj
 0001:0004c542       _calloc                    1004d542 f   libucrt:calloc.obj
 0001:0004c54f       _free                      1004d54f f   libucrt:free.obj
 0001:0004c554       ??$__vcrt_va_start_verify_argument_type@QB_W@@YAXXZ 1004d554 f i libucrt:assert.obj
 0001:0004d4f1       ??$ftprintf@PAU_iobuf@@PBDABQBDABQBDABI@?$__crt_char_traits@D@@SAH$$QAPAU_iobuf@@$$QAPBDABQBD2ABI@Z 1004e4f1 f i libucrt:assert.obj
 0001:0004d523       ??$ftprintf@PAU_iobuf@@PB_WABQB_WABQB_WABI@?$__crt_char_traits@_W@@SAH$$QAPAU_iobuf@@$$QAPB_WABQB_W2ABI@Z 1004e523 f i libucrt:assert.obj
 0001:0004d555       ??$get_module_file_name@AAPAUHINSTANCE__@@AAY0BAF@DK@?$__crt_char_traits@D@@SAKAAPAUHINSTANCE__@@AAY0BAF@D$$QAK@Z 1004e555 f i libucrt:assert.obj
 0001:0004d575       ??$get_module_file_name@AAPAUHINSTANCE__@@AAY0BAF@_WK@?$__crt_char_traits@_W@@SAKAAPAUHINSTANCE__@@AAY0BAF@_W$$QAK@Z 1004e575 f i libucrt:assert.obj
 0001:0004d595       ??$itot_s@ABIQAD$$CBIH@?$__crt_char_traits@D@@SAHABI$$QBQAD$$QBI$$QAH@Z 1004e595 f i libucrt:assert.obj
 0001:0004d5c0       ??$itot_s@ABIQA_W$$CBIH@?$__crt_char_traits@_W@@SAHABI$$QBQA_W$$QBI$$QAH@Z 1004e5c0 f i libucrt:assert.obj
 0001:0004d5eb       ??$show_message_box@AAY0CEA@DPBDJ@?$__crt_char_traits@D@@SAHAAY0CEA@D$$QAPBD$$QAJ@Z 1004e5eb f i libucrt:assert.obj
 0001:0004d60e       ??$show_message_box@AAY0CEA@_WPB_WJ@?$__crt_char_traits@_W@@SAHAAY0CEA@_W$$QAPB_W$$QAJ@Z 1004e60e f i libucrt:assert.obj
 0001:0004d631       ??$tcscat_s@ABQADABIAAPAD@?$__crt_char_traits@D@@SAHABQADABIAAPAD@Z 1004e631 f i libucrt:assert.obj
 0001:0004d656       ??$tcscat_s@ABQADABIABQBD@?$__crt_char_traits@D@@SAHABQADABIABQBD@Z 1004e656 f i libucrt:assert.obj
 0001:0004d67b       ??$tcscat_s@ABQADABIPBD@?$__crt_char_traits@D@@SAHABQADABI$$QAPBD@Z 1004e67b f i libucrt:assert.obj
 0001:0004d6a0       ??$tcscat_s@ABQA_WABIAAPA_W@?$__crt_char_traits@_W@@SAHABQA_WABIAAPA_W@Z 1004e6a0 f i libucrt:assert.obj
 0001:0004d6c5       ??$tcscat_s@ABQA_WABIABQB_W@?$__crt_char_traits@_W@@SAHABQA_WABIABQB_W@Z 1004e6c5 f i libucrt:assert.obj
 0001:0004d6ea       ??$tcscat_s@ABQA_WABIPB_W@?$__crt_char_traits@_W@@SAHABQA_WABI$$QAPB_W@Z 1004e6ea f i libucrt:assert.obj
 0001:0004d70f       ??$tcscpy_s@AAY0BAF@DIPBD@?$__crt_char_traits@D@@SAHAAY0BAF@D$$QAI$$QAPBD@Z 1004e70f f i libucrt:assert.obj
 0001:0004d732       ??$tcscpy_s@AAY0BAF@_WIPB_W@?$__crt_char_traits@_W@@SAHAAY0BAF@_W$$QAI$$QAPB_W@Z 1004e732 f i libucrt:assert.obj
 0001:0004d755       ??$tcscpy_s@ABQADABIPBD@?$__crt_char_traits@D@@SAHABQADABI$$QAPBD@Z 1004e755 f i libucrt:assert.obj
 0001:0004d77a       ??$tcscpy_s@ABQA_WABIPB_W@?$__crt_char_traits@_W@@SAHABQA_WABI$$QAPB_W@Z 1004e77a f i libucrt:assert.obj
 0001:0004d79f       ??$tcslen@AAY0BAF@D@?$__crt_char_traits@D@@SAIAAY0BAF@D@Z 1004e79f f i libucrt:assert.obj
 0001:0004d7ba       ??$tcslen@AAY0BAF@_W@?$__crt_char_traits@_W@@SAIAAY0BAF@_W@Z 1004e7ba f i libucrt:assert.obj
 0001:0004d7dd       ??$tcslen@ABQAD@?$__crt_char_traits@D@@SAIABQAD@Z 1004e7dd f i libucrt:assert.obj
 0001:0004d7fb       ??$tcslen@ABQA_W@?$__crt_char_traits@_W@@SAIABQA_W@Z 1004e7fb f i libucrt:assert.obj
 0001:0004d820       ??$tcslen@ABQBD@?$__crt_char_traits@D@@SAIABQBD@Z 1004e820 f i libucrt:assert.obj
 0001:0004d83e       ??$tcslen@ABQB_W@?$__crt_char_traits@_W@@SAIABQB_W@Z 1004e83e f i libucrt:assert.obj
 0001:0004d863       ??$tcsncat_s@ABQADABIAAPBD$$CBI@?$__crt_char_traits@D@@SAHABQADABIAAPBD$$QBI@Z 1004e863 f i libucrt:assert.obj
 0001:0004d88e       ??$tcsncat_s@ABQADABIABQBDABI@?$__crt_char_traits@D@@SAHABQADABIABQBD1@Z 1004e88e f i libucrt:assert.obj
 0001:0004d8b9       ??$tcsncat_s@ABQADABIPBD$$CBI@?$__crt_char_traits@D@@SAHABQADABI$$QAPBD$$QBI@Z 1004e8b9 f i libucrt:assert.obj
 0001:0004d8e4       ??$tcsncat_s@ABQA_WABIAAPB_W$$CBI@?$__crt_char_traits@_W@@SAHABQA_WABIAAPB_W$$QBI@Z 1004e8e4 f i libucrt:assert.obj
 0001:0004d90f       ??$tcsncat_s@ABQA_WABIABQB_WABI@?$__crt_char_traits@_W@@SAHABQA_WABIABQB_W1@Z 1004e90f f i libucrt:assert.obj
 0001:0004d93a       ??$tcsncat_s@ABQA_WABIPB_W$$CBI@?$__crt_char_traits@_W@@SAHABQA_WABI$$QAPB_W$$QBI@Z 1004e93a f i libucrt:assert.obj
 0001:0004dadf       ?has_any_buffer@__crt_stdio_stream@@QBE_NXZ 1004eadf f i libucrt:assert.obj
 0001:0004daf4       ?has_any_of@__crt_stdio_stream@@QBE_NJ@Z 1004eaf4 f i libucrt:assert.obj
 0001:0004db10       __assert                   1004eb10 f   libucrt:assert.obj
 0001:0004db6a       __invoke_watson_if_error   1004eb6a f i libucrt:assert.obj
 0001:0004db94       __vfwprintf_l              1004eb94 f i libucrt:assert.obj
 0001:0004dbc2       __vswprintf_c_l            1004ebc2 f i libucrt:assert.obj
 0001:0004dbfc       __wassert                  1004ebfc f   libucrt:assert.obj
 0001:0004dc56       _fwprintf                  1004ec56 f i libucrt:assert.obj
 0001:0004dd18       _swprintf                  1004ed18 f i libucrt:assert.obj
 0001:0004dd3d       _realloc                   1004ed3d f   libucrt:realloc.obj
 0001:0004dd4a       ??$?B$$A6GXPAXK0@Z@__crt_fast_encoded_nullptr_t@@QBEP6GXPAXK0@ZXZ 1004ed4a f i libucrt:exit.obj
 0001:0004dd68       ??$__crt_fast_decode_pointer@P6GXPAXK0@Z@@YAP6GXPAXK0@ZQ6GX0K0@Z@Z 1004ed68 f i libucrt:exit.obj
 0001:0004dd83       ??$__crt_fast_encode_pointer@P6GXPAXK0@Z@@YAP6GXPAXK0@ZQ6GX0K0@Z@Z 1004ed83 f i libucrt:exit.obj
 0001:0004dda9       ??$__crt_get_proc_address@P6GXI@Z@@YAP6GXI@ZQAUHINSTANCE__@@QBD@Z 1004eda9 f i libucrt:exit.obj
 0001:0004ddc0       ??0?$__crt_unique_handle_t@U__crt_hmodule_traits@@@@QAE@QAUHINSTANCE__@@@Z 1004edc0 f i libucrt:exit.obj
 0001:0004ddd4       ??1?$__crt_unique_handle_t@U__crt_hmodule_traits@@@@QAE@XZ 1004edd4 f i libucrt:exit.obj
 0001:0004de07       ?close@?$__crt_unique_handle_t@U__crt_hmodule_traits@@@@QAEXXZ 1004ee07 f i libucrt:exit.obj
 0001:0004de23       ?close@__crt_hmodule_traits@@SA_NPAUHINSTANCE__@@@Z 1004ee23 f i libucrt:exit.obj
 0001:0004dfee       ?get@?$__crt_unique_handle_t@U__crt_hmodule_traits@@@@QBEPAUHINSTANCE__@@XZ 1004efee f i libucrt:exit.obj
 0001:0004dff1       ?get_address_of@?$__crt_unique_handle_t@U__crt_hmodule_traits@@@@QAEPAPAUHINSTANCE__@@XZ 1004eff1 f i libucrt:exit.obj
 0001:0004dff4       ?get_invalid_value@__crt_hmodule_traits@@SAPAUHINSTANCE__@@XZ 1004eff4 f i libucrt:exit.obj
 0001:0004e0f1       __Exit                     1004f0f1 f   libucrt:exit.obj
 0001:0004e10c       ___acrt_initialize_thread_local_exit_callback 1004f10c f   libucrt:exit.obj
 0001:0004e11e       __c_exit                   1004f11e f   libucrt:exit.obj
 0001:0004e130       __cexit                    1004f130 f   libucrt:exit.obj
 0001:0004e142       __exit                     1004f142 f   libucrt:exit.obj
 0001:0004e15d       __is_c_termination_complete 1004f15d f   libucrt:exit.obj
 0001:0004e163       __register_thread_local_exe_atexit_callback 1004f163 f   libucrt:exit.obj
 0001:0004e1a9       _exit                      1004f1a9 f   libucrt:exit.obj
 0001:0004e1c4       _quick_exit                1004f1c4 f   libucrt:exit.obj
 0001:0004e1e0       _strncat                   1004f1e0 f   libucrt:strncat.obj
 0001:0004e370       _strncpy                   1004f370 f   libucrt:strncpy.obj
 0001:0004e4dd       ?is_in_use@__crt_stdio_stream@@QBE_NXZ 1004f4dd f i libucrt:fclose.obj
 0001:0004e4ec       __fclose_nolock            1004f4ec f   libucrt:fclose.obj
 0001:0004e57f       _fclose                    1004f57f f   libucrt:fclose.obj
 0001:0004e8b1       ??$open_file@ABQBDABQBDABHPAU_iobuf@@@?$__crt_char_traits@D@@SAPAU_iobuf@@ABQBD0ABH$$QAPAU1@@Z 1004f8b1 f i libucrt:fopen.obj
 0001:0004e8dc       ??$open_file@ABQB_WABQB_WABHPAU_iobuf@@@?$__crt_char_traits@_W@@SAPAU_iobuf@@ABQB_W0ABH$$QAPAU1@@Z 1004f8dc f i libucrt:fopen.obj
 0001:0004e907       ?unlock@__crt_stdio_stream@@QBEXXZ 1004f907 f i libucrt:fopen.obj
 0001:0004e912       __fsopen                   1004f912 f   libucrt:fopen.obj
 0001:0004e91f       __wfopen                   1004f91f f   libucrt:fopen.obj
 0001:0004e93b       __wfopen_s                 1004f93b f   libucrt:fopen.obj
 0001:0004e993       __wfsopen                  1004f993 f   libucrt:fopen.obj
 0001:0004e9a0       _fopen                     1004f9a0 f   libucrt:fopen.obj
 0001:0004e9bc       _fopen_s                   1004f9bc f   libucrt:fopen.obj
 0001:0004ea14       ?set_flags@__crt_stdio_stream@@QBE_NJ@Z 1004fa14 f i libucrt:fread.obj
 0001:0004ea44       __fread_nolock             1004fa44 f   libucrt:fread.obj
 0001:0004ea68       __fread_nolock_s           1004fa68 f   libucrt:fread.obj
 0001:0004eca7       _fread                     1004fca7 f   libucrt:fread.obj
 0001:0004eccb       _fread_s                   1004fccb f   libucrt:fread.obj
 0001:0004ee23       ??$?RV<lambda_11b4f7b0d3157825a5656a18eba1ae27>@@AAV<lambda_b51c0495177f500e782686251704ae76>@@V<lambda_cf89b47920b5017557bfe891e78aca36>@@@?$__crt_seh_guarded_call@I@@QAEI$$QAV<lambda_11b4f7b0d3157825a5656a18eba1ae27>@@AAV<lambda_b51c0495177f500e782686251704ae76>@@$$QAV<lambda_cf89b47920b5017557bfe891e78aca36>@@@Z 1004fe23 f i libucrt:fwrite.obj
 0001:0004ee88       ??$__acrt_lock_stream_and_call@V<lambda_b51c0495177f500e782686251704ae76>@@@@YAIQAU_iobuf@@$$QAV<lambda_b51c0495177f500e782686251704ae76>@@@Z 1004fe88 f i libucrt:fwrite.obj
 0001:0004ef7d       ?has_big_buffer@__crt_stdio_stream@@QBE_NXZ 1004ff7d f i libucrt:fwrite.obj
 0001:0004ef8e       __fwrite_nolock            1004ff8e f   libucrt:fwrite.obj
 0001:0004f165       _fwrite                    10050165 f   libucrt:fwrite.obj
 0001:0004f1d3       ??$?R_W@__crt_internal_free_policy@@QBEXQB_W@Z 100501d3 f i libucrt:unlink.obj
 0001:0004f1e9       ??0?$__crt_unique_heap_ptr@_WU__crt_internal_free_policy@@@@QAE@QA_W@Z 100501e9 f i libucrt:unlink.obj
 0001:0004f1fd       ??1?$__crt_unique_heap_ptr@_WU__crt_internal_free_policy@@@@QAE@XZ 100501fd f i libucrt:unlink.obj
 0001:0004f213       ?get@?$__crt_unique_heap_ptr@_WU__crt_internal_free_policy@@@@QBEPA_WXZ 10050213 f i libucrt:unlink.obj
 0001:0004f216       ?get_address_of@?$__crt_unique_heap_ptr@_WU__crt_internal_free_policy@@@@QAEPAPA_WXZ 10050216 f i libucrt:unlink.obj
 0001:0004f219       ?release@?$__crt_unique_heap_ptr@_WU__crt_internal_free_policy@@@@QAEXXZ 10050219 f i libucrt:unlink.obj
 0001:0004f22f       __unlink                   1005022f f   libucrt:unlink.obj
 0001:0004f23c       _remove                    1005023c f   libucrt:unlink.obj
 0001:0004f29c       ?__acrt_stdio_reset_buffer@@YAXV__crt_stdio_stream@@@Z 1005029c f i libucrt:rewind.obj
 0001:0004f2b7       ?has_all_of@__crt_stdio_stream@@QBE_NJ@Z 100502b7 f i libucrt:rewind.obj
 0001:0004f2d6       ?unset_flags@__crt_stdio_stream@@QBE_NJ@Z 100502d6 f i libucrt:rewind.obj
 0001:0004f30a       _rewind                    1005030a f   libucrt:rewind.obj
 0001:0004f40b       _ldexp                     1005040b f   libucrt:ldexp.obj
 0001:0004f670       _strncmp                   10050670 f   libucrt:strncmp.obj
 0001:0004f706       __errcode                  10050706 f   libucrt:fpexcept.obj
 0001:0004f747       __except1                  10050747 f   libucrt:fpexcept.obj
 0001:0004f848       __except2                  10050848 f   libucrt:fpexcept.obj
 0001:0004f991       __handle_exc               10050991 f   libucrt:fpexcept.obj
 0001:0004fbe9       __handle_qnan2             10050be9 f   libucrt:fpexcept.obj
 0001:0004fbf9       __raise_exc                10050bf9 f   libucrt:fpexcept.obj
 0001:0004fc24       __raise_exc_ex             10050c24 f   libucrt:fpexcept.obj
 0001:0004ffd1       __raise_excf               10050fd1 f   libucrt:fpexcept.obj
 0001:0004fffc       __set_errno_from_matherr   10050ffc f   libucrt:fpexcept.obj
 0001:00050036       __umatherr                 10051036 f   libucrt:fpexcept.obj
 0001:00050100       __initterm                 10051100 f   libucrt:initterm.obj
 0001:00050173       __initterm_e               10051173 f   libucrt:initterm.obj
 0001:000501f6       __seh_filter_dll           100511f6 f   libucrt:exception_filter.obj
 0001:0005021e       __seh_filter_exe           1005121e f   libucrt:exception_filter.obj
 0001:000503ed       ??$?RPAD@__crt_internal_free_policy@@QBEXQBQAD@Z 100513ed f i libucrt:environment_initialization.obj
 0001:00050403       ??$?RPA_W@__crt_internal_free_policy@@QBEXQBQA_W@Z 10051403 f i libucrt:environment_initialization.obj
 0001:000508e1       ??$get_environment_from_os@$$$V@?$__crt_char_traits@D@@SAPADXZ 100518e1 f i libucrt:environment_initialization.obj
 0001:000508e6       ??$get_environment_from_os@$$$V@?$__crt_char_traits@_W@@SAPA_WXZ 100518e6 f i libucrt:environment_initialization.obj
 0001:00050a20       ??$set_variable_in_environment_nolock@PADH@?$__crt_char_traits@D@@SAH$$QAPAD$$QAH@Z 10051a20 f i libucrt:environment_initialization.obj
 0001:00050a3e       ??$set_variable_in_environment_nolock@PA_WH@?$__crt_char_traits@_W@@SAH$$QAPA_W$$QAH@Z 10051a3e f i libucrt:environment_initialization.obj
 0001:00050a5c       ??$tcscpy_s@PADABIAAPAD@?$__crt_char_traits@D@@SAH$$QAPADABIAAPAD@Z 10051a5c f i libucrt:environment_initialization.obj
 0001:00050a81       ??$tcscpy_s@PA_WABIAAPA_W@?$__crt_char_traits@_W@@SAH$$QAPA_WABIAAPA_W@Z 10051a81 f i libucrt:environment_initialization.obj
 0001:00050aa6       ??$tcslen@AAPAD@?$__crt_char_traits@D@@SAIAAPAD@Z 10051aa6 f i libucrt:environment_initialization.obj
 0001:00050ac4       ??$tcslen@AAPA_W@?$__crt_char_traits@_W@@SAIAAPA_W@Z 10051ac4 f i libucrt:environment_initialization.obj
 0001:00050ae9       ??$uninitialize@A6AXAAPAPAD@Z@?$dual_state_global@PAPAD@__crt_state_management@@QAEXA6AXAAPAPAD@Z@Z 10051ae9 f i libucrt:environment_initialization.obj
 0001:00050b39       ??$uninitialize@A6AXAAPAPA_W@Z@?$dual_state_global@PAPA_W@__crt_state_management@@QAEXA6AXAAPAPA_W@Z@Z 10051b39 f i libucrt:environment_initialization.obj
 0001:00050bcb       ??0?$__crt_unique_heap_ptr@PADU__crt_internal_free_policy@@@@QAE@QAPAD@Z 10051bcb f i libucrt:environment_initialization.obj
 0001:00050bdf       ??0?$__crt_unique_heap_ptr@PA_WU__crt_internal_free_policy@@@@QAE@QAPA_W@Z 10051bdf f i libucrt:environment_initialization.obj
 0001:00050bf3       ??1?$__crt_unique_heap_ptr@PADU__crt_internal_free_policy@@@@QAE@XZ 10051bf3 f i libucrt:environment_initialization.obj
 0001:00050c09       ??1?$__crt_unique_heap_ptr@PA_WU__crt_internal_free_policy@@@@QAE@XZ 10051c09 f i libucrt:environment_initialization.obj
 0001:00050c1f       ??B?$__crt_unique_heap_ptr@PADU__crt_internal_free_policy@@@@QBE_NXZ 10051c1f f i libucrt:environment_initialization.obj
 0001:00050c29       ??B?$__crt_unique_heap_ptr@PA_WU__crt_internal_free_policy@@@@QBE_NXZ 10051c29 f i libucrt:environment_initialization.obj
 0001:00050c33       ??B?$__crt_unique_heap_ptr@_WU__crt_internal_free_policy@@@@QBE_NXZ 10051c33 f i libucrt:environment_initialization.obj
 0001:00050c3d       ?__crt_compute_required_transform_buffer_count@@YAIIQBD@Z 10051c3d f i libucrt:environment_initialization.obj
 0001:00050c5d       ?__crt_compute_required_transform_buffer_count@@YAIIQB_W@Z 10051c5d f i libucrt:environment_initialization.obj
 0001:00050c80       ?__crt_transform_string@@YAIIQBDQA_WI@Z 10051c80 f i libucrt:environment_initialization.obj
 0001:00050ca4       ?__crt_transform_string@@YAIIQB_WQADI@Z 10051ca4 f i libucrt:environment_initialization.obj
 0001:00050ccc       ?detach@?$__crt_unique_heap_ptr@DU__crt_internal_free_policy@@@@QAEPADXZ 10051ccc f i libucrt:environment_initialization.obj
 0001:00050cd2       ?detach@?$__crt_unique_heap_ptr@PADU__crt_internal_free_policy@@@@QAEPAPADXZ 10051cd2 f i libucrt:environment_initialization.obj
 0001:00050cd8       ?detach@?$__crt_unique_heap_ptr@PA_WU__crt_internal_free_policy@@@@QAEPAPA_WXZ 10051cd8 f i libucrt:environment_initialization.obj
 0001:00050cde       ?detach@?$__crt_unique_heap_ptr@_WU__crt_internal_free_policy@@@@QAEPA_WXZ 10051cde f i libucrt:environment_initialization.obj
 0001:00050ce4       ?get@?$__crt_unique_heap_ptr@PADU__crt_internal_free_policy@@@@QBEPAPADXZ 10051ce4 f i libucrt:environment_initialization.obj
 0001:00050ce7       ?get@?$__crt_unique_heap_ptr@PA_WU__crt_internal_free_policy@@@@QBEPAPA_WXZ 10051ce7 f i libucrt:environment_initialization.obj
 0001:00050cea       ?get_current_state_index@__crt_state_management@@YAIXZ 10051cea f i libucrt:environment_initialization.obj
 0001:00050d11       ?initialize@?$dual_state_global@PAPAD@__crt_state_management@@QAEXQAPAD@Z 10051d11 f i libucrt:environment_initialization.obj
 0001:00050d4e       ?initialize@?$dual_state_global@PAPA_W@__crt_state_management@@QAEXQAPA_W@Z 10051d4e f i libucrt:environment_initialization.obj
 0001:00050d8b       ?is_valid@?$__crt_unique_heap_ptr@PADU__crt_internal_free_policy@@@@QBE_NXZ 10051d8b f i libucrt:environment_initialization.obj
 0001:00050d95       ?is_valid@?$__crt_unique_heap_ptr@PA_WU__crt_internal_free_policy@@@@QBE_NXZ 10051d95 f i libucrt:environment_initialization.obj
 0001:00050d9f       ?is_valid@?$__crt_unique_heap_ptr@_WU__crt_internal_free_policy@@@@QBE_NXZ 10051d9f f i libucrt:environment_initialization.obj
 0001:00050daf       ?release@?$__crt_unique_heap_ptr@PADU__crt_internal_free_policy@@@@QAEXXZ 10051daf f i libucrt:environment_initialization.obj
 0001:00050dc5       ?release@?$__crt_unique_heap_ptr@PA_WU__crt_internal_free_policy@@@@QAEXXZ 10051dc5 f i libucrt:environment_initialization.obj
 0001:00050ddb       ?value@?$dual_state_global@PAPAD@__crt_state_management@@QAEAAPAPADXZ 10051ddb f i libucrt:environment_initialization.obj
 0001:00050dde       ?value@?$dual_state_global@PAPA_W@__crt_state_management@@QAEAAPAPA_WXZ 10051dde f i libucrt:environment_initialization.obj
 0001:00050de1       ___dcrt_get_or_create_narrow_environment_nolock 10051de1 f   libucrt:environment_initialization.obj
 0001:00050de6       ___dcrt_get_or_create_wide_environment_nolock 10051de6 f   libucrt:environment_initialization.obj
 0001:00050deb       ___dcrt_uninitialize_environments_nolock 10051deb f   libucrt:environment_initialization.obj
 0001:00050e2f       ___p__environ              10051e2f f   libucrt:environment_initialization.obj
 0001:00050e35       ___p__wenviron             10051e35 f   libucrt:environment_initialization.obj
 0001:00050e3b       __get_initial_narrow_environment 10051e3b f   libucrt:environment_initialization.obj
 0001:00050e54       __get_initial_wide_environment 10051e54 f   libucrt:environment_initialization.obj
 0001:00050e6d       __initialize_narrow_environment 10051e6d f   libucrt:environment_initialization.obj
 0001:00050e72       __initialize_wide_environment 10051e72 f   libucrt:environment_initialization.obj
 0001:00050e77       ??$?BP6AXXZ@__crt_fast_encoded_nullptr_t@@QBEPAP6AXXZXZ 10051e77 f i libucrt:onexit.obj
 0001:00050e95       ??$?RP6AXXZ@__crt_internal_free_policy@@QBEXQBQ6AXXZ@Z 10051e95 f i libucrt:onexit.obj
 0001:00050eab       ??$?RV<lambda_800076c951b434888f4765a74a194fcc>@@AAV<lambda_4e60a939b0d047cfe11ddc22648dfba9>@@V<lambda_6dbb1268764f43b569ce7b67e331d33a>@@@?$__crt_seh_guarded_call@H@@QAEH$$QAV<lambda_800076c951b434888f4765a74a194fcc>@@AAV<lambda_4e60a939b0d047cfe11ddc22648dfba9>@@$$QAV<lambda_6dbb1268764f43b569ce7b67e331d33a>@@@Z 10051eab f i libucrt:onexit.obj
 0001:00050f10       ??$?RV<lambda_995298e7d72eb4c2aab26c0585b3abe5>@@AAV<lambda_275893d493268fdec8709772e3fcec0e>@@V<lambda_293819299cbf9a7022e18b56a874bb5c>@@@?$__crt_seh_guarded_call@H@@QAEH$$QAV<lambda_995298e7d72eb4c2aab26c0585b3abe5>@@AAV<lambda_275893d493268fdec8709772e3fcec0e>@@$$QAV<lambda_293819299cbf9a7022e18b56a874bb5c>@@@Z 10051f10 f i libucrt:onexit.obj
 0001:00050f75       ??$__acrt_lock_and_call@V<lambda_275893d493268fdec8709772e3fcec0e>@@@@YAHW4__acrt_lock_id@@$$QAV<lambda_275893d493268fdec8709772e3fcec0e>@@@Z 10051f75 f i libucrt:onexit.obj
 0001:00050fa7       ??$__acrt_lock_and_call@V<lambda_4e60a939b0d047cfe11ddc22648dfba9>@@@@YAHW4__acrt_lock_id@@$$QAV<lambda_4e60a939b0d047cfe11ddc22648dfba9>@@@Z 10051fa7 f i libucrt:onexit.obj
 0001:00050fd9       ??$__crt_fast_encode_pointer@P6AHXZ@@YAP6AHXZQ6AHXZ@Z 10051fd9 f i libucrt:onexit.obj
 0001:00051086       ??0?$__crt_unique_heap_ptr@P6AXXZU__crt_internal_free_policy@@@@QAE@QAP6AXXZ@Z 10052086 f i libucrt:onexit.obj
 0001:0005109a       ??1?$__crt_unique_heap_ptr@P6AXXZU__crt_internal_free_policy@@@@QAE@XZ 1005209a f i libucrt:onexit.obj
 0001:000513d5       ?detach@?$__crt_unique_heap_ptr@P6AXXZU__crt_internal_free_policy@@@@QAEPAP6AXXZXZ 100523d5 f i libucrt:onexit.obj
 0001:000513db       ?release@?$__crt_unique_heap_ptr@P6AXXZU__crt_internal_free_policy@@@@QAEXXZ 100523db f i libucrt:onexit.obj
 0001:000513f1       __crt_at_quick_exit        100523f1 f   libucrt:onexit.obj
 0001:0005140c       __crt_atexit               1005240c f   libucrt:onexit.obj
 0001:00051427       __execute_onexit_table     10052427 f   libucrt:onexit.obj
 0001:0005144b       __initialize_onexit_table  1005244b f   libucrt:onexit.obj
 0001:00051497       __register_onexit_function 10052497 f   libucrt:onexit.obj
 0001:000515fe       ?initialize@?$dual_state_global@PAU__crt_locale_data@@@__crt_state_management@@QAEXQAU__crt_locale_data@@@Z 100525fe f i libucrt:initialization.obj
 0001:0005163b       ___acrt_initialize         1005263b f   libucrt:initialization.obj
 0001:00051651       ___acrt_thread_attach      10052651 f   libucrt:initialization.obj
 0001:0005165e       ___acrt_thread_detach      1005265e f   libucrt:initialization.obj
 0001:00051668       ___acrt_uninitialize       10052668 f   libucrt:initialization.obj
 0001:0005167e       ___acrt_uninitialize_critical 1005267e f   libucrt:initialization.obj
 0001:000516af       __get_terminate            100526af f   libucrt:terminate.obj
 0001:000516c5       _set_terminate             100526c5 f   libucrt:terminate.obj
 0001:000516ed       _terminate                 100526ed f   libucrt:terminate.obj
 0001:00051738       ??$__crt_interlocked_exchange_pointer@X$$T@@YAPAXPDSAX$$T@Z 10052738 f i libucrt:free_base.obj
 0001:00051750       ___acrt_get_msvcrt_heap_handle 10052750 f   libucrt:free_base.obj
 0001:000517e1       __free_base                100527e1 f   libucrt:free_base.obj
 0001:00051829       __malloc_base              10052829 f   libucrt:malloc_base.obj
 0001:000518fa       _strcpy_s                  100528fa f   libucrt:strcpy_s.obj
 0001:0005196a       __set_abort_behavior       1005296a f   libucrt:abort.obj
 0001:00051993       _abort                     10052993 f   libucrt:abort.obj
 0001:000519e6       __calloc_base              100529e6 f   libucrt:calloc_base.obj
 0001:00051a5a       ??$is_overflow_condition@K@__crt_strtox@@YA_NIK@Z 10052a5a f i libucrt:atox.obj
 0001:00051a99       ??$is_overflow_condition@_K@__crt_strtox@@YA_NI_K@Z 10052a99 f i libucrt:atox.obj
 0001:00051aec       ??$make_c_string_character_source@D$$T@__crt_strtox@@YA?AV?$c_string_character_source@D@0@QBD$$T@Z 10052aec f i libucrt:atox.obj
 0001:00051b0d       ??$make_c_string_character_source@_W$$T@__crt_strtox@@YA?AV?$c_string_character_source@_W@0@QB_W$$T@Z 10052b0d f i libucrt:atox.obj
 0001:00051b2e       ??$parse_integer@KV?$c_string_character_source@D@__crt_strtox@@@__crt_strtox@@YAKQAU__crt_locale_pointers@@V?$c_string_character_source@D@0@H_N@Z 10052b2e f i libucrt:atox.obj
 0001:00051de0       ??$parse_integer@KV?$c_string_character_source@_W@__crt_strtox@@@__crt_strtox@@YAKQAU__crt_locale_pointers@@V?$c_string_character_source@_W@0@H_N@Z 10052de0 f i libucrt:atox.obj
 0001:0005267e       ??$parse_integer@_KV?$c_string_character_source@D@__crt_strtox@@@__crt_strtox@@YA_KQAU__crt_locale_pointers@@V?$c_string_character_source@D@0@H_N@Z 1005367e f i libucrt:atox.obj
 0001:000529cd       ??$parse_integer@_KV?$c_string_character_source@_W@__crt_strtox@@@__crt_strtox@@YA_KQAU__crt_locale_pointers@@V?$c_string_character_source@_W@0@H_N@Z 100539cd f i libucrt:atox.obj
 0001:0005313f       ??$parse_integer_from_string@JD$$T@__crt_strtox@@YAJQBD$$THQAU__crt_locale_pointers@@@Z 1005413f f i libucrt:atox.obj
 0001:00053177       ??$parse_integer_from_string@J_W$$T@__crt_strtox@@YAJQB_W$$THQAU__crt_locale_pointers@@@Z 10054177 f i libucrt:atox.obj
 0001:000531af       ??$parse_integer_from_string@_JD$$T@__crt_strtox@@YA_JQBD$$THQAU__crt_locale_pointers@@@Z 100541af f i libucrt:atox.obj
 0001:000531e7       ??$parse_integer_from_string@_J_W$$T@__crt_strtox@@YA_JQB_W$$THQAU__crt_locale_pointers@@@Z 100541e7 f i libucrt:atox.obj
 0001:0005321f       ??0?$c_string_character_source@D@__crt_strtox@@QAE@QBDQAPBD@Z 1005421f f i libucrt:atox.obj
 0001:00053242       ??0?$c_string_character_source@_W@__crt_strtox@@QAE@QB_WQAPB_W@Z 10054242 f i libucrt:atox.obj
 0001:00053265       ??1?$c_string_character_source@D@__crt_strtox@@QAE@XZ 10054265 f i libucrt:atox.obj
 0001:00053274       ??1?$c_string_character_source@_W@__crt_strtox@@QAE@XZ 10054274 f i libucrt:atox.obj
 0001:00053283       ?get@?$c_string_character_source@D@__crt_strtox@@QAEDXZ 10054283 f i libucrt:atox.obj
 0001:0005328d       ?get@?$c_string_character_source@_W@__crt_strtox@@QAE_WXZ 1005428d f i libucrt:atox.obj
 0001:0005329a       ?is_space@__crt_strtox@@YA_NDQAU__crt_locale_pointers@@@Z 1005429a f i libucrt:atox.obj
 0001:000532c0       ?is_space@__crt_strtox@@YA_N_WPAU__crt_locale_pointers@@@Z 100542c0 f i libucrt:atox.obj
 0001:000532df       ?maximum_signed_value@__crt_strtox@@YAJK@Z 100542df f i libucrt:atox.obj
 0001:000532e5       ?maximum_signed_value@__crt_strtox@@YA_J_K@Z 100542e5 f i libucrt:atox.obj
 0001:000532f0       ?minimum_signed_value@__crt_strtox@@YAJK@Z 100542f0 f i libucrt:atox.obj
 0001:000532f6       ?minimum_signed_value@__crt_strtox@@YA_J_K@Z 100542f6 f i libucrt:atox.obj
 0001:00053300       ?parse_digit@__crt_strtox@@YAID@Z 10054300 f i libucrt:atox.obj
 0001:00053348       ?parse_digit@__crt_strtox@@YAI_W@Z 10054348 f i libucrt:atox.obj
 0001:000535a5       ?restore_state@?$c_string_character_source@D@__crt_strtox@@QAE_NQBD@Z 100545a5 f i libucrt:atox.obj
 0001:000535b9       ?restore_state@?$c_string_character_source@_W@__crt_strtox@@QAE_NQB_W@Z 100545b9 f i libucrt:atox.obj
 0001:000535cd       ?save_state@?$c_string_character_source@D@__crt_strtox@@QBEPBDXZ 100545cd f i libucrt:atox.obj
 0001:000535d0       ?save_state@?$c_string_character_source@_W@__crt_strtox@@QBEPB_WXZ 100545d0 f i libucrt:atox.obj
 0001:000535d3       ?unget@?$c_string_character_source@D@__crt_strtox@@QAEXD@Z 100545d3 f i libucrt:atox.obj
 0001:00053605       ?unget@?$c_string_character_source@_W@__crt_strtox@@QAEX_W@Z 10054605 f i libucrt:atox.obj
 0001:0005363c       ?validate@?$c_string_character_source@D@__crt_strtox@@QBE_NXZ 1005463c f i libucrt:atox.obj
 0001:0005365d       ?validate@?$c_string_character_source@_W@__crt_strtox@@QBE_NXZ 1005465d f i libucrt:atox.obj
 0001:0005367e       ?wide_character_to_digit@__crt_strtox@@YAH_W@Z 1005467e f i libucrt:atox.obj
 0001:00053887       ___acrt_get_locale_data_prefix 10054887 f i libucrt:atox.obj
 0001:00053896       __atoi64                   10054896 f   libucrt:atox.obj
 0001:000538ca       __atoi64_l                 100548ca f   libucrt:atox.obj
 0001:000538ff       __atoi_l                   100548ff f   libucrt:atox.obj
 0001:00053934       __atol_l                   10054934 f   libucrt:atox.obj
 0001:00053969       __atoll_l                  10054969 f   libucrt:atox.obj
 0001:0005399e       __chvalidchk_l             1005499e f i libucrt:atox.obj
 0001:000539d2       __ischartype_l             100549d2 f i libucrt:atox.obj
 0001:00053a11       __wtoi                     10054a11 f   libucrt:atox.obj
 0001:00053a45       __wtoi64                   10054a45 f   libucrt:atox.obj
 0001:00053a79       __wtoi64_l                 10054a79 f   libucrt:atox.obj
 0001:00053aae       __wtoi_l                   10054aae f   libucrt:atox.obj
 0001:00053ae3       __wtol                     10054ae3 f   libucrt:atox.obj
 0001:00053b17       __wtol_l                   10054b17 f   libucrt:atox.obj
 0001:00053b4c       __wtoll                    10054b4c f   libucrt:atox.obj
 0001:00053b80       __wtoll_l                  10054b80 f   libucrt:atox.obj
 0001:00053bb5       _atoi                      10054bb5 f   libucrt:atox.obj
 0001:00053be9       _atol                      10054be9 f   libucrt:atox.obj
 0001:00053c1d       _atoll                     10054c1d f   libucrt:atox.obj
 0001:00053c51       ??$__crt_fast_decode_pointer@P6AXPB_W00II@Z@@YAP6AXPB_W00II@ZQ6AX000II@Z@Z 10054c51 f i libucrt:invalid_parameter.obj
 0001:00053c6c       ??$__crt_fast_encode_pointer@P6AXPB_W00II@Z@@YAP6AXPB_W00II@ZQ6AX000II@Z@Z 10054c6c f i libucrt:invalid_parameter.obj
 0001:00053c92       ?initialize@?$dual_state_global@P6AXPB_W00II@Z@__crt_state_management@@QAEXQ6AXPB_W00II@Z@Z 10054c92 f i libucrt:invalid_parameter.obj
 0001:00053ccf       ?value@?$dual_state_global@P6AXPB_W00II@Z@__crt_state_management@@QAEAAP6AXPB_W00II@ZXZ 10054ccf f i libucrt:invalid_parameter.obj
 0001:00053cd2       ___acrt_call_reportfault   10054cd2 f   libucrt:invalid_parameter.obj
 0001:00053e5b       ___acrt_initialize_invalid_parameter_handler 10054e5b f   libucrt:invalid_parameter.obj
 0001:00053e74       __get_invalid_parameter_handler 10054e74 f   libucrt:invalid_parameter.obj
 0001:00053e8b       __get_thread_local_invalid_parameter_handler 10054e8b f   libucrt:invalid_parameter.obj
 0001:00053ea0       __invalid_parameter        10054ea0 f   libucrt:invalid_parameter.obj
 0001:00053f39       __invalid_parameter_noinfo 10054f39 f   libucrt:invalid_parameter.obj
 0001:00053f4d       __invalid_parameter_noinfo_noreturn 10054f4d f   libucrt:invalid_parameter.obj
 0001:00053f71       __invoke_watson            10054f71 f   libucrt:invalid_parameter.obj
 0001:00053fb0       __set_invalid_parameter_handler 10054fb0 f   libucrt:invalid_parameter.obj
 0001:00053fec       __set_thread_local_invalid_parameter_handler 10054fec f   libucrt:invalid_parameter.obj
 0001:00054010       ___acrt_errno_from_os_error 10055010 f   libucrt:errno.obj
 0001:00054063       ___acrt_errno_map_os_error 10055063 f   libucrt:errno.obj
 0001:0005408e       ___doserrno                1005508e f   libucrt:errno.obj
 0001:000540a5       __errno                    100550a5 f   libucrt:errno.obj
 0001:000540bc       __get_doserrno             100550bc f   libucrt:errno.obj
 0001:000540ea       __get_errno                100550ea f   libucrt:errno.obj
 0001:00054118       __set_doserrno             10055118 f   libucrt:errno.obj
 0001:00054141       __set_errno                10055141 f   libucrt:errno.obj
 0001:000541c1       ??$?B$$A6GHPA_WKJ@Z@__crt_fast_encoded_nullptr_t@@QBEP6GHPA_WKJ@ZXZ 100551c1 f i libucrt:winapi_thunks.obj
 0001:000541df       ??$?RV<lambda_9227be29367c048ad7fd93a717dcb1a1>@@AAV<lambda_a463b7b0560cfcaf9b17f27c6ef46564>@@V<lambda_ccea11b5727ccf69be64f5f5d9a08d9f>@@@?$__crt_seh_guarded_call@H@@QAEH$$QAV<lambda_9227be29367c048ad7fd93a717dcb1a1>@@AAV<lambda_a463b7b0560cfcaf9b17f27c6ef46564>@@$$QAV<lambda_ccea11b5727ccf69be64f5f5d9a08d9f>@@@Z 100551df f i libucrt:winapi_thunks.obj
 0001:00054284       ??$__acrt_lock_and_call@V<lambda_a463b7b0560cfcaf9b17f27c6ef46564>@@@@YAHW4__acrt_lock_id@@$$QAV<lambda_a463b7b0560cfcaf9b17f27c6ef46564>@@@Z 10055284 f i libucrt:winapi_thunks.obj
 0001:000542b6       ??$__crt_fast_decode_pointer@P6GHPA_WKJ@Z@@YAP6GHPA_WKJ@ZQ6GH0KJ@Z@Z 100552b6 f i libucrt:winapi_thunks.obj
 0001:000542d1       ??$__crt_fast_encode_pointer@P6GHPA_WKJ@Z@@YAP6GHPA_WKJ@ZQ6GH0KJ@Z@Z 100552d1 f i libucrt:winapi_thunks.obj
 0001:000549fe       ___acrt_AreFileApisANSI@0  100559fe f   libucrt:winapi_thunks.obj
 0001:00054a5f       ___acrt_CompareStringEx@36 10055a5f f   libucrt:winapi_thunks.obj
 0001:00054af0       ___acrt_EnumSystemLocalesEx@16 10055af0 f   libucrt:winapi_thunks.obj
 0001:00054b78       ___acrt_FlsAlloc@4         10055b78 f   libucrt:winapi_thunks.obj
 0001:00054be3       ___acrt_FlsFree@4          10055be3 f   libucrt:winapi_thunks.obj
 0001:00054c4e       ___acrt_FlsGetValue@4      10055c4e f   libucrt:winapi_thunks.obj
 0001:00054cb9       ___acrt_FlsSetValue@8      10055cb9 f   libucrt:winapi_thunks.obj
 0001:00054d28       ___acrt_GetDateFormatEx@28 10055d28 f   libucrt:winapi_thunks.obj
 0001:00054dca       ___acrt_GetEnabledXStateFeatures@0 10055dca f   libucrt:winapi_thunks.obj
 0001:00054e2c       ___acrt_GetFileInformationByHandleEx@16 10055e2c f   libucrt:winapi_thunks.obj
 0001:00054ea7       ___acrt_GetLocaleInfoEx@16 10055ea7 f   libucrt:winapi_thunks.obj
 0001:00054f2b       ___acrt_GetSystemTimePreciseAsFileTime@4 10055f2b f   libucrt:winapi_thunks.obj
 0001:00054f96       ___acrt_GetTimeFormatEx@24 10055f96 f   libucrt:winapi_thunks.obj
 0001:00055022       ___acrt_GetUserDefaultLocaleName@8 10056022 f   libucrt:winapi_thunks.obj
 0001:000550a2       ___acrt_GetXStateFeaturesMask@8 100560a2 f   libucrt:winapi_thunks.obj
 0001:0005510e       ___acrt_InitializeCriticalSectionEx@12 1005610e f   libucrt:winapi_thunks.obj
 0001:00055188       ___acrt_IsValidLocaleName@4 10056188 f   libucrt:winapi_thunks.obj
 0001:00055203       ___acrt_LCIDToLocaleName@16 10056203 f   libucrt:winapi_thunks.obj
 0001:00055287       ___acrt_LCMapStringEx@36   10056287 f   libucrt:winapi_thunks.obj
 0001:00055331       ___acrt_LocaleNameToLCID@8 10056331 f   libucrt:winapi_thunks.obj
 0001:000553a4       ___acrt_LocateXStateFeature@12 100563a4 f   libucrt:winapi_thunks.obj
 0001:000553fb       ___acrt_MessageBoxA@16     100563fb f   libucrt:winapi_thunks.obj
 0001:00055456       ___acrt_MessageBoxW@16     10056456 f   libucrt:winapi_thunks.obj
 0001:000554b1       ___acrt_RoInitialize@4     100564b1 f   libucrt:winapi_thunks.obj
 0001:00055517       ___acrt_RoUninitialize@0   10056517 f   libucrt:winapi_thunks.obj
 0001:00055572       ___acrt_RtlGenRandom@8     10056572 f   libucrt:winapi_thunks.obj
 0001:000555de       ___acrt_SetThreadStackGuarantee@4 100565de f   libucrt:winapi_thunks.obj
 0001:00055644       ___acrt_can_show_message_box 10056644 f   libucrt:winapi_thunks.obj
 0001:00055663       ___acrt_can_use_vista_locale_apis 10056663 f   libucrt:winapi_thunks.obj
 0001:00055672       ___acrt_can_use_xstate_apis 10056672 f   libucrt:winapi_thunks.obj
 0001:00055681       ___acrt_get_parent_window  10056681 f   libucrt:winapi_thunks.obj
 0001:0005571f       ___acrt_initialize_winapi_thunks 1005671f f   libucrt:winapi_thunks.obj
 0001:0005574e       ___acrt_is_interactive     1005674e f   libucrt:winapi_thunks.obj
 0001:0005581d       ___acrt_is_packaged_app    1005681d f   libucrt:winapi_thunks.obj
 0001:000558c5       ___acrt_uninitialize_winapi_thunks 100568c5 f   libucrt:winapi_thunks.obj
 0001:00055908       ??0__crt_stdio_stream@@QAE@QAU__crt_stdio_stream_data@@@Z 10056908 f i libucrt:closeall.obj
 0001:0005591c       __fcloseall                1005691c f   libucrt:closeall.obj
 0001:000559e4       ___acrt_stdio_flush_nolock 100569e4 f   libucrt:fflush.obj
 0001:00055a63       __fflush_nolock            10056a63 f   libucrt:fflush.obj
 0001:00055abb       __flushall                 10056abb f   libucrt:fflush.obj
 0001:00055bd4       _fflush                    10056bd4 f   libucrt:fflush.obj
 0001:00055c43       ?has_crt_buffer@__crt_stdio_stream@@QBE_NXZ 10056c43 f i libucrt:_freebuf.obj
 0001:00055c52       ___acrt_stdio_free_buffer_nolock 10056c52 f   libucrt:_freebuf.obj
 0001:00055e8f       ___acrt_initialize_lowio   10056e8f f   libucrt:ioinit.obj
 0001:00055efa       ___acrt_uninitialize_lowio 10056efa f   libucrt:ioinit.obj
 0001:00055f4c       ___isascii                 10056f4c f i libucrt:_ctype.obj
 0001:00055f62       ___iscsym                  10056f62 f i libucrt:_ctype.obj
 0001:00055f8c       ___iscsymf                 10056f8c f i libucrt:_ctype.obj
 0001:00055fb2       ___toascii                 10056fb2 f i libucrt:_ctype.obj
 0001:00055fc2       __isalnum_l                10056fc2 f i libucrt:_ctype.obj
 0001:0005600b       __isalpha_l                1005700b f i libucrt:_ctype.obj
 0001:00056054       __isblank_l                10057054 f i libucrt:_ctype.obj
 0001:000560a7       __iscntrl_l                100570a7 f i libucrt:_ctype.obj
 0001:000560ed       __iscsym_l                 100570ed f i libucrt:_ctype.obj
 0001:00056118       __iscsymf_l                10057118 f i libucrt:_ctype.obj
 0001:00056143       __isdigit_l                10057143 f i libucrt:_ctype.obj
 0001:00056189       __isgraph_l                10057189 f i libucrt:_ctype.obj
 0001:000561d2       __islower_l                100571d2 f i libucrt:_ctype.obj
 0001:00056218       __isprint_l                10057218 f i libucrt:_ctype.obj
 0001:00056261       __ispunct_l                10057261 f i libucrt:_ctype.obj
 0001:000562a7       __isspace_l                100572a7 f i libucrt:_ctype.obj
 0001:000562ed       __isupper_l                100572ed f i libucrt:_ctype.obj
 0001:00056333       __isxdigit_l               10057333 f i libucrt:_ctype.obj
 0001:0005637c       _isalnum                   1005737c f i libucrt:_ctype.obj
 0001:000563b6       _isalpha                   100573b6 f i libucrt:_ctype.obj
 0001:000563f0       _isblank                   100573f0 f i libucrt:_ctype.obj
 0001:00056434       _iscntrl                   10057434 f i libucrt:_ctype.obj
 0001:0005646c       _isdigit                   1005746c f i libucrt:_ctype.obj
 0001:000564a4       _isgraph                   100574a4 f i libucrt:_ctype.obj
 0001:000564de       _islower                   100574de f i libucrt:_ctype.obj
 0001:00056516       _isprint                   10057516 f i libucrt:_ctype.obj
 0001:00056550       _ispunct                   10057550 f i libucrt:_ctype.obj
 0001:00056588       _isspace                   10057588 f i libucrt:_ctype.obj
 0001:000565c0       _isupper                   100575c0 f i libucrt:_ctype.obj
 0001:000565f8       _isxdigit                  100575f8 f i libucrt:_ctype.obj
 0001:000569f0       __tolower                  100579f0 f   libucrt:tolower_toupper.obj
 0001:00056a00       __tolower_l                10057a00 f   libucrt:tolower_toupper.obj
 0001:00056a20       __toupper                  10057a20 f   libucrt:tolower_toupper.obj
 0001:00056a30       __toupper_l                10057a30 f   libucrt:tolower_toupper.obj
 0001:00056a50       _tolower                   10057a50 f   libucrt:tolower_toupper.obj
 0001:00056a8c       _toupper                   10057a8c f   libucrt:tolower_toupper.obj
 0001:00056ac8       ??$make_c_string_character_source@DPAPAD@__crt_strtox@@YA?AV?$c_string_character_source@D@0@QBDQAPAD@Z 10057ac8 f i libucrt:strtox.obj
 0001:00056ae9       ??$make_c_string_character_source@_WPAPA_W@__crt_strtox@@YA?AV?$c_string_character_source@_W@0@QB_WQAPA_W@Z 10057ae9 f i libucrt:strtox.obj
 0001:00056b0a       ??$parse_integer_from_string@JDPAPAD@__crt_strtox@@YAJQBDQAPADHQAU__crt_locale_pointers@@@Z 10057b0a f i libucrt:strtox.obj
 0001:00056b42       ??$parse_integer_from_string@J_WPAPA_W@__crt_strtox@@YAJQB_WQAPA_WHQAU__crt_locale_pointers@@@Z 10057b42 f i libucrt:strtox.obj
 0001:00056b7a       ??$parse_integer_from_string@KDPAPAD@__crt_strtox@@YAKQBDQAPADHQAU__crt_locale_pointers@@@Z 10057b7a f i libucrt:strtox.obj
 0001:00056bb2       ??$parse_integer_from_string@K_WPAPA_W@__crt_strtox@@YAKQB_WQAPA_WHQAU__crt_locale_pointers@@@Z 10057bb2 f i libucrt:strtox.obj
 0001:00056bea       ??$parse_integer_from_string@_JDPAPAD@__crt_strtox@@YA_JQBDQAPADHQAU__crt_locale_pointers@@@Z 10057bea f i libucrt:strtox.obj
 0001:00056c22       ??$parse_integer_from_string@_J_WPAPA_W@__crt_strtox@@YA_JQB_WQAPA_WHQAU__crt_locale_pointers@@@Z 10057c22 f i libucrt:strtox.obj
 0001:00056c5a       ??$parse_integer_from_string@_KDPAPAD@__crt_strtox@@YA_KQBDQAPADHQAU__crt_locale_pointers@@@Z 10057c5a f i libucrt:strtox.obj
 0001:00056c92       ??$parse_integer_from_string@_K_WPAPA_W@__crt_strtox@@YA_KQB_WQAPA_WHQAU__crt_locale_pointers@@@Z 10057c92 f i libucrt:strtox.obj
 0001:00056cca       __strtoi64                 10057cca f   libucrt:strtox.obj
 0001:00056d01       __strtoi64_l               10057d01 f   libucrt:strtox.obj
 0001:00056d39       __strtoimax_l              10057d39 f   libucrt:strtox.obj
 0001:00056d71       __strtol_l                 10057d71 f   libucrt:strtox.obj
 0001:00056da9       __strtoll_l                10057da9 f   libucrt:strtox.obj
 0001:00056de1       __strtoui64                10057de1 f   libucrt:strtox.obj
 0001:00056e18       __strtoui64_l              10057e18 f   libucrt:strtox.obj
 0001:00056e50       __strtoul_l                10057e50 f   libucrt:strtox.obj
 0001:00056e88       __strtoull_l               10057e88 f   libucrt:strtox.obj
 0001:00056ec0       __strtoumax_l              10057ec0 f   libucrt:strtox.obj
 0001:00056ef8       __wcstoi64                 10057ef8 f   libucrt:strtox.obj
 0001:00056f2f       __wcstoi64_l               10057f2f f   libucrt:strtox.obj
 0001:00056f67       __wcstoimax_l              10057f67 f   libucrt:strtox.obj
 0001:00056f9f       __wcstol_l                 10057f9f f   libucrt:strtox.obj
 0001:00056fd7       __wcstoll_l                10057fd7 f   libucrt:strtox.obj
 0001:0005700f       __wcstoui64                1005800f f   libucrt:strtox.obj
 0001:00057046       __wcstoui64_l              10058046 f   libucrt:strtox.obj
 0001:0005707e       __wcstoul_l                1005807e f   libucrt:strtox.obj
 0001:000570b6       __wcstoull_l               100580b6 f   libucrt:strtox.obj
 0001:000570ee       __wcstoumax_l              100580ee f   libucrt:strtox.obj
 0001:00057126       _strtoimax                 10058126 f   libucrt:strtox.obj
 0001:0005715d       _strtol                    1005815d f   libucrt:strtox.obj
 0001:00057194       _strtoll                   10058194 f   libucrt:strtox.obj
 0001:000571cb       _strtoul                   100581cb f   libucrt:strtox.obj
 0001:00057202       _strtoull                  10058202 f   libucrt:strtox.obj
 0001:00057239       _strtoumax                 10058239 f   libucrt:strtox.obj
 0001:00057270       _wcstoimax                 10058270 f   libucrt:strtox.obj
 0001:000572a7       _wcstol                    100582a7 f   libucrt:strtox.obj
 0001:000572de       _wcstoll                   100582de f   libucrt:strtox.obj
 0001:00057315       _wcstoul                   10058315 f   libucrt:strtox.obj
 0001:0005734c       _wcstoull                  1005834c f   libucrt:strtox.obj
 0001:00057383       _wcstoumax                 10058383 f   libucrt:strtox.obj
 0001:000573ba       __mbtowc_l                 100583ba f   libucrt:mbtowc.obj
 0001:000574f2       _mbtowc                    100584f2 f   libucrt:mbtowc.obj
 0001:00057512       __wctomb_l                 10058512 f   libucrt:wctomb.obj
 0001:00057579       __wctomb_s_l               10058579 f   libucrt:wctomb.obj
 0001:000576e2       _wctomb                    100586e2 f   libucrt:wctomb.obj
 0001:00057723       _wctomb_s                  10058723 f   libucrt:wctomb.obj
 0001:00057e3b       ??1?$__crt_simd_cleanup_guard@$00@@QAE@XZ 10058e3b f i libucrt:strnlen.obj
 0001:00057e3f       ??1?$__crt_simd_cleanup_guard@$0A@@@QAE@XZ 10058e3f f i libucrt:strnlen.obj
 0001:00057e40       ?compare_equals@?$__crt_simd_traits@$00E@@SA?AT__m256i@@T2@0@Z 10058e40 f i libucrt:strnlen.obj
 0001:00057e45       ?compare_equals@?$__crt_simd_traits@$00G@@SA?AT__m256i@@T2@0@Z 10058e45 f i libucrt:strnlen.obj
 0001:00057e4a       ?compare_equals@?$__crt_simd_traits@$0A@E@@SA?AT__m128i@@T2@0@Z 10058e4a f i libucrt:strnlen.obj
 0001:00057e4f       ?compare_equals@?$__crt_simd_traits@$0A@G@@SA?AT__m128i@@T2@0@Z 10058e4f f i libucrt:strnlen.obj
 0001:00057e54       ?compute_byte_mask@?$__crt_simd_pack_traits@$00@@SAHT__m256i@@@Z 10058e54 f i libucrt:strnlen.obj
 0001:00057e59       ?compute_byte_mask@?$__crt_simd_pack_traits@$0A@@@SAHT__m128i@@@Z 10058e59 f i libucrt:strnlen.obj
 0001:00057e5e       ?get_zero_pack@?$__crt_simd_pack_traits@$00@@SA?AT__m256i@@XZ 10058e5e f i libucrt:strnlen.obj
 0001:00057e63       ?get_zero_pack@?$__crt_simd_pack_traits@$0A@@@SA?AT__m128i@@XZ 10058e63 f i libucrt:strnlen.obj
 0001:00057e68       _strnlen                   10058e68 f   libucrt:strnlen.obj
 0001:00057fd8       _wcsnlen                   10058fd8 f   libucrt:strnlen.obj
 0001:000581fc       ??$?RU__acrt_ptd@@@__crt_internal_free_policy@@QBEXQBU__acrt_ptd@@@Z 100591fc f i libucrt:per_thread_data.obj
 0001:00058212       ??$?RV<lambda_3518db117f0e7cdb002338c5d3c47b6c>@@AAV<lambda_b2ea41f6bbb362cd97d94c6828d90b61>@@V<lambda_abdedf541bb04549bc734292b4a045d4>@@@?$__crt_seh_guarded_call@X@@QAEX$$QAV<lambda_3518db117f0e7cdb002338c5d3c47b6c>@@AAV<lambda_b2ea41f6bbb362cd97d94c6828d90b61>@@$$QAV<lambda_abdedf541bb04549bc734292b4a045d4>@@@Z 10059212 f i libucrt:per_thread_data.obj
 0001:00058276       ??$?RV<lambda_51b6e8b1eb166f2a3faf91f424b38130>@@AAV<lambda_6250bd4b2a391816dd638c3bf72b0bcb>@@V<lambda_0b5a4a3e68152e1d9b943535f5f47bed>@@@?$__crt_seh_guarded_call@X@@QAEX$$QAV<lambda_51b6e8b1eb166f2a3faf91f424b38130>@@AAV<lambda_6250bd4b2a391816dd638c3bf72b0bcb>@@$$QAV<lambda_0b5a4a3e68152e1d9b943535f5f47bed>@@@Z 10059276 f i libucrt:per_thread_data.obj
 0001:000582ef       ??$?RV<lambda_5b71d36f03204c0beab531769a5b5694>@@AAV<lambda_be2b3da3f62db62e9dad5dc70221a656>@@V<lambda_8f9ce462984622f9bf76b59e2aaaf805>@@@?$__crt_seh_guarded_call@X@@QAEX$$QAV<lambda_5b71d36f03204c0beab531769a5b5694>@@AAV<lambda_be2b3da3f62db62e9dad5dc70221a656>@@$$QAV<lambda_8f9ce462984622f9bf76b59e2aaaf805>@@@Z 100592ef f i libucrt:per_thread_data.obj
 0001:0005834c       ??$?RV<lambda_9df27f884b057bc3edfc946cb5b7cf47>@@AAV<lambda_e69574bed617af4e071282c136b37893>@@V<lambda_cc0d902bcbbeb830f749456577db4721>@@@?$__crt_seh_guarded_call@X@@QAEX$$QAV<lambda_9df27f884b057bc3edfc946cb5b7cf47>@@AAV<lambda_e69574bed617af4e071282c136b37893>@@$$QAV<lambda_cc0d902bcbbeb830f749456577db4721>@@@Z 1005934c f i libucrt:per_thread_data.obj
 0001:000583a6       ??$__acrt_lock_and_call@V<lambda_6250bd4b2a391816dd638c3bf72b0bcb>@@@@YAXW4__acrt_lock_id@@$$QAV<lambda_6250bd4b2a391816dd638c3bf72b0bcb>@@@Z 100593a6 f i libucrt:per_thread_data.obj
 0001:000583d8       ??$__acrt_lock_and_call@V<lambda_b2ea41f6bbb362cd97d94c6828d90b61>@@@@YAXW4__acrt_lock_id@@$$QAV<lambda_b2ea41f6bbb362cd97d94c6828d90b61>@@@Z 100593d8 f i libucrt:per_thread_data.obj
 0001:0005840a       ??$__acrt_lock_and_call@V<lambda_be2b3da3f62db62e9dad5dc70221a656>@@@@YAXW4__acrt_lock_id@@$$QAV<lambda_be2b3da3f62db62e9dad5dc70221a656>@@@Z 1005940a f i libucrt:per_thread_data.obj
 0001:0005843c       ??$__acrt_lock_and_call@V<lambda_e69574bed617af4e071282c136b37893>@@@@YAXW4__acrt_lock_id@@$$QAV<lambda_e69574bed617af4e071282c136b37893>@@@Z 1005943c f i libucrt:per_thread_data.obj
 0001:00058575       ??0?$__crt_unique_heap_ptr@U__acrt_ptd@@U__crt_internal_free_policy@@@@QAE@QAU__acrt_ptd@@@Z 10059575 f i libucrt:per_thread_data.obj
 0001:00058589       ??0__crt_scoped_get_last_error_reset@@QAE@XZ 10059589 f i libucrt:per_thread_data.obj
 0001:0005859e       ??1?$__crt_unique_heap_ptr@U__acrt_ptd@@U__crt_internal_free_policy@@@@QAE@XZ 1005959e f i libucrt:per_thread_data.obj
 0001:000585b4       ??1__crt_scoped_get_last_error_reset@@QAE@XZ 100595b4 f i libucrt:per_thread_data.obj
 0001:000585bf       ??B?$__crt_unique_heap_ptr@U__acrt_ptd@@U__crt_internal_free_policy@@@@QBE_NXZ 100595bf f i libucrt:per_thread_data.obj
 0001:00058735       ?dangerous_get_state_array@?$dual_state_global@PAU__crt_locale_data@@@__crt_state_management@@QAEPAPAU__crt_locale_data@@XZ 10059735 f i libucrt:per_thread_data.obj
 0001:00058839       ?detach@?$__crt_unique_heap_ptr@U__acrt_ptd@@U__crt_internal_free_policy@@@@QAEPAU__acrt_ptd@@XZ 10059839 f i libucrt:per_thread_data.obj
 0001:0005883f       ?get@?$__crt_unique_heap_ptr@U__acrt_ptd@@U__crt_internal_free_policy@@@@QBEPAU__acrt_ptd@@XZ 1005983f f i libucrt:per_thread_data.obj
 0001:0005894e       ?is_valid@?$__crt_unique_heap_ptr@U__acrt_ptd@@U__crt_internal_free_policy@@@@QBE_NXZ 1005994e f i libucrt:per_thread_data.obj
 0001:00058958       ?release@?$__crt_unique_heap_ptr@U__acrt_ptd@@U__crt_internal_free_policy@@@@QAEXXZ 10059958 f i libucrt:per_thread_data.obj
 0001:000589e4       ?value@?$dual_state_global@PAU__crt_locale_data@@@__crt_state_management@@QAEAAPAU__crt_locale_data@@XZ 100599e4 f i libucrt:per_thread_data.obj
 0001:000589e7       ___acrt_freeptd            100599e7 f   libucrt:per_thread_data.obj
 0001:00058a1e       ___acrt_getptd             10059a1e f   libucrt:per_thread_data.obj
 0001:00058ac3       ___acrt_getptd_noexit      10059ac3 f   libucrt:per_thread_data.obj
 0001:00058b69       ___acrt_initialize_ptd     10059b69 f   libucrt:per_thread_data.obj
 0001:00058ba0       ___acrt_uninitialize_ptd   10059ba0 f   libucrt:per_thread_data.obj
 0001:00058bc0       ___threadhandle            10059bc0 f   libucrt:per_thread_data.obj
 0001:00058bc6       ___threadid                10059bc6 f   libucrt:per_thread_data.obj
 0001:00058bcc       ___acrt_update_locale_info 10059bcc f   libucrt:locale_update.obj
 0001:00058c04       ___acrt_update_multibyte_info 10059c04 f   libucrt:locale_update.obj
 0001:00058c3c       ?__acrt_fp_classify@@YA?AW4__acrt_fp_class@@ABN@Z 10059c3c f i libucrt:cvt.obj
 0001:00058cc3       ?__acrt_fp_is_negative@@YA_NABN@Z 10059cc3 f i libucrt:cvt.obj
 0001:00059736       ?strrchr@@YAPADQADH@Z      1005a736 f i libucrt:cvt.obj
 0001:00059743       ___acrt_fp_format          1005a743 f   libucrt:cvt.obj
 0001:0005991d       __fputwc_nolock            1005a91d f   libucrt:fputwc.obj
 0001:00059a8c       __fputwchar                1005aa8c f   libucrt:fputwc.obj
 0001:00059aac       __putwc_nolock             1005aaac f   libucrt:fputwc.obj
 0001:00059ab9       _fputwc                    1005aab9 f   libucrt:fputwc.obj
 0001:00059b52       _putwc                     1005ab52 f   libucrt:fputwc.obj
 0001:00059b5f       _putwchar                  1005ab5f f   libucrt:fputwc.obj
 0001:00059b6c       ?lowio_handle@__crt_stdio_stream@@QBEHXZ 1005ab6c f i libucrt:fileno.obj
 0001:00059b72       __fileno                   1005ab72 f   libucrt:fileno.obj
 0001:00059ba1       __fputc_nolock             1005aba1 f   libucrt:fputc.obj
 0001:00059bd4       __fputchar                 1005abd4 f   libucrt:fputc.obj
 0001:00059bf4       __putc_nolock              1005abf4 f   libucrt:fputc.obj
 0001:00059c01       _fputc                     1005ac01 f   libucrt:fputc.obj
 0001:00059d46       _putc                      1005ad46 f   libucrt:fputc.obj
 0001:00059d53       _putchar                   1005ad53 f   libucrt:fputc.obj
 0001:00059d60       __get_printf_count_output  1005ad60 f   libucrt:printf_count_output.obj
 0001:00059d7a       __set_printf_count_output  1005ad7a f   libucrt:printf_count_output.obj
 0001:00059dae       ?has_temporary_buffer@__crt_stdio_stream@@QBE_NXZ 1005adae f i libucrt:_sftbuf.obj
 0001:00059dbd       ___acrt_stdio_begin_temporary_buffering_nolock 1005adbd f   libucrt:_sftbuf.obj
 0001:00059e9f       ___acrt_stdio_end_temporary_buffering_nolock 1005ae9f f   libucrt:_sftbuf.obj
 0001:00059ee9       ??$?RU__crt_locale_data@@@__crt_internal_free_policy@@QBEXQBU__crt_locale_data@@@Z 1005aee9 f i libucrt:wsetlocale.obj
 0001:00059eff       ??$?RU__crt_locale_pointers@@@__crt_internal_free_policy@@QBEXQBU__crt_locale_pointers@@@Z 1005aeff f i libucrt:wsetlocale.obj
 0001:00059f15       ??$?RU__crt_multibyte_data@@@__crt_internal_free_policy@@QBEXQBU__crt_multibyte_data@@@Z 1005af15 f i libucrt:wsetlocale.obj
 0001:00059f2b       ??$?RV<lambda_70818de7b02deff9841e8b0962a60ed9>@@AAV<lambda_2af78c5f5901b1372d98f9ab3177dfa6>@@AAV<lambda_f51fe5fd7c79a33db34fc9310f277369>@@@?$__crt_seh_guarded_call@X@@QAEX$$QAV<lambda_70818de7b02deff9841e8b0962a60ed9>@@AAV<lambda_2af78c5f5901b1372d98f9ab3177dfa6>@@AAV<lambda_f51fe5fd7c79a33db34fc9310f277369>@@@Z 1005af2b f i libucrt:wsetlocale.obj
 0001:00059f74       ??$?RV<lambda_76aaead6e312921abc834cb00a638bdd>@@AAV<lambda_176e34f99554166dd2fac165c457248c>@@V<lambda_998ee1c9f4290b119b936bcd6215875a>@@@?$__crt_seh_guarded_call@X@@QAEX$$QAV<lambda_76aaead6e312921abc834cb00a638bdd>@@AAV<lambda_176e34f99554166dd2fac165c457248c>@@$$QAV<lambda_998ee1c9f4290b119b936bcd6215875a>@@@Z 1005af74 f i libucrt:wsetlocale.obj
 0001:00059fd0       ??$?RV<lambda_c76fdea48760d5f9368b465f31df4405>@@AAV<lambda_e378711a6f6581bf7f0efd7cdf97f5d9>@@V<lambda_e927a58b2a85c081d733e8c6192ae2d2>@@@?$__crt_seh_guarded_call@X@@QAEX$$QAV<lambda_c76fdea48760d5f9368b465f31df4405>@@AAV<lambda_e378711a6f6581bf7f0efd7cdf97f5d9>@@$$QAV<lambda_e927a58b2a85c081d733e8c6192ae2d2>@@@Z 1005afd0 f i libucrt:wsetlocale.obj
 0001:0005a023       ??$?RV<lambda_c9469061b39d205f0f236529d4a41659>@@AAV<lambda_b7fb1a997d3ebc0cc0186c5835178808>@@V<lambda_14b92c79d699846b5cc916cd4cf280e4>@@@?$__crt_seh_guarded_call@X@@QAEX$$QAV<lambda_c9469061b39d205f0f236529d4a41659>@@AAV<lambda_b7fb1a997d3ebc0cc0186c5835178808>@@$$QAV<lambda_14b92c79d699846b5cc916cd4cf280e4>@@@Z 1005b023 f i libucrt:wsetlocale.obj
 0001:0005a07d       ??$__acrt_lock_and_call@V<lambda_176e34f99554166dd2fac165c457248c>@@@@YAXW4__acrt_lock_id@@$$QAV<lambda_176e34f99554166dd2fac165c457248c>@@@Z 1005b07d f i libucrt:wsetlocale.obj
 0001:0005a0af       ??$__acrt_lock_and_call@V<lambda_b7fb1a997d3ebc0cc0186c5835178808>@@@@YAXW4__acrt_lock_id@@$$QAV<lambda_b7fb1a997d3ebc0cc0186c5835178808>@@@Z 1005b0af f i libucrt:wsetlocale.obj
 0001:0005a0e1       ??$__acrt_lock_and_call@V<lambda_e378711a6f6581bf7f0efd7cdf97f5d9>@@@@YAXW4__acrt_lock_id@@$$QAV<lambda_e378711a6f6581bf7f0efd7cdf97f5d9>@@@Z 1005b0e1 f i libucrt:wsetlocale.obj
 0001:0005a113       ??$__crt_call_and_cleanup@V<lambda_2af78c5f5901b1372d98f9ab3177dfa6>@@V<lambda_f51fe5fd7c79a33db34fc9310f277369>@@@@YAX$$QAV<lambda_2af78c5f5901b1372d98f9ab3177dfa6>@@$$QAV<lambda_f51fe5fd7c79a33db34fc9310f277369>@@@Z 1005b113 f i libucrt:wsetlocale.obj
 0001:0005a136       ??$__vcrt_va_start_verify_argument_type@H@@YAXXZ 1005b136 f i libucrt:wsetlocale.obj
 0001:0005a25b       ??0?$__crt_unique_heap_ptr@U__crt_locale_data@@U__crt_internal_free_policy@@@@QAE@QAU__crt_locale_data@@@Z 1005b25b f i libucrt:wsetlocale.obj
 0001:0005a26f       ??0?$__crt_unique_heap_ptr@U__crt_locale_pointers@@U__crt_internal_free_policy@@@@QAE@QAU__crt_locale_pointers@@@Z 1005b26f f i libucrt:wsetlocale.obj
 0001:0005a283       ??0?$__crt_unique_heap_ptr@U__crt_multibyte_data@@U__crt_internal_free_policy@@@@QAE@QAU__crt_multibyte_data@@@Z 1005b283 f i libucrt:wsetlocale.obj
 0001:0005a297       ??1?$__crt_unique_heap_ptr@U__crt_locale_data@@U__crt_internal_free_policy@@@@QAE@XZ 1005b297 f i libucrt:wsetlocale.obj
 0001:0005a2ad       ??1?$__crt_unique_heap_ptr@U__crt_locale_pointers@@U__crt_internal_free_policy@@@@QAE@XZ 1005b2ad f i libucrt:wsetlocale.obj
 0001:0005a2c3       ??1?$__crt_unique_heap_ptr@U__crt_multibyte_data@@U__crt_internal_free_policy@@@@QAE@XZ 1005b2c3 f i libucrt:wsetlocale.obj
 0001:0005a2d9       ??B?$__crt_unique_heap_ptr@U__crt_locale_data@@U__crt_internal_free_policy@@@@QBE_NXZ 1005b2d9 f i libucrt:wsetlocale.obj
 0001:0005a2e3       ??B?$__crt_unique_heap_ptr@U__crt_locale_pointers@@U__crt_internal_free_policy@@@@QBE_NXZ 1005b2e3 f i libucrt:wsetlocale.obj
 0001:0005a2ed       ??B?$__crt_unique_heap_ptr@U__crt_multibyte_data@@U__crt_internal_free_policy@@@@QBE_NXZ 1005b2ed f i libucrt:wsetlocale.obj
 0001:0005a516       ?detach@?$__crt_unique_heap_ptr@U__crt_locale_data@@U__crt_internal_free_policy@@@@QAEPAU__crt_locale_data@@XZ 1005b516 f i libucrt:wsetlocale.obj
 0001:0005a51c       ?detach@?$__crt_unique_heap_ptr@U__crt_locale_pointers@@U__crt_internal_free_policy@@@@QAEPAU__crt_locale_pointers@@XZ 1005b51c f i libucrt:wsetlocale.obj
 0001:0005a522       ?detach@?$__crt_unique_heap_ptr@U__crt_multibyte_data@@U__crt_internal_free_policy@@@@QAEPAU__crt_multibyte_data@@XZ 1005b522 f i libucrt:wsetlocale.obj
 0001:0005a528       ?get@?$__crt_unique_heap_ptr@U__crt_locale_data@@U__crt_internal_free_policy@@@@QBEPAU__crt_locale_data@@XZ 1005b528 f i libucrt:wsetlocale.obj
 0001:0005a52b       ?get@?$__crt_unique_heap_ptr@U__crt_locale_pointers@@U__crt_internal_free_policy@@@@QBEPAU__crt_locale_pointers@@XZ 1005b52b f i libucrt:wsetlocale.obj
 0001:0005a52e       ?get@?$__crt_unique_heap_ptr@U__crt_multibyte_data@@U__crt_internal_free_policy@@@@QBEPAU__crt_multibyte_data@@XZ 1005b52e f i libucrt:wsetlocale.obj
 0001:0005a531       ?is_valid@?$__crt_unique_heap_ptr@U__crt_locale_data@@U__crt_internal_free_policy@@@@QBE_NXZ 1005b531 f i libucrt:wsetlocale.obj
 0001:0005a53b       ?is_valid@?$__crt_unique_heap_ptr@U__crt_locale_pointers@@U__crt_internal_free_policy@@@@QBE_NXZ 1005b53b f i libucrt:wsetlocale.obj
 0001:0005a545       ?is_valid@?$__crt_unique_heap_ptr@U__crt_multibyte_data@@U__crt_internal_free_policy@@@@QBE_NXZ 1005b545 f i libucrt:wsetlocale.obj
 0001:0005a54f       ?release@?$__crt_unique_heap_ptr@U__crt_locale_data@@U__crt_internal_free_policy@@@@QAEXXZ 1005b54f f i libucrt:wsetlocale.obj
 0001:0005a565       ?release@?$__crt_unique_heap_ptr@U__crt_locale_pointers@@U__crt_internal_free_policy@@@@QAEXXZ 1005b565 f i libucrt:wsetlocale.obj
 0001:0005a57b       ?release@?$__crt_unique_heap_ptr@U__crt_multibyte_data@@U__crt_internal_free_policy@@@@QAEXXZ 1005b57b f i libucrt:wsetlocale.obj
 0001:0005a591       ___acrt_copy_locale_name   1005b591 f   libucrt:wsetlocale.obj
 0001:0005a610       ___acrt_set_locale_changed 1005b610 f   libucrt:wsetlocale.obj
 0001:0005a61d       ___acrt_uninitialize_locale 1005b61d f   libucrt:wsetlocale.obj
 0001:0005a683       ___lc_lctowcs              1005b683 f   libucrt:wsetlocale.obj
 0001:0005a70f       ___lc_wcstolc              1005b70f f   libucrt:wsetlocale.obj
 0001:0005a889       __configthreadlocale       1005b889 f   libucrt:wsetlocale.obj
 0001:0005a93d       __create_locale            1005b93d f   libucrt:wsetlocale.obj
 0001:0005a9ba       __expandlocale             1005b9ba f   libucrt:wsetlocale.obj
 0001:0005ae0e       __free_locale              1005be0e f   libucrt:wsetlocale.obj
 0001:0005aef4       __get_current_locale       1005bef4 f   libucrt:wsetlocale.obj
 0001:0005af8d       __wcreate_locale           1005bf8d f   libucrt:wsetlocale.obj
 0001:0005b0d8       __wcscats                  1005c0d8 f   libucrt:wsetlocale.obj
 0001:0005b129       __wsetlocale               1005c129 f   libucrt:wsetlocale.obj
 0001:0005bc4f       ___p___mb_cur_max          1005cc4f f   libucrt:nlsdata.obj
 0001:0005bd46       ___acrt_report_runtime_error 1005cd46 f   libucrt:report_runtime_error.obj
 0001:0005beac       __query_app_type           1005ceac f   libucrt:report_runtime_error.obj
 0001:0005beb2       __set_app_type             1005ceb2 f   libucrt:report_runtime_error.obj
 0001:0005c39e       __i64toa                   1005d39e f   libucrt:xtoa.obj
 0001:0005c3f1       __i64toa_s                 1005d3f1 f   libucrt:xtoa.obj
 0001:0005c442       __i64tow                   1005d442 f   libucrt:xtoa.obj
 0001:0005c495       __i64tow_s                 1005d495 f   libucrt:xtoa.obj
 0001:0005c4e6       __itoa                     1005d4e6 f   libucrt:xtoa.obj
 0001:0005c52a       __itoa_s                   1005d52a f   libucrt:xtoa.obj
 0001:0005c56c       __itow                     1005d56c f   libucrt:xtoa.obj
 0001:0005c5b0       __itow_s                   1005d5b0 f   libucrt:xtoa.obj
 0001:0005c5f2       __ltoa                     1005d5f2 f   libucrt:xtoa.obj
 0001:0005c636       __ltoa_s                   1005d636 f   libucrt:xtoa.obj
 0001:0005c678       __ltow                     1005d678 f   libucrt:xtoa.obj
 0001:0005c6bc       __ltow_s                   1005d6bc f   libucrt:xtoa.obj
 0001:0005c6fe       __ui64toa                  1005d6fe f   libucrt:xtoa.obj
 0001:0005c728       __ui64toa_s                1005d728 f   libucrt:xtoa.obj
 0001:0005c750       __ui64tow                  1005d750 f   libucrt:xtoa.obj
 0001:0005c77a       __ui64tow_s                1005d77a f   libucrt:xtoa.obj
 0001:0005c7a2       __ultoa                    1005d7a2 f   libucrt:xtoa.obj
 0001:0005c7c8       __ultoa_s                  1005d7c8 f   libucrt:xtoa.obj
 0001:0005c7ec       __ultow                    1005d7ec f   libucrt:xtoa.obj
 0001:0005c812       __ultow_s                  1005d812 f   libucrt:xtoa.obj
 0001:0005c836       __set_error_mode           1005d836 f   libucrt:set_error_mode.obj
 0001:0005c912       _wcscat_s                  1005d912 f   libucrt:wcscat_s.obj
 0001:0005ca1c       _wcscpy_s                  1005da1c f   libucrt:wcscpy_s.obj
 0001:0005cbbc       _wcsncat_s                 1005dbbc f   libucrt:wcsncat_s.obj
 0001:0005cc4c       _strcat_s                  1005dc4c f   libucrt:strcat_s.obj
 0001:0005cdd3       _strncat_s                 1005ddd3 f   libucrt:strncat_s.obj
 0001:0005cffe       ??$message_box@$$TAAPBDAAPBDAAI@?$__crt_char_traits@D@@SAH$$QA$$TAAPBD1AAI@Z 1005dffe f i libucrt:crtmbox.obj
 0001:0005d026       ??$message_box@$$TAAPB_WAAPB_WAAI@?$__crt_char_traits@_W@@SAH$$QA$$TAAPB_W1AAI@Z 1005e026 f i libucrt:crtmbox.obj
 0001:0005d04e       ??$message_box@$$TABQBDABQBDK@?$__crt_char_traits@D@@SAH$$QA$$TABQBD1$$QAK@Z 1005e04e f i libucrt:crtmbox.obj
 0001:0005d076       ??$message_box@$$TABQB_WABQB_WK@?$__crt_char_traits@_W@@SAH$$QA$$TABQB_W1$$QAK@Z 1005e076 f i libucrt:crtmbox.obj
 0001:0005d09e       ??$message_box@PAUHWND__@@ABQBDABQBDABI@?$__crt_char_traits@D@@SAH$$QAPAUHWND__@@ABQBD1ABI@Z 1005e09e f i libucrt:crtmbox.obj
 0001:0005d0c6       ??$message_box@PAUHWND__@@ABQB_WABQB_WABI@?$__crt_char_traits@_W@@SAH$$QAPAUHWND__@@ABQB_W1ABI@Z 1005e0c6 f i libucrt:crtmbox.obj
 0001:0005d142       ??$output_debug_string@ABQBD@?$__crt_char_traits@D@@SAXABQBD@Z 1005e142 f i libucrt:crtmbox.obj
 0001:0005d158       ??$output_debug_string@ABQB_W@?$__crt_char_traits@_W@@SAXABQB_W@Z 1005e158 f i libucrt:crtmbox.obj
 0001:0005d16e       ??0?$__crt_unique_handle_t@U__crt_handle_traits@@@@QAE@QAX@Z 1005e16e f i libucrt:crtmbox.obj
 0001:0005d182       ??1?$__crt_unique_handle_t@U__crt_handle_traits@@@@QAE@XZ 1005e182 f i libucrt:crtmbox.obj
 0001:0005d19e       ??B?$__crt_unique_handle_t@U__crt_handle_traits@@@@QBE_NXZ 1005e19e f i libucrt:crtmbox.obj
 0001:0005d1a9       ?close@?$__crt_unique_handle_t@U__crt_handle_traits@@@@QAEXXZ 1005e1a9 f i libucrt:crtmbox.obj
 0001:0005d1c5       ?close@__crt_handle_traits@@SA_NPAX@Z 1005e1c5 f i libucrt:crtmbox.obj
 0001:0005d1e0       ?get@?$__crt_unique_handle_t@U__crt_handle_traits@@@@QBEPAXXZ 1005e1e0 f i libucrt:crtmbox.obj
 0001:0005d1e3       ?get_invalid_value@__crt_handle_traits@@SAPAXXZ 1005e1e3 f i libucrt:crtmbox.obj
 0001:0005d1e7       ?is_valid@?$__crt_unique_handle_t@U__crt_handle_traits@@@@QBE_NXZ 1005e1e7 f i libucrt:crtmbox.obj
 0001:0005d1f2       ___acrt_show_narrow_message_box 1005e1f2 f   libucrt:crtmbox.obj
 0001:0005d1ff       ___acrt_show_wide_message_box 1005e1ff f   libucrt:crtmbox.obj
 0001:0005d20c       ??$?RV<lambda_d92cfe8357b99225085016881b624cb0>@@AAV<lambda_b721fa326cdb32351d23dfa67958c160>@@V<lambda_42d75b0848218ec137fa420c8ba9fdf9>@@@?$__crt_seh_guarded_call@H@@QAEH$$QAV<lambda_d92cfe8357b99225085016881b624cb0>@@AAV<lambda_b721fa326cdb32351d23dfa67958c160>@@$$QAV<lambda_42d75b0848218ec137fa420c8ba9fdf9>@@@Z 1005e20c f i libucrt:setvbuf.obj
 0001:0005d271       ??$__acrt_lock_stream_and_call@V<lambda_b721fa326cdb32351d23dfa67958c160>@@@@YAHQAU_iobuf@@$$QAV<lambda_b721fa326cdb32351d23dfa67958c160>@@@Z 1005e271 f i libucrt:setvbuf.obj
 0001:0005d40e       _setvbuf                   1005e40e f   libucrt:setvbuf.obj
 0001:0005d4a1       ??$?B$$A6AXH@Z@__crt_fast_encoded_nullptr_t@@QBEP6AXH@ZXZ 1005e4a1 f i libucrt:signal.obj
 0001:0005d4bf       ??$?RV<lambda_a048d3beccc847880fc8490e18b82769>@@AAV<lambda_ec61778202f4f5fc7e7711acc23c3bca>@@V<lambda_f7496a158712204296dd6628a163878e>@@@?$__crt_seh_guarded_call@P6AXH@Z@@QAEP6AXH@Z$$QAV<lambda_a048d3beccc847880fc8490e18b82769>@@AAV<lambda_ec61778202f4f5fc7e7711acc23c3bca>@@$$QAV<lambda_f7496a158712204296dd6628a163878e>@@@Z 1005e4bf f i libucrt:signal.obj
 0001:0005d52f       ??$__acrt_lock_and_call@V<lambda_ec61778202f4f5fc7e7711acc23c3bca>@@@@YAP6AXH@ZW4__acrt_lock_id@@$$QAV<lambda_ec61778202f4f5fc7e7711acc23c3bca>@@@Z 1005e52f f i libucrt:signal.obj
 0001:0005d561       ??$__crt_fast_decode_pointer@P6AXH@Z@@YAP6AXH@ZQ6AXH@Z@Z 1005e561 f i libucrt:signal.obj
 0001:0005d57c       ??$__crt_fast_encode_pointer@P6AXH@Z@@YAP6AXH@ZQ6AXH@Z@Z 1005e57c f i libucrt:signal.obj
 0001:0005d726       ?initialize@?$dual_state_global@P6AXH@Z@__crt_state_management@@QAEXQ6AXH@Z@Z 1005e726 f i libucrt:signal.obj
 0001:0005d7d2       ?value@?$dual_state_global@P6AXH@Z@__crt_state_management@@QAEAAP6AXH@ZXZ 1005e7d2 f i libucrt:signal.obj
 0001:0005d7d5       ___acrt_get_sigabrt_handler 1005e7d5 f   libucrt:signal.obj
 0001:0005d7f1       ___acrt_initialize_signal_handlers 1005e7f1 f   libucrt:signal.obj
 0001:0005d83a       ___fpecode                 1005e83a f   libucrt:signal.obj
 0001:0005d845       ___pxcptinfoptrs           1005e845 f   libucrt:signal.obj
 0001:0005d850       _raise                     1005e850 f   libucrt:signal.obj
 0001:0005dada       _signal                    1005eada f   libucrt:signal.obj
 0001:0005dcf8       __realloc_base             1005ecf8 f   libucrt:realloc_base.obj
 0001:0005dd7b       ___acrt_initialize_locks   1005ed7b f   libucrt:locks.obj
 0001:0005ddcc       ___acrt_lock               1005edcc f   libucrt:locks.obj
 0001:0005dde8       ___acrt_uninitialize_locks 1005ede8 f   libucrt:locks.obj
 0001:0005de25       ___acrt_unlock             1005ee25 f   libucrt:locks.obj
 0001:0005de41       __lock_locales             1005ee41 f   libucrt:locks.obj
 0001:0005de4c       __unlock_locales           1005ee4c f   libucrt:locks.obj
 0001:0005de57       ??$?RV<lambda_123407a5e2ac06da108355a851863b7a>@@AAV<lambda_2fe9b910cf3cbf4a0ab98a02ba45b3ec>@@V<lambda_ae55bdf541ad94d75914d381c370e64d>@@@?$__crt_seh_guarded_call@H@@QAEH$$QAV<lambda_123407a5e2ac06da108355a851863b7a>@@AAV<lambda_2fe9b910cf3cbf4a0ab98a02ba45b3ec>@@$$QAV<lambda_ae55bdf541ad94d75914d381c370e64d>@@@Z 1005ee57 f i libucrt:close.obj
 0001:0005def9       ??$__acrt_lowio_lock_fh_and_call@V<lambda_2fe9b910cf3cbf4a0ab98a02ba45b3ec>@@@@YAHH$$QAV<lambda_2fe9b910cf3cbf4a0ab98a02ba45b3ec>@@@Z 1005eef9 f i libucrt:close.obj
 0001:0005e04c       __close                    1005f04c f   libucrt:close.obj
 0001:0005e0ea       __close_nolock             1005f0ea f   libucrt:close.obj
 0001:0005e1ad       ??$?RU__crt_stdio_stream_data@@@__crt_internal_free_policy@@QBEXQBU__crt_stdio_stream_data@@@Z 1005f1ad f i libucrt:stream.obj
 0001:0005e1c3       ??0?$__crt_unique_heap_ptr@U__crt_stdio_stream_data@@U__crt_internal_free_policy@@@@QAE@QAU__crt_stdio_stream_data@@@Z 1005f1c3 f i libucrt:stream.obj
 0001:0005e1d7       ??0__crt_stdio_stream@@QAE@XZ 1005f1d7 f i libucrt:stream.obj
 0001:0005e1dd       ??1?$__crt_unique_heap_ptr@U__crt_stdio_stream_data@@U__crt_internal_free_policy@@@@QAE@XZ 1005f1dd f i libucrt:stream.obj
 0001:0005e1f3       ?__acrt_stdio_allocate_stream@@YA?AV__crt_stdio_stream@@XZ 1005f1f3 f   libucrt:stream.obj
 0001:0005e269       ?__acrt_stdio_free_stream@@YAXV__crt_stdio_stream@@@Z 1005f269 f   libucrt:stream.obj
 0001:0005e2b2       ?deallocate@__crt_stdio_stream@@QAEXXZ 1005f2b2 f i libucrt:stream.obj
 0001:0005e2be       ?detach@?$__crt_unique_heap_ptr@U__crt_stdio_stream_data@@U__crt_internal_free_policy@@@@QAEPAU__crt_stdio_stream_data@@XZ 1005f2be f i libucrt:stream.obj
 0001:0005e3b7       ?lock@__crt_stdio_stream@@QBEXXZ 1005f3b7 f i libucrt:stream.obj
 0001:0005e3c2       ?release@?$__crt_unique_heap_ptr@U__crt_stdio_stream_data@@U__crt_internal_free_policy@@@@QAEXXZ 1005f3c2 f i libucrt:stream.obj
 0001:0005e3d8       ?try_allocate@__crt_stdio_stream@@QAE_NXZ 1005f3d8 f i libucrt:stream.obj
 0001:0005e401       ??$__acrt_stdio_parse_mode@D@@YA?AU__acrt_stdio_stream_mode@@QBD@Z 1005f401 f i libucrt:openfile.obj
 0001:0005e6bf       ??$__acrt_stdio_parse_mode@_W@@YA?AU__acrt_stdio_stream_mode@@QB_W@Z 1005f6bf f i libucrt:openfile.obj
 0001:0005eae0       ??$tcsncmp@AAPBDAAY02$$CBDI@?$__crt_char_traits@D@@SAHAAPBDAAY02$$CBD$$QAI@Z 1005fae0 f i libucrt:openfile.obj
 0001:0005eb03       ??$tcsncmp@AAPB_WAAY02$$CB_WI@?$__crt_char_traits@_W@@SAHAAPB_WAAY02$$CB_W$$QAI@Z 1005fb03 f i libucrt:openfile.obj
 0001:0005eb26       ??$tcsnicmp@AAPBDAAY04$$CBDI@?$__crt_char_traits@D@@SAHAAPBDAAY04$$CBD$$QAI@Z 1005fb26 f i libucrt:openfile.obj
 0001:0005eb49       ??$tcsnicmp@AAPBDAAY06$$CBDI@?$__crt_char_traits@D@@SAHAAPBDAAY06$$CBD$$QAI@Z 1005fb49 f i libucrt:openfile.obj
 0001:0005eb6c       ??$tcsnicmp@AAPBDAAY07$$CBDI@?$__crt_char_traits@D@@SAHAAPBDAAY07$$CBD$$QAI@Z 1005fb6c f i libucrt:openfile.obj
 0001:0005eb8f       ??$tcsnicmp@AAPB_WAAY04$$CB_WI@?$__crt_char_traits@_W@@SAHAAPB_WAAY04$$CB_W$$QAI@Z 1005fb8f f i libucrt:openfile.obj
 0001:0005ebb2       ??$tcsnicmp@AAPB_WAAY06$$CB_WI@?$__crt_char_traits@_W@@SAHAAPB_WAAY06$$CB_W$$QAI@Z 1005fbb2 f i libucrt:openfile.obj
 0001:0005ebd5       ??$tcsnicmp@AAPB_WAAY07$$CB_WI@?$__crt_char_traits@_W@@SAHAAPB_WAAY07$$CB_W$$QAI@Z 1005fbd5 f i libucrt:openfile.obj
 0001:0005ebf8       ??$tsopen_s@PAHABQBDABHABHH@?$__crt_char_traits@D@@SAH$$QAPAHABQBDABH2$$QAH@Z 1005fbf8 f i libucrt:openfile.obj
 0001:0005ec2a       ??$tsopen_s@PAHABQB_WABHABHH@?$__crt_char_traits@_W@@SAH$$QAPAHABQB_WABH2$$QAH@Z 1005fc2a f i libucrt:openfile.obj
 0001:0005ec5c       ?__acrt_stdio_parse_mode_D@@YA_NAAU__acrt_stdio_stream_mode@@@Z 1005fc5c f i libucrt:openfile.obj
 0001:0005ec7d       ?__acrt_stdio_parse_mode_N@@YA_NAAU__acrt_stdio_stream_mode@@@Z 1005fc7d f i libucrt:openfile.obj
 0001:0005ec93       ?__acrt_stdio_parse_mode_R@@YA_NAAU__acrt_stdio_stream_mode@@AA_N@Z 1005fc93 f i libucrt:openfile.obj
 0001:0005ecb8       ?__acrt_stdio_parse_mode_S@@YA_NAAU__acrt_stdio_stream_mode@@AA_N@Z 1005fcb8 f i libucrt:openfile.obj
 0001:0005ecdd       ?__acrt_stdio_parse_mode_T@@YA_NAAU__acrt_stdio_stream_mode@@@Z 1005fcdd f i libucrt:openfile.obj
 0001:0005ed03       ?__acrt_stdio_parse_mode_b@@YA_NAAU__acrt_stdio_stream_mode@@@Z 1005fd03 f i libucrt:openfile.obj
 0001:0005ed2b       ?__acrt_stdio_parse_mode_c@@YA_NAAU__acrt_stdio_stream_mode@@AA_N@Z 1005fd2b f i libucrt:openfile.obj
 0001:0005ed55       ?__acrt_stdio_parse_mode_n@@YA_NAAU__acrt_stdio_stream_mode@@AA_N@Z 1005fd55 f i libucrt:openfile.obj
 0001:0005ed7f       ?__acrt_stdio_parse_mode_plus@@YA_NAAU__acrt_stdio_stream_mode@@AA_N@Z 1005fd7f f i libucrt:openfile.obj
 0001:0005edc1       ?__acrt_stdio_parse_mode_t@@YA_NAAU__acrt_stdio_stream_mode@@@Z 1005fdc1 f i libucrt:openfile.obj
 0001:0005ede9       __openfile                 1005fde9 f   libucrt:openfile.obj
 0001:0005edf6       __wopenfile                1005fdf6 f   libucrt:openfile.obj
 0001:0005f49b       __read                     1006049b f   libucrt:read.obj
 0001:0005f5f2       __read_nolock              100605f2 f   libucrt:read.obj
 0001:0005ff8a       ___acrt_stdio_refill_and_read_narrow_nolock 10060f8a f   libucrt:_filbuf.obj
 0001:0005ff97       ___acrt_stdio_refill_and_read_wide_nolock 10060f97 f   libucrt:_filbuf.obj
 0001:000606f6       __write                    100616f6 f   libucrt:write.obj
 0001:0006081b       __write_nolock             1006181b f   libucrt:write.obj
 0001:00060f61       ___acrt_stdio_flush_and_write_narrow_nolock 10061f61 f   libucrt:_flsbuf.obj
 0001:00060f6e       ___acrt_stdio_flush_and_write_wide_nolock 10061f6e f   libucrt:_flsbuf.obj
 0001:00060f7b       ___acrt_copy_path_to_wide_string 10061f7b f   libucrt:string_utilities.obj
 0001:00061073       ___acrt_copy_to_char       10062073 f   libucrt:string_utilities.obj
 0001:0006115e       __wremove                  1006215e f   libucrt:wunlink.obj
 0001:00061190       __wunlink                  10062190 f   libucrt:wunlink.obj
 0001:00061604       __lseek                    10062604 f   libucrt:lseek.obj
 0001:00061611       __lseek_nolock             10062611 f   libucrt:lseek.obj
 0001:0006161e       __lseeki64                 1006261e f   libucrt:lseek.obj
 0001:0006163f       __lseeki64_nolock          1006263f f   libucrt:lseek.obj
 0001:00061660       __chgsign                  10062660 f   libucrt:ieeemisc.obj
 0001:0006169a       __chgsignf                 1006269a f   libucrt:ieeemisc.obj
 0001:000616c5       __copysign                 100626c5 f   libucrt:ieeemisc.obj
 0001:000616f9       __copysignf                100626f9 f   libucrt:ieeemisc.obj
 0001:0006171e       __finite                   1006271e f   libucrt:ieeemisc.obj
 0001:0006173e       __fpclass                  1006273e f   libucrt:ieeemisc.obj
 0001:0006180b       __isnan                    1006280b f   libucrt:ieeemisc.obj
 0001:0006184e       __logb                     1006284e f   libucrt:ieeemisc.obj
 0001:00061953       __nextafter                10062953 f   libucrt:ieeemisc.obj
 0001:00061979       __scalb                    10062979 f   libucrt:ieeemisc.obj
 0001:00061999       __add_exp                  10062999 f   libucrt:util.obj
 0001:000619d3       __decomp                   100629d3 f   libucrt:util.obj
 0001:00061adc       __get_exp                  10062adc f   libucrt:util.obj
 0001:00061afb       __set_bexp                 10062afb f   libucrt:util.obj
 0001:00061b2e       __set_exp                  10062b2e f   libucrt:util.obj
 0001:00061b68       __sptype                   10062b68 f   libucrt:util.obj
 0001:00061bdd       ___clrfp_sse2              10062bdd f   libucrt:fpctrl.obj
 0001:00061c06       ___ctrlfp_sse2             10062c06 f   libucrt:fpctrl.obj
 0001:00061c4f       ___fclrf_sse2              10062c4f f   libucrt:fpctrl.obj
 0001:00061c75       ___get_fpsr_sse2           10062c75 f   libucrt:fpctrl.obj
 0001:00061c9a       ___set_fpsr_sse2           10062c9a f   libucrt:fpctrl.obj
 0001:00061d2d       ___set_statfp_sse2         10062d2d f   libucrt:fpctrl.obj
 0001:00061d4e       ___statfp_sse2             10062d4e f   libucrt:fpctrl.obj
 0001:00061d68       __clrfp                    10062d68 f   libucrt:fpctrl.obj
 0001:00061d7f       __ctrlfp                   10062d7f f   libucrt:fpctrl.obj
 0001:00061db6       __set_statfp               10062db6 f   libucrt:fpctrl.obj
 0001:00061e27       __statfp                   10062e27 f   libucrt:fpctrl.obj
 0001:00061e3d       ??$__crt_fast_decode_pointer@P6AHPAU_exception@@@Z@@YAP6AHPAU_exception@@@ZQ6AH0@Z@Z 10062e3d f i libucrt:matherr.obj
 0001:00061e58       ??$__crt_fast_encode_pointer@P6AHPAU_exception@@@Z@@YAP6AHPAU_exception@@@ZQ6AH0@Z@Z 10062e58 f i libucrt:matherr.obj
 0001:00061e7e       ?initialize@?$dual_state_global@P6AHPAU_exception@@@Z@__crt_state_management@@QAEXQ6AHPAU_exception@@@Z@Z 10062e7e f i libucrt:matherr.obj
 0001:00061ebb       ?value@?$dual_state_global@P6AHPAU_exception@@@Z@__crt_state_management@@QAEAAP6AHPAU_exception@@@ZXZ 10062ebb f i libucrt:matherr.obj
 0001:00061ebe       ___acrt_has_user_matherr   10062ebe f   libucrt:matherr.obj
 0001:00061edd       ___acrt_initialize_user_matherr 10062edd f   libucrt:matherr.obj
 0001:00061ef6       ___acrt_invoke_user_matherr 10062ef6 f   libucrt:matherr.obj
 0001:00061f51       ___setusermatherr          10062f51 f   libucrt:matherr.obj
 0001:00061f6b       ??$?RV<lambda_978dc153c237d78434369da87b74ff60>@@AAV<lambda_ad1ced32f4ac17aa236e5ef05d6b3b7c>@@V<lambda_4a8533e2866a575feecb8298ce776b0d>@@@?$__crt_seh_guarded_call@X@@QAEX$$QAV<lambda_978dc153c237d78434369da87b74ff60>@@AAV<lambda_ad1ced32f4ac17aa236e5ef05d6b3b7c>@@$$QAV<lambda_4a8533e2866a575feecb8298ce776b0d>@@@Z 10062f6b f i libucrt:mbctype.obj
 0001:00061fbe       ??$__acrt_lock_and_call@V<lambda_ad1ced32f4ac17aa236e5ef05d6b3b7c>@@@@YAXW4__acrt_lock_id@@$$QAV<lambda_ad1ced32f4ac17aa236e5ef05d6b3b7c>@@@Z 10062fbe f i libucrt:mbctype.obj
 0001:000625cf       ___acrt_initialize_multibyte 100635cf f   libucrt:mbctype.obj
 0001:000625f4       ___acrt_update_thread_multibyte_data 100635f4 f   libucrt:mbctype.obj
 0001:000626be       ___p__mbcasemap            100636be f   libucrt:mbctype.obj
 0001:000626c4       ___p__mbctype              100636c4 f   libucrt:mbctype.obj
 0001:000626ca       __getmbcp                  100636ca f   libucrt:mbctype.obj
 0001:0006270d       __setmbcp                  1006370d f   libucrt:mbctype.obj
 0001:00062724       __setmbcp_nolock           10063724 f   libucrt:mbctype.obj
 0001:00062a32       ??0?$__crt_unique_handle_t@Uenvironment_strings_traits@?A0x29f97c20@@@@QAE@QA_W@Z 10063a32 f i libucrt:get_environment_from_os.obj
 0001:00062a46       ??1?$__crt_unique_handle_t@Uenvironment_strings_traits@?A0x29f97c20@@@@QAE@XZ 10063a46 f i libucrt:get_environment_from_os.obj
 0001:00062a62       ??B?$__crt_unique_handle_t@Uenvironment_strings_traits@?A0x29f97c20@@@@QBE_NXZ 10063a62 f i libucrt:get_environment_from_os.obj
 0001:00062a6c       ?close@?$__crt_unique_handle_t@Uenvironment_strings_traits@?A0x29f97c20@@@@QAEXXZ 10063a6c f i libucrt:get_environment_from_os.obj
 0001:00062a88       ?close@environment_strings_traits@?A0x29f97c20@@SA_NPA_W@Z 10063a88 f i libucrt:get_environment_from_os.obj
 0001:00062ae2       ?get@?$__crt_unique_handle_t@Uenvironment_strings_traits@?A0x29f97c20@@@@QBEPA_WXZ 10063ae2 f i libucrt:get_environment_from_os.obj
 0001:00062ae5       ?get_invalid_value@environment_strings_traits@?A0x29f97c20@@SAPA_WXZ 10063ae5 f i libucrt:get_environment_from_os.obj
 0001:00062ae8       ?is_valid@?$__crt_unique_handle_t@Uenvironment_strings_traits@?A0x29f97c20@@@@QBE_NXZ 10063ae8 f i libucrt:get_environment_from_os.obj
 0001:00062af2       ___dcrt_get_narrow_environment_from_os 10063af2 f   libucrt:get_environment_from_os.obj
 0001:00062b95       ___dcrt_get_wide_environment_from_os 10063b95 f   libucrt:get_environment_from_os.obj
 0001:0006342d       ??$get_or_create_environment_nolock@$$$V@?$__crt_char_traits@D@@SAPAPADXZ 1006442d f i libucrt:setenv.obj
 0001:00063432       ??$get_or_create_environment_nolock@$$$V@?$__crt_char_traits@_W@@SAPAPA_WXZ 10064432 f i libucrt:setenv.obj
 0001:00063437       ??$set_environment_variable@ABQADQAD@?$__crt_char_traits@D@@SAHABQAD$$QBQAD@Z 10064437 f i libucrt:setenv.obj
 0001:00063453       ??$set_environment_variable@ABQA_WQA_W@?$__crt_char_traits@_W@@SAHABQA_W$$QBQA_W@Z 10064453 f i libucrt:setenv.obj
 0001:0006346f       ??$tcschr@ABQADD@?$__crt_char_traits@D@@SAPADABQAD$$QAD@Z 1006446f f i libucrt:setenv.obj
 0001:0006348f       ??$tcschr@ABQA_WD@?$__crt_char_traits@_W@@SAPA_WABQA_W$$QAD@Z 1006448f f i libucrt:setenv.obj
 0001:000634b4       ??$tcscpy_s@AAPADABIAAPAD@?$__crt_char_traits@D@@SAHAAPADABI0@Z 100644b4 f i libucrt:setenv.obj
 0001:000634d9       ??$tcscpy_s@AAPA_WABIAAPA_W@?$__crt_char_traits@_W@@SAHAAPA_WABI0@Z 100644d9 f i libucrt:setenv.obj
 0001:000634fe       ??$tcscpy_s@ABQADABIABQAD@?$__crt_char_traits@D@@SAHABQADABI0@Z 100644fe f i libucrt:setenv.obj
 0001:00063523       ??$tcscpy_s@ABQA_WABIABQA_W@?$__crt_char_traits@_W@@SAHABQA_WABI0@Z 10064523 f i libucrt:setenv.obj
 0001:00063548       ??$tcsnicoll@ABQBDAAPADABI@?$__crt_char_traits@D@@SAHABQBDAAPADABI@Z 10064548 f i libucrt:setenv.obj
 0001:0006356d       ??$tcsnicoll@ABQB_WAAPA_WABI@?$__crt_char_traits@_W@@SAHABQB_WAAPA_WABI@Z 1006456d f i libucrt:setenv.obj
 0001:000635b6       ?strchr@@YAPADQADH@Z       100645b6 f i libucrt:setenv.obj
 0001:000635c3       ?wcschr@@YAPA_WPA_W_W@Z    100645c3 f i libucrt:setenv.obj
 0001:000635d0       ___dcrt_set_variable_in_narrow_environment_nolock 100645d0 f   libucrt:setenv.obj
 0001:000635dd       ___dcrt_set_variable_in_wide_environment_nolock 100645dd f   libucrt:setenv.obj
 0001:000635ea       __recalloc                 100645ea f   libucrt:recalloc.obj
 0001:000635f7       __recalloc_base            100645f7 f   libucrt:recalloc.obj
 0001:0006367f       ___acrt_getheap            1006467f f   libucrt:heap_handle.obj
 0001:00063685       ___acrt_initialize_heap    10064685 f   libucrt:heap_handle.obj
 0001:0006369a       ___acrt_uninitialize_heap  1006469a f   libucrt:heap_handle.obj
 0001:000636a6       __get_heap_handle          100646a6 f   libucrt:heap_handle.obj
 0001:000636ac       ___acrt_initialize_command_line 100646ac f   libucrt:argv_data.obj
 0001:000636cb       ___acrt_uninitialize_command_line 100646cb f   libucrt:argv_data.obj
 0001:000636ce       ___p___argc                100646ce f   libucrt:argv_data.obj
 0001:000636d4       ___p___argv                100646d4 f   libucrt:argv_data.obj
 0001:000636da       ___p___wargv               100646da f   libucrt:argv_data.obj
 0001:000636e0       ___p__acmdln               100646e0 f   libucrt:argv_data.obj
 0001:000636e6       ___p__pgmptr               100646e6 f   libucrt:argv_data.obj
 0001:000636ec       ___p__wcmdln               100646ec f   libucrt:argv_data.obj
 0001:000636f2       ___p__wpgmptr              100646f2 f   libucrt:argv_data.obj
 0001:000636f8       __get_pgmptr               100646f8 f   libucrt:argv_data.obj
 0001:00063735       __get_wpgmptr              10064735 f   libucrt:argv_data.obj
 0001:00063772       ___acrt_execute_initializers 10064772 f   libucrt:shared_initialization.obj
 0001:00063815       ___acrt_execute_uninitializers 10064815 f   libucrt:shared_initialization.obj
 0001:00063875       ??$?B$$A6AHI@Z@__crt_fast_encoded_nullptr_t@@QBEP6AHI@ZXZ 10064875 f i libucrt:new_handler.obj
 0001:00063893       ??$__crt_fast_decode_pointer@P6AHI@Z@@YAP6AHI@ZQ6AHI@Z@Z 10064893 f i libucrt:new_handler.obj
 0001:000638ae       ??$__crt_fast_encode_pointer@P6AHI@Z@@YAP6AHI@ZQ6AHI@Z@Z 100648ae f i libucrt:new_handler.obj
 0001:000638d4       ?_set_new_handler@@YAP6AHI@ZH@Z 100648d4 f   libucrt:new_handler.obj
 0001:000638fa       ?initialize@?$dual_state_global@P6AHI@Z@__crt_state_management@@QAEXQ6AHI@Z@Z 100648fa f i libucrt:new_handler.obj
 0001:00063937       ?value@?$dual_state_global@P6AHI@Z@__crt_state_management@@QAEAAP6AHI@ZXZ 10064937 f i libucrt:new_handler.obj
 0001:0006393a       ___acrt_initialize_new_handler 1006493a f   libucrt:new_handler.obj
 0001:00063953       __callnewh                 10064953 f   libucrt:new_handler.obj
 0001:000639a8       __query_new_handler        100649a8 f   libucrt:new_handler.obj
 0001:00063a0e       __set_new_handler          10064a0e f   libucrt:new_handler.obj
 0001:00063a86       ?value@?$dual_state_global@J@__crt_state_management@@QAEAAJXZ 10064a86 f i libucrt:new_mode.obj
 0001:00063a89       __query_new_mode           10064a89 f   libucrt:new_mode.obj
 0001:00063a8f       __set_new_mode             10064a8f f   libucrt:new_mode.obj
 0001:00063ac9       ___pctype_func             10064ac9 f   libucrt:ctype.obj
 0001:00063af8       ___pwctype_func            10064af8 f   libucrt:ctype.obj
 0001:00063afe       __iswctype_l               10064afe f   libucrt:iswctype.obj
 0001:00063b17       _iswctype                  10064b17 f   libucrt:iswctype.obj
 0001:00063b8d       __isctype                  10064b8d f   libucrt:isctype.obj
 0001:00063bca       __isctype_l                10064bca f   libucrt:isctype.obj
 0001:00063e91       ___acrt_DownlevelLCIDToLocaleName 10064e91 f   libucrt:lcidtoname_downlevel.obj
 0001:00063f65       ___acrt_DownlevelLocaleNameToLCID 10064f65 f   libucrt:lcidtoname_downlevel.obj
 0001:00063f9c       ??$?RV<lambda_61cee617f5178ae960314fd4d05640a0>@@AAV<lambda_6978c1fb23f02e42e1d9e99668cc68aa>@@V<lambda_9cd88cf8ad10232537feb2133f08c833>@@@?$__crt_seh_guarded_call@H@@QAEH$$QAV<lambda_61cee617f5178ae960314fd4d05640a0>@@AAV<lambda_6978c1fb23f02e42e1d9e99668cc68aa>@@$$QAV<lambda_9cd88cf8ad10232537feb2133f08c833>@@@Z 10064f9c f i libucrt:commit.obj
 0001:0006405a       ??$__acrt_lowio_lock_fh_and_call@V<lambda_6978c1fb23f02e42e1d9e99668cc68aa>@@@@YAHH$$QAV<lambda_6978c1fb23f02e42e1d9e99668cc68aa>@@@Z 1006505a f i libucrt:commit.obj
 0001:0006414c       __commit                   1006514c f   libucrt:commit.obj
 0001:000641d6       ??$?RU__crt_lowio_handle_data@@@__crt_internal_free_policy@@QBEXQBU__crt_lowio_handle_data@@@Z 100651d6 f i libucrt:osfinfo.obj
 0001:000641ec       ??0?$__crt_unique_heap_ptr@U__crt_lowio_handle_data@@U__crt_internal_free_policy@@@@QAE@QAU__crt_lowio_handle_data@@@Z 100651ec f i libucrt:osfinfo.obj
 0001:00064200       ??1?$__crt_unique_heap_ptr@U__crt_lowio_handle_data@@U__crt_internal_free_policy@@@@QAE@XZ 10065200 f i libucrt:osfinfo.obj
 0001:00064216       ??B?$__crt_unique_heap_ptr@U__crt_lowio_handle_data@@U__crt_internal_free_policy@@@@QBE_NXZ 10065216 f i libucrt:osfinfo.obj
 0001:00064220       ?detach@?$__crt_unique_heap_ptr@U__crt_lowio_handle_data@@U__crt_internal_free_policy@@@@QAEPAU__crt_lowio_handle_data@@XZ 10065220 f i libucrt:osfinfo.obj
 0001:00064226       ?get@?$__crt_unique_heap_ptr@U__crt_lowio_handle_data@@U__crt_internal_free_policy@@@@QBEPAU__crt_lowio_handle_data@@XZ 10065226 f i libucrt:osfinfo.obj
 0001:00064229       ?is_valid@?$__crt_unique_heap_ptr@U__crt_lowio_handle_data@@U__crt_internal_free_policy@@@@QBE_NXZ 10065229 f i libucrt:osfinfo.obj
 0001:00064233       ?release@?$__crt_unique_heap_ptr@U__crt_lowio_handle_data@@U__crt_internal_free_policy@@@@QAEXXZ 10065233 f i libucrt:osfinfo.obj
 0001:00064249       ___acrt_lowio_create_handle_array 10065249 f   libucrt:osfinfo.obj
 0001:000642e1       ___acrt_lowio_destroy_handle_array 100652e1 f   libucrt:osfinfo.obj
 0001:00064323       ___acrt_lowio_ensure_fh_exists 10065323 f   libucrt:osfinfo.obj
 0001:000643e1       ___acrt_lowio_lock_fh      100653e1 f   libucrt:osfinfo.obj
 0001:0006440c       ___acrt_lowio_set_os_handle 1006540c f   libucrt:osfinfo.obj
 0001:000644c5       ___acrt_lowio_unlock_fh    100654c5 f   libucrt:osfinfo.obj
 0001:000644f0       __alloc_osfhnd             100654f0 f   libucrt:osfinfo.obj
 0001:00064646       __free_osfhnd              10065646 f   libucrt:osfinfo.obj
 0001:000646fb       __get_osfhandle            100656fb f   libucrt:osfinfo.obj
 0001:0006477f       __open_osfhandle           1006577f f   libucrt:osfinfo.obj
 0001:000648d0       ___iswcsym                 100658d0 f i libucrt:_wctype.obj
 0001:000648ff       ___iswcsymf                100658ff f i libucrt:_wctype.obj
 0001:0006492e       __isleadbyte_l             1006592e f i libucrt:_wctype.obj
 0001:00064975       __iswalnum_l               10065975 f i libucrt:_wctype.obj
 0001:00064990       __iswalpha_l               10065990 f i libucrt:_wctype.obj
 0001:000649ab       __iswblank_l               100659ab f i libucrt:_wctype.obj
 0001:000649cf       __iswcntrl_l               100659cf f i libucrt:_wctype.obj
 0001:000649e6       __iswcsym_l                100659e6 f i libucrt:_wctype.obj
 0001:00064a15       __iswcsymf_l               10065a15 f i libucrt:_wctype.obj
 0001:00064a44       __iswdigit_l               10065a44 f i libucrt:_wctype.obj
 0001:00064a5b       __iswgraph_l               10065a5b f i libucrt:_wctype.obj
 0001:00064a76       __iswlower_l               10065a76 f i libucrt:_wctype.obj
 0001:00064a8d       __iswprint_l               10065a8d f i libucrt:_wctype.obj
 0001:00064aa8       __iswpunct_l               10065aa8 f i libucrt:_wctype.obj
 0001:00064abf       __iswspace_l               10065abf f i libucrt:_wctype.obj
 0001:00064ad6       __iswupper_l               10065ad6 f i libucrt:_wctype.obj
 0001:00064aed       __iswxdigit_l              10065aed f i libucrt:_wctype.obj
 0001:00064b08       _isleadbyte                10065b08 f i libucrt:_wctype.obj
 0001:00064b1f       _iswalnum                  10065b1f f i libucrt:_wctype.obj
 0001:00064b3a       _iswalpha                  10065b3a f i libucrt:_wctype.obj
 0001:00064b55       _iswascii                  10065b55 f i libucrt:_wctype.obj
 0001:00064b6e       _iswblank                  10065b6e f i libucrt:_wctype.obj
 0001:00064b92       _iswcntrl                  10065b92 f i libucrt:_wctype.obj
 0001:00064ba9       _iswdigit                  10065ba9 f i libucrt:_wctype.obj
 0001:00064bc0       _iswgraph                  10065bc0 f i libucrt:_wctype.obj
 0001:00064bdb       _iswlower                  10065bdb f i libucrt:_wctype.obj
 0001:00064bf2       _iswprint                  10065bf2 f i libucrt:_wctype.obj
 0001:00064c0d       _iswpunct                  10065c0d f i libucrt:_wctype.obj
 0001:00064c24       _iswspace                  10065c24 f i libucrt:_wctype.obj
 0001:00064c3b       _iswupper                  10065c3b f i libucrt:_wctype.obj
 0001:00064c52       _iswxdigit                 10065c52 f i libucrt:_wctype.obj
 0001:00064c6d       ??0?$__crt_scoped_stack_ptr@_W@@QAE@U?$__crt_scoped_stack_ptr_tag@_W@@@Z 10065c6d f i libucrt:lcmapstringa.obj
 0001:00064c81       ??0?$__crt_scoped_stack_ptr_tag@_W@@QAE@QA_W@Z 10065c81 f i libucrt:lcmapstringa.obj
 0001:00064c95       ??1?$__crt_scoped_stack_ptr@_W@@QAE@XZ 10065c95 f i libucrt:lcmapstringa.obj
 0001:00064ca0       ??B?$__crt_scoped_stack_ptr@_W@@QBE_NXZ 10065ca0 f i libucrt:lcmapstringa.obj
 0001:00064f4e       ?get@?$__crt_scoped_stack_ptr@_W@@QBEPA_WXZ 10065f4e f i libucrt:lcmapstringa.obj
 0001:00064f51       __MallocaComputeSize       10065f51 f i libucrt:lcmapstringa.obj
 0001:00064f68       __MarkAllocaS              10065f68 f i libucrt:lcmapstringa.obj
 0001:00064f83       ___acrt_LCMapStringA       10065f83 f   libucrt:lcmapstringa.obj
 0001:00064fe0       __freea_crt                10065fe0 f i libucrt:lcmapstringa.obj
 0001:00065008       ??$?RE@__crt_internal_free_policy@@QBEXQBE@Z 10066008 f i libucrt:initctype.obj
 0001:0006501e       ??$?RG@__crt_internal_free_policy@@QBEXQBG@Z 1006601e f i libucrt:initctype.obj
 0001:00065034       ??$?RJ@__crt_internal_free_policy@@QBEXQBJ@Z 10066034 f i libucrt:initctype.obj
 0001:0006504a       ??0?$__crt_unique_heap_ptr@EU__crt_internal_free_policy@@@@QAE@QAE@Z 1006604a f i libucrt:initctype.obj
 0001:0006505e       ??0?$__crt_unique_heap_ptr@GU__crt_internal_free_policy@@@@QAE@QAG@Z 1006605e f i libucrt:initctype.obj
 0001:00065072       ??0?$__crt_unique_heap_ptr@JU__crt_internal_free_policy@@@@QAE@QAJ@Z 10066072 f i libucrt:initctype.obj
 0001:00065086       ??1?$__crt_unique_heap_ptr@EU__crt_internal_free_policy@@@@QAE@XZ 10066086 f i libucrt:initctype.obj
 0001:0006509c       ??1?$__crt_unique_heap_ptr@GU__crt_internal_free_policy@@@@QAE@XZ 1006609c f i libucrt:initctype.obj
 0001:000650b2       ??1?$__crt_unique_heap_ptr@JU__crt_internal_free_policy@@@@QAE@XZ 100660b2 f i libucrt:initctype.obj
 0001:000650c8       ?detach@?$__crt_unique_heap_ptr@EU__crt_internal_free_policy@@@@QAEPAEXZ 100660c8 f i libucrt:initctype.obj
 0001:000650ce       ?detach@?$__crt_unique_heap_ptr@GU__crt_internal_free_policy@@@@QAEPAGXZ 100660ce f i libucrt:initctype.obj
 0001:000650d4       ?detach@?$__crt_unique_heap_ptr@JU__crt_internal_free_policy@@@@QAEPAJXZ 100660d4 f i libucrt:initctype.obj
 0001:000650da       ?release@?$__crt_unique_heap_ptr@EU__crt_internal_free_policy@@@@QAEXXZ 100660da f i libucrt:initctype.obj
 0001:000650f0       ?release@?$__crt_unique_heap_ptr@GU__crt_internal_free_policy@@@@QAEXXZ 100660f0 f i libucrt:initctype.obj
 0001:00065106       ?release@?$__crt_unique_heap_ptr@JU__crt_internal_free_policy@@@@QAEXXZ 10066106 f i libucrt:initctype.obj
 0001:0006511c       ____lc_codepage_func       1006611c f   libucrt:initctype.obj
 0001:0006514c       ____lc_collate_cp_func     1006614c f   libucrt:initctype.obj
 0001:0006517c       ____lc_locale_name_func    1006617c f   libucrt:initctype.obj
 0001:000651af       ____mb_cur_max_func        100661af f   libucrt:initctype.obj
 0001:000651df       ____mb_cur_max_l_func      100661df f   libucrt:initctype.obj
 0001:000651fe       ___acrt_locale_initialize_ctype 100661fe f   libucrt:initctype.obj
 0001:00065683       ___acrt_add_locale_ref     10066683 f   libucrt:locale_refcounting.obj
 0001:0006571f       ___acrt_free_locale        1006671f f   libucrt:locale_refcounting.obj
 0001:000658bb       ___acrt_locale_add_lc_time_reference 100668bb f   libucrt:locale_refcounting.obj
 0001:000658ee       ___acrt_locale_free_lc_time_if_unreferenced 100668ee f   libucrt:locale_refcounting.obj
 0001:0006592a       ___acrt_locale_release_lc_time_reference 1006692a f   libucrt:locale_refcounting.obj
 0001:0006595d       ___acrt_release_locale_ref 1006695d f   libucrt:locale_refcounting.obj
 0001:000659fe       ___acrt_update_thread_locale_data 100669fe f   libucrt:locale_refcounting.obj
 0001:00065a92       __updatetlocinfoEx_nolock  10066a92 f   libucrt:locale_refcounting.obj
 0001:00065af6       ___acrt_fp_strflt_to_string 10066af6 f   libucrt:_fptostr.obj
 0001:00067320       ??0big_integer@__crt_strtox@@QAE@ABU01@@Z 10068320 f i libucrt:cfout.obj
 0001:00067360       ??0big_integer@__crt_strtox@@QAE@XZ 10068360 f i libucrt:cfout.obj
 0001:0006736b       ??0scoped_fp_state_reset@?A0x3568b024@@QAE@XZ 1006836b f i libucrt:cfout.obj
 0001:0006739f       ??1scoped_fp_state_reset@?A0x3568b024@@QAE@XZ 1006839f f i libucrt:cfout.obj
 0001:000673b0       ??4big_integer@__crt_strtox@@QAEAAU01@ABU01@@Z 100683b0 f i libucrt:cfout.obj
 0001:000673f0       ??8__crt_strtox@@YA_NABUbig_integer@0@0@Z 100683f0 f i libucrt:cfout.obj
 0001:00067440       ??9__crt_strtox@@YA_NABUbig_integer@0@0@Z 10068440 f i libucrt:cfout.obj
 0001:000674a0       ?add_carry@__crt_strtox@@YAIAAIII@Z 100684a0 f i libucrt:cfout.obj
 0001:000674d0       ?add_multiply_carry@__crt_strtox@@YAIAAIIII@Z 100684d0 f i libucrt:cfout.obj
 0001:00067500       ?bit_scan_reverse@__crt_strtox@@YAII@Z 10068500 f i libucrt:cfout.obj
 0001:00067530       ?count_sequential_high_zeroes@__crt_strtox@@YAII@Z 10068530 f i libucrt:cfout.obj
 0001:00067560       ?divide@__crt_strtox@@YA_KAAUbig_integer@1@ABU21@@Z 10068560 f i libucrt:cfout.obj
 0001:00067b40       ?is_zero@__crt_strtox@@YA_NABUbig_integer@1@@Z 10068b40 f i libucrt:cfout.obj
 0001:00067b60       ?make_big_integer@__crt_strtox@@YA?AUbig_integer@1@_K@Z 10068b60 f i libucrt:cfout.obj
 0001:00067b90       ?make_big_integer_power_of_two@__crt_strtox@@YA?AUbig_integer@1@I@Z 10068b90 f i libucrt:cfout.obj
 0001:00067bf0       ?multiply@__crt_strtox@@YA_NAAUbig_integer@1@ABU21@@Z 10068bf0 f i libucrt:cfout.obj
 0001:000680a0       ?multiply@__crt_strtox@@YA_NAAUbig_integer@1@I@Z 100690a0 f i libucrt:cfout.obj
 0001:000681a0       ?multiply_64_32@__crt_strtox@@YA_K_KI@Z 100691a0 f i libucrt:cfout.obj
 0001:000681c0       ?multiply_by_power_of_ten@__crt_strtox@@YA_NAAUbig_integer@1@I@Z 100691c0 f i libucrt:cfout.obj
 0001:000688c0       ?multiply_core@__crt_strtox@@YAIQAIII@Z 100698c0 f i libucrt:cfout.obj
 0001:00068910       ?shift_left@__crt_strtox@@YA_NAAUbig_integer@1@I@Z 10069910 f i libucrt:cfout.obj
 0001:00068ab2       ___acrt_fltout             10069ab2 f   libucrt:cfout.obj
 0001:0006a3d6       __isatty                   1006b3d6 f   libucrt:isatty.obj
 0001:0006a441       ??$?RUlconv@@@__crt_internal_free_policy@@QBEXQBUlconv@@@Z 1006b441 f i libucrt:initmon.obj
 0001:0006a457       ??0?$__crt_unique_heap_ptr@Ulconv@@U__crt_internal_free_policy@@@@QAE@QAUlconv@@@Z 1006b457 f i libucrt:initmon.obj
 0001:0006a46b       ??1?$__crt_unique_heap_ptr@Ulconv@@U__crt_internal_free_policy@@@@QAE@XZ 1006b46b f i libucrt:initmon.obj
 0001:0006a481       ?detach@?$__crt_unique_heap_ptr@Ulconv@@U__crt_internal_free_policy@@@@QAEPAUlconv@@XZ 1006b481 f i libucrt:initmon.obj
 0001:0006a487       ?release@?$__crt_unique_heap_ptr@Ulconv@@U__crt_internal_free_policy@@@@QAEXXZ 1006b487 f i libucrt:initmon.obj
 0001:0006a49d       ___acrt_locale_free_monetary 1006b49d f   libucrt:initmon.obj
 0001:0006a5da       ___acrt_locale_initialize_monetary 1006b5da f   libucrt:initmon.obj
 0001:0006aacd       ___acrt_locale_free_numeric 1006bacd f   libucrt:initnum.obj
 0001:0006ab50       ___acrt_locale_initialize_numeric 1006bb50 f   libucrt:initnum.obj
 0001:0006ae3b       ??$?RU__crt_lc_time_data@@@__crt_internal_free_policy@@QBEXQBU__crt_lc_time_data@@@Z 1006be3b f i libucrt:inittime.obj
 0001:0006aedb       ??0?$__crt_unique_heap_ptr@U__crt_lc_time_data@@U__crt_internal_free_policy@@@@QAE@QAU__crt_lc_time_data@@@Z 1006bedb f i libucrt:inittime.obj
 0001:0006aeef       ??1?$__crt_unique_heap_ptr@U__crt_lc_time_data@@U__crt_internal_free_policy@@@@QAE@XZ 1006beef f i libucrt:inittime.obj
 0001:0006af05       ??B?$__crt_unique_heap_ptr@U__crt_lc_time_data@@U__crt_internal_free_policy@@@@QBE_NXZ 1006bf05 f i libucrt:inittime.obj
 0001:0006af0f       ?detach@?$__crt_unique_heap_ptr@U__crt_lc_time_data@@U__crt_internal_free_policy@@@@QAEPAU__crt_lc_time_data@@XZ 1006bf0f f i libucrt:inittime.obj
 0001:0006af60       ?get@?$__crt_unique_heap_ptr@U__crt_lc_time_data@@U__crt_internal_free_policy@@@@QBEPAU__crt_lc_time_data@@XZ 1006bf60 f i libucrt:inittime.obj
 0001:0006b2f8       ?is_valid@?$__crt_unique_heap_ptr@U__crt_lc_time_data@@U__crt_internal_free_policy@@@@QBE_NXZ 1006c2f8 f i libucrt:inittime.obj
 0001:0006b302       ?release@?$__crt_unique_heap_ptr@U__crt_lc_time_data@@U__crt_internal_free_policy@@@@QAEXXZ 1006c302 f i libucrt:inittime.obj
 0001:0006b318       ___acrt_locale_free_time   1006c318 f   libucrt:inittime.obj
 0001:0006b435       ___acrt_locale_initialize_time 1006c435 f   libucrt:inittime.obj
 0001:0006b5d3       _wcsncpy_s                 1006c5d3 f   libucrt:wcsncpy_s.obj
 0001:0006b5e0       _wcscspn                   1006c5e0 f   libucrt:wcscspn.obj
 0001:0006b644       _wcsncmp                   1006c644 f   libucrt:wcsncmp.obj
 0001:0006b68c       _wcspbrk                   1006c68c f   libucrt:wcspbrk.obj
 0001:0006b6e2       ___acrt_GetStringTypeA     1006c6e2 f   libucrt:getstringtypea.obj
 0001:0006c156       ___acrt_get_qualified_locale 1006d156 f   libucrt:get_qualified_locale.obj
 0001:0006ccfd       ___acrt_get_qualified_locale_downlevel 1006dcfd f   libucrt:getqloc_downlevel.obj
 0001:0006cf85       _localeconv                1006df85 f   libucrt:localeconv.obj
 0001:0006cfb9       __wcsnicmp                 1006dfb9 f   libucrt:wcsnicmp.obj
 0001:0006d09f       __wcsnicmp_l               1006e09f f   libucrt:wcsnicmp.obj
 0001:0006d1e0       __strnicmp                 1006e1e0 f   libucrt:strnicmp.obj
 0001:0006d267       __strnicmp_l               1006e267 f   libucrt:strnicmp.obj
 0001:0006d34b       ??$__vcrt_va_start_verify_argument_type@$$CBH@@YAXXZ 1006e34b f i libucrt:open.obj
 0001:0006d702       ??$tsopen_nolock@PAHABQAHABQBDABHABHABHABH@?$__crt_char_traits@D@@SAH$$QAPAHABQAHABQBDABH333@Z 1006e702 f i libucrt:open.obj
 0001:0006d740       ??$tsopen_nolock@PAHABQAHABQB_WABHABHABHABH@?$__crt_char_traits@_W@@SAH$$QAPAHABQAHABQB_WABH333@Z 1006e740 f i libucrt:open.obj
 0001:0006d77e       ??$tsopen_nolock@PAHPAHABQBDABHHABHH@?$__crt_char_traits@D@@SAH$$QAPAH0ABQBDABH$$QAH23@Z 1006e77e f i libucrt:open.obj
 0001:0006d7bc       ??$tsopen_nolock@PAHPAHABQB_WABHHABHH@?$__crt_char_traits@_W@@SAH$$QAPAH0ABQB_WABH$$QAH23@Z 1006e7bc f i libucrt:open.obj
 0001:0006df8a       __open                     1006ef8a f   libucrt:open.obj
 0001:0006dfa8       __sopen                    1006efa8 f   libucrt:open.obj
 0001:0006dfea       __sopen_dispatch           1006efea f   libucrt:open.obj
 0001:0006dff7       __sopen_nolock             1006eff7 f   libucrt:open.obj
 0001:0006e05c       __sopen_s                  1006f05c f   libucrt:open.obj
 0001:0006e084       __wopen                    1006f084 f   libucrt:open.obj
 0001:0006e0a2       __wsopen                   1006f0a2 f   libucrt:open.obj
 0001:0006e0e4       __wsopen_dispatch          1006f0e4 f   libucrt:open.obj
 0001:0006e0f1       __wsopen_nolock            1006f0f1 f   libucrt:open.obj
 0001:0006e4e4       __wsopen_s                 1006f4e4 f   libucrt:open.obj
 0001:0006e50c       ___p__commode              1006f50c f   libucrt:ncommode.obj
 0001:0006e512       ___acrt_stdio_allocate_buffer_nolock 1006f512 f   libucrt:_getbuf.obj
 0001:0006e586       ??$?RV<lambda_4980db0136e49a56f91ef52c46ca659a>@@AAV<lambda_6e3e78bb6855d1e4040e022c1b427e22>@@V<lambda_9c074eaf62197b4fd0274ed9e7824161>@@@?$__crt_seh_guarded_call@G@@QAEG$$QAV<lambda_4980db0136e49a56f91ef52c46ca659a>@@AAV<lambda_6e3e78bb6855d1e4040e022c1b427e22>@@$$QAV<lambda_9c074eaf62197b4fd0274ed9e7824161>@@@Z 1006f586 f i libucrt:putwch.obj
 0001:0006e5fb       ??$__acrt_lock_and_call@V<lambda_6e3e78bb6855d1e4040e022c1b427e22>@@@@YAGW4__acrt_lock_id@@$$QAV<lambda_6e3e78bb6855d1e4040e022c1b427e22>@@@Z 1006f5fb f i libucrt:putwch.obj
 0001:0006e693       __putwch                   1006f693 f   libucrt:putwch.obj
 0001:0006e6b7       __putwch_nolock            1006f6b7 f   libucrt:putwch.obj
 0001:0006e70d       _nextafter                 1006f70d f   libucrt:nextafter.obj
 0001:0006e745       __wcsnicoll                1006f745 f   libucrt:wcsnicol.obj
 0001:0006e849       __wcsnicoll_l              1006f849 f   libucrt:wcsnicol.obj
 0001:0006e9c1       __strnicoll                1006f9c1 f   libucrt:strnicol.obj
 0001:0006e9f4       __strnicoll_l              1006f9f4 f   libucrt:strnicol.obj
 0001:0006eb2f       __msize                    1006fb2f f   libucrt:msize.obj
 0001:0006eb6e       ___strncnt                 1006fb6e f   libucrt:strncnt.obj
 0001:0006ecca       ___acrt_GetLocaleInfoA     1006fcca f   libucrt:getlocaleinfoa.obj
 0001:0006eee8       _fegetenv                  1006fee8 f   libucrt:fegetenv.obj
 0001:0006ef0c       _fesetenv                  1006ff0c f   libucrt:fesetenv.obj
 0001:0006ef67       _feholdexcept              1006ff67 f   libucrt:feholdexcept.obj
 0001:0006efd0       _log10                     1006ffd0 f   libucrt:log10.obj
 0001:0006f010       __CIlog10                  10070010 f   libucrt:log10.obj
 0001:0006f04b       __CIlog10_default          1007004b f   libucrt:log10.obj
 0001:0006f05f       __log10_default            1007005f     libucrt:log10.obj
 0001:0006f180       _ceil                      10070180 f   libucrt:ceil_pentium4.obj
 0001:0006f1c0       __ceil_pentium4            100701c0 f   libucrt:ceil_pentium4.obj
 0001:0006f2e4       __wcsicmp                  100702e4 f   libucrt:wcsicmp.obj
 0001:0006f39e       __wcsicmp_l                1007039e f   libucrt:wcsicmp.obj
 0001:0006f4b6       __towlower_l               100704b6 f   libucrt:towlower.obj
 0001:0006f5b1       _towlower                  100705b1 f   libucrt:towlower.obj
 0001:0006f5d0       ___ascii_strnicmp          100705d0 f   libucrt:_strnicm.obj
 0001:0006f649       ??$__crt_interlocked_read@H@@YAHPDH@Z 10070649 f i libucrt:setmode.obj
 0001:0006f658       __get_fmode                10070658 f   libucrt:setmode.obj
 0001:0006f68f       __set_fmode                1007068f f   libucrt:setmode.obj
 0001:0006f6db       __setmode                  100706db f   libucrt:setmode.obj
 0001:0006f82c       __setmode_nolock           1007082c f   libucrt:setmode.obj
 0001:0006f931       ??$?RV<lambda_4cfda81533ccf5a03113a1ca40a30445>@@AAV<lambda_1cffa78e445b1da5fba1a2e0e533226f>@@V<lambda_68c952aa1b860373b2109ef12d0bba9d>@@@?$__crt_seh_guarded_call@H@@QAEH$$QAV<lambda_4cfda81533ccf5a03113a1ca40a30445>@@AAV<lambda_1cffa78e445b1da5fba1a2e0e533226f>@@$$QAV<lambda_68c952aa1b860373b2109ef12d0bba9d>@@@Z 10070931 f i libucrt:chsize.obj
 0001:0006f9db       ??$__acrt_lowio_lock_fh_and_call@V<lambda_1cffa78e445b1da5fba1a2e0e533226f>@@@@YAHH$$QAV<lambda_1cffa78e445b1da5fba1a2e0e533226f>@@@Z 100709db f i libucrt:chsize.obj
 0001:0006fabd       __chsize                   10070abd f   libucrt:chsize.obj
 0001:0006fae0       __chsize_nolock            10070ae0 f   libucrt:chsize.obj
 0001:0006fcd5       __chsize_s                 10070cd5 f   libucrt:chsize.obj
 0001:0006fd96       __umask                    10070d96 f   libucrt:umask.obj
 0001:0006fdc4       __umask_s                  10070dc4 f   libucrt:umask.obj
 0001:0006fe0d       ___dcrt_lowio_initialize_console_output 10070e0d f   libucrt:initcon.obj
 0001:0006fe33       ___dcrt_terminate_console_output 10070e33 f   libucrt:initcon.obj
 0001:0006fe4f       _nexttoward                10070e4f f   libucrt:nexttoward.obj
 0001:00070000       ___acrt_CompareStringW     10071000 f   libucrt:comparestringw.obj
 0001:000703d4       ___acrt_CompareStringA     100713d4 f   libucrt:comparestringa.obj
 0001:0007050b       _strncpy_s                 1007150b f   libucrt:strncpy_s.obj
 0001:00070518       ___acrt_fenv_get_fp_status_word_from_exception_mask 10071518 f   libucrt:_fenvutils.obj
 0001:0007095b       __getfpcontrolword         1007195b f   libucrt:_fenvutils.obj
 0001:000709ae       __getfpstatusword          100719ae f   libucrt:_fenvutils.obj
 0001:00070a80       __setfpcontrolword         10071a80 f   libucrt:_fenvutils.obj
 0001:00070b20       __setfpstatusword          10071b20 f   libucrt:_fenvutils.obj
 0001:00070d56       ___control87_2             10071d56 f   libucrt:ieee87.obj
 0001:0007132a       ___fpreset_sse2            1007232a f   libucrt:ieee87.obj
 0001:0007157d       __clearfp                  1007257d f   libucrt:ieee87.obj
 0001:00071692       __control87                10072692 f   libucrt:ieee87.obj
 0001:00071a54       __controlfp                10072a54 f   libucrt:ieee87.obj
 0001:00071a74       __fpreset                  10072a74 f   libucrt:ieee87.obj
 0001:00071b71       __set_controlfp            10072b71 f   libucrt:ieee87.obj
 0001:00071c07       __statusfp                 10072c07 f   libucrt:ieee87.obj
 0001:00071cca       __statusfp2                10072cca f   libucrt:ieee87.obj
 0001:00071d47       ___acrt_initialize_sse2    10072d47 f   libucrt:mathfcns.obj
 0001:00071d59       __set_SSE2_enable          10072d59 f   libucrt:mathfcns.obj
 0001:00071d90       __CIlog10_pentium4         10072d90 f   libucrt:log10_pentium4.obj
 0001:00071da8       __log10_pentium4           10072da8     libucrt:log10_pentium4.obj
 0001:000720e1       __fFEXP                    100730e1     libucrt:87tran.obj
 0001:00072138       __rtinfpopse               10073138     libucrt:87tran.obj
 0001:0007213a       __rtinfnpopse              1007313a     libucrt:87tran.obj
 0001:0007214a       __fFLN                     1007314a     libucrt:87tran.obj
 0001:000721ff       __rtinfpop                 100731ff     libucrt:87tran.obj
 0001:00072201       __rtinfnpop                10073201     libucrt:87tran.obj
 0001:0007221e       __ffexpm1                  1007321e     libucrt:87tran.obj
 0001:00072350       __trandisp1                10073350 f   libucrt:87disp.obj
 0001:000723b7       __trandisp2                100733b7 f   libucrt:87disp.obj
 0001:00072443       __rttospopde               10073443     libucrt:87disp.obj
 0001:00072448       __rttospop                 10073448     libucrt:87disp.obj
 0001:0007244a       __rtnospop                 1007344a     libucrt:87disp.obj
 0001:0007244c       __rttosnpop                1007344c     libucrt:87disp.obj
 0001:0007244d       __rtnospopde               1007344d     libucrt:87disp.obj
 0001:00072454       __rtzeropop                10073454     libucrt:87disp.obj
 0001:00072456       __rtzeronpop               10073456     libucrt:87disp.obj
 0001:0007245b       __rtzerospop               1007345b     libucrt:87disp.obj
 0001:00072468       __rtonepop                 10073468     libucrt:87disp.obj
 0001:0007246a       __rtonenpop                1007346a     libucrt:87disp.obj
 0001:0007246f       __tosnan1                  1007346f     libucrt:87disp.obj
 0001:0007249a       __nosnan2                  1007349a     libucrt:87disp.obj
 0001:0007249c       __tosnan2                  1007349c     libucrt:87disp.obj
 0001:000724c4       __nan2                     100734c4     libucrt:87disp.obj
 0001:00072503       __rtindfpop                10073503     libucrt:87disp.obj
 0001:00072505       __rtindfnpop               10073505     libucrt:87disp.obj
 0001:00072516       __rttosnpopde              10073516     libucrt:87disp.obj
 0001:00072520       __rtatan2inf               10073520     libucrt:87disp.obj
 0001:0007253d       __rtchsifneg               1007353d     libucrt:87disp.obj
 0001:000725c1       ___setfflag                100735c1 f   libucrt:fp_flags.obj
 0001:000725e0       __twoToTOS                 100735e0 f   libucrt:common.obj
 0001:000725f5       __load_CW                  100735f5 f   libucrt:common.obj
 0001:0007260c       __convertTOStoQNaN         1007360c f   libucrt:common.obj
 0001:00072625       __fload_withFB             10073625 f   libucrt:common.obj
 0001:00072668       __checkTOS_withFB          10073668 f   libucrt:common.obj
 0001:0007267e       __fast_exit                1007367e f   libucrt:common.obj
 0001:0007268b       __math_exit                1007368b f   libucrt:common.obj
 0001:000726b5       __check_overflow_exit      100736b5 f   libucrt:common.obj
 0001:000726c9       __check_range_exit         100736c9 f   libucrt:common.obj
 0001:000727d0       __startTwoArgErrorHandling 100737d0 f   libucrt:genexcep.obj
 0001:000727e7       __startOneArgErrorHandling 100737e7 f   libucrt:genexcep.obj
 0001:00072837       ___libm_error_support      10073837 f   libucrt:libm_error.obj
 0001:00072ad5       ___libm_setusermatherr     10073ad5 f   libucrt:libm_error.obj
 0001:00072b0e       __ceil_default             10073b0e f   libucrt:ceil.obj
 0001:00072bf5       ___acrt_LCMapStringW       10073bf5 f   libucrt:lcmapstringw.obj
 0001:00072c42       ___p__fmode                10073c42 f   libucrt:txtmode.obj
 0001:00072c48       __d_int                    10073c48 f   libucrt:_test.obj
 0001:00072d90       __dtest                    10073d90 f   libucrt:_test.obj
 0001:00072e0d       __fd_int                   10073e0d f   libucrt:_test.obj
 0001:00072f0f       __fdtest                   10073f0f f   libucrt:_test.obj
 0001:00072f70       __fperrraise               10073f70 f   libucrt:_test.obj
 0001:00072f9b       __ld_int                   10073f9b f   libucrt:_test.obj
 0001:00072fa8       __ldtest                   10073fa8 f   libucrt:_test.obj
 0001:0007304d       __controlfp_s              1007404d f   libucrt:contrlfp.obj
 0001:000730c3       __d_inttype                100740c3 f   libucrt:powhlp.obj
 0001:00073147       __powhlp                   10074147 f   libucrt:powhlp.obj
 0001:000732bc       __87except                 100742bc f   libucrt:87except.obj
 0001:00073409       __frnd                     10074409 f   libucrt:frnd.obj
 0001:00073424       _fegetexceptflag           10074424 f   libucrt:fegetexceptflag.obj
 0001:00073461       _fesetexceptflag           10074461 f   libucrt:fesetexceptflag.obj
 0001:000734c2       _fetestexcept              100744c2 f   libucrt:fetestexcept.obj
 0001:000734f0       __FindPESection            100744f0 f   LIBCMT:pesect.obj
 0001:00073550       __IsNonwritableInCurrentImage 10074550 f   LIBCMT:pesect.obj
 0001:00073640       __ValidateImageBase        10074640 f   LIBCMT:pesect.obj
 0001:00073680       __aulldvrm                 10074680 f   LIBCMT:ulldvrm.obj
 0001:0007373a       ??1type_info@@UAE@XZ       1007473a f   LIBCMT:std_type_info_static.obj
 0001:00073741       ??_Etype_info@@UAEPAXI@Z   10074741 f i LIBCMT:std_type_info_static.obj
 0001:00073741       ??_Gtype_info@@UAEPAXI@Z   10074741 f i LIBCMT:std_type_info_static.obj
 0001:00073770       __SEH_prolog4_GS           10074770 f   LIBCMT:_sehprolg4gs_.obj
 0001:000737b9       __SEH_epilog4_GS           100747b9 f   LIBCMT:_sehprolg4gs_.obj
 0001:000737e0       __allmul                   100747e0 f   LIBCMT:llmul.obj
 0001:00073830       __alldvrm                  10074830 f   LIBCMT:lldvrm.obj
 0001:00073950       __aullshr                  10074950 f   LIBCMT:ullshr.obj
 0001:00073980       __alloca_probe             10074980 f   LIBCMT:chkstk.obj
 0001:00073980       __chkstk                   10074980 f   LIBCMT:chkstk.obj
 0001:000739c0       __alloca_probe_16          100749c0 f   LIBCMT:alloca16.obj
 0001:000739d6       __alloca_probe_8           100749d6     LIBCMT:alloca16.obj
 0001:00073a00       __allshl                   10074a00 f   LIBCMT:llshl.obj
 0001:00073a30       __ftol2_sse                10074a30 f   LIBCMT:_ftol2_.obj
 0001:00073a39       __ftol2_pentium4           10074a39 f   LIBCMT:_ftol2_.obj
 0001:00073a4c       __ftol2_sse_excpt          10074a4c f   LIBCMT:_ftol2_.obj
 0001:00073a70       __ftol2                    10074a70 f   LIBCMT:_ftol2_.obj
 0001:00073b12       __initialize_default_precision 10074b12 f   LIBCMT:default_precision.obj
 0001:00073b3b       ??3@YAXPAXI@Z              10074b3b f   LIBCMT:delete_scalar_size.obj
 0001:00073b4c       ??3@YAXPAX@Z               10074b4c f   LIBCMT:delete_scalar.obj
 0001:00073b52       _GetLastError@0            10074b52 f   kernel32:KERNEL32.dll
 0001:00073b58       _GetModuleFileNameW@12     10074b58 f   kernel32:KERNEL32.dll
 0001:00073b5e       _InterlockedPushEntrySList@8 10074b5e f   kernel32:KERNEL32.dll
 0001:00073b64       _InterlockedFlushSList@4   10074b64 f   kernel32:KERNEL32.dll
 0001:00073b6a       _InitializeCriticalSectionAndSpinCount@8 10074b6a f   kernel32:KERNEL32.dll
 0001:00073b70       _TlsAlloc@0                10074b70 f   kernel32:KERNEL32.dll
 0001:00073b76       _TlsGetValue@4             10074b76 f   kernel32:KERNEL32.dll
 0001:00073b7c       _TlsSetValue@8             10074b7c f   kernel32:KERNEL32.dll
 0001:00073b82       _TlsFree@4                 10074b82 f   kernel32:KERNEL32.dll
 0001:00073b88       _FreeLibrary@4             10074b88 f   kernel32:KERNEL32.dll
 0001:00073b8e       _LoadLibraryExW@12         10074b8e f   kernel32:KERNEL32.dll
 0001:00073b94       _RtlUnwind@16              10074b94 f   kernel32:KERNEL32.dll
 0001:00073b9a       _SetLastError@4            10074b9a f   kernel32:KERNEL32.dll
 0001:00073ba0       _EnterCriticalSection@4    10074ba0 f   kernel32:KERNEL32.dll
 0001:00073ba6       _LeaveCriticalSection@4    10074ba6 f   kernel32:KERNEL32.dll
 0001:00073bac       _DeleteCriticalSection@4   10074bac f   kernel32:KERNEL32.dll
 0001:00073bb2       _GetStdHandle@4            10074bb2 f   kernel32:KERNEL32.dll
 0001:00073bb8       _GetFileType@4             10074bb8 f   kernel32:KERNEL32.dll
 0001:00073bbe       _GetModuleFileNameA@12     10074bbe f   kernel32:KERNEL32.dll
 0001:00073bc4       _GetModuleHandleExW@12     10074bc4 f   kernel32:KERNEL32.dll
 0001:00073bca       _WriteConsoleW@20          10074bca f   kernel32:KERNEL32.dll
 0001:00073bd0       _ExitProcess@4             10074bd0 f   kernel32:KERNEL32.dll
 0001:00073bd6       _RaiseException@16         10074bd6 f   kernel32:KERNEL32.dll
 0001:00073bdc       _MultiByteToWideChar@24    10074bdc f   kernel32:KERNEL32.dll
 0001:00073be2       _WideCharToMultiByte@32    10074be2 f   kernel32:KERNEL32.dll
 0001:00073be8       _HeapFree@12               10074be8 f   kernel32:KERNEL32.dll
 0001:00073bee       _HeapAlloc@12              10074bee f   kernel32:KERNEL32.dll
 0001:00073bf4       _GetDateFormatW@24         10074bf4 f   kernel32:KERNEL32.dll
 0001:00073bfa       _GetTimeFormatW@24         10074bfa f   kernel32:KERNEL32.dll
 0001:00073c00       _CompareStringW@24         10074c00 f   kernel32:KERNEL32.dll
 0001:00073c06       _LCMapStringW@24           10074c06 f   kernel32:KERNEL32.dll
 0001:00073c0c       _GetLocaleInfoW@16         10074c0c f   kernel32:KERNEL32.dll
 0001:00073c12       _IsValidLocale@8           10074c12 f   kernel32:KERNEL32.dll
 0001:00073c18       _GetUserDefaultLCID@0      10074c18 f   kernel32:KERNEL32.dll
 0001:00073c1e       _EnumSystemLocalesW@8      10074c1e f   kernel32:KERNEL32.dll
 0001:00073c24       _GetCurrentThread@0        10074c24 f   kernel32:KERNEL32.dll
 0001:00073c2a       _GetACP@0                  10074c2a f   kernel32:KERNEL32.dll
 0001:00073c30       _WriteFile@20              10074c30 f   kernel32:KERNEL32.dll
 0001:00073c36       _OutputDebugStringA@4      10074c36 f   kernel32:KERNEL32.dll
 0001:00073c3c       _OutputDebugStringW@4      10074c3c f   kernel32:KERNEL32.dll
 0001:00073c42       _CloseHandle@4             10074c42 f   kernel32:KERNEL32.dll
 0001:00073c48       _WaitForSingleObjectEx@12  10074c48 f   kernel32:KERNEL32.dll
 0001:00073c4e       _CreateThread@24           10074c4e f   kernel32:KERNEL32.dll
 0001:00073c54       _SetConsoleCtrlHandler@8   10074c54 f   kernel32:KERNEL32.dll
 0001:00073c5a       _HeapReAlloc@16            10074c5a f   kernel32:KERNEL32.dll
 0001:00073c60       _ReadFile@20               10074c60 f   kernel32:KERNEL32.dll
 0001:00073c66       _GetConsoleMode@8          10074c66 f   kernel32:KERNEL32.dll
 0001:00073c6c       _ReadConsoleW@20           10074c6c f   kernel32:KERNEL32.dll
 0001:00073c72       _GetConsoleCP@0            10074c72 f   kernel32:KERNEL32.dll
 0001:00073c78       _DeleteFileW@4             10074c78 f   kernel32:KERNEL32.dll
 0001:00073c7e       _SetFilePointerEx@20       10074c7e f   kernel32:KERNEL32.dll
 0001:00073c84       _IsValidCodePage@4         10074c84 f   kernel32:KERNEL32.dll
 0001:00073c8a       _GetOEMCP@0                10074c8a f   kernel32:KERNEL32.dll
 0001:00073c90       _GetCPInfo@8               10074c90 f   kernel32:KERNEL32.dll
 0001:00073c96       _GetEnvironmentStringsW@0  10074c96 f   kernel32:KERNEL32.dll
 0001:00073c9c       _FreeEnvironmentStringsW@4 10074c9c f   kernel32:KERNEL32.dll
 0001:00073ca2       _SetEnvironmentVariableA@8 10074ca2 f   kernel32:KERNEL32.dll
 0001:00073ca8       _SetEnvironmentVariableW@8 10074ca8 f   kernel32:KERNEL32.dll
 0001:00073cae       _GetProcessHeap@0          10074cae f   kernel32:KERNEL32.dll
 0001:00073cb4       _GetCommandLineA@0         10074cb4 f   kernel32:KERNEL32.dll
 0001:00073cba       _GetCommandLineW@0         10074cba f   kernel32:KERNEL32.dll
 0001:00073cc0       _GetStringTypeW@16         10074cc0 f   kernel32:KERNEL32.dll
 0001:00073cc6       _FlushFileBuffers@4        10074cc6 f   kernel32:KERNEL32.dll
 0001:00073ccc       _SetStdHandle@8            10074ccc f   kernel32:KERNEL32.dll
 0001:00073cd2       _CreateFileW@28            10074cd2 f   kernel32:KERNEL32.dll
 0001:00073cd8       _HeapSize@12               10074cd8 f   kernel32:KERNEL32.dll
 0001:00073cde       _SetEndOfFile@4            10074cde f   kernel32:KERNEL32.dll
 0001:00073ce4       _EncodePointer@4           10074ce4 f   kernel32:KERNEL32.dll
 0001:00073cea       _DecodePointer@4           10074cea f   kernel32:KERNEL32.dll
 0001:00073cf0       _SystemFunction036@8       10074cf0 f   advapi32:ADVAPI32.dll
 0001:00073d00       _strrchr                   10074d00 f   libvcruntime:strrchr.obj
 0001:00073fe7       _memcmp                    10074fe7 f   libvcruntime:_memcmp_.obj
 0001:00077acf       _wcschr                    10078acf f   libvcruntime:wcschr.obj
 0002:00000000       ___xc_a                    1007b000     LIBCMT:initializers.obj
 0002:00000104       ___xc_z                    1007b104     LIBCMT:initializers.obj
 0002:00000208       ___xi_a                    1007b208     LIBCMT:initializers.obj
 0002:0000030c       ___acrt_stdio_initializer  1007b30c     libucrt:stdio_initializer.obj
 0002:00000310       ___acrt_multibyte_initializer 1007b310     libucrt:multibyte_initializer.obj
 0002:00000314       ___acrt_tran_sse2_initializer 1007b314     libucrt:sse2_initializer.obj
 0002:0000041c       ___xi_z                    1007b41c     LIBCMT:initializers.obj
 0002:00000520       ___xp_a                    1007b520     LIBCMT:initializers.obj
 0002:00000624       ___acrt_locale_terminator  1007b624     libucrt:locale_initializer.obj
 0002:00000628       ___dcrt_console_output_terminator 1007b628     libucrt:console_output_initializer.obj
 0002:00000730       ___acrt_stdio_terminator   1007b730     libucrt:stdio_initializer.obj
 0002:00000834       ___xp_z                    1007b834     LIBCMT:initializers.obj
 0002:00000938       ___xt_a                    1007b938     LIBCMT:initializers.obj
 0002:00000a3c       ___xt_z                    1007ba3c     LIBCMT:initializers.obj
 0002:00000b40       _Analog_Solution_M         1007bb40     Analog_Solution.obj
 0002:00000b44       ??_C@_0BI@PBFPDHLE@Error?5creating?5scope?54?6?$AA@ 1007bb44     Analog_Solution.obj
 0002:00000b60       ??_C@_0CB@ICPKBJDP@Logging?1Data?5Type?5Conversion1?1s1@ 1007bb60     Analog_Solution.obj
 0002:00000b88       ??_C@_0CB@KJNHEKPM@Logging?1Data?5Type?5Conversion1?1s2@ 1007bb88     Analog_Solution.obj
 0002:00000bb0       ??_C@_0CB@LAMMHLLN@Logging?1Data?5Type?5Conversion1?1s3@ 1007bbb0     Analog_Solution.obj
 0002:00000bd8       ??_C@_0CB@PPINONHK@Logging?1Data?5Type?5Conversion1?1s4@ 1007bbd8     Analog_Solution.obj
 0002:00000c00       ??_C@_0CB@OGJGNMDL@Logging?1Data?5Type?5Conversion1?1s5@ 1007bc00     Analog_Solution.obj
 0002:00000c28       ??_C@_0CB@MNLLIPPI@Logging?1Data?5Type?5Conversion1?1s6@ 1007bc28     Analog_Solution.obj
 0002:00000c50       ??_C@_0CD@PABKEHBL@Logging?1Time_Scope_trigger?1Switc@ 1007bc50     Analog_Solution.obj
 0002:00000c7c       ??_C@_0N@JOPDLDLD@Var_Time?4dat?$AA@ 1007bc7c     Analog_Solution.obj
 0002:00000c8c       ??_C@_0BI@PHJEPFFP@Error?5creating?5scope?51?6?$AA@ 1007bc8c     Analog_Solution.obj
 0002:00000ca8       ??_C@_0N@JGBBFACG@Var_MVLK?4dat?$AA@ 1007bca8     Analog_Solution.obj
 0002:00000cb8       ??_C@_0BI@PEBACBDB@Error?5creating?5scope?53?6?$AA@ 1007bcb8     Analog_Solution.obj
 0002:00000cd4       ??_C@_0CM@PCIJLOAC@Logging?1Log_conditioning?1Rate?5Tr@ 1007bcd4     Analog_Solution.obj
 0002:00000d08       ??_C@_0CM@NJKEONMB@Logging?1Log_conditioning?1Rate?5Tr@ 1007bd08     Analog_Solution.obj
 0002:00000d3c       ??_C@_0CM@MALPNMIA@Logging?1Log_conditioning?1Rate?5Tr@ 1007bd3c     Analog_Solution.obj
 0002:00000d70       ??_C@_0CM@IPPOEKEH@Logging?1Log_conditioning?1Rate?5Tr@ 1007bd70     Analog_Solution.obj
 0002:00000da4       ??_C@_0CM@JGOFHLAG@Logging?1Log_conditioning?1Rate?5Tr@ 1007bda4     Analog_Solution.obj
 0002:00000dd8       ??_C@_0CM@LNMICIMF@Logging?1Log_conditioning?1Rate?5Tr@ 1007bdd8     Analog_Solution.obj
 0002:00000e0c       ??_C@_0CM@KENDBJIE@Logging?1Log_conditioning?1Rate?5Tr@ 1007be0c     Analog_Solution.obj
 0002:00000e40       ??_C@_0CM@CDELAFEL@Logging?1Log_conditioning?1Rate?5Tr@ 1007be40     Analog_Solution.obj
 0002:00000e74       ??_C@_0CM@DKFADEAK@Logging?1Log_conditioning?1Rate?5Tr@ 1007be74     Analog_Solution.obj
 0002:00000ea8       ??_C@_0CN@DBLKNOGB@Logging?1Log_conditioning?1Rate?5Tr@ 1007bea8     Analog_Solution.obj
 0002:00000ee0       ??_C@_0CN@CIKBOPCA@Logging?1Log_conditioning?1Rate?5Tr@ 1007bee0     Analog_Solution.obj
 0002:00000f18       ??_C@_0CN@DIMLMOD@Logging?1Log_conditioning?1Rate?5Tr@ 1007bf18     Analog_Solution.obj
 0002:00000f50       ??_C@_0CN@BKJHINKC@Logging?1Log_conditioning?1Rate?5Tr@ 1007bf50     Analog_Solution.obj
 0002:00000f88       ??_C@_0CN@FFNGBLGF@Logging?1Log_conditioning?1Rate?5Tr@ 1007bf88     Analog_Solution.obj
 0002:00000fc0       ??_C@_0CN@EMMNCKCE@Logging?1Log_conditioning?1Rate?5Tr@ 1007bfc0     Analog_Solution.obj
 0002:00000ff8       ??_C@_0CN@GHOAHJOH@Logging?1Log_conditioning?1Rate?5Tr@ 1007bff8     Analog_Solution.obj
 0002:00001030       ??_C@_0CN@HOPLEIKG@Logging?1Log_conditioning?1Rate?5Tr@ 1007c030     Analog_Solution.obj
 0002:00001068       ??_C@_0CN@PJGDFEGJ@Logging?1Log_conditioning?1Rate?5Tr@ 1007c068     Analog_Solution.obj
 0002:000010a0       ??_C@_0CN@OAHIGFCI@Logging?1Log_conditioning?1Rate?5Tr@ 1007c0a0     Analog_Solution.obj
 0002:000010d8       ??_C@_0CN@DDPMGADI@Logging?1Log_conditioning?1Rate?5Tr@ 1007c0d8     Analog_Solution.obj
 0002:00001110       ??_C@_0CN@CKOHFBHJ@Logging?1Log_conditioning?1Rate?5Tr@ 1007c110     Analog_Solution.obj
 0002:00001148       ??_C@_0CN@BMKACLK@Logging?1Log_conditioning?1Rate?5Tr@ 1007c148     Analog_Solution.obj
 0002:00001180       ??_C@_0CN@BINBDDPL@Logging?1Log_conditioning?1Rate?5Tr@ 1007c180     Analog_Solution.obj
 0002:000011b8       ??_C@_0M@LEOMEJEO@Var_100?4dat?$AA@ 1007c1b8     Analog_Solution.obj
 0002:000011c8       ??_C@_0BI@PFNCELAG@Error?5creating?5scope?52?6?$AA@ 1007c1c8     Analog_Solution.obj
 0002:000011e4       ??_C@_0DH@CHJBJNOH@Inputs?1RS232_read?1GPS_read?1Embed@ 1007c1e4     Analog_Solution.obj
 0002:00001228       ??_C@_0DH@MLMMOCE@Inputs?1RS232_read?1GPS_read?1Embed@ 1007c228     Analog_Solution.obj
 0002:0000126c       ??_C@_0DH@BFKHPPGF@Inputs?1RS232_read?1GPS_read?1Embed@ 1007c26c     Analog_Solution.obj
 0002:000012b0       ??_C@_0DH@FKOGGJKC@Inputs?1RS232_read?1GPS_read?1Embed@ 1007c2b0     Analog_Solution.obj
 0002:000012f4       ??_C@_09NPFKMDAO@Var_1?4dat?$AA@ 1007c2f4     Analog_Solution.obj
 0002:00001300       ??_C@_0BI@PCNLODNK@Error?5creating?5scope?56?6?$AA@ 1007c300     Analog_Solution.obj
 0002:0000131c       ??_C@_0BE@OGBCHAEP@Outputs?1Saturation2?$AA@ 1007c31c     Analog_Solution.obj
 0002:00001334       ??_C@_0BI@PAJNFNID@Error?5creating?5scope?55?6?$AA@ 1007c334     Analog_Solution.obj
 0002:00001350       ??_C@_0BE@MNDPCDIM@Outputs?1Saturation1?$AA@ 1007c350     Analog_Solution.obj
 0002:00001368       ??_C@_0BI@PDBJIJON@Error?5creating?5scope?57?6?$AA@ 1007c368     Analog_Solution.obj
 0002:00001384       ??_C@_0CI@FCOFMBJH@Spooling_Speed_Controlled?1Subsys@ 1007c384     Analog_Solution.obj
 0002:000013b4       ??_C@_0CL@JGOJNICA@Interrupting?5board?5at?5?$FL0?0?5?91?$FN?3?5N@ 1007c3b4     Analog_Solution.obj
 0002:000013e8       ??_C@_0CG@MEGHGBEC@ISR?5reg?5failed?5for?5IRQ?5?$CFd?5at?5?$FL0?0@ 1007c3e8     Analog_Solution.obj
 0002:00001418       ??_C@_0BC@OJJPBDHH@FixedStepDiscrete?$AA@ 1007c418     Analog_Solution.obj
 0002:0000142d       ??_C@_00CNPNBAHC@?$AA@     1007c42d     Analog_Solution.obj
 0002:00001430       ??_C@_03HBFGMJOD@rt_?$AA@  1007c430     Analog_Solution.obj
 0002:00001434       ??_C@_0BB@CEKNGLLH@Read?5Int?5Status1?$AA@ 1007c434     Analog_Solution.obj
 0002:00001448       ??_C@_0GA@NOEJMAJB@Analog_Solution?1Inputs?1RS232_rea@ 1007c448     Analog_Solution.obj
 0002:000014bc       ??_C@_0BD@CMNGIDGM@Filter?5Int?5Reason5?$AA@ 1007c4bc     Analog_Solution.obj
 0002:000014d8       ??_C@_0GC@KOAMIAMM@Analog_Solution?1Inputs?1RS232_rea@ 1007c4d8     Analog_Solution.obj
 0002:00001550       ??_C@_0M@FAEAPFJN@FIFO?5read?51?$AA@ 1007c550     Analog_Solution.obj
 0002:00001560       ??_C@_0FL@NKGKKDHI@Analog_Solution?1Inputs?1RS232_rea@ 1007c560     Analog_Solution.obj
 0002:000015d0       ??_C@_0P@IMFDEIPE@Write?5HW?5FIFO1?$AA@ 1007c5d0     Analog_Solution.obj
 0002:000015e8       ??_C@_0FO@BECAGJDB@Analog_Solution?1Inputs?1RS232_rea@ 1007c5e8     Analog_Solution.obj
 0002:00001658       ??_C@_0BD@HPLNAKP@Filter?5Int?5Reason6?$AA@ 1007c658     Analog_Solution.obj
 0002:00001670       ??_C@_0GC@IFCBNDAP@Analog_Solution?1Inputs?1RS232_rea@ 1007c670     Analog_Solution.obj
 0002:000016e8       ??_C@_0M@HLGNKGFO@FIFO?5read?52?$AA@ 1007c6e8     Analog_Solution.obj
 0002:000016f8       ??_C@_0FL@PBEHPALL@Analog_Solution?1Inputs?1RS232_rea@ 1007c6f8     Analog_Solution.obj
 0002:00001768       ??_C@_0P@KHHOBLDH@Write?5HW?5FIFO2?$AA@ 1007c768     Analog_Solution.obj
 0002:00001780       ??_C@_0FO@DPANDKPC@Analog_Solution?1Inputs?1RS232_rea@ 1007c780     Analog_Solution.obj
 0002:000017f0       ??_C@_0BD@BOOAOBOO@Filter?5Int?5Reason7?$AA@ 1007c7f0     Analog_Solution.obj
 0002:00001808       ??_C@_0GC@JMDKOCEO@Analog_Solution?1Inputs?1RS232_rea@ 1007c808     Analog_Solution.obj
 0002:00001880       ??_C@_0M@GCHGJHBP@FIFO?5read?53?$AA@ 1007c880     Analog_Solution.obj
 0002:00001890       ??_C@_0FL@OIFMMBPK@Analog_Solution?1Inputs?1RS232_rea@ 1007c890     Analog_Solution.obj
 0002:00001900       ??_C@_0P@LOGFCKHG@Write?5HW?5FIFO3?$AA@ 1007c900     Analog_Solution.obj
 0002:00001918       ??_C@_0FO@CGBGALLD@Analog_Solution?1Inputs?1RS232_rea@ 1007c918     Analog_Solution.obj
 0002:00001988       ??_C@_0BD@JJHIPNCB@Filter?5Int?5Reason8?$AA@ 1007c988     Analog_Solution.obj
 0002:000019a0       ??_C@_0GC@BLKCPOIB@Analog_Solution?1Inputs?1RS232_rea@ 1007c9a0     Analog_Solution.obj
 0002:00001a18       ??_C@_0M@CNDHABNI@FIFO?5read?54?$AA@ 1007ca18     Analog_Solution.obj
 0002:00001a28       ??_C@_0FL@KHBNFHDN@Analog_Solution?1Inputs?1RS232_rea@ 1007ca28     Analog_Solution.obj
 0002:00001a98       ??_C@_0P@PBCELMLB@Write?5HW?5FIFO4?$AA@ 1007ca98     Analog_Solution.obj
 0002:00001ab0       ??_C@_0FO@GJFHJNHE@Analog_Solution?1Inputs?1RS232_rea@ 1007cab0     Analog_Solution.obj
 0002:00001b20       ??_C@_0BD@EILKEGGI@Filter?5Int?5Reason1?$AA@ 1007cb20     Analog_Solution.obj
 0002:00001b38       ??_C@_0GC@MKGAEFMI@Analog_Solution?1Inputs?1RS232_rea@ 1007cb38     Analog_Solution.obj
 0002:00001bb0       ??_C@_0O@JNEIFNPD@Read?5HW?5FIFO1?$AA@ 1007cbb0     Analog_Solution.obj
 0002:00001bc0       ??_C@_0FN@DMEJCELB@Analog_Solution?1Inputs?1RS232_rea@ 1007cbc0     Analog_Solution.obj
 0002:00001c30       ??_C@_0N@JPLHHADN@FIFO?5write?51?$AA@ 1007cc30     Analog_Solution.obj
 0002:00001c40       ??_C@_0FM@EPFNEMJM@Analog_Solution?1Inputs?1RS232_rea@ 1007cc40     Analog_Solution.obj
 0002:00001cb0       ??_C@_0BD@GDJHBFKL@Filter?5Int?5Reason2?$AA@ 1007ccb0     Analog_Solution.obj
 0002:00001cc8       ??_C@_0GC@OBENBGAL@Analog_Solution?1Inputs?1RS232_rea@ 1007ccc8     Analog_Solution.obj
 0002:00001d40       ??_C@_0O@LGGFAODA@Read?5HW?5FIFO2?$AA@ 1007cd40     Analog_Solution.obj
 0002:00001d50       ??_C@_0FN@BHGEHHHC@Analog_Solution?1Inputs?1RS232_rea@ 1007cd50     Analog_Solution.obj
 0002:00001dc0       ??_C@_0N@LEJKCDPO@FIFO?5write?52?$AA@ 1007cdc0     Analog_Solution.obj
 0002:00001dd0       ??_C@_0FM@GEHABPFP@Analog_Solution?1Inputs?1RS232_rea@ 1007cdd0     Analog_Solution.obj
 0002:00001e40       ??_C@_0BD@HKIMCEOK@Filter?5Int?5Reason3?$AA@ 1007ce40     Analog_Solution.obj
 0002:00001e58       ??_C@_0GC@PIFGCHEK@Analog_Solution?1Inputs?1RS232_rea@ 1007ce58     Analog_Solution.obj
 0002:00001ed0       ??_C@_0O@KPHODPHB@Read?5HW?5FIFO3?$AA@ 1007ced0     Analog_Solution.obj
 0002:00001ee0       ??_C@_0FN@OHPEGDD@Analog_Solution?1Inputs?1RS232_rea@ 1007cee0     Analog_Solution.obj
 0002:00001f50       ??_C@_0N@KNIBBCLP@FIFO?5write?53?$AA@ 1007cf50     Analog_Solution.obj
 0002:00001f60       ??_C@_0FM@HNGLCOBO@Analog_Solution?1Inputs?1RS232_rea@ 1007cf60     Analog_Solution.obj
 0002:00001fd0       ??_C@_0BD@DFMNLCCN@Filter?5Int?5Reason4?$AA@ 1007cfd0     Analog_Solution.obj
 0002:00001fe8       ??_C@_0GC@LHBHLBIN@Analog_Solution?1Inputs?1RS232_rea@ 1007cfe8     Analog_Solution.obj
 0002:00002060       ??_C@_0O@OADPKJLG@Read?5HW?5FIFO4?$AA@ 1007d060     Analog_Solution.obj
 0002:00002070       ??_C@_0FN@EBDONAPE@Analog_Solution?1Inputs?1RS232_rea@ 1007d070     Analog_Solution.obj
 0002:000020e0       ??_C@_0N@OCMAIEHI@FIFO?5write?54?$AA@ 1007d0e0     Analog_Solution.obj
 0002:000020f0       ??_C@_0FM@DCCKLINJ@Analog_Solution?1Inputs?1RS232_rea@ 1007d0f0     Analog_Solution.obj
 0002:00002160       ??_C@_0M@LOECFBFK@Wall?5Time?51?$AA@ 1007d160     Analog_Solution.obj
 0002:00002170       ??_C@_0CE@GJACPMMH@Analog_Solution?1Logging?1Wall?5Tim@ 1007d170     Analog_Solution.obj
 0002:0000219c       ??_C@_0M@KDIEODF@PCI?96221?5AD?$AA@ 1007d19c     Analog_Solution.obj
 0002:000021ac       ??_C@_0DB@GGMGOINC@Analog_Solution?1Inputs?1Analog?5In@ 1007d1ac     Analog_Solution.obj
 0002:000021e8       ??_C@_0M@LJFNPCJD@PCI?96221?5DI?$AA@ 1007d1e8     Analog_Solution.obj
 0002:000021f8       ??_C@_0DC@LFIGJJEE@Analog_Solution?1Inputs?1Digital?5I@ 1007d1f8     Analog_Solution.obj
 0002:00002234       ??_C@_0BB@EFMGDNLK@PCI?56221?5PFI?5DI?5?$AA@ 1007d234     Analog_Solution.obj
 0002:00002248       ??_C@_0DH@LPFNHLCM@Analog_Solution?1Inputs?1Digital?5I@ 1007d248     Analog_Solution.obj
 0002:0000228c       ??_C@_0BC@HOGJCGBE@FIFO?5ASCII?5read?51?$AA@ 1007d28c     Analog_Solution.obj
 0002:000022a8       ??_C@_0EB@NOJEDJFM@Analog_Solution?1Inputs?1RS232_rea@ 1007d2a8     Analog_Solution.obj
 0002:000022f8       ??_C@_0DN@IDACCLKD@Analog_Solution?1Inputs?1RS232_rea@ 1007d2f8     Analog_Solution.obj
 0002:00002344       ??_C@_0BB@IJIEKJDH@FIFO?5ASCII?5read?5?$AA@ 1007d344     Analog_Solution.obj
 0002:00002358       ??_C@_0DM@HAJAKIFM@Analog_Solution?1Inputs?1RS232_rea@ 1007d358     Analog_Solution.obj
 0002:000023a0       ??_C@_0DJ@HGOFNBDA@Analog_Solution?1Inputs?1RS232_rea@ 1007d3a0     Analog_Solution.obj
 0002:000023e4       ??_C@_0M@GKEFOLG@Enable?5TX?51?$AA@ 1007d3e4     Analog_Solution.obj
 0002:000023f4       ??_C@_0DI@DHKAGGLA@Analog_Solution?1Inputs?1RS232_rea@ 1007d3f4     Analog_Solution.obj
 0002:00002438       ??_C@_0DJ@FNMIICPD@Analog_Solution?1Inputs?1RS232_rea@ 1007d438     Analog_Solution.obj
 0002:0000247c       ??_C@_0M@CNIJANHF@Enable?5TX?52?$AA@ 1007d47c     Analog_Solution.obj
 0002:0000248c       ??_C@_0DI@BMINDFHD@Analog_Solution?1Inputs?1RS232_rea@ 1007d48c     Analog_Solution.obj
 0002:000024d0       ??_C@_0DJ@EENDLDLC@Analog_Solution?1Inputs?1RS232_rea@ 1007d4d0     Analog_Solution.obj
 0002:00002514       ??_C@_0M@DEJCDMDE@Enable?5TX?53?$AA@ 1007d514     Analog_Solution.obj
 0002:00002524       ??_C@_0DI@FJGAEDC@Analog_Solution?1Inputs?1RS232_rea@ 1007d524     Analog_Solution.obj
 0002:00002568       ??_C@_0DJ@LJCCFHF@Analog_Solution?1Inputs?1RS232_rea@ 1007d568     Analog_Solution.obj
 0002:000025ac       ??_C@_0M@HLNDKKPD@Enable?5TX?54?$AA@ 1007d5ac     Analog_Solution.obj
 0002:000025bc       ??_C@_0DI@EKNHJCPF@Analog_Solution?1Inputs?1RS232_rea@ 1007d5bc     Analog_Solution.obj
 0002:00002600       ??_C@_06OKIIDEAB@Setup1?$AA@ 1007d600     Analog_Solution.obj
 0002:00002608       ??_C@_0DD@DKPDLPBG@Analog_Solution?1Inputs?1RS232_rea@ 1007d608     Analog_Solution.obj
 0002:00002648       ??_C@_06MBKFGHMC@Setup2?$AA@ 1007d648     Analog_Solution.obj
 0002:00002650       ??_C@_0DD@BBNOOMNF@Analog_Solution?1Inputs?1RS232_rea@ 1007d650     Analog_Solution.obj
 0002:00002690       ??_C@_06NILOFGID@Setup3?$AA@ 1007d690     Analog_Solution.obj
 0002:00002698       ??_C@_0DD@IMFNNJE@Analog_Solution?1Inputs?1RS232_rea@ 1007d698     Analog_Solution.obj
 0002:000026d8       ??_C@_06JHPPMAEE@Setup4?$AA@ 1007d6d8     Analog_Solution.obj
 0002:000026e0       ??_C@_0DD@EHIEELFD@Analog_Solution?1Inputs?1RS232_rea@ 1007d6e0     Analog_Solution.obj
 0002:00002720       ??_C@_0BB@EBELEBAI@PCI?56221?5PFI?5DO?5?$AA@ 1007d720     Analog_Solution.obj
 0002:00002734       ??_C@_0CJ@KCCAGNBE@Analog_Solution?1Outputs?1PCI?56221@ 1007d734     Analog_Solution.obj
 0002:00002768       ??_C@_0M@HBIEHIJL@PCI?96221?5DA?$AA@ 1007d768     Analog_Solution.obj
 0002:00002778       ??_C@_0CE@IJKKGAIG@Analog_Solution?1Outputs?1PCI?96221@ 1007d778     Analog_Solution.obj
 0002:000027a4       ??_C@_0M@OPAHFFBF@PCI?96221?5DO?$AA@ 1007d7a4     Analog_Solution.obj
 0002:000027b4       ??_C@_0CE@BHCJENAI@Analog_Solution?1Outputs?1PCI?96221@ 1007d7b4     Analog_Solution.obj
 0002:000027e0       __real@0000000000000000    1007d7e0     Analog_Solution.obj
 0002:000027f0       __real@0010000000000000    1007d7f0     Analog_Solution.obj
 0002:00002800       __real@3f1a36e2eb1c432d    1007d800     Analog_Solution.obj
 0002:00002810       __real@3f50624dd2f1a9fc    1007d810     Analog_Solution.obj
 0002:00002820       __real@3f76c16c16c16c17    1007d820     Analog_Solution.obj
 0002:00002830       __real@3f847ae147ae147b    1007d830     Analog_Solution.obj
 0002:00002840       __real@3f91111111111111    1007d840     Analog_Solution.obj
 0002:00002850       __real@3f947ae147ae147b    1007d850     Analog_Solution.obj
 0002:00002860       __real@3fb999999999999a    1007d860     Analog_Solution.obj
 0002:00002870       __real@3fe0000000000000    1007d870     Analog_Solution.obj
 0002:00002880       __real@3ff0000000000000    1007d880     Analog_Solution.obj
 0002:00002890       __real@4000000000000000    1007d890     Analog_Solution.obj
 0002:000028a0       __real@400921fb54442d18    1007d8a0     Analog_Solution.obj
 0002:000028b0       __real@4020000000000000    1007d8b0     Analog_Solution.obj
 0002:000028c0       __real@4024000000000000    1007d8c0     Analog_Solution.obj
 0002:000028d0       __real@4026000000000000    1007d8d0     Analog_Solution.obj
 0002:000028e0       __real@4028000000000000    1007d8e0     Analog_Solution.obj
 0002:000028f0       __real@4030000000000000    1007d8f0     Analog_Solution.obj
 0002:00002900       __real@403f000000000000    1007d900     Analog_Solution.obj
 0002:00002910       __real@4040000000000000    1007d910     Analog_Solution.obj
 0002:00002920       __real@4048000000000000    1007d920     Analog_Solution.obj
 0002:00002930       __real@4059000000000000    1007d930     Analog_Solution.obj
 0002:00002940       __real@405fc00000000000    1007d940     Analog_Solution.obj
 0002:00002950       __real@406f400000000000    1007d950     Analog_Solution.obj
 0002:00002960       __real@408f400000000000    1007d960     Analog_Solution.obj
 0002:00002970       __real@408ff80000000000    1007d970     Analog_Solution.obj
 0002:00002980       __real@4090000000000000    1007d980     Analog_Solution.obj
 0002:00002990       __real@41e0000000000000    1007d990     Analog_Solution.obj
 0002:000029a0       __real@41f0000000000000    1007d9a0     Analog_Solution.obj
 0002:000029b0       __real@4330000000000000    1007d9b0     Analog_Solution.obj
 0002:000029c0       __real@8000000000000000    1007d9c0     Analog_Solution.obj
 0002:000029d0       __real@bff0000000000000    1007d9d0     Analog_Solution.obj
 0002:000029e0       __real@c000000000000000    1007d9e0     Analog_Solution.obj
 0002:000029f0       __real@c024000000000000    1007d9f0     Analog_Solution.obj
 0002:00002a00       __real@c08ff80000000000    1007da00     Analog_Solution.obj
 0002:00002a10       __xmm@00000003000000020000000100000000 1007da10     Analog_Solution.obj
 0002:00002a30       __xmm@000004c7000000fa0000015500000004 1007da30     Analog_Solution.obj
 0002:00002a50       __xmm@01010101010101010101010101010101 1007da50     Analog_Solution.obj
 0002:00002a70       __xmm@2c2c2c2c2c2c2c2c2c2c2c2c2c2c2c2c 1007da70     Analog_Solution.obj
 0002:00002a90       __xmm@3f847ae147ae147b3f50624dd2f1a9fc 1007da90     Analog_Solution.obj
 0002:00002ab0       __xmm@3ff00000000000003f947ae147ae147b 1007dab0     Analog_Solution.obj
 0002:00002ad0       __xmm@41f00000000000000000000000000000 1007dad0     Analog_Solution.obj
 0002:00002af0       __xmm@7fffffffffffffff7fffffffffffffff 1007daf0     Analog_Solution.obj
 0002:00002b10       __xmm@80000000000000008000000000000000 1007db10     Analog_Solution.obj
 0002:00002b28       __real@3cb0000000000000    1007db28     rt_matrx.obj
 0002:0000735c       ??_C@_0BI@DDEJKAKC@Auxiliary?5variables?1Sum?$AA@ 1008235c     Analog_Solution_capi.obj
 0002:00007378       ??_C@_0BP@PAOGGCCM@Auxiliary?5variables?1Unit?5Delay?$AA@ 10082378     Analog_Solution_capi.obj
 0002:000073a0       ??_C@_0BO@DAFHKAPG@Logging?1Data?5Type?5Conversion1?$AA@ 100823a0     Analog_Solution_capi.obj
 0002:000073c4       ??_C@_0BE@GHGEBBCA@Logging?1Wall?5Time?51?$AA@ 100823c4     Analog_Solution_capi.obj
 0002:000073dc       ??_C@_0BC@IPDNNMJF@Outputs?1Constant1?$AA@ 100823dc     Analog_Solution_capi.obj
 0002:000073f4       ??_C@_0BC@LNALLOBH@Outputs?1Constant3?$AA@ 100823f4     Analog_Solution_capi.obj
 0002:0000740c       ??_C@_0BM@FCIOBIKG@Outputs?1Relational?5Operator?$AA@ 1008240c     Analog_Solution_capi.obj
 0002:00007430       ??_C@_0P@IAPJIMON@SpoolingOutput?$AA@ 10082430     Analog_Solution_capi.obj
 0002:00007444       ??_C@_0P@MEPHPGK@Siemens_Output?$AA@ 10082444     Analog_Solution_capi.obj
 0002:00007458       ??_C@_0P@IMOLCCPN@Outputs?1Switch?$AA@ 10082458     Analog_Solution_capi.obj
 0002:0000746c       ??_C@_0O@JBKPLLEM@Siemens_Motor?$AA@ 1008246c     Analog_Solution_capi.obj
 0002:0000747c       ??_C@_0BA@FNNGCDB@Outputs?1Switch1?$AA@ 1008247c     Analog_Solution_capi.obj
 0002:00007490       ??_C@_0BN@IANLKAIC@Spooling_Pos_Controlled?1Gain?$AA@ 10082490     Analog_Solution_capi.obj
 0002:000074b4       ??_C@_0BO@MFGLDOBO@Spooling_Pos_Controlled?1Gain1?$AA@ 100824b4     Analog_Solution_capi.obj
 0002:000074d8       ??_C@_0BO@OOEGGNNN@Spooling_Pos_Controlled?1Gain2?$AA@ 100824d8     Analog_Solution_capi.obj
 0002:000074fc       ??_C@_0CD@OAIJALKE@Spooling_Pos_Controlled?1Umrechnu@ 100824fc     Analog_Solution_capi.obj
 0002:00007528       ??_C@_0BA@MHLDIDLK@SpoolingPosSoll?$AA@ 10082528     Analog_Solution_capi.obj
 0002:0000753c       ??_C@_0CM@BNBFDLCF@Spooling_Pos_Controlled?1Relation@ 1008253c     Analog_Solution_capi.obj
 0002:00007570       ??_C@_0CN@INEEMGMO@Spooling_Pos_Controlled?1Relation@ 10082570     Analog_Solution_capi.obj
 0002:000075a8       ??_C@_0CN@KGGJJFAN@Spooling_Pos_Controlled?1Relation@ 100825a8     Analog_Solution_capi.obj
 0002:000075e0       ??_C@_0CN@LPHCKEEM@Spooling_Pos_Controlled?1Relation@ 100825e0     Analog_Solution_capi.obj
 0002:00007618       ??_C@_0CN@PADDDCIL@Spooling_Pos_Controlled?1Relation@ 10082618     Analog_Solution_capi.obj
 0002:00007650       ??_C@_0BP@EBGMKDIM@Spooling_Pos_Controlled?1Switch?$AA@ 10082650     Analog_Solution_capi.obj
 0002:00007678       ??_C@_0CA@CCBCKEBK@Spooling_Pos_Controlled?1Switch1?$AA@ 10082678     Analog_Solution_capi.obj
 0002:000076a0       ??_C@_0CA@JDPPHNJ@Spooling_Pos_Controlled?1Switch2?$AA@ 100826a0     Analog_Solution_capi.obj
 0002:000076c8       ??_C@_0CA@BACEMGJI@Spooling_Pos_Controlled?1Switch3?$AA@ 100826c8     Analog_Solution_capi.obj
 0002:000076f0       ??_C@_0BO@LCFNJIHC@Spooling_Pos_Controlled?1Delay?$AA@ 100826f0     Analog_Solution_capi.obj
 0002:00007714       ??_C@_0BP@HIOEEKDK@Spooling_Pos_Controlled?1Delay1?$AA@ 10082714     Analog_Solution_capi.obj
 0002:0000773c       ??_C@_0BP@BJKFECA@Spooling_Speed_Controlled?1Gain?$AA@ 1008273c     Analog_Solution_capi.obj
 0002:00007764       ??_C@_0CF@MKLGADDD@Spooling_Speed_Controlled?1Umrech@ 10082764     Analog_Solution_capi.obj
 0002:00007790       ??_C@_0BC@JJKFLMGA@WinchSpeed?$CIrad?1s?$CJ?$AA@ 10082790     Analog_Solution_capi.obj
 0002:000077a8       ??_C@_0DB@KKKKJDHN@Spooling_Speed_Controlled?1zweite@ 100827a8     Analog_Solution_capi.obj
 0002:000077e4       ??_C@_0CO@JIBIPMIM@Spooling_Speed_Controlled?1Relati@ 100827e4     Analog_Solution_capi.obj
 0002:0000781c       ??_C@_0CP@CCMLNAEF@Spooling_Speed_Controlled?1Relati@ 1008281c     Analog_Solution_capi.obj
 0002:00007854       ??_C@_0CB@GHINMKKD@Spooling_Speed_Controlled?1Switch@ 10082854     Analog_Solution_capi.obj
 0002:0000787c       ??_C@_0BC@IDHBPBHB@Winch_Conrtol?1Sum?$AA@ 1008287c     Analog_Solution_capi.obj
 0002:00007894       ??_C@_0BD@MKPBGECK@Winch_Conrtol?1Sum2?$AA@ 10082894     Analog_Solution_capi.obj
 0002:000078ac       ??_C@_0BF@MEDGDHGE@Winch_Conrtol?1Switch?$AA@ 100828ac     Analog_Solution_capi.obj
 0002:000078c8       ??_C@_0BG@IMEGJEME@Winch_Conrtol?1Switch1?$AA@ 100828c8     Analog_Solution_capi.obj
 0002:000078e4       ??_C@_0BH@EDMDHGMO@Winch_Conrtol?1Switch10?$AA@ 100828e4     Analog_Solution_capi.obj
 0002:00007900       ??_C@_0BH@FKNIEHIP@Winch_Conrtol?1Switch11?$AA@ 10082900     Analog_Solution_capi.obj
 0002:0000791c       ??_C@_0BG@FNIECPIN@Winch_Conrtol?1Switch8?$AA@ 1008291c     Analog_Solution_capi.obj
 0002:00007938       ??_C@_0BG@EEJPBOMM@Winch_Conrtol?1Switch9?$AA@ 10082938     Analog_Solution_capi.obj
 0002:00007954       ??_C@_0BE@INPJKICA@Winch_Conrtol?1Delay?$AA@ 10082954     Analog_Solution_capi.obj
 0002:0000796c       ??_C@_0DB@OMDCEFGE@Input?5conditioning?5and?5estimator@ 1008296c     Analog_Solution_capi.obj
 0002:000079a8       ??_C@_0DC@IMGOJALG@Input?5conditioning?5and?5estimator@ 100829a8     Analog_Solution_capi.obj
 0002:000079e4       ??_C@_0DH@NBALJFMG@Input?5conditioning?5and?5estimator@ 100829e4     Analog_Solution_capi.obj
 0002:00007a28       ??_C@_07KKDEJFOF@CI_JoyS?$AA@ 10082a28     Analog_Solution_capi.obj
 0002:00007a34       ??_C@_0DI@LEILGLKC@Input?5conditioning?5and?5estimator@ 10082a34     Analog_Solution_capi.obj
 0002:00007a78       ??_C@_07MOFIFAOB@CI_JoyW?$AA@ 10082a78     Analog_Solution_capi.obj
 0002:00007a84       ??_C@_0DA@FLIFAAPO@Input?5conditioning?5and?5estimator@ 10082a84     Analog_Solution_capi.obj
 0002:00007ac0       ??_C@_0DB@JMADFNKJ@Input?5conditioning?5and?5estimator@ 10082ac0     Analog_Solution_capi.obj
 0002:00007b00       ??_C@_0EC@KEBGAAFI@Input?5conditioning?5and?5estimator@ 10082b00     Analog_Solution_capi.obj
 0002:00007b50       ??_C@_0ED@KDEJMIHE@Input?5conditioning?5and?5estimator@ 10082b50     Analog_Solution_capi.obj
 0002:00007ba0       ??_C@_0DC@OMHBFPEH@Input?5conditioning?5and?5estimator@ 10082ba0     Analog_Solution_capi.obj
 0002:00007bdc       ??_C@_0DC@NNJJEFNK@Input?5conditioning?5and?5estimator@ 10082bdc     Analog_Solution_capi.obj
 0002:00007c18       ??_C@_0DD@KAIGKFDN@Input?5conditioning?5and?5estimator@ 10082c18     Analog_Solution_capi.obj
 0002:00007c58       ??_C@_09MNDCALJE@CI_PotSpd?$AA@ 10082c58     Analog_Solution_capi.obj
 0002:00007c64       ??_C@_0DI@EOAIPGGA@Input?5conditioning?5and?5estimator@ 10082c64     Analog_Solution_capi.obj
 0002:00007ca8       ??_C@_09MNHOMEKB@CI_PotPos?$AA@ 10082ca8     Analog_Solution_capi.obj
 0002:00007cb4       ??_C@_0DB@JOALFBFA@Input?5conditioning?5and?5estimator@ 10082cb4     Analog_Solution_capi.obj
 0002:00007cf0       ??_C@_0DC@KNKIFNBH@Input?5conditioning?5and?5estimator@ 10082cf0     Analog_Solution_capi.obj
 0002:00007d2c       ??_C@_0DD@NHLAADFB@Input?5conditioning?5and?5estimator@ 10082d2c     Analog_Solution_capi.obj
 0002:00007d70       ??_C@_0EE@DKPBPFJ@Input?5conditioning?5and?5estimator@ 10082d70     Analog_Solution_capi.obj
 0002:00007dc4       ??_C@_0CE@OGFLLIKO@Inputs?1Analog?5Inputs?1PCI?96221?5AD@ 10082dc4     Analog_Solution_capi.obj
 0002:00007df0       ??_C@_08CNMDIBD@AI_Joy_W?$AA@ 10082df0     Analog_Solution_capi.obj
 0002:00007dfc       ??_C@_0CE@MNHGOLGN@Inputs?1Analog?5Inputs?1PCI?96221?5AD@ 10082dfc     Analog_Solution_capi.obj
 0002:00007e28       ??_C@_08GGLAPNBH@AI_Joy_S?$AA@ 10082e28     Analog_Solution_capi.obj
 0002:00007e34       ??_C@_0CE@NEGNNKCM@Inputs?1Analog?5Inputs?1PCI?96221?5AD@ 10082e34     Analog_Solution_capi.obj
 0002:00007e60       ??_C@_0BK@BECEGJHD@AI_mot_SiemensMotor_Speed?$AA@ 10082e60     Analog_Solution_capi.obj
 0002:00007e80       ??_C@_0CE@JLCMEMOL@Inputs?1Analog?5Inputs?1PCI?96221?5AD@ 10082e80     Analog_Solution_capi.obj
 0002:00007eac       ??_C@_0BB@PCGCICHI@AI_mot_winch_pos?$AA@ 10082eac     Analog_Solution_capi.obj
 0002:00007ec0       ??_C@_0CE@ICDHHNKK@Inputs?1Analog?5Inputs?1PCI?96221?5AD@ 10082ec0     Analog_Solution_capi.obj
 0002:00007eec       ??_C@_0L@JLACJGBE@AI_pot_pos?$AA@ 10082eec     Analog_Solution_capi.obj
 0002:00007efc       ??_C@_0CH@EKKGEFJM@Inputs?1Digital?5Inputs?1PCI?56221?5P@ 10082efc     Analog_Solution_capi.obj
 0002:00007f2c       ??_C@_0P@BGIIHCNM@DI_SlideLimitB?$AA@ 10082f2c     Analog_Solution_capi.obj
 0002:00007f40       ??_C@_0CF@JHGEOEHD@Inputs?1Digital?5Inputs?1PCI?96221?5D@ 10082f40     Analog_Solution_capi.obj
 0002:00007f6c       ??_C@_09DNOEJMEC@DI_Enable?$AA@ 10082f6c     Analog_Solution_capi.obj
 0002:00007f78       ??_C@_0CF@LMEJLHLA@Inputs?1Digital?5Inputs?1PCI?96221?5D@ 10082f78     Analog_Solution_capi.obj
 0002:00007fa4       ??_C@_0N@GPNBKCHI@DI_WinchMode?$AA@ 10082fa4     Analog_Solution_capi.obj
 0002:00007fb4       ??_C@_0CF@KFFCIGPB@Inputs?1Digital?5Inputs?1PCI?96221?5D@ 10082fb4     Analog_Solution_capi.obj
 0002:00007fe0       ??_C@_0L@OOFJKHJM@DI_Takeoff?$AA@ 10082fe0     Analog_Solution_capi.obj
 0002:00007ff0       ??_C@_0CF@OKBDBADG@Inputs?1Digital?5Inputs?1PCI?96221?5D@ 10082ff0     Analog_Solution_capi.obj
 0002:0000801c       ??_C@_0L@BOMJAKCE@DI_Landing?$AA@ 1008301c     Analog_Solution_capi.obj
 0002:0000802c       ??_C@_0CF@PDAICBHH@Inputs?1Digital?5Inputs?1PCI?96221?5D@ 1008302c     Analog_Solution_capi.obj
 0002:00008058       ??_C@_0M@HOMHCDCB@DI_Operator?$AA@ 10083058     Analog_Solution_capi.obj
 0002:00008068       ??_C@_0CF@NICFHCLE@Inputs?1Digital?5Inputs?1PCI?96221?5D@ 10083068     Analog_Solution_capi.obj
 0002:00008094       ??_C@_0O@LOCAJKGK@DI_GliderPres?$AA@ 10083094     Analog_Solution_capi.obj
 0002:000080a4       ??_C@_0CF@MBDOEDPF@Inputs?1Digital?5Inputs?1PCI?96221?5D@ 100830a4     Analog_Solution_capi.obj
 0002:000080d0       ??_C@_0P@HCOELHNI@DI_SlideLimitF?$AA@ 100830d0     Analog_Solution_capi.obj
 0002:000080e4       ??_C@_0BL@EAFAIOGN@Inputs?1RS232_read?1Constant?$AA@ 100830e4     Analog_Solution_capi.obj
 0002:00008104       ??_C@_0BM@PFBOEKNJ@Inputs?1RS232_read?1Constant1?$AA@ 10083104     Analog_Solution_capi.obj
 0002:00008128       ??_C@_0BM@NODDBJBK@Inputs?1RS232_read?1Constant2?$AA@ 10083128     Analog_Solution_capi.obj
 0002:0000814c       ??_C@_0BM@MHCICIFL@Inputs?1RS232_read?1Constant3?$AA@ 1008314c     Analog_Solution_capi.obj
 0002:00008170       ??_C@_0CJ@BCFOLFA@Logging?1Log_conditioning?1Rate?5Tr@ 10083170     Analog_Solution_capi.obj
 0002:000081a4       ??_C@_0CC@EEAKFPKK@Logging?1Time_Scope_trigger?1Switc@ 100831a4     Analog_Solution_capi.obj
 0002:000081cc       ??_C@_0N@NNLEEMMA@Trigger_time?$AA@ 100831cc     Analog_Solution_capi.obj
 0002:000081dc       ??_C@_0CI@GFNNNEKJ@Spooling_Speed_Controlled?1Subsys@ 100831dc     Analog_Solution_capi.obj
 0002:0000820c       ??_C@_0DA@IOJBAEFH@Spooling_Speed_Controlled?1Subsys@ 1008320c     Analog_Solution_capi.obj
 0002:00008248       ??_C@_0BF@OEGDHOMB@Umdrehung?1SampleTime?$AA@ 10083248     Analog_Solution_capi.obj
 0002:00008264       ??_C@_0DI@GOPKNGLH@Spooling_Speed_Controlled?1Subsys@ 10083264     Analog_Solution_capi.obj
 0002:000082a8       ??_C@_0CL@EBHNPKAJ@Spooling_Speed_Controlled?1Subsys@ 100832a8     Analog_Solution_capi.obj
 0002:000082dc       ??_C@_0CK@KDAEBNHC@Spooling_Speed_Controlled?1Subsys@ 100832dc     Analog_Solution_capi.obj
 0002:00008310       ??_C@_0BN@IFJAKLJJ@Winch_Conrtol?1Emergency?1Gain?$AA@ 10083310     Analog_Solution_capi.obj
 0002:00008334       ??_C@_0CM@KFMGAGB@Winch_Conrtol?1Emergency?1Relation@ 10083334     Analog_Solution_capi.obj
 0002:00008368       ??_C@_0CN@PMOCAKBM@Winch_Conrtol?1Emergency?1Relation@ 10083368     Analog_Solution_capi.obj
 0002:000083a0       ??_C@_0BM@PPKJADGN@Winch_Conrtol?1Emergency?1Sum?$AA@ 100833a0     Analog_Solution_capi.obj
 0002:000083c4       ??_C@_0BN@PFKBLDFE@Winch_Conrtol?1Emergency?1Sum1?$AA@ 100833c4     Analog_Solution_capi.obj
 0002:000083e8       ??_C@_0BP@HPIILENF@Winch_Conrtol?1Emergency?1Switch?$AA@ 100833e8     Analog_Solution_capi.obj
 0002:00008410       ??_C@_0CA@DAJLKJFN@Winch_Conrtol?1Emergency?1Switch1?$AA@ 10083410     Analog_Solution_capi.obj
 0002:00008438       ??_C@_0CH@BIMNDDFM@Winch_Conrtol?1Joystick?5Regelung1@ 10083438     Analog_Solution_capi.obj
 0002:00008468       ??_C@_0CJ@HLMFOKPH@Winch_Conrtol?1Subsystem?1Logical?5@ 10083468     Analog_Solution_capi.obj
 0002:0000849c       ??_C@_0CK@OFPPKFOH@Winch_Conrtol?1Subsystem?1Logical?5@ 1008349c     Analog_Solution_capi.obj
 0002:000084d0       ??_C@_0CK@MONCPGCE@Winch_Conrtol?1Subsystem?1Logical?5@ 100834d0     Analog_Solution_capi.obj
 0002:00008504       ??_C@_0CK@NHMJMHGF@Winch_Conrtol?1Subsystem?1Logical?5@ 10083504     Analog_Solution_capi.obj
 0002:00008538       ??_C@_0CK@JIIIFBKC@Winch_Conrtol?1Subsystem?1Logical?5@ 10083538     Analog_Solution_capi.obj
 0002:0000856c       ??_C@_0CK@IBJDGAOD@Winch_Conrtol?1Subsystem?1Logical?5@ 1008356c     Analog_Solution_capi.obj
 0002:000085a0       ??_C@_0CK@KKLODDCA@Winch_Conrtol?1Subsystem?1Logical?5@ 100835a0     Analog_Solution_capi.obj
 0002:000085d4       ??_C@_0CK@LDKFACGB@Winch_Conrtol?1Subsystem?1Logical?5@ 100835d4     Analog_Solution_capi.obj
 0002:00008608       ??_C@_0BP@EBHIMIBO@Winch_Conrtol?1Subsystem?1Switch?$AA@ 10083608     Analog_Solution_capi.obj
 0002:00008630       ??_C@_0CA@DMBDECBJ@Winch_Conrtol?1Subsystem?1Switch1?$AA@ 10083630     Analog_Solution_capi.obj
 0002:00008658       ??_C@_0CA@BHDOBBNK@Winch_Conrtol?1Subsystem?1Switch2?$AA@ 10083658     Analog_Solution_capi.obj
 0002:00008680       ??_C@_0CA@OCFCAJL@Winch_Conrtol?1Subsystem?1Switch3?$AA@ 10083680     Analog_Solution_capi.obj
 0002:000086a8       ??_C@_0CA@EBGELGFM@Winch_Conrtol?1Subsystem?1Switch4?$AA@ 100836a8     Analog_Solution_capi.obj
 0002:000086d0       ??_C@_0CA@FIHPIHBN@Winch_Conrtol?1Subsystem?1Switch5?$AA@ 100836d0     Analog_Solution_capi.obj
 0002:000086f8       ??_C@_0CA@HDFCNENO@Winch_Conrtol?1Subsystem?1Switch6?$AA@ 100836f8     Analog_Solution_capi.obj
 0002:00008720       ??_C@_0CA@GKEJOFJP@Winch_Conrtol?1Subsystem?1Switch7?$AA@ 10083720     Analog_Solution_capi.obj
 0002:00008748       ??_C@_0BP@HIPACBKI@Winch_Conrtol?1Subsystem?1Delay1?$AA@ 10083748     Analog_Solution_capi.obj
 0002:00008770       ??_C@_0BP@FDNNHCGL@Winch_Conrtol?1Subsystem?1Delay2?$AA@ 10083770     Analog_Solution_capi.obj
 0002:00008798       ??_C@_0BP@EKMGEDCK@Winch_Conrtol?1Subsystem?1Delay3?$AA@ 10083798     Analog_Solution_capi.obj
 0002:000087c0       ??_C@_0BP@FIHNFON@Winch_Conrtol?1Subsystem?1Delay4?$AA@ 100837c0     Analog_Solution_capi.obj
 0002:000087e8       ??_C@_0BK@NKMBGFNF@Winch_Conrtol?1damper?1Gain?$AA@ 100837e8     Analog_Solution_capi.obj
 0002:00008808       ??_C@_0BJ@KLOPEHFE@Winch_Conrtol?1damper?1Sum?$AA@ 10083808     Analog_Solution_capi.obj
 0002:00008828       ??_C@_0BK@KKPAHNBI@Winch_Conrtol?1damper?1Sum1?$AA@ 10083828     Analog_Solution_capi.obj
 0002:00008848       ??_C@_0BM@FPJIAEDK@Winch_Conrtol?1damper?1Switch?$AA@ 10083848     Analog_Solution_capi.obj
 0002:0000886c       ??_C@_0BN@OEGAE@Winch_Conrtol?1damper?1Switch1?$AA@ 1008386c     Analog_Solution_capi.obj
 0002:00008890       ??_C@_0BL@EHAIEGOA@Winch_Conrtol?1damper?1Delay?$AA@ 10083890     Analog_Solution_capi.obj
 0002:000088b0       ??_C@_0BM@GGBAONIM@Winch_Conrtol?1damper?1Delay1?$AA@ 100838b0     Analog_Solution_capi.obj
 0002:000088d4       ??_C@_0DM@NFPGIDGN@Input?5conditioning?5and?5estimator@ 100838d4     Analog_Solution_capi.obj
 0002:0000891c       ??_C@_0DL@JMPAMLBN@Input?5conditioning?5and?5estimator@ 1008391c     Analog_Solution_capi.obj
 0002:00008964       ??_C@_0DM@KFMHJLKA@Input?5conditioning?5and?5estimator@ 10083964     Analog_Solution_capi.obj
 0002:000089b0       ??_C@_0EO@HNDCILK@Input?5conditioning?5and?5estimator@ 100839b0     Analog_Solution_capi.obj
 0002:00008a10       ??_C@_0M@IPGFOOFK@CI_WinchPos?$AA@ 10083a10     Analog_Solution_capi.obj
 0002:00008a20       ??_C@_0EN@MKMBEFJH@Input?5conditioning?5and?5estimator@ 10083a20     Analog_Solution_capi.obj
 0002:00008a7c       ??_C@_0DN@KEHMDJLI@Input?5conditioning?5and?5estimator@ 10083a7c     Analog_Solution_capi.obj
 0002:00008ac8       ??_C@_0DO@DEDEADF@Input?5conditioning?5and?5estimator@ 10083ac8     Analog_Solution_capi.obj
 0002:00008b18       ??_C@_0ED@INJHLHCK@Input?5conditioning?5and?5estimator@ 10083b18     Analog_Solution_capi.obj
 0002:00008b68       ??_C@_0EE@BNGLFJND@Input?5conditioning?5and?5estimator@ 10083b68     Analog_Solution_capi.obj
 0002:00008bbc       ??_C@_0DM@KHMPJHFJ@Input?5conditioning?5and?5estimator@ 10083bbc     Analog_Solution_capi.obj
 0002:00008c04       ??_C@_0DN@NEENCBHF@Input?5conditioning?5and?5estimator@ 10083c04     Analog_Solution_capi.obj
 0002:00008c50       ??_C@_0DN@PPGAHCLG@Input?5conditioning?5and?5estimator@ 10083c50     Analog_Solution_capi.obj
 0002:00008c9c       ??_C@_0DP@ONBGHCLC@Input?5conditioning?5and?5estimator@ 10083c9c     Analog_Solution_capi.obj
 0002:00008ce8       ??_C@_0BC@MIHDKAIH@WinchMotTorqueEst?$AA@ 10083ce8     Analog_Solution_capi.obj
 0002:00008d00       ??_C@_0EO@OMLJLFHG@Input?5conditioning?5and?5estimator@ 10083d00     Analog_Solution_capi.obj
 0002:00008d60       ??_C@_0BB@JKEIAAHN@WinchMotSpeedEst?$AA@ 10083d60     Analog_Solution_capi.obj
 0002:00008d74       ??_C@_0DI@ONINGOLH@Inputs?1RS232_read?1Compass_read?1E@ 10083d74     Analog_Solution_capi.obj
 0002:00008db8       ??_C@_06JKFBKECG@GU_Yaw?$AA@ 10083db8     Analog_Solution_capi.obj
 0002:00008dc0       ??_C@_0DA@JFDLLEMA@Inputs?1RS232_read?1Compass_read?1R@ 10083dc0     Analog_Solution_capi.obj
 0002:00008dfc       ??_C@_0DB@CCNGLEEH@Inputs?1RS232_read?1Compass_read?1F@ 10083dfc     Analog_Solution_capi.obj
 0002:00008e38       ??_C@_06NGLLFAEI@GU_Lat?$AA@ 10083e38     Analog_Solution_capi.obj
 0002:00008e40       ??_C@_06GMAIIHJJ@GU_Lon?$AA@ 10083e40     Analog_Solution_capi.obj
 0002:00008e48       ??_C@_04OFBJPLAJ@GU_h?$AA@ 10083e48     Analog_Solution_capi.obj
 0002:00008e50       ??_C@_08MHNOPBLL@Geo_Gu_h?$AA@ 10083e50     Analog_Solution_capi.obj
 0002:00008e5c       ??_C@_0CM@EAFOCACO@Inputs?1RS232_read?1GPS_read?1Rate?5@ 10083e5c     Analog_Solution_capi.obj
 0002:00008e90       ??_C@_0CN@GFLBBOKM@Inputs?1RS232_read?1GPS_read?1FIFO?5@ 10083e90     Analog_Solution_capi.obj
 0002:00008ec8       ??_C@_0CM@LALOOMFP@Inputs?1RS232_read?1IMU_read?1Rate?5@ 10083ec8     Analog_Solution_capi.obj
 0002:00008efc       ??_C@_0CM@KAPJKGBD@Inputs?1RS232_read?1IMU_read?1FIFO?5@ 10083efc     Analog_Solution_capi.obj
 0002:00008f30       ??_C@_0CM@BMOBFDD@Inputs?1RS232_read?1QSC?9100?5F?1Rate@ 10083f30     Analog_Solution_capi.obj
 0002:00008f64       ??_C@_0CN@HJIMKILB@Inputs?1RS232_read?1QSC?9100?5F?1Rate@ 10083f64     Analog_Solution_capi.obj
 0002:00008f9c       ??_C@_0CN@FCKBPLHC@Inputs?1RS232_read?1QSC?9100?5F?1Rate@ 10083f9c     Analog_Solution_capi.obj
 0002:00008fd4       ??_C@_0CN@ELLKMKDD@Inputs?1RS232_read?1QSC?9100?5F?1Rate@ 10083fd4     Analog_Solution_capi.obj
 0002:0000900c       ??_C@_0CN@EPLFMPE@Inputs?1RS232_read?1QSC?9100?5F?1Rate@ 1008400c     Analog_Solution_capi.obj
 0002:00009044       ??_C@_0CN@BNOAGNLF@Inputs?1RS232_read?1QSC?9100?5F?1Rate@ 10084044     Analog_Solution_capi.obj
 0002:0000907c       ??_C@_0CN@DGMNDOHG@Inputs?1RS232_read?1QSC?9100?5F?1Rate@ 1008407c     Analog_Solution_capi.obj
 0002:000090b4       ??_C@_0CN@CPNGAPDH@Inputs?1RS232_read?1QSC?9100?5F?1Rate@ 100840b4     Analog_Solution_capi.obj
 0002:000090ec       ??_C@_0CM@NGLMNJIK@Inputs?1RS232_read?1QSC?9100?5F?1FIFO@ 100840ec     Analog_Solution_capi.obj
 0002:00009120       ??_C@_0CM@PNJBIKEJ@Inputs?1RS232_read?1QSC?9100?5F?1FIFO@ 10084120     Analog_Solution_capi.obj
 0002:00009154       ??_C@_0CM@JBBMKDFK@Inputs?1RS232_read?1QSC?9100?5F?1FIFO@ 10084154     Analog_Solution_capi.obj
 0002:00009188       ??_C@_0CM@LKDBPAJJ@Inputs?1RS232_read?1QSC?9100?5F?1FIFO@ 10084188     Analog_Solution_capi.obj
 0002:000091bc       ??_C@_0CM@KMHMIKOK@Inputs?1RS232_read?1QSC?9100?5F?1FIFO@ 100841bc     Analog_Solution_capi.obj
 0002:000091f0       ??_C@_0CM@IHFBNJCJ@Inputs?1RS232_read?1QSC?9100?5F?1FIFO@ 100841f0     Analog_Solution_capi.obj
 0002:00009224       ??_C@_0CM@BOFMFGPK@Inputs?1RS232_read?1QSC?9100?5F?1FIFO@ 10084224     Analog_Solution_capi.obj
 0002:00009258       ??_C@_0CM@DFHBAFDJ@Inputs?1RS232_read?1QSC?9100?5F?1FIFO@ 10084258     Analog_Solution_capi.obj
 0002:0000928c       ??_C@_0DJ@ELHIANA@Winch_Conrtol?1Joystick?5Regelung1@ 1008428c     Analog_Solution_capi.obj
 0002:000092d0       ??_C@_0EI@BOGCBGE@Winch_Conrtol?1Joystick?5Regelung1@ 100842d0     Analog_Solution_capi.obj
 0002:00009328       ??_C@_0EJ@IMIDEENC@Winch_Conrtol?1Joystick?5Regelung1@ 10084328     Analog_Solution_capi.obj
 0002:00009380       ??_C@_0DI@GGJEIHLJ@Winch_Conrtol?1Joystick?5Regelung1@ 10084380     Analog_Solution_capi.obj
 0002:000093c4       ??_C@_0DJ@HEIGJIBN@Winch_Conrtol?1Joystick?5Regelung1@ 100843c4     Analog_Solution_capi.obj
 0002:00009408       ??_C@_0DL@PCIPDIPO@Winch_Conrtol?1Joystick?5Regelung1@ 10084408     Analog_Solution_capi.obj
 0002:00009450       ??_C@_0DM@JMKKFHJB@Winch_Conrtol?1Joystick?5Regelung1@ 10084450     Analog_Solution_capi.obj
 0002:00009498       ??_C@_0CN@IEGGKLID@Winch_Conrtol?1Joystick?5Regelung1@ 10084498     Analog_Solution_capi.obj
 0002:000094d0       ??_C@_0CM@NCNIBPCM@Winch_Conrtol?1Joystick?5Regelung1@ 100844d0     Analog_Solution_capi.obj
 0002:00009504       ??_C@_0CN@PEFHLDEO@Winch_Conrtol?1Joystick?5Regelung1@ 10084504     Analog_Solution_capi.obj
 0002:0000953c       ??_C@_0CP@MPKFEPPI@Winch_Conrtol?1Joystick?5Regelung1@ 1008453c     Analog_Solution_capi.obj
 0002:00009574       ??_C@_0DA@HFPENIND@Winch_Conrtol?1Joystick?5Regelung1@ 10084574     Analog_Solution_capi.obj
 0002:000095b0       ??_C@_0CO@MFFOBFOP@Winch_Conrtol?1Joystick?5Regelung1@ 100845b0     Analog_Solution_capi.obj
 0002:000095e8       ??_C@_0CP@PGCNKGEO@Winch_Conrtol?1Joystick?5Regelung1@ 100845e8     Analog_Solution_capi.obj
 0002:00009620       ??_C@_0CN@BGKKHLFG@Winch_Conrtol?1damper?1Compare?5To?5@ 10084620     Analog_Solution_capi.obj
 0002:00009658       ??_C@_0CO@JJOPIGHA@Winch_Conrtol?1damper?1Compare?5To?5@ 10084658     Analog_Solution_capi.obj
 0002:00009690       ??_C@_0ED@PNHKNHIN@Inputs?1RS232_read?1IMU_read?1Data_@ 10084690     Analog_Solution_capi.obj
 0002:000096e0       ??_C@_0DE@EHBIOHBP@Inputs?1RS232_read?1IMU_read?1Data_@ 100846e0     Analog_Solution_capi.obj
 0002:00009720       ??_C@_0EA@IEJBJIJJ@Winch_Conrtol?1Joystick?5Regelung1@ 10084720     Analog_Solution_capi.obj
 0002:00009770       ??_C@_0EB@JCKGGCLC@Winch_Conrtol?1Joystick?5Regelung1@ 10084770     Analog_Solution_capi.obj
 0002:000097c0       ??_C@_0FA@IMFEHGGE@Inputs?1RS232_read?1IMU_read?1IMU_d@ 100847c0     Analog_Solution_capi.obj
 0002:00009820       ??_C@_04CLCEDBPF@time?$AA@ 10084820     Analog_Solution_capi.obj
 0002:00009828       ??_C@_0FB@IMAOPGIF@Inputs?1RS232_read?1IMU_read?1IMU_d@ 10084828     Analog_Solution_capi.obj
 0002:0000988c       ??_C@_08KLMNJBLI@GPSFlags?$AA@ 1008488c     Analog_Solution_capi.obj
 0002:00009898       ??_C@_0FB@KHCDKFEG@Inputs?1RS232_read?1IMU_read?1IMU_d@ 10084898     Analog_Solution_capi.obj
 0002:000098fc       ??_C@_05EDGDKMME@NbSat?$AA@ 100848fc     Analog_Solution_capi.obj
 0002:00009908       ??_C@_0FB@BMFHCCOJ@Inputs?1RS232_read?1IMU_read?1IMU_d@ 10084908     Analog_Solution_capi.obj
 0002:0000996c       ??_C@_02JPBKMLIA@Mx?$AA@   1008496c     Analog_Solution_capi.obj
 0002:00009970       ??_C@_0FC@BPJHAKEM@Inputs?1RS232_read?1IMU_read?1IMU_d@ 10084970     Analog_Solution_capi.obj
 0002:000099d4       ??_C@_02IGABPKMB@My?$AA@   100849d4     Analog_Solution_capi.obj
 0002:000099d8       ??_C@_0FC@CNKBGIMO@Inputs?1RS232_read?1IMU_read?1IMU_d@ 100849d8     Analog_Solution_capi.obj
 0002:00009a3c       ??_C@_02KNCMKJAC@Mz?$AA@   10084a3c     Analog_Solution_capi.obj
 0002:00009a40       ??_C@_0FB@MBEPBEGL@Inputs?1RS232_read?1IMU_read?1IMU_d@ 10084a40     Analog_Solution_capi.obj
 0002:00009aa4       ??_C@_04JFPLDHAO@year?$AA@ 10084aa4     Analog_Solution_capi.obj
 0002:00009ab0       ??_C@_0FC@BMPMPAHG@Inputs?1RS232_read?1IMU_read?1IMU_d@ 10084ab0     Analog_Solution_capi.obj
 0002:00009b14       ??_C@_0M@GGIBBEGI@nanoseconds?$AA@ 10084b14     Analog_Solution_capi.obj
 0002:00009b28       ??_C@_0FC@DHNBKDLF@Inputs?1RS232_read?1IMU_read?1IMU_d@ 10084b28     Analog_Solution_capi.obj
 0002:00009b8c       ??_C@_05MEBAADFH@month?$AA@ 10084b8c     Analog_Solution_capi.obj
 0002:00009b98       ??_C@_0FC@COMKJCPE@Inputs?1RS232_read?1IMU_read?1IMU_d@ 10084b98     Analog_Solution_capi.obj
 0002:00009bfc       ??_C@_03NNBHCDBP@day?$AA@  10084bfc     Analog_Solution_capi.obj
 0002:00009c00       ??_C@_0FC@GBILAEDD@Inputs?1RS232_read?1IMU_read?1IMU_d@ 10084c00     Analog_Solution_capi.obj
 0002:00009c64       ??_C@_04LMOJGCPE@hour?$AA@ 10084c64     Analog_Solution_capi.obj
 0002:00009c70       ??_C@_0FC@HIJADFHC@Inputs?1RS232_read?1IMU_read?1IMU_d@ 10084c70     Analog_Solution_capi.obj
 0002:00009cd4       ??_C@_03KLIPLJLL@min?$AA@  10084cd4     Analog_Solution_capi.obj
 0002:00009cd8       ??_C@_0FC@FDLNGGLB@Inputs?1RS232_read?1IMU_read?1IMU_d@ 10084cd8     Analog_Solution_capi.obj
 0002:00009d3c       ??_C@_03KHPNBODO@sec?$AA@  10084d3c     Analog_Solution_capi.obj
 0002:00009d40       ??_C@_0FB@HNBGEJKM@Inputs?1RS232_read?1IMU_read?1IMU_d@ 10084d40     Analog_Solution_capi.obj
 0002:00009da4       ??_C@_07GIPHOCKM@Time_sr?$AA@ 10084da4     Analog_Solution_capi.obj
 0002:00009db0       ??_C@_0FC@BIPFADCF@Inputs?1RS232_read?1IMU_read?1IMU_d@ 10084db0     Analog_Solution_capi.obj
 0002:00009e14       ??_C@_09PHBIEJMN@longitude?$AA@ 10084e14     Analog_Solution_capi.obj
 0002:00009e20       ??_C@_0FC@DDNIFAOG@Inputs?1RS232_read?1IMU_read?1IMU_d@ 10084e20     Analog_Solution_capi.obj
 0002:00009e84       ??_C@_06LNLHEAAG@height?$AA@ 10084e84     Analog_Solution_capi.obj
 0002:00009e90       ??_C@_0FC@CKMDGBKH@Inputs?1RS232_read?1IMU_read?1IMU_d@ 10084e90     Analog_Solution_capi.obj
 0002:00009ef4       ??_C@_08IPNLHJNB@latitude?$AA@ 10084ef4     Analog_Solution_capi.obj
 0002:00009f00       ??_C@_0FC@BKCLAEAC@Inputs?1RS232_read?1IMU_read?1IMU_d@ 10084f00     Analog_Solution_capi.obj
 0002:00009f64       ??_C@_06NPFPHNBC@v_east?$AA@ 10084f64     Analog_Solution_capi.obj
 0002:00009f70       ??_C@_0FC@DBAGFHMB@Inputs?1RS232_read?1IMU_read?1IMU_d@ 10084f70     Analog_Solution_capi.obj
 0002:00009fd4       ??_C@_07DDAJOGFN@v_north?$AA@ 10084fd4     Analog_Solution_capi.obj
 0002:00009fe0       ??_C@_0FC@CIBNGGIA@Inputs?1RS232_read?1IMU_read?1IMU_d@ 10084fe0     Analog_Solution_capi.obj
 0002:0000a044       ??_C@_06LFMEHBJG@v_down?$AA@ 10085044     Analog_Solution_capi.obj
 0002:0000a050       ??_C@_0FC@GHFMPAEH@Inputs?1RS232_read?1IMU_read?1IMU_d@ 10085050     Analog_Solution_capi.obj
 0002:0000a0b4       ??_C@_07MBJMFGGL@heading?$AA@ 100850b4     Analog_Solution_capi.obj
 0002:0000a0c0       ??_C@_0FC@DALDKKNM@Inputs?1RS232_read?1IMU_read?1IMU_d@ 100850c0     Analog_Solution_capi.obj
 0002:0000a124       ??_C@_08GHGAAJPE@Altitude?$AA@ 10085124     Analog_Solution_capi.obj
 0002:0000a130       ??_C@_0FB@NONFPEGD@Inputs?1RS232_read?1IMU_read?1IMU_d@ 10085130     Analog_Solution_capi.obj
 0002:0000a194       ??_C@_08NNMDAM@lat_filt?$AA@ 10085194     Analog_Solution_capi.obj
 0002:0000a1a0       ??_C@_0FC@BCDIOCKE@Inputs?1RS232_read?1IMU_read?1IMU_d@ 100851a0     Analog_Solution_capi.obj
 0002:0000a204       ??_C@_09HIBOPDBA@long_filt?$AA@ 10085204     Analog_Solution_capi.obj
 0002:0000a210       ??_C@_0FC@DJBFLBGH@Inputs?1RS232_read?1IMU_read?1IMU_d@ 10085210     Analog_Solution_capi.obj
 0002:0000a274       ??_C@_0M@CCDEJLAN@height_filt?$AA@ 10085274     Analog_Solution_capi.obj
 0002:0000a288       ??_C@_0FB@LAFJOPCC@Inputs?1RS232_read?1IMU_read?1IMU_d@ 10085288     Analog_Solution_capi.obj
 0002:0000a2ec       ??_C@_02IPGJIHBB@Vx?$AA@   100852ec     Analog_Solution_capi.obj
 0002:0000a2f0       ??_C@_0FC@BDINBPLJ@Inputs?1RS232_read?1IMU_read?1IMU_d@ 100852f0     Analog_Solution_capi.obj
 0002:0000a354       ??_C@_02JGHCLGFA@Vy?$AA@   10085354     Analog_Solution_capi.obj
 0002:0000a358       ??_C@_0FC@CBLLHNDL@Inputs?1RS232_read?1IMU_read?1IMU_d@ 10085358     Analog_Solution_capi.obj
 0002:0000a3bc       ??_C@_02LNFPOFJD@Vz?$AA@   100853bc     Analog_Solution_capi.obj
 0002:0000a3c0       ??_C@_0FA@FOIBDAOC@Inputs?1RS232_read?1IMU_read?1IMU_d@ 100853c0     Analog_Solution_capi.obj
 0002:0000a420       ??_C@_02JDNACDDI@q1?$AA@   10085420     Analog_Solution_capi.obj
 0002:0000a428       ??_C@_0FB@IIAHAFNG@Inputs?1RS232_read?1IMU_read?1IMU_d@ 10085428     Analog_Solution_capi.obj
 0002:0000a48c       ??_C@_02LIPNHAPL@q2?$AA@   1008548c     Analog_Solution_capi.obj
 0002:0000a490       ??_C@_0FB@LKDBGHFE@Inputs?1RS232_read?1IMU_read?1IMU_d@ 10085490     Analog_Solution_capi.obj
 0002:0000a4f4       ??_C@_02KBOGEBLK@q3?$AA@   100854f4     Analog_Solution_capi.obj
 0002:0000a4f8       ??_C@_0FB@PFHAPBJD@Inputs?1RS232_read?1IMU_read?1IMU_d@ 100854f8     Analog_Solution_capi.obj
 0002:0000a55c       ??_C@_02OOKHNHHN@q4?$AA@   1008555c     Analog_Solution_capi.obj
 0002:0000a560       ??_C@_0FA@CAFKLLKP@Inputs?1RS232_read?1IMU_read?1IMU_d@ 10085560     Analog_Solution_capi.obj
 0002:0000a5c0       ??_C@_02JCINEOFG@Gx?$AA@   100855c0     Analog_Solution_capi.obj
 0002:0000a5c8       ??_C@_0FB@IABEODHA@Inputs?1RS232_read?1IMU_read?1IMU_d@ 100855c8     Analog_Solution_capi.obj
 0002:0000a62c       ??_C@_02ILJGHPBH@Gy?$AA@   1008562c     Analog_Solution_capi.obj
 0002:0000a630       ??_C@_0FB@LCCCIBPC@Inputs?1RS232_read?1IMU_read?1IMU_d@ 10085630     Analog_Solution_capi.obj
 0002:0000a694       ??_C@_02KALLCMNE@Gz?$AA@   10085694     Analog_Solution_capi.obj
 0002:0000a698       ??_C@_0FA@EONGKAOO@Inputs?1RS232_read?1IMU_read?1IMU_d@ 10085698     Analog_Solution_capi.obj
 0002:0000a6f8       ??_C@_02JGAADCOE@Ax?$AA@   100856f8     Analog_Solution_capi.obj
 0002:0000a700       ??_C@_0FB@IBKBBOGN@Inputs?1RS232_read?1IMU_read?1IMU_d@ 10085700     Analog_Solution_capi.obj
 0002:0000a764       ??_C@_02IPBLADKF@Ay?$AA@   10085764     Analog_Solution_capi.obj
 0002:0000a768       ??_C@_0FB@LDJHHMOP@Inputs?1RS232_read?1IMU_read?1IMU_d@ 10085768     Analog_Solution_capi.obj
 0002:0000a7cc       ??_C@_02KEDGFAGG@Az?$AA@   100857cc     Analog_Solution_capi.obj
 0002:0000a7d0       ??_C@_0EJ@GEJENCKB@Inputs?1RS232_read?1QSC?9100?5F?1RS23@ 100857d0     Analog_Solution_capi.obj
 0002:0000a828       ??_C@_0EJ@EPLJIBGC@Inputs?1RS232_read?1QSC?9100?5F?1RS23@ 10085828     Analog_Solution_capi.obj
 0002:0000a880       ??_C@_0EJ@FGKCLACD@Inputs?1RS232_read?1QSC?9100?5F?1RS23@ 10085880     Analog_Solution_capi.obj
 0002:0000a8d8       ??_C@_0EJ@BJODCGOE@Inputs?1RS232_read?1QSC?9100?5F?1RS23@ 100858d8     Analog_Solution_capi.obj
 0002:0000a930       ??_C@_0FA@BOKCMBEG@Inputs?1RS232_read?1QSC?9100?5F?1RS23@ 10085930     Analog_Solution_capi.obj
 0002:0000a990       ??_C@_0FD@EPPBOPDM@Inputs?1RS232_read?1QSC?9100?5F?1RS23@ 10085990     Analog_Solution_capi.obj
 0002:0000a9f8       ??_C@_0FI@JPPDGNKP@Inputs?1RS232_read?1QSC?9100?5F?1RS23@ 100859f8     Analog_Solution_capi.obj
 0002:0000aa68       ??_C@_0EO@PGODKAAG@Inputs?1RS232_read?1QSC?9100?5F?1RS23@ 10085a68     Analog_Solution_capi.obj
 0002:0000aac8       ??_C@_0EO@NNMOPDMF@Inputs?1RS232_read?1QSC?9100?5F?1RS23@ 10085ac8     Analog_Solution_capi.obj
 0002:0000ab28       ??_C@_0EO@LBEDNKNG@Inputs?1RS232_read?1QSC?9100?5F?1RS23@ 10085b28     Analog_Solution_capi.obj
 0002:0000ab88       ??_C@_0EO@JKGOIJBF@Inputs?1RS232_read?1QSC?9100?5F?1RS23@ 10085b88     Analog_Solution_capi.obj
 0002:0000abe8       ??_C@_0EO@IMCDPDGG@Inputs?1RS232_read?1QSC?9100?5F?1RS23@ 10085be8     Analog_Solution_capi.obj
 0002:0000ac48       ??_C@_0EO@KHAOKAKF@Inputs?1RS232_read?1QSC?9100?5F?1RS23@ 10085c48     Analog_Solution_capi.obj
 0002:0000aca8       ??_C@_0EO@DOADCPHG@Inputs?1RS232_read?1QSC?9100?5F?1RS23@ 10085ca8     Analog_Solution_capi.obj
 0002:0000ad08       ??_C@_0EO@BFCOHMLF@Inputs?1RS232_read?1QSC?9100?5F?1RS23@ 10085d08     Analog_Solution_capi.obj
 0002:0000ad68       ??_C@_0EM@NAMCFIKP@Inputs?1RS232_read?1QSC?9100?5F?1RS23@ 10085d68     Analog_Solution_capi.obj
 0002:0000adc8       ??_C@_0EM@PLOPALGM@Inputs?1RS232_read?1QSC?9100?5F?1RS23@ 10085dc8     Analog_Solution_capi.obj
 0002:0000ae28       ??_C@_0EM@OCPEDKCN@Inputs?1RS232_read?1QSC?9100?5F?1RS23@ 10085e28     Analog_Solution_capi.obj
 0002:0000ae88       ??_C@_0EM@KNLFKMOK@Inputs?1RS232_read?1QSC?9100?5F?1RS23@ 10085e88     Analog_Solution_capi.obj
 0002:0000aee8       ??_C@_0FC@MOICAPLG@Inputs?1RS232_read?1QSC?9100?5F?1RS23@ 10085ee8     Analog_Solution_capi.obj
 0002:0000af50       ??_C@_0FC@OFKPFMHF@Inputs?1RS232_read?1QSC?9100?5F?1RS23@ 10085f50     Analog_Solution_capi.obj
 0002:0000afb8       ??_C@_0FC@PMLEGNDE@Inputs?1RS232_read?1QSC?9100?5F?1RS23@ 10085fb8     Analog_Solution_capi.obj
 0002:0000b020       ??_C@_0FC@LDPFPLPD@Inputs?1RS232_read?1QSC?9100?5F?1RS23@ 10086020     Analog_Solution_capi.obj
 0002:0000b088       ??_C@_0FC@KKOOMKLC@Inputs?1RS232_read?1QSC?9100?5F?1RS23@ 10086088     Analog_Solution_capi.obj
 0002:0000b0f0       ??_C@_0FC@IBMDJJHB@Inputs?1RS232_read?1QSC?9100?5F?1RS23@ 100860f0     Analog_Solution_capi.obj
 0002:0000b158       ??_C@_0FC@JINIKIDA@Inputs?1RS232_read?1QSC?9100?5F?1RS23@ 10086158     Analog_Solution_capi.obj
 0002:0000b1c0       ??_C@_0FC@BPEALEPP@Inputs?1RS232_read?1QSC?9100?5F?1RS23@ 100861c0     Analog_Solution_capi.obj
 0002:0000b228       ??_C@_0EN@IDAGNKLD@Inputs?1RS232_read?1QSC?9100?5F?1RS23@ 10086228     Analog_Solution_capi.obj
 0002:0000b288       ??_C@_0EN@KICLIJHA@Inputs?1RS232_read?1QSC?9100?5F?1RS23@ 10086288     Analog_Solution_capi.obj
 0002:0000b2e8       ??_C@_0EN@LBDALIDB@Inputs?1RS232_read?1QSC?9100?5F?1RS23@ 100862e8     Analog_Solution_capi.obj
 0002:0000b348       ??_C@_0EN@POHBCOPG@Inputs?1RS232_read?1QSC?9100?5F?1RS23@ 10086348     Analog_Solution_capi.obj
 0002:0000b3a8       ??_C@_0FA@LBJBIEHC@Inputs?1RS232_read?1QSC?9100?5F?1RS23@ 100863a8     Analog_Solution_capi.obj
 0002:0000b408       ??_C@_0BB@CFEOEMDC@InitialCondition?$AA@ 10086408     Analog_Solution_capi.obj
 0002:0000b41c       ??_C@_02KKFPAPOP@P1?$AA@   1008641c     Analog_Solution_capi.obj
 0002:0000b420       ??_C@_02IBHCFMCM@P2?$AA@   10086420     Analog_Solution_capi.obj
 0002:0000b424       ??_C@_02JIGJGNGN@P3?$AA@   10086424     Analog_Solution_capi.obj
 0002:0000b428       ??_C@_02NHCIPLKK@P4?$AA@   10086428     Analog_Solution_capi.obj
 0002:0000b42c       ??_C@_02MODDMKOL@P5?$AA@   1008642c     Analog_Solution_capi.obj
 0002:0000b430       ??_C@_0BB@JJMGKOG@Outputs?1Constant?$AA@ 10086430     Analog_Solution_capi.obj
 0002:0000b444       ??_C@_05LPIJGKJ@Value?$AA@ 10086444     Analog_Solution_capi.obj
 0002:0000b44c       ??_C@_0BJ@MOBIHFCC@Outputs?1PCI?56221?5PFI?5DO?5?$AA@ 1008644c     Analog_Solution_capi.obj
 0002:0000b46c       ??_C@_02OFBOJJCI@P6?$AA@   1008646c     Analog_Solution_capi.obj
 0002:0000b470       ??_C@_02PMAFKIGJ@P7?$AA@   10086470     Analog_Solution_capi.obj
 0002:0000b474       ??_C@_0BE@IHMMINGB@Outputs?1PCI?96221?5DA?$AA@ 10086474     Analog_Solution_capi.obj
 0002:0000b48c       ??_C@_0BE@BJEPKAOP@Outputs?1PCI?96221?5DO?$AA@ 1008648c     Analog_Solution_capi.obj
 0002:0000b4a4       ??_C@_0CC@ILEKGBLG@Spooling_Pos_Controlled?1Constant@ 100864a4     Analog_Solution_capi.obj
 0002:0000b4cc       ??_C@_0CJ@LAMFHMAG@Spooling_Pos_Controlled?1Spooling@ 100864cc     Analog_Solution_capi.obj
 0002:0000b500       ??_C@_0CO@OKJHLNFP@Spooling_Pos_Controlled?1erste?5Gr@ 10086500     Analog_Solution_capi.obj
 0002:0000b538       ??_C@_04OMOMKKFL@Gain?$AA@ 10086538     Analog_Solution_capi.obj
 0002:0000b540       ??_C@_0M@KNNCJG@DelayLength?$AA@ 10086540     Analog_Solution_capi.obj
 0002:0000b550       ??_C@_0DA@LABAHCPP@Spooling_Speed_Controlled?1erste?5@ 10086550     Analog_Solution_capi.obj
 0002:0000b58c       ??_C@_0BH@MEMCPHID@Winch_Conrtol?1Constant?$AA@ 1008658c     Analog_Solution_capi.obj
 0002:0000b5a8       ??_C@_0BI@JJAFEEBM@Winch_Conrtol?1Constant2?$AA@ 100865a8     Analog_Solution_capi.obj
 0002:0000b5c4       ??_C@_0BI@IABOHFFN@Winch_Conrtol?1Constant3?$AA@ 100865c4     Analog_Solution_capi.obj
 0002:0000b5e0       ??_C@_0CH@MAMIPFCA@Winch_Conrtol?1konstante?5Ausrollg@ 100865e0     Analog_Solution_capi.obj
 0002:0000b610       ??_C@_0CI@PNPDOPIP@Winch_Conrtol?1konstante?5Ausrollg@ 10086610     Analog_Solution_capi.obj
 0002:0000b640       ??_C@_0CH@PFNIPLKG@Winch_Conrtol?1konstante?5Einrollg@ 10086640     Analog_Solution_capi.obj
 0002:0000b670       ??_C@_09HLCHFPPJ@Threshold?$AA@ 10086670     Analog_Solution_capi.obj
 0002:0000b67c       ??_C@_0L@FBCGKKEN@UpperLimit?$AA@ 1008667c     Analog_Solution_capi.obj
 0002:0000b68c       ??_C@_0L@DGFJOHKP@LowerLimit?$AA@ 1008668c     Analog_Solution_capi.obj
 0002:0000b69c       ??_C@_0O@KHJPNGBD@InitialStates?$AA@ 1008669c     Analog_Solution_capi.obj
 0002:0000b6ac       ??_C@_0CB@MFLOHPAN@Inputs?1Analog?5Inputs?1PCI?96221?5AD@ 100866ac     Analog_Solution_capi.obj
 0002:0000b6d4       ??_C@_0CC@KDEJCOJG@Inputs?1Digital?5Inputs?1PCI?96221?5D@ 100866d4     Analog_Solution_capi.obj
 0002:0000b6fc       ??_C@_0CE@NCNCGEBF@Logging?1Time_Scope_trigger?1Const@ 100866fc     Analog_Solution_capi.obj
 0002:0000b728       ??_C@_0CF@KLFCDBDN@Logging?1Time_Scope_trigger?1Const@ 10086728     Analog_Solution_capi.obj
 0002:0000b754       ??_C@_0CF@IAHPGCPO@Logging?1Time_Scope_trigger?1Const@ 10086754     Analog_Solution_capi.obj
 0002:0000b780       ??_C@_0CN@PBEENJCP@Spooling_Speed_Controlled?1Subsys@ 10086780     Analog_Solution_capi.obj
 0002:0000b7b8       ??_C@_0CO@GNHNHODC@Spooling_Speed_Controlled?1Subsys@ 100867b8     Analog_Solution_capi.obj
 0002:0000b7f0       ??_C@_0CH@KMMBHPDL@Winch_Conrtol?1Emergency?1Beschleu@ 100867f0     Analog_Solution_capi.obj
 0002:0000b820       ??_C@_0DB@MGPBHIGN@Winch_Conrtol?1Emergency?1obere?5Kr@ 10086820     Analog_Solution_capi.obj
 0002:0000b85c       ??_C@_0DC@ICACGKOK@Winch_Conrtol?1Emergency?1untere?5K@ 1008685c     Analog_Solution_capi.obj
 0002:0000b898       ??_C@_0CC@MCCDDIPK@Winch_Conrtol?1Subsystem?1Constant@ 10086898     Analog_Solution_capi.obj
 0002:0000b8c0       ??_C@_0CC@NLDIAJLL@Winch_Conrtol?1Subsystem?1Constant@ 100868c0     Analog_Solution_capi.obj
 0002:0000b8e8       ??_C@_0CE@BEFDCKMJ@Winch_Conrtol?1damper?1Beschleunig@ 100868e8     Analog_Solution_capi.obj
 0002:0000b914       ??_C@_0BP@BBAPPPCB@Winch_Conrtol?1damper?1Constant1?$AA@ 10086914     Analog_Solution_capi.obj
 0002:0000b940       ??_C@_0EC@KGGBJGDP@Input?5conditioning?5and?5estimator@ 10086940     Analog_Solution_capi.obj
 0002:0000b990       ??_C@_02HLJNLEKG@P8?$AA@   10086990     Analog_Solution_capi.obj
 0002:0000b994       ??_C@_0CI@PMDECOAC@Inputs?1RS232_read?1QSC?9100?5F?1Enab@ 10086994     Analog_Solution_capi.obj
 0002:0000b9c4       ??_C@_0CI@NHBJHNMB@Inputs?1RS232_read?1QSC?9100?5F?1Enab@ 100869c4     Analog_Solution_capi.obj
 0002:0000b9f4       ??_C@_0CI@MOACEMIA@Inputs?1RS232_read?1QSC?9100?5F?1Enab@ 100869f4     Analog_Solution_capi.obj
 0002:0000ba24       ??_C@_0CI@IBEDNKEH@Inputs?1RS232_read?1QSC?9100?5F?1Enab@ 10086a24     Analog_Solution_capi.obj
 0002:0000ba54       ??_C@_0CJ@FDEBJHNI@Inputs?1RS232_read?1QSC?9100?5F?1FIFO@ 10086a54     Analog_Solution_capi.obj
 0002:0000ba88       ??_C@_0CJ@HIGMMEBL@Inputs?1RS232_read?1QSC?9100?5F?1FIFO@ 10086a88     Analog_Solution_capi.obj
 0002:0000babc       ??_C@_0CJ@GBHHPFFK@Inputs?1RS232_read?1QSC?9100?5F?1FIFO@ 10086abc     Analog_Solution_capi.obj
 0002:0000baf0       ??_C@_0CJ@CODGGDJN@Inputs?1RS232_read?1QSC?9100?5F?1FIFO@ 10086af0     Analog_Solution_capi.obj
 0002:0000bb24       ??_C@_0CD@FCDIMDFJ@Inputs?1RS232_read?1QSC?9100?5F?1Setu@ 10086b24     Analog_Solution_capi.obj
 0002:0000bb50       ??_C@_02GCIGIFOH@P9?$AA@   10086b50     Analog_Solution_capi.obj
 0002:0000bb54       ??_C@_03OPFJJGBF@P10?$AA@  10086b54     Analog_Solution_capi.obj
 0002:0000bb58       ??_C@_0CD@HJBFJAJK@Inputs?1RS232_read?1QSC?9100?5F?1Setu@ 10086b58     Analog_Solution_capi.obj
 0002:0000bb84       ??_C@_0CD@GAAOKBNL@Inputs?1RS232_read?1QSC?9100?5F?1Setu@ 10086b84     Analog_Solution_capi.obj
 0002:0000bbb0       ??_C@_0CD@CPEPDHBM@Inputs?1RS232_read?1QSC?9100?5F?1Setu@ 10086bb0     Analog_Solution_capi.obj
 0002:0000bbe0       ??_C@_0ED@BDBIMFCG@Winch_Conrtol?1Joystick?5Regelung1@ 10086be0     Analog_Solution_capi.obj
 0002:0000bc30       ??_C@_0EB@DGCMOLMD@Winch_Conrtol?1Joystick?5Regelung1@ 10086c30     Analog_Solution_capi.obj
 0002:0000bc80       ??_C@_0EC@PEJONHON@Winch_Conrtol?1Joystick?5Regelung1@ 10086c80     Analog_Solution_capi.obj
 0002:0000bcd0       ??_C@_0DH@DDOHIGD@Winch_Conrtol?1Joystick?5Regelung1@ 10086cd0     Analog_Solution_capi.obj
 0002:0000bd14       ??_C@_0DC@MIMBGHEA@Winch_Conrtol?1Joystick?5Regelung1@ 10086d14     Analog_Solution_capi.obj
 0002:0000bd50       ??_C@_0CO@JIMIIFBJ@Winch_Conrtol?1damper?1Compare?5To?5@ 10086d50     Analog_Solution_capi.obj
 0002:0000bd88       ??_C@_0CP@EKEKEFBJ@Winch_Conrtol?1damper?1Compare?5To?5@ 10086d88     Analog_Solution_capi.obj
 0002:0000bdc0       ??_C@_0DK@BDNPHAHM@Inputs?1RS232_read?1IMU_read?1Data_@ 10086dc0     Analog_Solution_capi.obj
 0002:0000be08       ??_C@_0O@LILIEJBO@InitialOutput?$AA@ 10086e08     Analog_Solution_capi.obj
 0002:0000be18       ??_C@_0EB@JDIBGBNL@Winch_Conrtol?1Joystick?5Regelung1@ 10086e18     Analog_Solution_capi.obj
 0002:0000be68       ??_C@_0EC@DPCLKPGB@Winch_Conrtol?1Joystick?5Regelung1@ 10086e68     Analog_Solution_capi.obj
 0002:0000beb8       ??_C@_0EJ@KMENFIKJ@Inputs?1RS232_read?1QSC?9100?5F?1RS23@ 10086eb8     Analog_Solution_capi.obj
 0002:0000bf10       ??_C@_07IMLPMLBM@BitMask?$AA@ 10086f10     Analog_Solution_capi.obj
 0002:0000bf20       ??_C@_0EL@PKJKDFDO@Inputs?1RS232_read?1QSC?9100?5F?1RS23@ 10086f20     Analog_Solution_capi.obj
 0002:0000bf80       ??_C@_0EL@NBLHGGPN@Inputs?1RS232_read?1QSC?9100?5F?1RS23@ 10086f80     Analog_Solution_capi.obj
 0002:0000bfe0       ??_C@_0EL@MIKMFHLM@Inputs?1RS232_read?1QSC?9100?5F?1RS23@ 10086fe0     Analog_Solution_capi.obj
 0002:0000c040       ??_C@_0EL@IHONMBHL@Inputs?1RS232_read?1QSC?9100?5F?1RS23@ 10087040     Analog_Solution_capi.obj
 0002:0000c0a0       ??_C@_0EO@PKJBEHOD@Inputs?1RS232_read?1QSC?9100?5F?1RS23@ 100870a0     Analog_Solution_capi.obj
 0002:0000c100       ??_C@_0EO@NBLMBECA@Inputs?1RS232_read?1QSC?9100?5F?1RS23@ 10087100     Analog_Solution_capi.obj
 0002:0000c160       ??_C@_0EO@MIKHCFGB@Inputs?1RS232_read?1QSC?9100?5F?1RS23@ 10087160     Analog_Solution_capi.obj
 0002:0000c1c0       ??_C@_0EO@IHOGLDKG@Inputs?1RS232_read?1QSC?9100?5F?1RS23@ 100871c0     Analog_Solution_capi.obj
 0002:0000c220       ??_C@_05CLFGFKJK@AOsat?$AA@ 10087220     Analog_Solution_capi.obj
 0002:0000c228       ??_C@_0M@EEEKPMNP@Afilt_Winch?$AA@ 10087228     Analog_Solution_capi.obj
 0002:0000c238       ??_C@_0M@DDNECOCP@Bfilt_Winch?$AA@ 10087238     Analog_Solution_capi.obj
 0002:0000c248       ??_C@_0M@KIHBGCEA@Cfilt_Winch?$AA@ 10087248     Analog_Solution_capi.obj
 0002:0000c258       ??_C@_0M@NMOJILMP@Dfilt_Winch?$AA@ 10087258     Analog_Solution_capi.obj
 0002:0000c268       ??_C@_0L@PPNPOOPB@JoyFiltDen?$AA@ 10087268     Analog_Solution_capi.obj
 0002:0000c278       ??_C@_0L@KHGJPOCG@JoyFiltNum?$AA@ 10087278     Analog_Solution_capi.obj
 0002:0000c288       ??_C@_09FODNAAJL@JoyS_gain?$AA@ 10087288     Analog_Solution_capi.obj
 0002:0000c294       ??_C@_09FCAGKPJO@JoyS_ofst?$AA@ 10087294     Analog_Solution_capi.obj
 0002:0000c2a0       ??_C@_08GJOEHFPD@JoyS_sat?$AA@ 100872a0     Analog_Solution_capi.obj
 0002:0000c2ac       ??_C@_09KKHCCEII@JoyW_gain?$AA@ 100872ac     Analog_Solution_capi.obj
 0002:0000c2b8       ??_C@_09KGEJILIN@JoyW_ofst?$AA@ 100872b8     Analog_Solution_capi.obj
 0002:0000c2c4       ??_C@_09NJENFEDN@KspdWinch?$AA@ 100872c4     Analog_Solution_capi.obj
 0002:0000c2d0       ??_C@_0L@MGBBMGDP@NPotSpdEst?$AA@ 100872d0     Analog_Solution_capi.obj
 0002:0000c2e0       ??_C@_0O@LFFAEOHG@PotPosFiltDen?$AA@ 100872e0     Analog_Solution_capi.obj
 0002:0000c2f0       ??_C@_0O@ONOGFOKB@PotPosFiltNum?$AA@ 100872f0     Analog_Solution_capi.obj
 0002:0000c300       ??_C@_08JDGANLJH@Pot_gain?$AA@ 10087300     Analog_Solution_capi.obj
 0002:0000c30c       ??_C@_07PPEKIFKG@Pot_max?$AA@ 1008730c     Analog_Solution_capi.obj
 0002:0000c318       ??_C@_07ONMBGBMJ@Pot_min?$AA@ 10087318     Analog_Solution_capi.obj
 0002:0000c324       ??_C@_08JPFLHEJC@Pot_ofst?$AA@ 10087324     Analog_Solution_capi.obj
 0002:0000c330       ??_C@_06IOHGCHNC@Ts_1ms?$AA@ 10087330     Analog_Solution_capi.obj
 0002:0000c338       ??_C@_05NFIFDEME@Ts_1s?$AA@ 10087338     Analog_Solution_capi.obj
 0002:0000c340       ??_C@_0N@CLKNBFDK@WinchDrumRad?$AA@ 10087340     Analog_Solution_capi.obj
 0002:0000c350       ??_C@_0BC@CCOFNFJD@WinchMotPosAIgain?$AA@ 10087350     Analog_Solution_capi.obj
 0002:0000c368       ??_C@_0BC@LONALAHK@WinchMotTorqueMax?$AA@ 10087368     Analog_Solution_capi.obj
 0002:0000c380       ??_C@_0BA@HKFJBGML@WinchPosFiltDen?$AA@ 10087380     Analog_Solution_capi.obj
 0002:0000c394       ??_C@_0BA@CCOPAGBM@WinchPosFiltNum?$AA@ 10087394     Analog_Solution_capi.obj
 0002:0000c3a8       ??_C@_0P@DCHABPPH@WinchRefSpdSup?$AA@ 100873a8     Analog_Solution_capi.obj
 0002:0000c3bc       ??_C@_0BD@HPPMLCGN@WinchSpdEstFiltDen?$AA@ 100873bc     Analog_Solution_capi.obj
 0002:0000c3d4       ??_C@_0BD@CHEKKCLK@WinchSpdEstFiltNum?$AA@ 100873d4     Analog_Solution_capi.obj
 0002:0000c3ec       ??_C@_0BB@ILCNEEJ@WinchTravelMin_m?$AA@ 100873ec     Analog_Solution_capi.obj
 0002:0000c400       ??_C@_0N@LEBOGCFG@WinchVoltMax?$AA@ 10087400     Analog_Solution_capi.obj
 0002:0000c410       ??_C@_08LLDIHJCK@x0_Winch?$AA@ 10087410     Analog_Solution_capi.obj
 0002:0000c41c       ??_C@_06BNJCAIGJ@double?$AA@ 1008741c     Analog_Solution_capi.obj
 0002:0000c424       ??_C@_06CNMIJIPB@real_T?$AA@ 10087424     Analog_Solution_capi.obj
 0002:0000c42c       ??_C@_0P@IIMKEEHB@unsigned?5short?$AA@ 1008742c     Analog_Solution_capi.obj
 0002:0000c440       ??_C@_08NHGKGJKC@uint16_T?$AA@ 10087440     Analog_Solution_capi.obj
 0002:0000c44c       ??_C@_0O@PPAIJIHF@unsigned?5char?$AA@ 1008744c     Analog_Solution_capi.obj
 0002:0000c45c       ??_C@_09JBMFCIMO@boolean_T?$AA@ 1008745c     Analog_Solution_capi.obj
 0002:0000c468       ??_C@_07NCEHLPOC@uint8_T?$AA@ 10087468     Analog_Solution_capi.obj
 0002:0000c474       ??_C@_07MMLECJPG@numeric?$AA@ 10087474     Analog_Solution_capi.obj
 0002:0000c480       ??_C@_0O@CEKHAEHG@serialfifoptr?$AA@ 10087480     Analog_Solution_capi.obj
 0002:0000c490       ??_C@_0N@OFHMGPAL@unsigned?5int?$AA@ 10087490     Analog_Solution_capi.obj
 0002:0000c4a0       ??_C@_08CCMIKNJF@uint32_T?$AA@ 100874a0     Analog_Solution_capi.obj
 0002:0000c4ac       ??_C@_05KNFBNCOH@float?$AA@ 100874ac     Analog_Solution_capi.obj
 0002:0000c4b4       _serialfifoground          100874b4     xpc_datatype_ground.obj
 0002:0000c4c0       _bcmsg1553ground           100874c0     xpc_datatype_ground.obj
 0002:0000c4d0       _bcstatground              100874d0     xpc_datatype_ground.obj
 0002:0000c4e8       _bmmsg1553ground           100874e8     xpc_datatype_ground.obj
 0002:0000c524       ??_C@_0BI@INNPNFJN@Memory?5Allocation?5Error?$AA@ 10087524     rtw_modelmap_utils.obj
 0002:0000c540       ??_C@_1HC@IFMGIDHA@?$AAC?$AA?3?$AA?2?$AAP?$AAR?$AAO?$AAG?$AAR?$AAA?$AA?$HO?$AA1?$AA?2?$AAM?$AAA?$AAT?$AAL?$AAA?$AAB?$AA?2?$AAR?$AA2?$AA0?$AA1?$AA7?$AAa?$AA?2?$AAr?$AAt?$AAw?$AA?2?$AAc?$AA?2@ 10087540     rtw_modelmap_utils.obj
 0002:0000c5c8       ??_C@_1CI@OEAJCJND@?$AAj?$AA?5?$AA?$DN?$AA?$DN?$AA?5?$AAe?$AAn?$AAc?$AAo?$AAd?$AAe?$AAd?$AAP?$AAa?$AAt?$AAh?$AAL?$AAe?$AAn?$AA?$AA@ 100875c8     rtw_modelmap_utils.obj
 0002:0000c5f8       ??_C@_1DC@NFAOIFKB@?$AAe?$AAn?$AAc?$AAo?$AAd?$AAe?$AAd?$AAP?$AAa?$AAt?$AAh?$AA?$FL?$AAj?$AA?9?$AA1?$AA?$FN?$AA?5?$AA?$DN?$AA?$DN?$AA?5?$AA?8?$AA?2?$AA0?$AA?8?$AA?$AA@ 100875f8     rtw_modelmap_utils.obj
 0002:0000c634       ??_C@_1DI@FLNJGPEE@?$AAs?$AAi?$AAg?$AAC?$AAo?$AAm?$AAp?$AAl?$AAe?$AAx?$AAi?$AAt?$AAy?$AA?$FL?$AA?$CK?$AAs?$AAi?$AAg?$AAI?$AAd?$AAx?$AA?$FN?$AA?5?$AA?$CB?$AA?$DN?$AA?5?$AA1?$AA?$AA@ 10087634     rtw_modelmap_utils.obj
 0002:0000c678       ??_C@_1KI@OFELMGBG@?$AA?$CI?$AA?$CI?$AA?$CI?$AAd?$AAa?$AAt?$AAa?$AAT?$AAy?$AAp?$AAe?$AAM?$AAa?$AAp?$AA?$CJ?$AA?$FL?$AA?$CI?$AA?$CI?$AA?$CI?$AAs?$AAt?$AAa?$AAt?$AAe?$AAs?$AA?$CJ?$AA?$FL?$AA?$CI?$AAi?$AA?$CJ?$AA?$FN?$AA?4@ 10087678     rtw_modelmap_utils.obj
 0002:0000c744       ??_C@_1DA@ILCMPHNE@?$AAf?$AAu?$AAl?$AAl?$AAP?$AAa?$AAt?$AAh?$AA?5?$AA?$CB?$AA?$DN?$AA?5?$AA?$CI?$AA?$CI?$AAv?$AAo?$AAi?$AAd?$AA?5?$AA?$CK?$AA?$CJ?$AA0?$AA?$CJ?$AA?$AA@ 10087744     rtw_modelmap_utils.obj
 0002:0000c780       ??_C@_1CI@OEPPFCCA@?$AAp?$AAa?$AAt?$AAh?$AA?5?$AA?$CB?$AA?$DN?$AA?5?$AA?$CI?$AA?$CI?$AAv?$AAo?$AAi?$AAd?$AA?5?$AA?$CK?$AA?$CJ?$AA0?$AA?$CJ?$AA?$AA@ 10087780     rtw_modelmap_utils.obj
 0002:0000c7b0       ??_C@_1FK@GLJIMFHB@?$AA?$CI?$AA?$CI?$AAm?$AAm?$AAi?$AA?$CJ?$AA?9?$AA?$DO?$AAI?$AAn?$AAs?$AAt?$AAa?$AAn?$AAc?$AAe?$AAM?$AAa?$AAp?$AA?4?$AAf?$AAu?$AAl?$AAl?$AAP?$AAa?$AAt?$AAh?$AA?$CJ?$AA?5?$AA?$DN?$AA?$DN@ 100877b0     rtw_modelmap_utils.obj
 0002:0000c81c       ??_C@_1DG@HPCJGNCE@?$AAm?$AAm?$AAi?$AAP?$AAa?$AAt?$AAh?$AA?$FL?$AAp?$AAa?$AAt?$AAh?$AAL?$AAe?$AAn?$AA?9?$AA1?$AA?$FN?$AA?5?$AA?$DN?$AA?$DN?$AA?5?$AA?8?$AA?2?$AA0?$AA?8?$AA?$AA@ 1008781c     rtw_modelmap_utils.obj
 0002:0000c85c       ??_C@_1DM@DBAOGGOO@?$AAm?$AAm?$AAi?$AAP?$AAa?$AAt?$AAh?$AA?$FL?$AAm?$AAm?$AAi?$AAP?$AAa?$AAt?$AAh?$AAL?$AAe?$AAn?$AA?9?$AA1?$AA?$FN?$AA?5?$AA?$DN?$AA?$DN?$AA?5?$AA?8?$AA?2?$AA0?$AA?8?$AA?$AA@ 1008785c     rtw_modelmap_utils.obj
 0002:0000c8a4       ??_C@_1DC@LHIAKAFE@?$AAb?$AAl?$AAo?$AAc?$AAk?$AAP?$AAa?$AAt?$AAh?$AA?5?$AA?$CB?$AA?$DN?$AA?5?$AA?$CI?$AA?$CI?$AAv?$AAo?$AAi?$AAd?$AA?5?$AA?$CK?$AA?$CJ?$AA0?$AA?$CJ?$AA?$AA@ 100878a4     rtw_modelmap_utils.obj
 0002:0000c8e0       ??_C@_1GI@KIEJKPGC@?$AAf?$AAu?$AAl?$AAl?$AAS?$AAt?$AAa?$AAt?$AAe?$AAB?$AAl?$AAo?$AAc?$AAk?$AAP?$AAa?$AAt?$AAh?$AA?$FL?$AAf?$AAu?$AAl?$AAl?$AAS?$AAt?$AAa?$AAt?$AAe?$AAB?$AAl?$AAo?$AAc@ 100878e0     rtw_modelmap_utils.obj
 0002:0000c960       ??_C@_1EE@DNPIBJHC@?$AA?$CI?$AA?$CI?$AAd?$AAi?$AAm?$AAM?$AAa?$AAp?$AA?$CJ?$AA?$FL?$AA?$CI?$AAm?$AAa?$AAp?$AAI?$AAd?$AAx?$AA?$CJ?$AA?$FN?$AA?4?$AAn?$AAu?$AAm?$AAD?$AAi?$AAm?$AAs?$AA?$CJ?$AA?5?$AA?$DN?$AA?$DN?$AA?5@ 10087960     rtw_modelmap_utils.obj
 0002:0000c9b4       ??_C@_06JFOKFOED@CSTATE?$AA@ 100879b4     rtw_modelmap_utils.obj
 0002:0000c9bc       ??_C@_06FAENGAMN@DSTATE?$AA@ 100879bc     rtw_modelmap_utils.obj
 0002:0000c9c4       ??_C@_1BI@LEBJNOGG@?$AAc?$AAs?$AAv?$AAI?$AAd?$AAx?$AA?5?$AA?$DO?$AA?$DN?$AA?5?$AA0?$AA?$AA@ 100879c4     rtw_modelmap_utils.obj
 0002:0000c9e0       ??_C@_1BA@KDMGHCHP@?$AAT?$AAI?$AAD?$AA?$DN?$AA?$DN?$AA?9?$AA1?$AA?$AA@ 100879e0     rtw_modelmap_utils.obj
 0002:0000c9f4       ??_C@_1DM@DHGKBPCE@?$AAs?$AAi?$AAg?$AAP?$AAa?$AAt?$AAh?$AA?$FL?$AAs?$AAi?$AAg?$AAP?$AAa?$AAt?$AAh?$AAL?$AAe?$AAn?$AA?9?$AA1?$AA?$FN?$AA?5?$AA?$DN?$AA?$DN?$AA?5?$AA?8?$AA?2?$AA0?$AA?8?$AA?$AA@ 100879f4     rtw_modelmap_utils.obj
 0002:0000d2a0       ??_C@_0DJ@FHKINPLE@Unexpected?5itemKind?5?$DN?5DATA_ITEM?5@ 100882a0     rt_logging.obj
 0002:0000d2e4       ??_C@_0DA@IEHFPFCJ@Unexpected?5itemKind?$DN?$CFd?5in?5rt_Pro@ 100882e4     rt_logging.obj
 0002:0000d320       ??_C@_0DA@IFLHJPBO@Unexpected?5itemKind?$DN?$CFd?5in?5rt_Pro@ 10088320     rt_logging.obj
 0002:0000d35c       ??_C@_0DA@IAPIIJJL@Unexpected?5itemKind?$DN?$CFd?5in?5rt_Pro@ 1008835c     rt_logging.obj
 0002:0000d398       ??_C@_0BE@LCIGPJIG@MATLAB?55?40?5MAT?9file?$AA@ 10088398     rt_logging.obj
 0002:0000d3b0       ??_C@_0FB@PCJEAJIB@?$CK?$CK?$CK?5Log?5variable?5?$CFs?5has?5wrapped?5@ 100883b0     rt_logging.obj
 0002:0000d418       ??_C@_0MG@NKMLMOGF@?$CK?$CK?$CK?5To?5avoid?5wrapping?0?5explicitl@ 10088418     rt_logging.obj
 0002:0000d508       ??_C@_0N@IPAEOLLP@_rtw_tmw?4tmw?$AA@ 10088508     rt_logging.obj
 0002:0000d518       ??_C@_04HDOCAJNK@?$CFs?$CFs?$AA@ 10088518     rt_logging.obj
 0002:0000d520       ??_C@_03ELIABIOC@w?$CLb?$AA@ 10088520     rt_logging.obj
 0002:0000d524       ??_C@_0BF@JPILDDFA@?$CK?$CK?$CK?5Error?5opening?5?$CFs?$AA@ 10088524     rt_logging.obj
 0002:0000d540       ??_C@_0BK@EEMDELA@unable?5to?5open?5data?5file?6?$AA@ 10088540     rt_logging.obj
 0002:0000d560       ??_C@_04CGFJFPFD@none?$AA@ 10088560     rt_logging.obj
 0002:0000d568       ??_C@_0EE@LCGFPNON@?$CK?$CK?$CK?5Error?5creating?5signals?5struc@ 10088568     rt_logging.obj
 0002:0000d5bc       ??_C@_0CE@NHECEDMK@?$CK?$CK?$CK?5Error?5creating?5log?5variable?5@ 100885bc     rt_logging.obj
 0002:0000d5e8       ??_C@_0DB@IOCGKAGH@?$CK?$CK?$CK?5Errors?5occurred?5when?5startin@ 100885e8     rt_logging.obj
 0002:0000d624       ??_C@_0BO@BBLOGEBK@?$CK?$CK?$CK?5Memory?5allocation?5error?4?6?$AA@ 10088624     rt_logging.obj
 0002:0000d648       ??_C@_0N@LGFBAGEL@?5?$CIreal?5part?$CJ?$AA@ 10088648     rt_logging.obj
 0002:0000d658       ??_C@_0KH@CGNMHNFE@?5?5?5?5varName?5?5?5?5?5?5?5?5?5?5?$DN?5?$CFs?$CFs?6?5?5?5?5@ 10088658     rt_logging.obj
 0002:0000d720       ??_C@_0LE@OALKKEFM@?5?5?5?5varName?5?5?5?5?5?5?5?5?5?5?$DN?5?$CFs?5?$CIcompl@ 10088720     rt_logging.obj
 0002:0000d7f8       ??_C@_0KF@JDDLEOKO@?5?5?5?5varName?5?5?5?5?5?5?5?5?5?5?$DN?5?$CFs?6?5?5?5?5nR@ 100887f8     rt_logging.obj
 0002:0000d8c0       ??_C@_0DP@HPDMIOFM@?$CK?$CK?$CK?5Using?5a?5default?5buffer?5of?5si@ 100888c0     rt_logging.obj
 0002:0000d910       ??_C@_0KE@JEFOLKNF@?6?$CK?$CK?$CK?5Memory?5required?5to?5log?5vari@ 10088910     rt_logging.obj
 0002:0000d9d8       ??_C@_0JP@DKLMHCBI@?$CK?$CK?$CK?5Details?3?6?5?5?5?5?5?5?5varName?5?5?5?5?5@ 100889d8     rt_logging.obj
 0002:0000da98       ??_C@_0CM@CAMILBED@?$CK?$CK?$CK?5Error?5allocating?5memory?5for?5@ 10088a98     rt_logging.obj
 0002:0000dacc       ??_C@_0DF@BBCNMOPM@?$CK?$CK?$CK?5Error?5allocating?5memory?5for?5@ 10088acc     rt_logging.obj
 0002:0000db10       ??_C@_0JP@DBCLPCCI@?$CK?$CK?$CK?5Details?3?6?5?5?5?5?5?5?5varName?5?5?5?5?5@ 10088b10     rt_logging.obj
 0002:0000dbd0       ??_C@_0FK@DPGAOBGA@?$CK?$CK?$CK?5Error?5allocating?5memory?5for?5@ 10088bd0     rt_logging.obj
 0002:0000dc3c       ??_C@_0BI@GGDNPHLJ@?$CK?$CK?$CK?5Error?5writing?5to?5?$CFs?$AA@ 10088c3c     rt_logging.obj
 0002:0000dc58       ??_C@_0CB@IBGJGELG@?$CK?$CK?$CK?5Error?5writing?5?$CFs?5due?5to?3?5?$CFs?6@ 10088c58     rt_logging.obj
 0002:0000dc80       ??_C@_0CN@FLMCHCPB@?$CK?$CK?$CK?5Error?5writing?5log?5variable?5?$CF@ 10088c80     rt_logging.obj
 0002:0000dcb8       ??_C@_0DH@GAJCNOJP@?$CK?$CK?$CK?5Error?5writing?5structure?5log?5@ 10088cb8     rt_logging.obj
 0002:0000dcfc       ??_C@_0BD@POEALECL@?$CK?$CK?5created?5?$CFs?5?$CK?$CK?6?6?$AA@ 10088cfc     rt_logging.obj
 0002:0000dd18       __real@41dfffffffc00000    10088d18     rt_logging.obj
 0002:0000dd28       __real@41efffffffe00000    10088d28     rt_logging.obj
 0002:0000dd38       __real@bfbf9add3afd2773    10088d38     rt_logging.obj
 0002:0000dd50       __xmm@20202020202020202020202020202020 10088d50     rt_logging.obj
 0002:0000dd64       _ptsetfilename             10088d64     xpctarget.obj
 0002:0000dd68       _xmlfile                   10088d68     xpctarget.obj
 0002:0000dd70       ??_C@_0BA@HFNGGPFP@Analog_Solution?$AA@ 10088d70     xpctarget.obj
 0002:0000dd84       ??_C@_0L@CHBJKKFC@xpceSetVar?$AA@ 10088d84     xpctarget.obj
 0002:0000dd94       ??_C@_03LADEHNAB@6?46?$AA@ 10088d94     xpctarget.obj
 0002:0000dd98       _Analog_Solution_BIOMAP    10088d98     appmappingData.obj
 0002:0000e950       _Analog_Solution_LBLMAP    10089950     appmappingData.obj
 0002:0000f508       _Analog_Solution_SIDMAP    1008a508     appmappingData.obj
 0002:000100c0       _Analog_Solution_SBIO      1008b0c0     appmappingData.obj
 0002:000104a8       _Analog_Solution_SLBL      1008b4a8     appmappingData.obj
 0002:00010890       _Analog_Solution_PTIDSMAP  1008b890     appmappingData.obj
 0002:000114b8       _Analog_Solution_PTNAMESMAP 1008c4b8     appmappingData.obj
 0002:000120e0       _Analog_Solution_SPTMAP    1008d0e0     appmappingData.obj
 0002:000126f8       _Analog_Solution_dtmap     1008d6f8     appmappingData.obj
 0002:00012740       _appInfo                   1008d740     appmappingData.obj
 0002:00013658       ??_C@_0ED@LKHIFFLC@Wrong?5number?5of?5input?5arguments?5@ 1008e658     adnipcim.obj
 0002:000136a8       ??_C@_0CI@FOFDKLAN@NI?5?$CFs?3?5Can?8t?5allocate?5temporary?5@ 1008e6a8     adnipcim.obj
 0002:000136d8       ??_C@_0CK@DCEGNCAL@NI?5M?5series?3?5Channel?5?$CFd?5out?5of?5r@ 1008e6d8     adnipcim.obj
 0002:0001370c       ??_C@_0CF@LKNEFAOG@NI?5M?5series?3?5Timeout?5waiting?5for@ 1008e70c     adnipcim.obj
 0002:00013738       __real@417312d000000000    1008e738     adnipcim.obj
 0002:00013744       ??_C@_0DB@HFHLNKLE@Channel?5?$CFd?5exceeds?5the?5max?5DA?5ch@ 1008e744     danipcim.obj
 0002:00013780       ??_C@_0CL@GCJHHCMG@Output?5range?5?$CFd?5is?5not?5supported@ 1008e780     danipcim.obj
 0002:000137b8       ??_C@_0EL@INKCMHEI@Number?5of?5header?5lengths?5is?5not?5@ 1008e7b8     fiforeadhdr.obj
 0002:00013814       ??_C@_0BL@KDJMFPJE@Malloc?5error?3?5fstr?5?$DN?50x?$CFx?6?$AA@ 1008e814     fiforeadhdr.obj
 0002:00013834       ??_C@_0CJ@JOABIDGM@String?5is?5too?5large?5for?5output?5v@ 1008e834     fiforeadhdr.obj
 0002:00013868       ??_C@_0BG@IFAFGHNA@Header?5?$CFd?0?5length?5?$CFd?6?$AA@ 1008e868     fiforeadhdr.obj
 0002:00013884       ??_C@_02HAOIJKIC@?$CFc?$AA@ 1008e884     fiforeadhdr.obj
 0002:00013888       ??_C@_0BP@DPILOFE@Can?8t?5allocate?5memory?5for?5fifo?$AA@ 1008e888     fifowrite.obj
 0002:000138b0       ??_C@_0BC@LNAFOLHA@FIFO?5overflow?3?5?$CFs?$AA@ 1008e8b0     fifowrite.obj
 0002:000138c8       ??_C@_0DM@NHDMCGKF@Input?5port?5width?5is?5less?5than?5th@ 1008e8c8     fifowrite.obj
 0002:00013910       ??_C@_0CF@PLHDIPPP@Port?5number?5exceeds?5input?5port?5c@ 1008e910     filterqua.obj
 0002:0001393c       ??_C@_0CD@JOLOIMLC@Iqueryqua?3?5Unknown?5board?5type?3?5?$CF@ 1008e93c     iqueryqua.obj
 0002:00013968       ??_C@_0BN@JIEFLHEB@?$CFs?3?5Too?5many?5M?5series?5boards?$AA@ 1008e968     pfidonipcim.obj
 0002:0001398c       ??_C@_0DC@CECGIJCE@Attempted?5write?5to?5hardware?5fifo@ 1008e98c     serwritequa.obj
 0002:000139c8       ??_C@_0CN@GIADDCOF@Quatech?5modemcontrol?3?5Unknown?5bo@ 1008e9c8     setupqua.obj
 0002:00013a00       ??_C@_0CC@FIFFDAB@?$CFd?5input?5args?5expected?0?5?$CFd?5passe@ 1008ea00     xpcwalltime.obj
 0002:00013a28       __real@3ee845c8a0ce5129    1008ea28     xpcwalltime.obj
 0002:00013a38       __real@3fcdcd64ffffffff    1008ea38     xpcwalltime.obj
 0002:00013a48       __real@40f5180000000000    1008ea48     xpcwalltime.obj
 0002:00013a58       __real@41cdcd6500000000    1008ea58     xpcwalltime.obj
 0002:00013a64       ??_C@_0M@IMCLKBPP@NI?5PCI?96220?$AA@ 1008ea64     xpcionim.obj
 0002:00013a74       ??_C@_0M@JFDAJALO@NI?5PCI?96221?$AA@ 1008ea74     xpcionim.obj
 0002:00013a84       ??_C@_0P@NGCDCNKM@NI?5PCI?96221?137?$AA@ 1008ea84     xpcionim.obj
 0002:00013a98       ??_C@_0M@OIEHGEPL@NI?5PCI?96224?$AA@ 1008ea98     xpcionim.obj
 0002:00013aa8       ??_C@_0M@PBFMFFLK@NI?5PCI?96225?$AA@ 1008eaa8     xpcionim.obj
 0002:00013ab8       ??_C@_0M@FNOJBKLG@NI?5PCI?96229?$AA@ 1008eab8     xpcionim.obj
 0002:00013ac8       ??_C@_0M@INOJMLMI@NI?5PCI?96230?$AA@ 1008eac8     xpcionim.obj
 0002:00013ad8       ??_C@_0M@LPNPKJEK@NI?5PCI?96232?$AA@ 1008ead8     xpcionim.obj
 0002:00013ae8       ??_C@_0M@KGMEJIAL@NI?5PCI?96233?$AA@ 1008eae8     xpcionim.obj
 0002:00013af8       ??_C@_0M@NLLDGMEO@NI?5PCI?96236?$AA@ 1008eaf8     xpcionim.obj
 0002:00013b08       ??_C@_0M@EFDAEBMA@NI?5PCI?96238?$AA@ 1008eb08     xpcionim.obj
 0002:00013b18       ??_C@_0M@FMCLHAIB@NI?5PCI?96239?$AA@ 1008eb18     xpcionim.obj
 0002:00013b28       ??_C@_0M@IJGELHHK@NI?5PCI?96250?$AA@ 1008eb28     xpcionim.obj
 0002:00013b38       ??_C@_0M@JAHPIGDL@NI?5PCI?96251?$AA@ 1008eb38     xpcionim.obj
 0002:00013b48       ??_C@_0M@ONAIHCHO@NI?5PCI?96254?$AA@ 1008eb48     xpcionim.obj
 0002:00013b58       ??_C@_0M@PEBDEDDP@NI?5PCI?96255?$AA@ 1008eb58     xpcionim.obj
 0002:00013b68       ??_C@_0M@FIKGAMDD@NI?5PCI?96259?$AA@ 1008eb68     xpcionim.obj
 0002:00013b78       ??_C@_0M@IBLMCECJ@NI?5PCI?96280?$AA@ 1008eb78     xpcionim.obj
 0002:00013b88       ??_C@_0M@JIKHBFGI@NI?5PCI?96281?$AA@ 1008eb88     xpcionim.obj
 0002:00013b98       ??_C@_0M@OFNAOBCN@NI?5PCI?96284?$AA@ 1008eb98     xpcionim.obj
 0002:00013ba8       ??_C@_0M@FAHOJPGA@NI?5PCI?96289?$AA@ 1008eba8     xpcionim.obj
 0002:00013bb8       ??_C@_0CI@NFFNBHJA@?$CFs?5?$CIbus?5?$CFd?0?5slot?5?$CFd?$CJ?3?5board?5not?5@ 1008ebb8     xpcionim.obj
 0002:00013be8       ??_C@_0CD@MBDNCLAI@NI?5M?5series?3?5Unknown?5board?5type?5@ 1008ebe8     xpcionim.obj
 0002:00013c14       ??_C@_0BA@JKKBADJB@Quatech?5QSC?9100?$AA@ 1008ec14     quatechinit.obj
 0002:00013c28       ??_C@_0BA@GCFADMEA@Quatech?5ESC?9100?$AA@ 1008ec28     quatechinit.obj
 0002:00013c3c       ??_C@_0BE@HENBPEHA@Quatech?5QSC?9200?1300?$AA@ 1008ec3c     quatechinit.obj
 0002:00013c54       ??_C@_0BF@FBNBGCCE@Quatech?5DSCP?9200?1300?$AA@ 1008ec54     quatechinit.obj
 0002:00013c70       ??_C@_0CH@MBGHNPGI@?$CFs?5?$CIbus?5?$CFd?0slot?5?$CFd?$CJ?3?5board?5not?5p@ 1008ec70     quatechinit.obj
 0002:00013ca0       ??_C@_0CC@DMFKNLL@VendorId?5?$DN?50x?$CFx?0?5DeviceId?5?$DN?50x?$CFx@ 1008eca0     xpcruntime:xpcimports.obj
 0002:00013cc8       ??_C@_0DH@OHCBLNMG@Subsystem?5Device?5ID?5?$DN?50x?$CFx?6Subsy@ 1008ecc8     xpcruntime:xpcimports.obj
 0002:00013d0c       ??_C@_0BD@MMMMEFCM@Class?5Code?5?$DN?50x?$CFx?6?$AA@ 1008ed0c     xpcruntime:xpcimports.obj
 0002:00013d24       ??_C@_0BE@OLDDDNHM@InterruptLine?5?$DN?5?$CFd?6?$AA@ 1008ed24     xpcruntime:xpcimports.obj
 0002:00013d3c       ??_C@_0BF@OLKLEKBD@bus?5?$DN?5?$CFd?0?5slot?5?$DN?5?$CFd?6?$AA@ 1008ed3c     xpcruntime:xpcimports.obj
 0002:00013d58       ??_C@_0CE@DGLLGDFH@?5?5?5?5Phys?5?5?5Virtual?5?5?5Length?5IO?1M@ 1008ed58     xpcruntime:xpcimports.obj
 0002:00013d84       ??_C@_0BI@FEOPLEMG@?$CF08x?5?$CF08x?5?$CF08x?5?5?5?5?5?5?$CFc?6?$AA@ 1008ed84     xpcruntime:xpcimports.obj
 0002:00013da0       ??_C@_0BB@BNNCEDPC@rl32eScopeExists?$AA@ 1008eda0     xpcruntime:xpcimports.obj
 0002:00013db4       ??_C@_0BM@FJBFEGFG@rl32eScopeExists?5not?5found?6?$AA@ 1008edb4     xpcruntime:xpcimports.obj
 0002:00013dd8       ??_C@_0O@BNNGKJEA@rl32eDefScope?$AA@ 1008edd8     xpcruntime:xpcimports.obj
 0002:00013de8       ??_C@_0BJ@CDNOENKA@rl32eDefScope?5not?5found?6?$AA@ 1008ede8     xpcruntime:xpcimports.obj
 0002:00013e08       ??_C@_0P@CKNKILDP@rl32eAddSignal?$AA@ 1008ee08     xpcruntime:xpcimports.obj
 0002:00013e1c       ??_C@_0BK@GMJAJBAI@rl32eAddSignal?5not?5found?6?$AA@ 1008ee1c     xpcruntime:xpcimports.obj
 0002:00013e3c       ??_C@_0BB@LDMIHGCE@rl32eGetSignalNo?$AA@ 1008ee3c     xpcruntime:xpcimports.obj
 0002:00013e50       ??_C@_0BM@LGAMBAID@rl32eGetSignalNo?5not?5found?6?$AA@ 1008ee50     xpcruntime:xpcimports.obj
 0002:00013e74       ??_C@_0O@CFDGALBP@rl32eSetScope?$AA@ 1008ee74     xpcruntime:xpcimports.obj
 0002:00013e84       ??_C@_0BJ@JCLHHIN@rl32eSetScope?5not?5found?6?$AA@ 1008ee84     xpcruntime:xpcimports.obj
 0002:00013ea4       ??_C@_0P@IKMCBMHH@xpceFSScopeSet?$AA@ 1008eea4     xpcruntime:xpcimports.obj
 0002:00013eb8       ??_C@_0BK@JODJPNNH@xpceFSScopeSet?5not?5found?6?$AA@ 1008eeb8     xpcruntime:xpcimports.obj
 0002:00013ed8       ??_C@_0BE@DLACEEJM@rl32eSetTargetScope?$AA@ 1008eed8     xpcruntime:xpcimports.obj
 0002:00013ef0       ??_C@_0BP@JCHFMKPJ@rl32eSetTargetScope?5not?5found?6?$AA@ 1008eef0     xpcruntime:xpcimports.obj
 0002:00013f18       ??_C@_0BJ@LIDLNDHC@rl32eSetTargetScopeSigFt?$AA@ 1008ef18     xpcruntime:xpcimports.obj
 0002:00013f38       ??_C@_0CE@JLGHCFHI@rl32eSetTargetScopeSigFt?5not?5fou@ 1008ef38     xpcruntime:xpcimports.obj
 0002:00013f64       ??_C@_0BI@JAPOIDNG@rl32eRestartAcquisition?$AA@ 1008ef64     xpcruntime:xpcimports.obj
 0002:00013f80       ??_C@_0CD@LLBEFFBO@rl32eRestartAcquisition?5not?5foun@ 1008ef80     xpcruntime:xpcimports.obj
 0002:00013fac       ??_C@_0P@IEIIADJB@xpceScopeAcqOK?$AA@ 1008efac     xpcruntime:xpcimports.obj
 0002:00013fc0       ??_C@_0BK@NJCKNFPN@xpceScopeAcqOK?5not?5found?6?$AA@ 1008efc0     xpcruntime:xpcimports.obj
 0002:00013fe0       ??_C@_0BA@IJINKAHF@xpceRegisterISR?$AA@ 1008efe0     xpcruntime:xpcimports.obj
 0002:00013ff4       ??_C@_0BL@NNDLOEJE@xpceRegisterISR?5not?5found?6?$AA@ 1008eff4     xpcruntime:xpcimports.obj
 0002:00014014       ??_C@_0BC@NLBADGKF@xpceDeRegisterISR?$AA@ 1008f014     xpcruntime:xpcimports.obj
 0002:0001402c       ??_C@_0BN@DCAIKFFD@xpceDeRegisterISR?5not?5found?6?$AA@ 1008f02c     xpcruntime:xpcimports.obj
 0002:00014050       ??_C@_07JPMEPILD@xpcInpB?$AA@ 1008f050     xpcruntime:xpcimports.obj
 0002:0001405c       ??_C@_0BD@PGABEJOL@xpcInpB?5not?5found?6?$AA@ 1008f05c     xpcruntime:xpcimports.obj
 0002:00014074       ??_C@_07KIHBBOKH@xpcInpW?$AA@ 1008f074     xpcruntime:xpcimports.obj
 0002:00014080       ??_C@_0BD@FPCJFMCC@xpcInpW?5not?5found?6?$AA@ 1008f080     xpcruntime:xpcimports.obj
 0002:00014098       ??_C@_08KDIAJBOP@xpcInpDW?$AA@ 1008f098     xpcruntime:xpcimports.obj
 0002:000140a4       ??_C@_0BE@PIELDNIL@xpcInpDW?5not?5found?6?$AA@ 1008f0a4     xpcruntime:xpcimports.obj
 0002:000140bc       ??_C@_08PJFMOIGO@xpcOutpB?$AA@ 1008f0bc     xpcruntime:xpcimports.obj
 0002:000140c8       ??_C@_0BE@HCKNCEKF@xpcOutpB?5not?5found?6?$AA@ 1008f0c8     xpcruntime:xpcimports.obj
 0002:000140e0       ??_C@_08MOOJAOHK@xpcOutpW?$AA@ 1008f0e0     xpcruntime:xpcimports.obj
 0002:000140ec       ??_C@_0BE@NLIFDBGM@xpcOutpW?5not?5found?6?$AA@ 1008f0ec     xpcruntime:xpcimports.obj
 0002:00014104       ??_C@_09FLIEKHJG@xpcOutpDW?$AA@ 1008f104     xpcruntime:xpcimports.obj
 0002:00014110       ??_C@_0BF@GJKLPNHB@xpcOutpDW?5not?5found?6?$AA@ 1008f110     xpcruntime:xpcimports.obj
 0002:0001412c       ??_C@_0BH@EHOLELHH@xpcReserveMemoryRegion?$AA@ 1008f12c     xpcruntime:xpcimports.obj
 0002:00014148       ??_C@_0CC@KAAAGPI@xpcReserveMemoryRegion?5not?5found@ 1008f148     xpcruntime:xpcimports.obj
 0002:00014170       ??_C@_0BA@JGPMHGAF@rl32eShowPCIDev?$AA@ 1008f170     xpcruntime:xpcimports.obj
 0002:00014184       ??_C@_0BL@DDFFLNHI@rl32eShowPCIDev?5not?5found?6?$AA@ 1008f184     xpcruntime:xpcimports.obj
 0002:000141a4       ??_C@_0BB@KBCOJPFB@rl32eShowPCIInfo?$AA@ 1008f1a4     xpcruntime:xpcimports.obj
 0002:000141b8       ??_C@_0BM@IFDMAGLO@rl32eShowPCIInfo?5not?5found?6?$AA@ 1008f1b8     xpcruntime:xpcimports.obj
 0002:000141dc       ??_C@_0BA@BGPAADB@rl32eGetPCIInfo?$AA@ 1008f1dc     xpcruntime:xpcimports.obj
 0002:000141f0       ??_C@_0BL@IGOMLDCK@rl32eGetPCIInfo?5not?5found?6?$AA@ 1008f1f0     xpcruntime:xpcimports.obj
 0002:00014210       ??_C@_0BG@NJPFKFDP@rl32eGetPCIInfoAtSlot?$AA@ 1008f210     xpcruntime:xpcimports.obj
 0002:0001422c       ??_C@_0CB@BBKIPMLA@rl32eGetPCIInfoAtSlot?5not?5found?6@ 1008f22c     xpcruntime:xpcimports.obj
 0002:00014254       ??_C@_0BH@OKBOPNFG@xpceAssignPCIInterrupt?$AA@ 1008f254     xpcruntime:xpcimports.obj
 0002:00014270       ??_C@_0CC@CDNDNJBJ@xpceAssignPCIInterrupt?5not?5found@ 1008f270     xpcruntime:xpcimports.obj
 0002:00014298       ??_C@_0BD@PCKOKHO@xpceGetSignalValue?$AA@ 1008f298     xpcruntime:xpcimports.obj
 0002:000142b0       ??_C@_0BO@GCBDJHMB@xpceGetSignalValue?5not?5found?6?$AA@ 1008f2b0     xpcruntime:xpcimports.obj
 0002:000142d4       ??_C@_0BB@BJONJAGA@xpceSetParameter?$AA@ 1008f2d4     xpcruntime:xpcimports.obj
 0002:000142e8       ??_C@_0BM@BJIKDLHA@xpceSetParameter?5not?5found?6?$AA@ 1008f2e8     xpcruntime:xpcimports.obj
 0002:0001430c       ??_C@_0BB@GNFDFMCM@xpceGetParameter?$AA@ 1008f30c     xpcruntime:xpcimports.obj
 0002:00014320       ??_C@_0BM@POHNKBC@xpceGetParameter?5not?5found?6?$AA@ 1008f320     xpcruntime:xpcimports.obj
 0002:00014344       ??_C@_0BB@CEIJLFCD@xpceGetParamDims?$AA@ 1008f344     xpcruntime:xpcimports.obj
 0002:00014358       ??_C@_0BM@OABDBKAO@xpceGetParamDims?5not?5found?6?$AA@ 1008f358     xpcruntime:xpcimports.obj
 0002:0001437c       ??_C@_0L@OCBLLHBM@xpceGetTET?$AA@ 1008f37c     xpcruntime:xpcimports.obj
 0002:0001438c       ??_C@_0BG@HNOFBOB@xpceGetTET?5not?5found?6?$AA@ 1008f38c     xpcruntime:xpcimports.obj
 0002:000143a8       ??_C@_0P@OKGNGAGH@xpcIsModelInit?$AA@ 1008f3a8     xpcruntime:xpcimports.obj
 0002:000143bc       ??_C@_0BK@DHEMLBIM@xpcIsModelInit?5not?5found?6?$AA@ 1008f3bc     xpcruntime:xpcimports.obj
 0002:000143dc       ??_C@_0BH@KJJLCAOJ@xpcAllocPhysicalMemory?$AA@ 1008f3dc     xpcruntime:xpcimports.obj
 0002:000143f8       ??_C@_0CC@MOJPNHKL@xpcAllocPhysicalMemory?5not?5found@ 1008f3f8     xpcruntime:xpcimports.obj
 0002:00014420       ??_C@_0BG@CBNPGAEL@xpcFreePhysicalMemory?$AA@ 1008f420     xpcruntime:xpcimports.obj
 0002:0001443c       ??_C@_0CB@PKJEBPOG@xpcFreePhysicalMemory?5not?5found?6@ 1008f43c     xpcruntime:xpcimports.obj
 0002:00014464       ??_C@_0BC@JGKNLICL@xpcGetElapsedTime?$AA@ 1008f464     xpcruntime:xpcimports.obj
 0002:0001447c       ??_C@_0BN@OEOAHCIO@xpcGetElapsedTime?5not?5found?6?$AA@ 1008f47c     xpcruntime:xpcimports.obj
 0002:000144a0       ??_C@_0M@ICBLMODA@xpcBusyWait?$AA@ 1008f4a0     xpcruntime:xpcimports.obj
 0002:000144b0       ??_C@_0BH@FBOPECBI@xpcBusyWait?5not?5found?6?$AA@ 1008f4b0     xpcruntime:xpcimports.obj
 0002:000144cc       ??_C@_0N@LKKJEKKA@TBCreateSpin?$AA@ 1008f4cc     xpcruntime:xpcimports.obj
 0002:000144dc       ??_C@_0BI@FHKMLKOE@TBCreateSpin?5not?5found?6?$AA@ 1008f4dc     xpcruntime:xpcimports.obj
 0002:000144f8       ??_C@_0N@HOAJHNBD@TBDeleteSpin?$AA@ 1008f4f8     xpcruntime:xpcimports.obj
 0002:00014508       ??_C@_0BI@BKCPAAG@TBDeleteSpin?5not?5found?6?$AA@ 1008f508     xpcruntime:xpcimports.obj
 0002:00014524       ??_C@_0P@DAHDDBJG@TBTakeSpinFast?$AA@ 1008f524     xpcruntime:xpcimports.obj
 0002:00014538       ??_C@_0BK@NKAIBHGB@TBTakeSpinFast?5not?5found?6?$AA@ 1008f538     xpcruntime:xpcimports.obj
 0002:00014558       ??_C@_0P@FKNAAELA@TBGiveSpinFast?$AA@ 1008f558     xpcruntime:xpcimports.obj
 0002:0001456c       ??_C@_0BK@KGPJBJND@TBGiveSpinFast?5not?5found?6?$AA@ 1008f56c     xpcruntime:xpcimports.obj
 0002:0001458c       ??_C@_0BE@IIGBFDHK@xpceCreateSemaphore?$AA@ 1008f58c     xpcruntime:xpcimports.obj
 0002:000145a4       ??_C@_0BP@KFBAFFKJ@xpceCreateSemaphore?5not?5found?6?$AA@ 1008f5a4     xpcruntime:xpcimports.obj
 0002:000145cc       ??_C@_0BC@IFNIONKJ@xpceWaitSemaphore?$AA@ 1008f5cc     xpcruntime:xpcimports.obj
 0002:000145e4       ??_C@_0BN@NMFAADIO@xpceWaitSemaphore?5not?5found?6?$AA@ 1008f5e4     xpcruntime:xpcimports.obj
 0002:00014608       ??_C@_0BE@NNDIOBKE@xpceSignalSemaphore?$AA@ 1008f608     xpcruntime:xpcimports.obj
 0002:00014620       ??_C@_0BP@LBANMHJP@xpceSignalSemaphore?5not?5found?6?$AA@ 1008f620     xpcruntime:xpcimports.obj
 0002:00014648       ??_C@_0BE@MEBEKOIM@xpceDeleteSemaphore?$AA@ 1008f648     xpcruntime:xpcimports.obj
 0002:00014660       ??_C@_0BP@OFNCKOJH@xpceDeleteSemaphore?5not?5found?6?$AA@ 1008f660     xpcruntime:xpcimports.obj
 0002:00014688       ??_C@_0BD@MFNDMBOF@FindUsbVideoDevice?$AA@ 1008f688     xpcruntime:xpcimports.obj
 0002:000146a0       ??_C@_0BO@POKLDHMI@FindUsbVideoDevice?5not?5found?6?$AA@ 1008f6a0     xpcruntime:xpcimports.obj
 0002:000146c4       ??_C@_0BA@PLPAPNAB@GetVideoConfigs?$AA@ 1008f6c4     xpcruntime:xpcimports.obj
 0002:000146d8       ??_C@_0BL@DALDHKHC@GetVideoConfigs?5not?5found?6?$AA@ 1008f6d8     xpcruntime:xpcimports.obj
 0002:000146f8       ??_C@_0L@GBAEMHMH@StartVideo?$AA@ 1008f6f8     xpcruntime:xpcimports.obj
 0002:00014708       ??_C@_0BG@HDCELEBP@StartVideo?5not?5found?6?$AA@ 1008f708     xpcruntime:xpcimports.obj
 0002:00014724       ??_C@_0BA@FDNPOCLN@ReadFrameBuffer?$AA@ 1008f724     xpcruntime:xpcimports.obj
 0002:00014738       ??_C@_0BL@JHGHPNBI@ReadFrameBuffer?5not?5found?6?$AA@ 1008f738     xpcruntime:xpcimports.obj
 0002:00014758       ??_C@_09FAHCLKAG@StopVideo?$AA@ 1008f758     xpcruntime:xpcimports.obj
 0002:00014764       ??_C@_0BF@NKGKKADL@StopVideo?5not?5found?6?$AA@ 1008f764     xpcruntime:xpcimports.obj
 0002:00014780       ??_C@_0O@MCPKDLLL@ConvertUImage?$AA@ 1008f780     xpcruntime:xpcimports.obj
 0002:00014790       ??_C@_0BJ@PHJKOAFL@ConvertUImage?5not?5found?6?$AA@ 1008f790     xpcruntime:xpcimports.obj
 0002:000147b0       ??_C@_0BD@NKCBPBJJ@CreateVideoDisplay?$AA@ 1008f7b0     xpcruntime:xpcimports.obj
 0002:000147c8       ??_C@_0BO@HPPLLNFP@CreateVideoDisplay?5not?5found?6?$AA@ 1008f7c8     xpcruntime:xpcimports.obj
 0002:000147ec       ??_C@_0BE@KJCKGPHA@DestroyVideoDisplay?$AA@ 1008f7ec     xpcruntime:xpcimports.obj
 0002:00014804       ??_C@_0BP@FMGLJAIJ@DestroyVideoDisplay?5not?5found?6?$AA@ 1008f804     xpcruntime:xpcimports.obj
 0002:0001482c       ??_C@_0BC@HCMIMIDN@StartVideoDisplay?$AA@ 1008f82c     xpcruntime:xpcimports.obj
 0002:00014844       ??_C@_0BN@EFIEBGOO@StartVideoDisplay?5not?5found?6?$AA@ 1008f844     xpcruntime:xpcimports.obj
 0002:00014868       ??_C@_0BB@JBBLMILG@StopVideoDisplay?$AA@ 1008f868     xpcruntime:xpcimports.obj
 0002:0001487c       ??_C@_0BM@DBJBPLEL@StopVideoDisplay?5not?5found?6?$AA@ 1008f87c     xpcruntime:xpcimports.obj
 0002:000148a0       ??_C@_0M@MFJEGMHC@StreamVideo?$AA@ 1008f8a0     xpcruntime:xpcimports.obj
 0002:000148b0       ??_C@_0BH@OINCDMLA@StreamVideo?5not?5found?6?$AA@ 1008f8b0     xpcruntime:xpcimports.obj
 0002:000148cc       ??_C@_0N@IGGLCIGE@xpceaddEvent?$AA@ 1008f8cc     xpcruntime:xpcimports.obj
 0002:000148dc       ??_C@_0BI@NHJNFMKH@xpceaddEvent?5not?5found?6?$AA@ 1008f8dc     xpcruntime:xpcimports.obj
 0002:000148f8       ??_C@_0BB@HDPOIJAB@xpceDAQPostEvent?$AA@ 1008f8f8     xpcruntime:xpcimports.obj
 0002:0001490c       ??_C@_0BM@IHANBKGN@xpceDAQPostEvent?5not?5found?6?$AA@ 1008f90c     xpcruntime:xpcimports.obj
 0002:00014930       ??_C@_0BH@MBACMOD@xpceDAQUpdateTimeStamp?$AA@ 1008f930     xpcruntime:xpcimports.obj
 0002:0001494c       ??_C@_0CC@DAKBBINL@xpceDAQUpdateTimeStamp?5not?5found@ 1008f94c     xpcruntime:xpcimports.obj
 0002:00014974       ??_C@_0BN@HJOHIFOM@xpceGetIntTimerGranularityNS?$AA@ 1008f974     xpcruntime:xpcimports.obj
 0002:00014998       ??_C@_0CI@OADDPMKB@xpceGetIntTimerGranularityNS?5not@ 1008f998     xpcruntime:xpcimports.obj
 0002:000149c8       ??_C@_0BG@CCHICKPN@slrteSetStepSizeDelta?$AA@ 1008f9c8     xpcruntime:xpcimports.obj
 0002:000149e4       ??_C@_0CB@MKHINEIJ@slrteSetStepSizeDelta?5not?5found?6@ 1008f9e4     xpcruntime:xpcimports.obj
 0002:00014a0c       ??_C@_0BI@CLNBLDKJ@slrteGetCurrentStepSize?$AA@ 1008fa0c     xpcruntime:xpcimports.obj
 0002:00014a28       ??_C@_0CD@GIOJPGJA@slrteGetCurrentStepSize?5not?5foun@ 1008fa28     xpcruntime:xpcimports.obj
 0002:00014a54       ??_C@_0BE@FCLCBOC@registerPTPTimeRead?$AA@ 1008fa54     xpcruntime:xpcimports.obj
 0002:00014a6c       ??_C@_0BP@LHPKAJIP@registerPTPTimeRead?5not?5found?6?$AA@ 1008fa6c     xpcruntime:xpcimports.obj
 0002:00014a94       ??_C@_0BG@KIGCDDJI@unRegisterPTPTimeRead?$AA@ 1008fa94     xpcruntime:xpcimports.obj
 0002:00014ab0       ??_C@_0CB@MLFFBFCM@unRegisterPTPTimeRead?5not?5found?6@ 1008fab0     xpcruntime:xpcimports.obj
 0002:00014ad8       ??_C@_0BB@IPMDDBHK@slTestInitialize?$AA@ 1008fad8     xpcruntime:xpcimports.obj
 0002:00014aec       ??_C@_0BM@LAJFCCJH@slTestInitialize?5not?5found?6?$AA@ 1008faec     xpcruntime:xpcimports.obj
 0002:00014b10       ??_C@_0BF@OOMPMEBC@slTestLogAssessments?$AA@ 1008fb10     xpcruntime:xpcimports.obj
 0002:00014b2c       ??_C@_0CA@FGJCEBAG@slTestLogAssessments?5not?5found?6?$AA@ 1008fb2c     xpcruntime:xpcimports.obj
 0002:00014b54       ??_C@_0BB@HJHKONHO@slTestEvalOnFail?$AA@ 1008fb54     xpcruntime:xpcimports.obj
 0002:00014b68       ??_C@_0BM@JIKCFFNJ@slTestEvalOnFail?5not?5found?6?$AA@ 1008fb68     xpcruntime:xpcimports.obj
 0002:00014b8c       ??_C@_0BA@LBHLABFP@slTestTerminate?$AA@ 1008fb8c     xpcruntime:xpcimports.obj
 0002:00014ba0       ??_C@_0BL@EMFGKAPA@slTestTerminate?5not?5found?6?$AA@ 1008fba0     xpcruntime:xpcimports.obj
 0002:00014bc0       ??_C@_0BE@JPNPBBEO@slTestRegAssessment?$AA@ 1008fbc0     xpcruntime:xpcimports.obj
 0002:00014bd8       ??_C@_0BP@FBDEJJJH@slTestRegAssessment?5not?5found?6?$AA@ 1008fbd8     xpcruntime:xpcimports.obj
 0002:00014c00       ??_C@_0O@NCLGDNIB@slrteSetupMSI?$AA@ 1008fc00     xpcruntime:xpcimports.obj
 0002:00014c10       ??_C@_0BJ@HEFMECLM@slrteSetupMSI?5not?5found?6?$AA@ 1008fc10     xpcruntime:xpcimports.obj
 0002:00014c30       ??_C@_0BH@BPOLALHD@slrtGetCRBScratchSpace?$AA@ 1008fc30     xpcruntime:xpcimports.obj
 0002:00014c4c       ??_C@_0CC@KCKAJKKJ@slrtGetCRBScratchSpace?5not?5found@ 1008fc4c     xpcruntime:xpcimports.obj
 0002:00014c74       ??_C@_0BC@MKFDAKOL@slrtGetSgCRBSpace?$AA@ 1008fc74     xpcruntime:xpcimports.obj
 0002:00014c8c       ??_C@_0BN@JDPHPLHL@slrtGetSgCRBSpace?5not?5found?6?$AA@ 1008fc8c     xpcruntime:xpcimports.obj
 0002:00014cb0       ??_C@_0P@EPAPKLIF@slrtfsOpenFile?$AA@ 1008fcb0     xpcruntime:xpcimports.obj
 0002:00014cc4       ??_C@_0BK@FIHCBOHG@slrtfsOpenFile?5not?5found?6?$AA@ 1008fcc4     xpcruntime:xpcimports.obj
 0002:00014ce4       ??_C@_0BA@LILAFDDL@slrtfsCloseFile?$AA@ 1008fce4     xpcruntime:xpcimports.obj
 0002:00014cf8       ??_C@_0BL@DEGHJFIB@slrtfsCloseFile?5not?5found?6?$AA@ 1008fcf8     xpcruntime:xpcimports.obj
 0002:00014d18       ??_C@_0BC@OKMJDIEH@slrtfsWriteToFile?$AA@ 1008fd18     xpcruntime:xpcimports.obj
 0002:00014d30       ??_C@_0BN@KCFLCLAH@slrtfsWriteToFile?5not?5found?6?$AA@ 1008fd30     xpcruntime:xpcimports.obj
 0002:00014d54       ??_C@_0BK@GIPNFFFF@slrtfsGetFileErrorMessage?$AA@ 1008fd54     xpcruntime:xpcimports.obj
 0002:00014d74       ??_C@_0CF@BCBLMKLE@slrtfsGetFileErrorMessage?5not?5fo@ 1008fd74     xpcruntime:xpcimports.obj
 0002:00014da0       ??_C@_0BD@ICBOKMK@slrtfsGetFileError?$AA@ 1008fda0     xpcruntime:xpcimports.obj
 0002:00014db8       ??_C@_0BO@FNBANAE@slrtfsGetFileError?5not?5found?6?$AA@ 1008fdb8     xpcruntime:xpcimports.obj
 0002:00014ddc       ??_C@_0BE@PPAJMHJP@slrtfsOpenFileAsync?$AA@ 1008fddc     xpcruntime:xpcimports.obj
 0002:00014df4       ??_C@_0BP@HKBMMJOK@slrtfsOpenFileAsync?5not?5found?6?$AA@ 1008fdf4     xpcruntime:xpcimports.obj
 0002:00014e1c       ??_C@_0BF@IGNDIBPF@slrtfsCloseFileAsync?$AA@ 1008fe1c     xpcruntime:xpcimports.obj
 0002:00014e38       ??_C@_0CA@GJPFDBKN@slrtfsCloseFileAsync?5not?5found?6?$AA@ 1008fe38     xpcruntime:xpcimports.obj
 0002:00014e60       ??_C@_0BE@IOLEBNB@slrtfsGetFileStatus?$AA@ 1008fe60     xpcruntime:xpcimports.obj
 0002:00014e78       ??_C@_0BP@PEFHDGHL@slrtfsGetFileStatus?5not?5found?6?$AA@ 1008fe78     xpcruntime:xpcimports.obj
 0002:00014ea0       ??_C@_0M@HKIJIMG@slrtfsFread?$AA@ 1008fea0     xpcruntime:xpcimports.obj
 0002:00014eb0       ??_C@_0BH@OOKBGONO@slrtfsFread?5not?5found?6?$AA@ 1008feb0     xpcruntime:xpcimports.obj
 0002:00014ecc       ??_C@_0BE@OGCMPLAP@slrtGetDefaultDrive?$AA@ 1008fecc     xpcruntime:xpcimports.obj
 0002:00014ee4       ??_C@_0BP@HKFGLHOE@slrtGetDefaultDrive?5not?5found?6?$AA@ 1008fee4     xpcruntime:xpcimports.obj
 0002:00014f0c       ??_C@_0N@NAJIKFFI@slrtLogEvent?$AA@ 1008ff0c     xpcruntime:xpcimports.obj
 0002:00014f1c       ??_C@_0BI@NKCEACND@slrtLogEvent?5not?5found?6?$AA@ 1008ff1c     xpcruntime:xpcimports.obj
 0002:00014f38       ??_C@_0N@IDKFJOHI@getlasterror?$AA@ 1008ff38     xpcruntime:xpcimports.obj
 0002:00014f48       ??_C@_0BI@MIHMCHGL@getlasterror?5not?5found?6?$AA@ 1008ff48     xpcruntime:xpcimports.obj
 0002:00014f64       ??_C@_0P@OKHGKJKN@geterrorstring?$AA@ 1008ff64     xpcruntime:xpcimports.obj
 0002:00014f78       ??_C@_0BK@NOHFDMLP@geterrorstring?5not?5found?6?$AA@ 1008ff78     xpcruntime:xpcimports.obj
 0002:00014f98       ??_C@_0BD@HNFFKMGJ@slrtGetCPUTCelsius?$AA@ 1008ff98     xpcruntime:xpcimports.obj
 0002:00014fb0       ??_C@_0BO@LHBFKLIH@slrtGetCPUTCelsius?5not?5found?6?$AA@ 1008ffb0     xpcruntime:xpcimports.obj
 0002:00014fd4       ??_C@_0M@OONCNCLM@slrtWarning?$AA@ 1008ffd4     xpcruntime:xpcimports.obj
 0002:00014fe4       ??_C@_0BH@ICKGIEMB@slrtWarning?5not?5found?6?$AA@ 1008ffe4     xpcruntime:xpcimports.obj
 0002:00015000       ??_C@_0N@EAAOMIIE@isUsedByRTIP?$AA@ 10090000     xpcruntime:xpcimports.obj
 0002:00015010       ??_C@_0BI@GNHHHICK@isUsedByRTIP?5not?5found?6?$AA@ 10090010     xpcruntime:xpcimports.obj
 0002:0001502c       ??_C@_0BC@HLDKJAG@SetIPTASKPriority?$AA@ 1009002c     xpcruntime:xpcimports.obj
 0002:00015044       ??_C@_0BN@OGKMHHAE@SetIPTASKPriority?5not?5found?6?$AA@ 10090044     xpcruntime:xpcimports.obj
 0002:00015068       ??_C@_0O@LHENMBDD@OpenInterface?$AA@ 10090068     xpcruntime:xpcimports.obj
 0002:00015078       ??_C@_0BJ@PFGDBKHB@OpenInterface?5not?5found?6?$AA@ 10090078     xpcruntime:xpcimports.obj
 0002:00015098       ??_C@_0P@IINFELKD@CloseInterface?$AA@ 10090098     xpcruntime:xpcimports.obj
 0002:000150ac       ??_C@_0BK@PAPDNDBK@CloseInterface?5not?5found?6?$AA@ 100900ac     xpcruntime:xpcimports.obj
 0002:000150cc       ??_C@_05LEFIAAOI@SetIP?$AA@ 100900cc     xpcruntime:xpcimports.obj
 0002:000150d4       ??_C@_0BB@CGLIBAMM@SetIP?5not?5found?6?$AA@ 100900d4     xpcruntime:xpcimports.obj
 0002:000150e8       ??_C@_0BA@HIJJHHMD@AddGatewayRoute?$AA@ 100900e8     xpcruntime:xpcimports.obj
 0002:000150fc       ??_C@_0BL@BFCFMDMN@AddGatewayRoute?5not?5found?6?$AA@ 100900fc     xpcruntime:xpcimports.obj
 0002:0001511c       ??_C@_0M@PHMABFPI@DeleteRoute?$AA@ 1009011c     xpcruntime:xpcimports.obj
 0002:0001512c       ??_C@_0BH@JPJGLLID@DeleteRoute?5not?5found?6?$AA@ 1009012c     xpcruntime:xpcimports.obj
 0002:00015148       ??_C@_0BA@FCDIMKIJ@GetHostTarIPAdd?$AA@ 10090148     xpcruntime:xpcimports.obj
 0002:0001515c       ??_C@_0BL@MBKDGKBO@GetHostTarIPAdd?5not?5found?6?$AA@ 1009015c     xpcruntime:xpcimports.obj
 0002:0001517c       ??_C@_0M@HPMIPIBI@GetDCUUsage?$AA@ 1009017c     xpcruntime:xpcimports.obj
 0002:0001518c       ??_C@_0BH@EBLJKCJC@GetDCUUsage?5not?5found?6?$AA@ 1009018c     xpcruntime:xpcimports.obj
 0002:000151a8       ??_C@_06MPKMECK@accept?$AA@ 100901a8     xpcruntime:xpcimports.obj
 0002:000151b0       ??_C@_0BC@GBGIEMNO@accept?5not?5found?6?$AA@ 100901b0     xpcruntime:xpcimports.obj
 0002:000151c8       ??_C@_04NPNJNMMP@bind?$AA@ 100901c8     xpcruntime:xpcimports.obj
 0002:000151d0       ??_C@_0BA@DAJNENLO@bind?5not?5found?6?$AA@ 100901d0     xpcruntime:xpcimports.obj
 0002:000151e4       ??_C@_0L@CKHNIFCM@setsockopt?$AA@ 100901e4     xpcruntime:xpcimports.obj
 0002:000151f4       ??_C@_0BG@MFIIOMFE@setsockopt?5not?5found?6?$AA@ 100901f4     xpcruntime:xpcimports.obj
 0002:00015210       ??_C@_0M@ODDJDCDK@closesocket?$AA@ 10090210     xpcruntime:xpcimports.obj
 0002:00015220       ??_C@_0BH@JHGHMIL@closesocket?5not?5found?6?$AA@ 10090220     xpcruntime:xpcimports.obj
 0002:0001523c       ??_C@_07KAIBNCHO@connect?$AA@ 1009023c     xpcruntime:xpcimports.obj
 0002:00015248       ??_C@_0BD@MKLLMBM@connect?5not?5found?6?$AA@ 10090248     xpcruntime:xpcimports.obj
 0002:00015260       ??_C@_0M@PBPOCKDG@ioctlsocket?$AA@ 10090260     xpcruntime:xpcimports.obj
 0002:00015270       ??_C@_0BH@NFCNHHIH@ioctlsocket?5not?5found?6?$AA@ 10090270     xpcruntime:xpcimports.obj
 0002:0001528c       ??_C@_06OODDLKLE@listen?$AA@ 1009028c     xpcruntime:xpcimports.obj
 0002:00015294       ??_C@_0BC@NHBILEKI@listen?5not?5found?6?$AA@ 10090294     xpcruntime:xpcimports.obj
 0002:000152ac       ??_C@_08HMBBGFHE@recvfrom?$AA@ 100902ac     xpcruntime:xpcimports.obj
 0002:000152b8       ??_C@_0BE@BJAJFFLF@recvfrom?5not?5found?6?$AA@ 100902b8     xpcruntime:xpcimports.obj
 0002:000152d0       ??_C@_06MEPBGKEC@sendto?$AA@ 100902d0     xpcruntime:xpcimports.obj
 0002:000152d8       ??_C@_0BC@BHPIMDJO@sendto?5not?5found?6?$AA@ 100902d8     xpcruntime:xpcimports.obj
 0002:000152f0       ??_C@_09JKBDEEOB@inet_addr?$AA@ 100902f0     xpcruntime:xpcimports.obj
 0002:000152fc       ??_C@_0BF@HKJPGECN@inet_addr?5not?5found?6?$AA@ 100902fc     xpcruntime:xpcimports.obj
 0002:00015318       ??_C@_06HBELJPBO@socket?$AA@ 10090318     xpcruntime:xpcimports.obj
 0002:00015320       ??_C@_0BC@NAGFFJGA@socket?5not?5found?6?$AA@ 10090320     xpcruntime:xpcimports.obj
 0002:00015338       ??_C@_09ICJIFGNC@GetSocket?$AA@ 10090338     xpcruntime:xpcimports.obj
 0002:00015344       ??_C@_0BF@KDBCKMOJ@GetSocket?5not?5found?6?$AA@ 10090344     xpcruntime:xpcimports.obj
 0002:00015360       ??_C@_0P@KJEGJMJI@GetSocketState?$AA@ 10090360     xpcruntime:xpcimports.obj
 0002:00015374       ??_C@_0BK@IALBJHEB@GetSocketState?5not?5found?6?$AA@ 10090374     xpcruntime:xpcimports.obj
 0002:00015394       ??_C@_0L@MEAJHNHB@SocketSend?$AA@ 10090394     xpcruntime:xpcimports.obj
 0002:000153a4       ??_C@_0BG@EOCMBFJA@SocketSend?5not?5found?6?$AA@ 100903a4     xpcruntime:xpcimports.obj
 0002:000153c0       ??_C@_0O@PFPCLEMF@SocketReceive?$AA@ 100903c0     xpcruntime:xpcimports.obj
 0002:000153d0       ??_C@_0BJ@HIBADDFO@SocketReceive?5not?5found?6?$AA@ 100903d0     xpcruntime:xpcimports.obj
 0002:000153f0       ??_C@_0BD@OOGFNAIK@CreateServerSocket?$AA@ 100903f0     xpcruntime:xpcimports.obj
 0002:00015408       ??_C@_0BO@GKIJHIPH@CreateServerSocket?5not?5found?6?$AA@ 10090408     xpcruntime:xpcimports.obj
 0002:0001542c       ??_C@_0BB@KGHJGFFO@OpenServerListen?$AA@ 1009042c     xpcruntime:xpcimports.obj
 0002:00015440       ??_C@_0BM@NFMMLIO@OpenServerListen?5not?5found?6?$AA@ 10090440     xpcruntime:xpcimports.obj
 0002:00015464       ??_C@_0BE@BAJLDJAH@ConnectServerSocket?$AA@ 10090464     xpcruntime:xpcimports.obj
 0002:0001547c       ??_C@_0BP@KJNODIKE@ConnectServerSocket?5not?5found?6?$AA@ 1009047c     xpcruntime:xpcimports.obj
 0002:000154a4       ??_C@_0BC@PLKKJDIM@CloseServerSocket?$AA@ 100904a4     xpcruntime:xpcimports.obj
 0002:000154bc       ??_C@_0BN@KEJEPNMB@CloseServerSocket?5not?5found?6?$AA@ 100904bc     xpcruntime:xpcimports.obj
 0002:000154e0       ??_C@_0BD@MCLPKCPP@CreateClientSocket?$AA@ 100904e0     xpcruntime:xpcimports.obj
 0002:000154f8       ??_C@_0BO@DILAGPFN@CreateClientSocket?5not?5found?6?$AA@ 100904f8     xpcruntime:xpcimports.obj
 0002:0001551c       ??_C@_0BB@DAPKNNLG@BindClientSocket?$AA@ 1009051c     xpcruntime:xpcimports.obj
 0002:00015530       ??_C@_0BM@LLLMMDFN@BindClientSocket?5not?5found?6?$AA@ 10090530     xpcruntime:xpcimports.obj
 0002:00015554       ??_C@_0BE@DMEBELHC@ConnectClientSocket?$AA@ 10090554     xpcruntime:xpcimports.obj
 0002:0001556c       ??_C@_0BP@PLOHCPAO@ConnectClientSocket?5not?5found?6?$AA@ 1009056c     xpcruntime:xpcimports.obj
 0002:00015594       ??_C@_0BC@NHHAOBPJ@CloseClientSocket?$AA@ 10090594     xpcruntime:xpcimports.obj
 0002:000155ac       ??_C@_0BN@PGKNOKGL@CloseClientSocket?5not?5found?6?$AA@ 100905ac     xpcruntime:xpcimports.obj
 0002:000155d0       __real@3e112e0be826d695    100905d0     xpcruntime:xpcPCFunctions.obj
 0002:000155e0       __real@3f538bcdfefbf402    100905e0     xpcruntime:xpcPCFunctions.obj
 0002:000155f0       __real@40112e0be826d695    100905f0     xpcruntime:xpcPCFunctions.obj
 0002:00015600       __real@40f0000000000000    10090600     xpcruntime:xpcPCFunctions.obj
 0002:000156bc       __pRawDllMain              100906bc     LIBCMT:dll_dllmain.obj
 0002:000156bc       __pDefaultRawDllMain       100906bc     LIBCMT:dll_dllmain.obj
 0002:000156c0       __Microsoft_CRTProvider    100906c0     libvcruntime:telemetry.obj
 0002:000156c4       ??_C@_11LOCGONAA@?$AA?$AA@ 100906c4     libvcruntime:telemetry.obj
 0002:000156c8       ??_C@_0O@JEOPJOMI@Main?5Invoked?4?$AA@ 100906c8     libvcruntime:telemetry.obj
 0002:000156d8       ??_C@_0P@NEAEIBDO@Main?5Returned?4?$AA@ 100906d8     libvcruntime:telemetry.obj
 0002:00015700       ??_C@_1BC@DNHGCMLG@?$AAa?$AAd?$AAv?$AAa?$AAp?$AAi?$AA3?$AA2?$AA?$AA@ 10090700     libvcruntime:winapi_downlevel.obj
 0002:00015718       ??_C@_1DM@KHCHBNEB@?$AAa?$AAp?$AAi?$AA?9?$AAm?$AAs?$AA?9?$AAw?$AAi?$AAn?$AA?9?$AAc?$AAo?$AAr?$AAe?$AA?9?$AAf?$AAi?$AAb?$AAe?$AAr?$AAs?$AA?9?$AAl?$AA1?$AA?9?$AA1?$AA?9?$AA1?$AA?$AA@ 10090718     libvcruntime:winapi_downlevel.obj
 0002:00015760       ??_C@_1DK@LPPGFMPP@?$AAa?$AAp?$AAi?$AA?9?$AAm?$AAs?$AA?9?$AAw?$AAi?$AAn?$AA?9?$AAc?$AAo?$AAr?$AAe?$AA?9?$AAs?$AAy?$AAn?$AAc?$AAh?$AA?9?$AAl?$AA1?$AA?9?$AA2?$AA?9?$AA0?$AA?$AA@ 10090760     libvcruntime:winapi_downlevel.obj
 0002:000157a8       ??_C@_1BC@GDMECMAK@?$AAk?$AAe?$AAr?$AAn?$AAe?$AAl?$AA3?$AA2?$AA?$AA@ 100907a8     libvcruntime:winapi_downlevel.obj
 0002:000157c4       ??_C@_0O@BAMBGLIE@EventRegister?$AA@ 100907c4     libvcruntime:winapi_downlevel.obj
 0002:000157d8       ??_C@_0BE@BJEEGHGK@EventSetInformation?$AA@ 100907d8     libvcruntime:winapi_downlevel.obj
 0002:000157f4       ??_C@_0BA@FAKLIPIC@EventUnregister?$AA@ 100907f4     libvcruntime:winapi_downlevel.obj
 0002:0001580c       ??_C@_0BD@PKLHJPHD@EventWriteTransfer?$AA@ 1009080c     libvcruntime:winapi_downlevel.obj
 0002:00015830       ??_C@_08KNHFBNJ@FlsAlloc?$AA@ 10090830     libvcruntime:winapi_downlevel.obj
 0002:00015848       ??_C@_07PEJMOBNF@FlsFree?$AA@ 10090848     libvcruntime:winapi_downlevel.obj
 0002:00015860       ??_C@_0M@GDNOONDI@FlsGetValue?$AA@ 10090860     libvcruntime:winapi_downlevel.obj
 0002:0001587c       ??_C@_0M@JCPCPOEF@FlsSetValue?$AA@ 1009087c     libvcruntime:winapi_downlevel.obj
 0002:00015898       ??_C@_0BM@HCFOFFN@InitializeCriticalSectionEx?$AA@ 10090898     libvcruntime:winapi_downlevel.obj
 0002:00015aa0       ??_C@_08EHJDFFNH@__based?$CI?$AA@ 10090aa0     libvcruntime:undname.obj
 0002:00015aac       ??_C@_07KOLFKCDI@__cdecl?$AA@ 10090aac     libvcruntime:undname.obj
 0002:00015ab8       ??_C@_08GHMPAG@__pascal?$AA@ 10090ab8     libvcruntime:undname.obj
 0002:00015ac4       ??_C@_09IFJBGAPI@__stdcall?$AA@ 10090ac4     libvcruntime:undname.obj
 0002:00015ad0       ??_C@_0L@NPHFGOKO@__thiscall?$AA@ 10090ad0     libvcruntime:undname.obj
 0002:00015ae0       ??_C@_0L@JMKHOMEK@__fastcall?$AA@ 10090ae0     libvcruntime:undname.obj
 0002:00015af0       ??_C@_0N@BCKKPABJ@__vectorcall?$AA@ 10090af0     libvcruntime:undname.obj
 0002:00015b00       ??_C@_09HIJEGCPM@__clrcall?$AA@ 10090b00     libvcruntime:undname.obj
 0002:00015b0c       ??_C@_06GHPCKEAG@__eabi?$AA@ 10090b0c     libvcruntime:undname.obj
 0002:00015b14       ??_C@_07JOMMBBKO@__ptr64?$AA@ 10090b14     libvcruntime:undname.obj
 0002:00015b20       ??_C@_0L@PILCLIHE@__restrict?$AA@ 10090b20     libvcruntime:undname.obj
 0002:00015b30       ??_C@_0M@GFIIJFMG@__unaligned?$AA@ 10090b30     libvcruntime:undname.obj
 0002:00015b40       ??_C@_09DHDLOLLB@restrict?$CI?$AA@ 10090b40     libvcruntime:undname.obj
 0002:00015b4c       ??_C@_04NIHEBCM@?5new?$AA@ 10090b4c     libvcruntime:undname.obj
 0002:00015b54       ??_C@_07FPCDHGMM@?5delete?$AA@ 10090b54     libvcruntime:undname.obj
 0002:00015b60       ??_C@_01NEMOKFLO@?$DN?$AA@ 10090b60     libvcruntime:undname.obj
 0002:00015b64       ??_C@_02GPIOPFAK@?$DO?$DO?$AA@ 10090b64     libvcruntime:undname.obj
 0002:00015b68       ??_C@_02FODMEDOG@?$DM?$DM?$AA@ 10090b68     libvcruntime:undname.obj
 0002:00015b6c       ??_C@_01DCLJPIOD@?$CB?$AA@ 10090b6c     libvcruntime:undname.obj
 0002:00015b70       ??_C@_02EGOFBIJA@?$DN?$DN?$AA@ 10090b70     libvcruntime:undname.obj
 0002:00015b74       ??_C@_02FDNJECIE@?$CB?$DN?$AA@ 10090b74     libvcruntime:undname.obj
 0002:00015b78       ??_C@_02GPECMEKF@?$FL?$FN?$AA@ 10090b78     libvcruntime:undname.obj
 0002:00015b7c       ??_C@_08LHJFAFGD@operator?$AA@ 10090b7c     libvcruntime:undname.obj
 0002:00015b88       ??_C@_02HBOOOICD@?9?$DO?$AA@ 10090b88     libvcruntime:undname.obj
 0002:00015b8c       ??_C@_01NBENCBCI@?$CK?$AA@ 10090b8c     libvcruntime:undname.obj
 0002:00015b90       ??_C@_02ECNGHCIF@?$CL?$CL?$AA@ 10090b90     libvcruntime:undname.obj
 0002:00015b94       ??_C@_02BAABKJLB@?9?9?$AA@ 10090b94     libvcruntime:undname.obj
 0002:00015b98       ??_C@_01JOAMLHOP@?9?$AA@   10090b98     libvcruntime:undname.obj
 0002:00015b9c       ??_C@_01MIFGBAGJ@?$CL?$AA@ 10090b9c     libvcruntime:undname.obj
 0002:00015ba0       ??_C@_01HNPIGOCE@?$CG?$AA@ 10090ba0     libvcruntime:undname.obj
 0002:00015ba4       ??_C@_03MNHNFDLC@?9?$DO?$CK?$AA@ 10090ba4     libvcruntime:undname.obj
 0002:00015ba8       ??_C@_01KMDKNFGN@?1?$AA@   10090ba8     libvcruntime:undname.obj
 0002:00015bac       ??_C@_01FGNFDNOH@?$CF?$AA@ 10090bac     libvcruntime:undname.obj
 0002:00015bb0       ??_C@_01MNNFJEPP@?$DM?$AA@ 10090bb0     libvcruntime:undname.obj
 0002:00015bb4       ??_C@_02EHCHHCKH@?$DM?$DN?$AA@ 10090bb4     libvcruntime:undname.obj
 0002:00015bb8       ??_C@_01PPODPGHN@?$DO?$AA@ 10090bb8     libvcruntime:undname.obj
 0002:00015bbc       ??_C@_02EEKDKGMJ@?$DO?$DN?$AA@ 10090bbc     libvcruntime:undname.obj
 0002:00015bc0       ??_C@_01IHBHIGKO@?0?$AA@   10090bc0     libvcruntime:undname.obj
 0002:00015bc4       ??_C@_02HCKGKOFO@?$CI?$CJ?$AA@ 10090bc4     libvcruntime:undname.obj
 0002:00015bc8       ??_C@_01PJKLJHI@?$HO?$AA@  10090bc8     libvcruntime:undname.obj
 0002:00015bcc       ??_C@_01JKBOJNNK@?$FO?$AA@ 10090bcc     libvcruntime:undname.obj
 0002:00015bd0       ??_C@_01DNKMNLPK@?$HM?$AA@ 10090bd0     libvcruntime:undname.obj
 0002:00015bd4       ??_C@_02PPKAJPJL@?$CG?$CG?$AA@ 10090bd4     libvcruntime:undname.obj
 0002:00015bd8       ??_C@_02NONPIBCD@?$HM?$HM?$AA@ 10090bd8     libvcruntime:undname.obj
 0002:00015bdc       ??_C@_02FPIMKNGF@?$CK?$DN?$AA@ 10090bdc     libvcruntime:undname.obj
 0002:00015be0       ??_C@_02FOEOMHFC@?$CL?$DN?$AA@ 10090be0     libvcruntime:undname.obj
 0002:00015be4       ??_C@_02FKMDLLOA@?9?$DN?$AA@ 10090be4     libvcruntime:undname.obj
 0002:00015be8       ??_C@_02FJEHGPIO@?1?$DN?$AA@ 10090be8     libvcruntime:undname.obj
 0002:00015bec       ??_C@_02FENAOKFI@?$CF?$DN?$AA@ 10090bec     libvcruntime:undname.obj
 0002:00015bf0       ??_C@_03IKFCCPFF@?$DO?$DO?$DN?$AA@ 10090bf0     libvcruntime:undname.obj
 0002:00015bf4       ??_C@_03CDNPDDLA@?$DM?$DM?$DN?$AA@ 10090bf4     libvcruntime:undname.obj
 0002:00015bf8       ??_C@_02FGJGFEAB@?$CG?$DN?$AA@ 10090bf8     libvcruntime:undname.obj
 0002:00015bfc       ??_C@_02DHLNPPGH@?$HM?$DN?$AA@ 10090bfc     libvcruntime:undname.obj
 0002:00015c00       ??_C@_02MHEGNOJ@?$FO?$DN?$AA@ 10090c00     libvcruntime:undname.obj
 0002:00015c04       ??_C@_09IFPLHPGF@?$GAvftable?8?$AA@ 10090c04     libvcruntime:undname.obj
 0002:00015c10       ??_C@_09BLBHBJP@?$GAvbtable?8?$AA@ 10090c10     libvcruntime:undname.obj
 0002:00015c1c       ??_C@_07FEEIOKP@?$GAvcall?8?$AA@ 10090c1c     libvcruntime:undname.obj
 0002:00015c28       ??_C@_08LLFFHHDJ@?$GAtypeof?8?$AA@ 10090c28     libvcruntime:undname.obj
 0002:00015c34       ??_C@_0BF@KDPPACIK@?$GAlocal?5static?5guard?8?$AA@ 10090c34     libvcruntime:undname.obj
 0002:00015c50       ??_C@_08OBABFOLI@?$GAstring?8?$AA@ 10090c50     libvcruntime:undname.obj
 0002:00015c5c       ??_C@_0BD@JDLKDPAB@?$GAvbase?5destructor?8?$AA@ 10090c5c     libvcruntime:undname.obj
 0002:00015c74       ??_C@_0BN@DEGPLNFK@?$GAvector?5deleting?5destructor?8?$AA@ 10090c74     libvcruntime:undname.obj
 0002:00015c98       ??_C@_0BO@OBMKPJIG@?$GAdefault?5constructor?5closure?8?$AA@ 10090c98     libvcruntime:undname.obj
 0002:00015cbc       ??_C@_0BN@IMDCHIKM@?$GAscalar?5deleting?5destructor?8?$AA@ 10090cbc     libvcruntime:undname.obj
 0002:00015ce0       ??_C@_0BO@PFGOCPJJ@?$GAvector?5constructor?5iterator?8?$AA@ 10090ce0     libvcruntime:undname.obj
 0002:00015d04       ??_C@_0BN@LFPFMEDL@?$GAvector?5destructor?5iterator?8?$AA@ 10090d04     libvcruntime:undname.obj
 0002:00015d28       ??_C@_0CE@IKBNEHA@?$GAvector?5vbase?5constructor?5iterat@ 10090d28     libvcruntime:undname.obj
 0002:00015d54       ??_C@_0BL@NILFHHPC@?$GAvirtual?5displacement?5map?8?$AA@ 10090d54     libvcruntime:undname.obj
 0002:00015d74       ??_C@_0CB@JONCMFFK@?$GAeh?5vector?5constructor?5iterator?8@ 10090d74     libvcruntime:undname.obj
 0002:00015d9c       ??_C@_0CA@GCEOPDGL@?$GAeh?5vector?5destructor?5iterator?8?$AA@ 10090d9c     libvcruntime:undname.obj
 0002:00015dc4       ??_C@_0CH@OOJPLCPH@?$GAeh?5vector?5vbase?5constructor?5ite@ 10090dc4     libvcruntime:undname.obj
 0002:00015df4       ??_C@_0BL@LLKPOHJI@?$GAcopy?5constructor?5closure?8?$AA@ 10090df4     libvcruntime:undname.obj
 0002:00015e14       ??_C@_0BA@KBCDOMBN@?$GAudt?5returning?8?$AA@ 10090e14     libvcruntime:undname.obj
 0002:00015e28       ??_C@_03KLGMFNMG@?$GAEH?$AA@ 10090e28     libvcruntime:undname.obj
 0002:00015e2c       ??_C@_05KHLCHHI@?$GARTTI?$AA@ 10090e2c     libvcruntime:undname.obj
 0002:00015e34       ??_C@_0BA@KKLDJDLB@?$GAlocal?5vftable?8?$AA@ 10090e34     libvcruntime:undname.obj
 0002:00015e48       ??_C@_0CE@IIHCMGGL@?$GAlocal?5vftable?5constructor?5closu@ 10090e48     libvcruntime:undname.obj
 0002:00015e74       ??_C@_06FHBGPFGH@?5new?$FL?$FN?$AA@ 10090e74     libvcruntime:undname.obj
 0002:00015e7c       ??_C@_09LBNFPBCA@?5delete?$FL?$FN?$AA@ 10090e7c     libvcruntime:undname.obj
 0002:00015e88       ??_C@_0P@HJKNJFNN@?$GAomni?5callsig?8?$AA@ 10090e88     libvcruntime:undname.obj
 0002:00015e9c       ??_C@_0BL@CNOONJFP@?$GAplacement?5delete?5closure?8?$AA@ 10090e9c     libvcruntime:undname.obj
 0002:00015ebc       ??_C@_0BN@CKNJLHMB@?$GAplacement?5delete?$FL?$FN?5closure?8?$AA@ 10090ebc     libvcruntime:undname.obj
 0002:00015ee0       ??_C@_0CG@CFDHKGGD@?$GAmanaged?5vector?5constructor?5iter@ 10090ee0     libvcruntime:undname.obj
 0002:00015f10       ??_C@_0CF@IMGKMJNO@?$GAmanaged?5vector?5destructor?5itera@ 10090f10     libvcruntime:undname.obj
 0002:00015f3c       ??_C@_0CG@HLDDJMAG@?$GAeh?5vector?5copy?5constructor?5iter@ 10090f3c     libvcruntime:undname.obj
 0002:00015f6c       ??_C@_0CM@FCBBDIGB@?$GAeh?5vector?5vbase?5copy?5constructo@ 10090f6c     libvcruntime:undname.obj
 0002:00015fa0       ??_C@_0BL@CLIPGLGB@?$GAdynamic?5initializer?5for?5?8?$AA@ 10090fa0     libvcruntime:undname.obj
 0002:00015fc0       ??_C@_0CB@PDBIFEP@?$GAdynamic?5atexit?5destructor?5for?5?8@ 10090fc0     libvcruntime:undname.obj
 0002:00015fe8       ??_C@_0CD@CGAJBKEJ@?$GAvector?5copy?5constructor?5iterato@ 10090fe8     libvcruntime:undname.obj
 0002:00016014       ??_C@_0CJ@GJELGAMM@?$GAvector?5vbase?5copy?5constructor?5i@ 10091014     libvcruntime:undname.obj
 0002:00016048       ??_C@_0CL@FGIJHLCE@?$GAmanaged?5vector?5copy?5constructor@ 10091048     libvcruntime:undname.obj
 0002:0001607c       ??_C@_0BM@PMGGMLDN@?$GAlocal?5static?5thread?5guard?8?$AA@ 1009107c     libvcruntime:undname.obj
 0002:000160a0       ??_C@_0N@BDNMDMOL@operator?5?$CC?$CC?5?$AA@ 100910a0     libvcruntime:undname.obj
 0002:000160b0       ??_C@_0BC@DAFEJGAK@?5Type?5Descriptor?8?$AA@ 100910b0     libvcruntime:undname.obj
 0002:000160c8       ??_C@_0BM@LDKODKLH@?5Base?5Class?5Descriptor?5at?5?$CI?$AA@ 100910c8     libvcruntime:undname.obj
 0002:000160ec       ??_C@_0BD@LGICGFMM@?5Base?5Class?5Array?8?$AA@ 100910ec     libvcruntime:undname.obj
 0002:00016104       ??_C@_0BN@MECKDCOJ@?5Class?5Hierarchy?5Descriptor?8?$AA@ 10091104     libvcruntime:undname.obj
 0002:00016128       ??_C@_0BK@CFCOFLF@?5Complete?5Object?5Locator?8?$AA@ 10091128     libvcruntime:undname.obj
 0002:00016148       ??_C@_04HEJADOOB@CV?3?5?$AA@ 10091148     libvcruntime:undname.obj
 0002:00016150       ??_C@_02MOLJINC@?3?3?$AA@  10091150     libvcruntime:undname.obj
 0002:00016154       ??_C@_0BE@JAEOCHPE@template?9parameter?9?$AA@ 10091154     libvcruntime:undname.obj
 0002:0001616c       ??_C@_0O@KHGCOMHP@generic?9type?9?$AA@ 1009116c     libvcruntime:undname.obj
 0002:0001617c       ??_C@_01NLNLIGKH@?$GA?$AA@ 1009117c     libvcruntime:undname.obj
 0002:00016180       ??_C@_01GEODFPGF@?8?$AA@   10091180     libvcruntime:undname.obj
 0002:00016184       ??_C@_0BG@JNJLAMPM@?$GAanonymous?5namespace?8?$AA@ 10091184     libvcruntime:undname.obj
 0002:000161a0       ??_C@_02OHHJMEON@?8?8?$AA@ 100911a0     libvcruntime:undname.obj
 0002:000161a4       ??_C@_0BN@IBLMMFAP@?$GAnon?9type?9template?9parameter?$AA@ 100911a4     libvcruntime:undname.obj
 0002:000161c8       ??_C@_04GKJNKENE@void?$AA@ 100911c8     libvcruntime:undname.obj
 0002:000161d0       ??_C@_0BE@EODMJLIF@?$GAtemplate?9parameter?$AA@ 100911d0     libvcruntime:undname.obj
 0002:000161e8       ??_C@_03KHICJKCI@?4?4?4?$AA@ 100911e8     libvcruntime:undname.obj
 0002:000161ec       ??_C@_04HIBGFPH@NULL?$AA@  100911ec     libvcruntime:undname.obj
 0002:000161f4       ??_C@_02DPKJAMEF@?$CFd?$AA@ 100911f4     libvcruntime:undname.obj
 0002:000161f8       ??_C@_0BK@IHCCFNEL@?$GAtemplate?9type?9parameter?9?$AA@ 100911f8     libvcruntime:undname.obj
 0002:00016218       ??_C@_0BK@OFCNNNKO@?$GAgeneric?9class?9parameter?9?$AA@ 10091218     libvcruntime:undname.obj
 0002:00016238       ??_C@_0BL@NGJBLFIL@?$GAgeneric?9method?9parameter?9?$AA@ 10091238     libvcruntime:undname.obj
 0002:00016258       ??_C@_03OPGICMGF@?$HN?8?5?$AA@ 10091258     libvcruntime:undname.obj
 0002:0001625c       ??_C@_02IGFCGPIL@?$HN?8?$AA@ 1009125c     libvcruntime:undname.obj
 0002:00016260       ??_C@_01CLKCMJKC@?5?$AA@   10091260     libvcruntime:undname.obj
 0002:00016264       ??_C@_0N@CBHHHENL@?$GAvtordispex?$HL?$AA@ 10091264     libvcruntime:undname.obj
 0002:00016274       ??_C@_0L@GHPFDFH@?$GAvtordisp?$HL?$AA@ 10091274     libvcruntime:undname.obj
 0002:00016284       ??_C@_0L@HNGCOGAE@?$GAadjustor?$HL?$AA@ 10091284     libvcruntime:undname.obj
 0002:00016294       ??_C@_0CB@KJDOOODE@?$GAlocal?5static?5destructor?5helper?8@ 10091294     libvcruntime:undname.obj
 0002:000162bc       ??_C@_0DB@ILEFOCIJ@?$GAtemplate?5static?5data?5member?5con@ 100912bc     libvcruntime:undname.obj
 0002:000162f8       ??_C@_0DA@HGFJFBBE@?$GAtemplate?5static?5data?5member?5des@ 100912f8     libvcruntime:undname.obj
 0002:00016334       ??_C@_07PGOEDBHP@static?5?$AA@ 10091334     libvcruntime:undname.obj
 0002:00016340       ??_C@_08NIEOINHE@virtual?5?$AA@ 10091340     libvcruntime:undname.obj
 0002:0001634c       ??_C@_09LAPHOOG@private?3?5?$AA@ 1009134c     libvcruntime:undname.obj
 0002:00016358       ??_C@_0M@GAIFPFIP@protected?3?5?$AA@ 10091358     libvcruntime:undname.obj
 0002:00016368       ??_C@_08GPDDCMKI@public?3?5?$AA@ 10091368     libvcruntime:undname.obj
 0002:00016374       ??_C@_08KJLFOPNE@?$FLthunk?$FN?3?$AA@ 10091374     libvcruntime:undname.obj
 0002:00016380       ??_C@_0M@DHNBOJMP@extern?5?$CCC?$CC?5?$AA@ 10091380     libvcruntime:undname.obj
 0002:00016390       ??_C@_02KCKGHPCA@?$CJ?5?$AA@ 10091390     libvcruntime:undname.obj
 0002:00016394       ??_C@_05CIHEBHNO@char?5?$AA@ 10091394     libvcruntime:undname.obj
 0002:0001639c       ??_C@_06EHJMALKF@short?5?$AA@ 1009139c     libvcruntime:undname.obj
 0002:000163a4       ??_C@_04LAHKHJMA@int?5?$AA@ 100913a4     libvcruntime:undname.obj
 0002:000163ac       ??_C@_05CJIMAING@long?5?$AA@ 100913ac     libvcruntime:undname.obj
 0002:000163b4       ??_C@_09EBBEKKIH@unsigned?5?$AA@ 100913b4     libvcruntime:undname.obj
 0002:000163c0       ??_C@_05BEFAKPML@void?5?$AA@ 100913c0     libvcruntime:undname.obj
 0002:000163c8       ??_C@_08PABEKFH@volatile?$AA@ 100913c8     libvcruntime:undname.obj
 0002:000163d4       ??_C@_0P@GCOCNKDM@std?3?3nullptr_t?$AA@ 100913d4     libvcruntime:undname.obj
 0002:000163e8       ??_C@_0L@EGPHHEKN@?$DMellipsis?$DO?$AA@ 100913e8     libvcruntime:undname.obj
 0002:000163f8       ??_C@_04EENFHACM@?0?4?4?4?$AA@ 100913f8     libvcruntime:undname.obj
 0002:00016400       ??_C@_0M@ELJOJFFH@?0?$DMellipsis?$DO?$AA@ 10091400     libvcruntime:undname.obj
 0002:00016410       ??_C@_07HDJPLPEK@?5throw?$CI?$AA@ 10091410     libvcruntime:undname.obj
 0002:0001641c       ??_C@_03PBJBJNON@cpu?$AA@  1009141c     libvcruntime:undname.obj
 0002:00016420       ??_C@_03DCBBJBAA@amp?$AA@  10091420     libvcruntime:undname.obj
 0002:00016424       ??_C@_02KEGNLNML@?0?5?$AA@ 10091424     libvcruntime:undname.obj
 0002:00016428       ??_C@_04ENMBGAPA@char?$AA@ 10091428     libvcruntime:undname.obj
 0002:00016430       ??_C@_05BFKKPKCG@short?$AA@ 10091430     libvcruntime:undname.obj
 0002:00016438       ??_C@_03JBIPMCLC@int?$AA@  10091438     libvcruntime:undname.obj
 0002:0001643c       ??_C@_04GOKPGOLB@long?$AA@ 1009143c     libvcruntime:undname.obj
 0002:00016444       ??_C@_04DDKJGDCM@bool?$AA@ 10091444     libvcruntime:undname.obj
 0002:0001644c       ??_C@_06EBGKOKIG@__int8?$AA@ 1009144c     libvcruntime:undname.obj
 0002:00016454       ??_C@_07ICFHOGAF@__int16?$AA@ 10091454     libvcruntime:undname.obj
 0002:00016460       ??_C@_07OFLPPHGP@__int32?$AA@ 10091460     libvcruntime:undname.obj
 0002:0001646c       ??_C@_07LFCOJCAC@__int64?$AA@ 1009146c     libvcruntime:undname.obj
 0002:00016478       ??_C@_08GAHOLHEO@__int128?$AA@ 10091478     libvcruntime:undname.obj
 0002:00016484       ??_C@_09EEKGDCPH@?$DMunknown?$DO?$AA@ 10091484     libvcruntime:undname.obj
 0002:00016490       ??_C@_08HBIPOFJB@char16_t?$AA@ 10091490     libvcruntime:undname.obj
 0002:0001649c       ??_C@_08IECNCBKG@char32_t?$AA@ 1009149c     libvcruntime:undname.obj
 0002:000164a8       ??_C@_07CLGGIAMF@wchar_t?$AA@ 100914a8     libvcruntime:undname.obj
 0002:000164b4       ??_C@_06GCICPBLB@__w64?5?$AA@ 100914b4     libvcruntime:undname.obj
 0002:000164bc       ??_C@_07NFANNNEC@UNKNOWN?$AA@ 100914bc     libvcruntime:undname.obj
 0002:000164c8       ??_C@_07EDHNAJHC@signed?5?$AA@ 100914c8     libvcruntime:undname.obj
 0002:000164d4       ??_C@_05BNCCCJPP@const?$AA@ 100914d4     libvcruntime:undname.obj
 0002:000164dc       ??_C@_09EFNPDFFP@?5volatile?$AA@ 100914dc     libvcruntime:undname.obj
 0002:000164e8       ??_C@_0P@GCIFDJCJ@?$GAunknown?5ecsu?8?$AA@ 100914e8     libvcruntime:undname.obj
 0002:000164fc       ??_C@_06MOJHIBMG@union?5?$AA@ 100914fc     libvcruntime:undname.obj
 0002:00016504       ??_C@_07DIBCDNGL@struct?5?$AA@ 10091504     libvcruntime:undname.obj
 0002:00016510       ??_C@_06LJBABKPM@class?5?$AA@ 10091510     libvcruntime:undname.obj
 0002:00016518       ??_C@_08KOFANOFK@coclass?5?$AA@ 10091518     libvcruntime:undname.obj
 0002:00016524       ??_C@_0N@DLIEFKNA@cointerface?5?$AA@ 10091524     libvcruntime:undname.obj
 0002:00016534       ??_C@_05LJGMCFOG@enum?5?$AA@ 10091534     libvcruntime:undname.obj
 0002:0001653c       ??_C@_09GAIEOBLP@volatile?5?$AA@ 1009153c     libvcruntime:undname.obj
 0002:00016548       ??_C@_06LIJLOJAG@const?5?$AA@ 10091548     libvcruntime:undname.obj
 0002:00016550       ??_C@_02KJPKDIBN@?$CG?5?$AA@ 10091550     libvcruntime:undname.obj
