 Control_software_v1_1_slrt

 Timestamp is 58d9315e (Mon Mar 27 17:35:58 2017)

 Preferred load address is 10000000

 Start         Length     Name                   Class
 0001:00000000 00006128H .text                   CODE
 0001:00006130 000740caH .text$mn                CODE
 0002:00000000 00000104H .CRT$XCA                DATA
 0002:00000104 00000104H .CRT$XCZ                DATA
 0002:00000208 00000104H .CRT$XIA                DATA
 0002:0000030c 0000010eH .CRT$XIC                DATA
 0002:0000041c 00000104H .CRT$XIZ                DATA
 0002:00000520 00000104H .CRT$XPA                DATA
 0002:00000624 00000109H .CRT$XPX                DATA
 0002:00000730 00000104H .CRT$XPXA               DATA
 0002:00000834 00000104H .CRT$XPZ                DATA
 0002:00000938 00000104H .CRT$XTA                DATA
 0002:00000a3c 00000104H .CRT$XTZ                DATA
 0002:00000b40 00023b5bH .rdata                  DATA
 0002:0002469c 0000038aH .rdata$r                DATA
 0002:00024a30 0000010eH .rdata$sxdata           DATA
 0002:00024b40 00000113H .rdata$zETW0            DATA
 0002:00024c53 0000018eH .rdata$zETW1            DATA
 0002:00024de1 00000134H .rdata$zETW2            DATA
 0002:00024f15 00000101H .rdata$zETW9            DATA
 0002:00025018 000001d3H .rdata$zzzdbg           DATA
 0002:000251ec 00000104H .rtc$IAA                DATA
 0002:000252f0 00000104H .rtc$IZZ                DATA
 0002:000253f4 00000104H .rtc$TAA                DATA
 0002:000254f8 00000104H .rtc$TZZ                DATA
 0002:00025600 00000ac0H .xdata$x                DATA
 0002:000260c0 000001f1H .edata                  DATA
 0003:00000000 000050b2H .data                   DATA
 0003:000050b4 000001d4H .data$r                 DATA
 0003:000052a0 000265b0H .bss                    DATA
 0004:00000000 000001ecH .idata$5                DATA
 0004:000001ec 00000028H .idata$2                DATA
 0004:00000214 00000014H .idata$3                DATA
 0004:00000228 000001ecH .idata$4                DATA
 0004:00000414 0000080cH .idata$6                DATA
 0005:00000000 00000104H .00cfg                  DATA

  Address         Publics by Value              Rva+Base       Lib:Object

 0000:00000000       ___guard_fids_count        00000000     <absolute>
 0000:00000000       ___guard_fids_table        00000000     <absolute>
 0000:00000000       __except_list              00000000     <absolute>
 0000:00000003       ___safe_se_handler_count   00000003     <absolute>
 0000:00000100       ___guard_flags             00000100     <absolute>
 0000:00000000       ___ImageBase               10000000     <linker-defined>
 0001:00005e33       ?TraceLoggingRegister@__vcrt_trace_logging_provider@@YAJPBU_TlgProvider_t@1@PBU_GUID@@P6GX1KE_K2PAU_EVENT_FILTER_DESCRIPTOR@@PAX@Z4@Z 10006e33 f i libvcruntime:telemetry.obj
 0001:00005ea7       ?TraceLoggingSetInformation@__vcrt_trace_logging_provider@@YAJPBU_TlgProvider_t@1@W4_EVENT_INFO_CLASS@@PAXK@Z 10006ea7 f i libvcruntime:telemetry.obj
 0001:00005edc       ?TraceLoggingUnregister@__vcrt_trace_logging_provider@@YAXPBU_TlgProvider_t@1@@Z 10006edc f i libvcruntime:telemetry.obj
 0001:00005f02       ?_TlgCreateSz@__vcrt_trace_logging_provider@@YAXPAU_EVENT_DATA_DESCRIPTOR@@PBD@Z 10006f02 f i libvcruntime:telemetry.obj
 0001:00005f48       ?_TlgCreateWsz@__vcrt_trace_logging_provider@@YAXPAU_EVENT_DATA_DESCRIPTOR@@PB_W@Z 10006f48 f i libvcruntime:telemetry.obj
 0001:00005f9d       ?_TlgEnableCallback@__vcrt_trace_logging_provider@@YGXPBU_GUID@@KE_K1PAU_EVENT_FILTER_DESCRIPTOR@@PAX@Z 10006f9d f i libvcruntime:telemetry.obj
 0001:00006033       ?_TlgKeywordOn@__vcrt_trace_logging_provider@@YAEPBU_TlgProvider_t@1@_K@Z 10007033 f i libvcruntime:telemetry.obj
 0001:0000607e       ?_TlgWrite@__vcrt_trace_logging_provider@@YAJPBU_TlgProvider_t@1@PBXPBU_GUID@@2IPAU_EVENT_DATA_DESCRIPTOR@@@Z 1000707e f i libvcruntime:telemetry.obj
 0001:00006130       _C_EmbeddedMATLABFunction1_g 10007130 f   Control_software_v1_1.obj
 0001:000064c0       _Co_EmbeddedMATLABFunction_b 100074c0 f   Control_software_v1_1.obj
 0001:00006b30       _Co_EmbeddedMATLABFunction_k 10007b30 f   Control_software_v1_1.obj
 0001:000073c0       _Con_EmbeddedMATLABFunction1 100083c0 f   Control_software_v1_1.obj
 0001:00007500       _Cont_EmbeddedMATLABFunction 10008500 f   Control_software_v1_1.obj
 0001:00007880       _Control_soft_RS232ISR_Start 10008880 f   Control_software_v1_1.obj
 0001:00007d50       _Control_softw_RS232ISR_Term 10008d50 f   Control_software_v1_1.obj
 0001:000081f0       _Control_software_v1_1     100091f0 f   Control_software_v1_1.obj
 0001:00018290       _Control_software_v_RS232ISR 10019290 f   Control_software_v1_1.obj
 0001:00018750       _MdlInitialize             10019750 f   Control_software_v1_1.obj
 0001:00018760       _MdlInitializeSampleTimes  10019760 f   Control_software_v1_1.obj
 0001:00018770       _MdlInitializeSizes        10019770 f   Control_software_v1_1.obj
 0001:00018780       _MdlOutputs                10019780 f   Control_software_v1_1.obj
 0001:000187d0       _MdlStart                  100197d0 f   Control_software_v1_1.obj
 0001:000187e0       _MdlTerminate              100197e0 f   Control_software_v1_1.obj
 0001:000187f0       _MdlUpdate                 100197f0 f   Control_software_v1_1.obj
 0001:00018840       ___local_stdio_printf_options 10019840 f i Control_software_v1_1.obj
 0001:00018850       __vfprintf_l               10019850 f i Control_software_v1_1.obj
 0001:00018880       __vsnprintf_l              10019880 f i Control_software_v1_1.obj
 0001:000188c0       __vsprintf_l               100198c0 f i Control_software_v1_1.obj
 0001:00018900       _printf                    10019900 f i Control_software_v1_1.obj
 0001:00018a20       _rt_SimUpdateDiscreteEvents 10019a20 f   Control_software_v1_1.obj
 0001:00018a70       _rt_powd_snf               10019a70 f   Control_software_v1_1.obj
 0001:00018cf0       _sprintf                   10019cf0 f i Control_software_v1_1.obj
 0001:00018d30       _xPCISR1                   10019d30 f   Control_software_v1_1.obj
 0001:00018e30       _rt_mxCreateCharMatrixFromStrings 10019e30 f   rt_matrx.obj
 0001:00018f90       _rt_mxCreateDoubleMatrix   10019f90 f   rt_matrx.obj
 0001:00018ff0       _rt_mxCreateNumericArray   10019ff0 f   rt_matrx.obj
 0001:00019070       _rt_mxCreateString         1001a070 f   rt_matrx.obj
 0001:00019100       _rt_mxDuplicateArray       1001a100 f   rt_matrx.obj
 0001:00019160       _rt_mxGetDimensions        1001a160 f   rt_matrx.obj
 0001:000191a0       _rt_mxGetEps               1001a1a0 f   rt_matrx.obj
 0001:000191b0       _rt_mxGetString            1001a1b0 f   rt_matrx.obj
 0001:00019230       _rtPrintfNoOp              1001a230 f   rt_printf.obj
 0001:00019240       _Control_software_v1_1_GetCAPIStaticMap 1001a240 f   Control_software_v1_1_capi.obj
 0001:00019250       _Control_software_v1_1_InitializeDataMapInfo 1001a250 f   Control_software_v1_1_capi.obj
 0001:000192e0       _rtGetInf                  1001a2e0 f   rtGetInf.obj
 0001:00019310       _rtGetInfF                 1001a310 f   rtGetInf.obj
 0001:00019330       _rtGetMinusInf             1001a330 f   rtGetInf.obj
 0001:00019360       _rtGetMinusInfF            1001a360 f   rtGetInf.obj
 0001:00019380       _rtGetNaN                  1001a380 f   rtGetNaN.obj
 0001:000193b0       _rtGetNaNF                 1001a3b0 f   rtGetNaN.obj
 0001:000193d0       _rtIsInf                   1001a3d0 f   rt_nonfinite.obj
 0001:00019410       _rtIsInfF                  1001a410 f   rt_nonfinite.obj
 0001:00019450       _rtIsNaN                   1001a450 f   rt_nonfinite.obj
 0001:00019470       _rtIsNaNF                  1001a470 f   rt_nonfinite.obj
 0001:00019490       _rt_InitInfAndNaN          1001a490 f   rt_nonfinite.obj
 0001:000194f0       _rt_CleanUpForStateLogWithMMI 1001a4f0 f   rt_logging_mmi.obj
 0001:00019600       _rt_FillStateSigInfoFromMMI 1001a600 f   rt_logging_mmi.obj
 0001:000199a0       _rtwCAPI_CountSysRan       1001a9a0 f   rtw_modelmap_utils.obj
 0001:00019a40       _rtwCAPI_EncodePath        1001aa40 f   rtw_modelmap_utils.obj
 0001:00019b40       _rtwCAPI_FillSysRan        1001ab40 f   rtw_modelmap_utils.obj
 0001:00019c30       _rtwCAPI_FreeFullPaths     1001ac30 f   rtw_modelmap_utils.obj
 0001:00019cc0       _rtwCAPI_GetFullStateBlockPath 1001acc0 f   rtw_modelmap_utils.obj
 0001:00019e70       _rtwCAPI_GetNumContStateRecords 1001ae70 f   rtw_modelmap_utils.obj
 0001:00019f30       _rtwCAPI_GetNumSigLogRecords 1001af30 f   rtw_modelmap_utils.obj
 0001:00019f80       _rtwCAPI_GetNumSigLogRecordsForRTWLogging 1001af80 f   rtw_modelmap_utils.obj
 0001:0001a010       _rtwCAPI_GetNumStateRecords 1001b010 f   rtw_modelmap_utils.obj
 0001:0001a060       _rtwCAPI_GetNumStateRecordsForRTWLogging 1001b060 f   rtw_modelmap_utils.obj
 0001:0001a0f0       _rtwCAPI_GetSigAddrFromMap 1001b0f0 f   rtw_modelmap_utils.obj
 0001:0001a1b0       _rtwCAPI_GetSigLogRecordInfo 1001b1b0 f   rtw_modelmap_utils.obj
 0001:0001a5e0       _rtwCAPI_GetStateRecordInfo 1001b5e0 f   rtw_modelmap_utils.obj
 0001:0001aa90       _rtwCAPI_GetStateWidth     1001ba90 f   rtw_modelmap_utils.obj
 0001:0001aaf0       _rtwCAPI_HasStates         1001baf0 f   rtw_modelmap_utils.obj
 0001:0001ab60       _rtwCAPI_UpdateFullPaths   1001bb60 f   rtw_modelmap_utils.obj
 0001:0001ad40       _fprintf                   1001bd40 f i rt_logging.obj
 0001:0001b640       _rt_CreateLogVar           1001c640 f   rt_logging.obj
 0001:0001b6d0       _rt_CreateLogVarWithConvert 1001c6d0 f   rt_logging.obj
 0001:0001c020       _rt_CreateStructLogVar     1001d020 f   rt_logging.obj
 0001:0001cd80       _rt_GetMxIdFromDTypeId     1001dd80 f   rt_logging.obj
 0001:0001cdb0       _rt_GetMxIdFromDTypeIdForRSim 1001ddb0 f   rt_logging.obj
 0001:0001f680       _rt_StartDataLogging       10020680 f   rt_logging.obj
 0001:0001fb40       _rt_StartDataLoggingWithStartTime 10020b40 f   rt_logging.obj
 0001:00020490       _rt_StopDataLogging        10021490 f   rt_logging.obj
 0001:000204b0       _rt_StopDataLoggingImpl    100214b0 f   rt_logging.obj
 0001:000207e0       _rt_UpdateLogVar           100217e0 f   rt_logging.obj
 0001:00021900       _rt_UpdateStructLogVar     10022900 f   rt_logging.obj
 0001:00021990       _rt_UpdateTXXFYLogVars     10022990 f   rt_logging.obj
 0001:00021cd0       _rt_UpdateTXYLogVars       10022cd0 f   rt_logging.obj
 0001:00021f20       _Control_software_v1_1_ChangeStepSize 10022f20 f   xpctarget.obj
 0001:00021fc0       _DllMain@12                10022fc0 f   xpctarget.obj
 0001:00021fd0       _SLRTSetErrorStatus        10022fd0 f   xpctarget.obj
 0001:00021ff0       _changeStepSize            10022ff0 f   xpctarget.obj
 0001:00022080       _getDLMVersion             10023080 f   xpctarget.obj
 0001:00022090       _getRefMdlPath             10023090 f   xpctarget.obj
 0001:00022110       _getRefMdlSignalNumber     10023110 f   xpctarget.obj
 0001:000221c0       _getrlmdlinfo              100231c0 f   xpctarget.obj
 0001:000223a0       _updateDiscreteEvents      100233a0 f   xpctarget.obj
 0001:00022400       _getNumRef                 10023400 f   appmappingData.obj
 0001:00022410       _vprintf                   10023410 f i legacy_stdio.obj
 0001:00022450       _adnipcim                  10023450 f   adnipcim.obj
 0001:00022e20       _danipcim                  10023e20 f   danipcim.obj
 0001:000235c0       _dinipcim                  100245c0 f   dinipcim.obj
 0001:00023960       _donipcim                  10024960 f   donipcim.obj
 0001:00023e50       _fiforead                  10024e50 f   fiforead.obj
 0001:00024570       _fiforeadhdr               10025570 f   fiforeadhdr.obj
 0001:000250c0       _fifowrite                 100260c0 f   fifowrite.obj
 0001:000257e0       _filterqua                 100267e0 f   filterqua.obj
 0001:00025af0       _iqueryqua                 10026af0 f   iqueryqua.obj
 0001:00026210       _pfidinipcim               10027210 f   pfidinipcim.obj
 0001:00026810       _pfidonipcim               10027810 f   pfidonipcim.obj
 0001:00026b70       _serreadqua                10027b70 f   serreadqua.obj
 0001:00026e20       _sertxenable               10027e20 f   sertxenable.obj
 0001:00027280       _serwritequa               10028280 f   serwritequa.obj
 0001:000278c0       _setupqua                  100288c0 f   setupqua.obj
 0001:00027970       _niMIdentify               10028970 f   xpcionim.obj
 0001:00027af0       _niM_AISetup               10028af0 f   xpcionim.obj
 0001:00027f00       _niM_AO_Setup              10028f00 f   xpcionim.obj
 0001:00028090       _niM_Cont_Pulse_Train_Generation 10029090 f   xpcionim.obj
 0001:000281d0       _niM_Counter_Reset_All     100291d0 f   xpcionim.obj
 0001:00028280       _niM_CtrArm                10029280 f   xpcionim.obj
 0001:000282a0       _niM_CtrDisarm             100292a0 f   xpcionim.obj
 0001:000282c0       _niM_CtrReadArm            100292c0 f   xpcionim.obj
 0001:000282e0       _niM_CtrReadDisarm         100292e0 f   xpcionim.obj
 0001:00028300       _niM_PeriodConfigure       10029300 f   xpcionim.obj
 0001:00028470       _niM_Private_Data          10029470 f   xpcionim.obj
 0001:00028a50       _niM_SetPFIFilter          10029a50 f   xpcionim.obj
 0001:00028ad0       _niM_SetPFI_DO             10029ad0 f   xpcionim.obj
 0001:00028b10       _niM_SetPFI_Select         10029b10 f   xpcionim.obj
 0001:00028b90       _niM_aiConfigureChannel    10029b90 f   xpcionim.obj
 0001:00028c00       _niM_aiGetScalingCoefficients 10029c00 f   xpcionim.obj
 0001:00028de0       _niM_aiPolynomialScaler    10029de0 f   xpcionim.obj
 0001:00028f10       _niM_analogTriggerReset    10029f10 f   xpcionim.obj
 0001:00028f60       _niM_aoConfigureDAC        10029f60 f   xpcionim.obj
 0001:00028fb0       _niM_aoGetScalingCoefficients 10029fb0 f   xpcionim.obj
 0001:00029060       _niM_aoLinearScaler        1002a060 f   xpcionim.obj
 0001:00029090       _niM_configureTimebase     1002a090 f   xpcionim.obj
 0001:000290b0       _niM_eepromReadMSeries     1002a0b0 f   xpcionim.obj
 0001:00029180       _niM_pllReset              1002a180 f   xpcionim.obj
 0001:000291b0       _niM_resetCtr              1002a1b0 f   xpcionim.obj
 0001:000291d0       _niM_whichBank             1002a1d0 f   xpcionim.obj
 0001:00029210       _niMconfig                 1002a210 f   xpcionim.obj
 0001:000292b0       _quatechinit               1002a2b0 f   quatechinit.obj
 0001:00029510       _GetPCIDeviceFull          1002a510 f   xpcruntime:xpcimports.obj
 0001:00029550       _ShowPCIDevice             1002a550 f   xpcruntime:xpcimports.obj
 0001:00029d50       _xpcGetPciConfigAtSlot     1002ad50 f   xpcruntime:xpcimports.obj
 0001:0002a070       _xpcInitProcs              1002b070 f   xpcruntime:xpcimports.obj
 0001:0002b3d0       _xpceuploadevent           1002c3d0 f   xpcruntime:xpcimports.obj
 0001:0002b3d1       ___raise_securityfailure   1002c3d1 f   LIBCMT:gs_report.obj
 0001:0002b403       ___report_gsfailure        1002c403 f   LIBCMT:gs_report.obj
 0001:0002b53c       ___report_rangecheckfailure 1002c53c f   LIBCMT:gs_report.obj
 0001:0002b54b       ___report_securityfailure  1002c54b f   LIBCMT:gs_report.obj
 0001:0002b64f       ___report_securityfailureEx 1002c64f f   LIBCMT:gs_report.obj
 0001:0002b7aa       @__security_check_cookie@4 1002c7aa f   LIBCMT:_secchk_.obj
 0001:0002b7c0       __ftoui3                   1002c7c0 f   LIBCMT:_ftol3_.obj
 0001:0002b7cf       __ftoul3                   1002c7cf f   LIBCMT:_ftol3_.obj
 0001:0002b7de       __ftol3                    1002c7de f   LIBCMT:_ftol3_.obj
 0001:0002b7eb       __ftol3_NaN                1002c7eb f   LIBCMT:_ftol3_.obj
 0001:0002b803       __ftol3_work               1002c803 f   LIBCMT:_ftol3_.obj
 0001:0002b889       __ftol3_common             1002c889 f   LIBCMT:_ftol3_.obj
 0001:0002b94b       __ftol3_arg_error          1002c94b f   LIBCMT:_ftol3_.obj
 0001:0002b95d       __ftol3_except             1002c95d f   LIBCMT:_ftol3_.obj
 0001:0002b9a1       __dtoui3                   1002c9a1 f   LIBCMT:_ftol3_.obj
 0001:0002b9b0       __dtoul3                   1002c9b0 f   LIBCMT:_ftol3_.obj
 0001:0002b9bf       __dtol3                    1002c9bf f   LIBCMT:_ftol3_.obj
 0001:0002b9cc       __dtol3_NaN                1002c9cc f   LIBCMT:_ftol3_.obj
 0001:0002b9e9       __dtol3_work               1002c9e9 f   LIBCMT:_ftol3_.obj
 0001:0002bad0       __ultod3                   1002cad0 f   LIBCMT:_ftol3_.obj
 0001:0002bb10       __ltod3                    1002cb10 f   LIBCMT:_ftol3_.obj
 0001:0002bc14       ___isa_available_init      1002cc14 f   LIBCMT:_cpu_disp_.obj
 0001:0002c1f5       __CRT_INIT@12              1002d1f5 f   LIBCMT:dll_dllmain.obj
 0001:0002c200       __DllMainCRTStartup@12     1002d200 f   LIBCMT:dll_dllmain.obj
 0001:0002c22b       ??$__crt_fast_decode_pointer@PAP6AXXZ@@YAPAP6AXXZQAP6AXXZ@Z 1002d22b f i LIBCMT:utility.obj
 0001:0002c244       ??$__crt_fast_encode_pointer@PAP6AXXZ@@YAPAP6AXXZQAP6AXXZ@Z 1002d244 f i LIBCMT:utility.obj
 0001:0002c268       ?__crt_rotate_pointer_value@@YAIIH@Z 1002d268 f i LIBCMT:utility.obj
 0001:0002c30c       _NtCurrentTeb              1002d30c f i LIBCMT:utility.obj
 0001:0002c313       ___scrt_acquire_startup_lock 1002d313 f   LIBCMT:utility.obj
 0001:0002c355       ___scrt_dllmain_after_initialize_c 1002d355 f   LIBCMT:utility.obj
 0001:0002c373       ___scrt_dllmain_before_initialize_c 1002d373 f   LIBCMT:utility.obj
 0001:0002c384       ___scrt_dllmain_crt_thread_attach 1002d384 f   LIBCMT:utility.obj
 0001:0002c3aa       ___scrt_dllmain_crt_thread_detach 1002d3aa f   LIBCMT:utility.obj
 0001:0002c3ba       ___scrt_dllmain_exception_filter 1002d3ba f   LIBCMT:utility.obj
 0001:0002c3f9       ___scrt_dllmain_uninitialize_c 1002d3f9 f   LIBCMT:utility.obj
 0001:0002c424       ___scrt_dllmain_uninitialize_critical 1002d424 f   LIBCMT:utility.obj
 0001:0002c434       ___scrt_initialize_crt     1002d434 f   LIBCMT:utility.obj
 0001:0002c47b       ___scrt_initialize_onexit_tables 1002d47b f   LIBCMT:utility.obj
 0001:0002c537       ___scrt_is_nonwritable_in_current_image 1002d537 f   LIBCMT:utility.obj
 0001:0002c5e7       ___scrt_release_startup_lock 1002d5e7 f   LIBCMT:utility.obj
 0001:0002c60b       ___scrt_uninitialize_crt   1002d60b f   LIBCMT:utility.obj
 0001:0002c63d       __onexit                   1002d63d f   LIBCMT:utility.obj
 0001:0002c686       _at_quick_exit             1002d686 f   LIBCMT:utility.obj
 0001:0002c6c3       _atexit                    1002d6c3 f   LIBCMT:utility.obj
 0001:0002c6dd       ___security_init_cookie    1002d6dd f   LIBCMT:gs_support.obj
 0001:0002c7a0       ?__scrt_initialize_type_info@@YAXXZ 1002d7a0 f   LIBCMT:tncleanup.obj
 0001:0002c7af       ?__scrt_uninitialize_type_info@@YAXXZ 1002d7af f   LIBCMT:tncleanup.obj
 0001:0002c7be       ___local_stdio_scanf_options 1002d7be f i LIBCMT:default_local_stdio_options.obj
 0001:0002c7c4       ___scrt_initialize_default_local_stdio_options 1002d7c4 f   LIBCMT:default_local_stdio_options.obj
 0001:0002c7e8       ___scrt_get_dyn_tls_init_callback 1002d7e8 f   LIBCMT:dyn_tls_init.obj
 0001:0002c7ee       ___scrt_fastfail           1002d7ee f   LIBCMT:utility_desktop.obj
 0001:0002c94f       ___scrt_get_show_window_mode 1002d94f f   LIBCMT:utility_desktop.obj
 0001:0002c98e       ___scrt_initialize_winrt   1002d98e f   LIBCMT:utility_desktop.obj
 0001:0002c991       ___scrt_is_managed_app     1002d991 f   LIBCMT:utility_desktop.obj
 0001:0002c9e6       ___scrt_set_unhandled_exception_filter 1002d9e6 f   LIBCMT:utility_desktop.obj
 0001:0002c9f5       ___scrt_unhandled_exception_filter@4 1002d9f5 f   LIBCMT:utility_desktop.obj
 0001:0002ca46       __crt_debugger_hook        1002da46 f   LIBCMT:utility_desktop.obj
 0001:0002ca50       __RTC_Initialize           1002da50 f   LIBCMT:_initsect_.obj
 0001:0002ca85       __RTC_Terminate            1002da85 f   LIBCMT:_initsect_.obj
 0001:0002caba       @_guard_check_icall@4      1002daba f i LIBCMT:checkcfg.obj
 0001:0002cac0       __SEH_prolog4              1002dac0 f   LIBCMT:_sehprolg4_.obj
 0001:0002cb06       __SEH_epilog4              1002db06 f   LIBCMT:_sehprolg4_.obj
 0001:0002cb31       ___scrt_is_ucrt_dll_in_use 1002db31 f   LIBCMT:ucrt_detection.obj
 0001:0002cb40       @_guard_check_icall_nop@4  1002db40 f i LIBCMT:guard_support.obj
 0001:0002cb41       __guard_icall_checks_enforced 1002db41 f i LIBCMT:guard_support.obj
 0001:0002cb58       _GetModuleHandleA@4        1002db58 f   kernel32:KERNEL32.dll
 0001:0002cb5e       _GetProcAddress@8          1002db5e f   kernel32:KERNEL32.dll
 0001:0002cb64       _UnhandledExceptionFilter@4 1002db64 f   kernel32:KERNEL32.dll
 0001:0002cb6a       _SetUnhandledExceptionFilter@4 1002db6a f   kernel32:KERNEL32.dll
 0001:0002cb70       _GetCurrentProcess@0       1002db70 f   kernel32:KERNEL32.dll
 0001:0002cb76       _TerminateProcess@8        1002db76 f   kernel32:KERNEL32.dll
 0001:0002cb7c       _IsProcessorFeaturePresent@4 1002db7c f   kernel32:KERNEL32.dll
 0001:0002cb82       _QueryPerformanceCounter@4 1002db82 f   kernel32:KERNEL32.dll
 0001:0002cb88       _GetCurrentProcessId@0     1002db88 f   kernel32:KERNEL32.dll
 0001:0002cb8e       _GetCurrentThreadId@0      1002db8e f   kernel32:KERNEL32.dll
 0001:0002cb94       _GetSystemTimeAsFileTime@4 1002db94 f   kernel32:KERNEL32.dll
 0001:0002cb9a       _InitializeSListHead@4     1002db9a f   kernel32:KERNEL32.dll
 0001:0002cba0       _IsDebuggerPresent@0       1002dba0 f   kernel32:KERNEL32.dll
 0001:0002cba6       _GetStartupInfoW@4         1002dba6 f   kernel32:KERNEL32.dll
 0001:0002cbac       _GetModuleHandleW@4        1002dbac f   kernel32:KERNEL32.dll
 0001:0002cbc0       _memset                    1002dbc0 f   libvcruntime:memset.obj
 0001:0002cd70       _memcpy                    1002dd70 f   libvcruntime:memcpy.obj
 0001:0002d450       _memmove                   1002e450 f   libvcruntime:memmove.obj
 0001:0002db30       _strchr                    1002eb30 f   libvcruntime:strchr.obj
 0001:0002db9e       ___from_strstr_to_strchr   1002eb9e     libvcruntime:strchr.obj
 0001:0002dcee       _EventDataDescCreate       1002ecee f i libvcruntime:telemetry.obj
 0001:0002dd0f       _HRESULT_FROM_WIN32        1002ed0f f i libvcruntime:telemetry.obj
 0001:0002dd28       ___telemetry_main_invoke_trigger 1002ed28 f   libvcruntime:telemetry.obj
 0001:0002ddeb       ___telemetry_main_return_trigger 1002edeb f   libvcruntime:telemetry.obj
 0001:0002deae       ___vcrt_initialize_telemetry_provider 1002eeae f   libvcruntime:telemetry.obj
 0001:0002dec5       ___vcrt_uninitialize_telemetry_provider 1002eec5 f   libvcruntime:telemetry.obj
 0001:0002df20       __except_handler4          1002ef20 f   libvcruntime:_chandler4_.obj
 0001:0002e0d0       ___vcrt_initialize         1002f0d0 f   libvcruntime:initialization.obj
 0001:0002e109       ___vcrt_thread_attach      1002f109 f   libvcruntime:initialization.obj
 0001:0002e116       ___vcrt_thread_detach      1002f116 f   libvcruntime:initialization.obj
 0001:0002e123       ___vcrt_uninitialize       1002f123 f   libvcruntime:initialization.obj
 0001:0002e150       ___vcrt_uninitialize_critical 1002f150 f   libvcruntime:initialization.obj
 0001:0002e16b       ??$?RD@__crt_internal_free_policy@@QBEXQBD@Z 1002f16b f i libvcruntime:std_type_info.obj
 0001:0002e17f       ??$?RX@__crt_internal_free_policy@@QBEXQBX@Z 1002f17f f i libvcruntime:std_type_info.obj
 0001:0002e193       ??$__crt_interlocked_compare_exchange_pointer@$$CBD$$T$$T@@YAPBDPDSBD$$T1@Z 1002f193 f i libvcruntime:std_type_info.obj
 0001:0002e1a9       ??$__crt_interlocked_compare_exchange_pointer@$$CBDPAD$$T@@YAPBDPDSBDQAD$$T@Z 1002f1a9 f i libvcruntime:std_type_info.obj
 0001:0002e1bf       ??$__crt_interlocked_read_pointer@$$CBD@@YAPBDPDSBD@Z 1002f1bf f i libvcruntime:std_type_info.obj
 0001:0002e1d3       ??0?$__crt_unique_heap_ptr@DU__crt_internal_free_policy@@@@QAE@QAD@Z 1002f1d3 f i libvcruntime:std_type_info.obj
 0001:0002e1e4       ??0?$__crt_unique_heap_ptr@XU__crt_internal_free_policy@@@@QAE@QAX@Z 1002f1e4 f i libvcruntime:std_type_info.obj
 0001:0002e1f5       ??1?$__crt_unique_heap_ptr@DU__crt_internal_free_policy@@@@QAE@XZ 1002f1f5 f i libvcruntime:std_type_info.obj
 0001:0002e209       ??1?$__crt_unique_heap_ptr@XU__crt_internal_free_policy@@@@QAE@XZ 1002f209 f i libvcruntime:std_type_info.obj
 0001:0002e229       ??B?$__crt_unique_heap_ptr@DU__crt_internal_free_policy@@@@QBE_NXZ 1002f229 f i libvcruntime:std_type_info.obj
 0001:0002e233       ??B?$__crt_unique_heap_ptr@XU__crt_internal_free_policy@@@@QBE_NXZ 1002f233 f i libvcruntime:std_type_info.obj
 0001:0002e265       ?detach@?$__crt_unique_heap_ptr@XU__crt_internal_free_policy@@@@QAEPAXXZ 1002f265 f i libvcruntime:std_type_info.obj
 0001:0002e26b       ?get@?$__crt_unique_heap_ptr@DU__crt_internal_free_policy@@@@QBEPADXZ 1002f26b f i libvcruntime:std_type_info.obj
 0001:0002e26e       ?get@?$__crt_unique_heap_ptr@XU__crt_internal_free_policy@@@@QBEPAXXZ 1002f26e f i libvcruntime:std_type_info.obj
 0001:0002e271       ?is_valid@?$__crt_unique_heap_ptr@DU__crt_internal_free_policy@@@@QBE_NXZ 1002f271 f i libvcruntime:std_type_info.obj
 0001:0002e27b       ?is_valid@?$__crt_unique_heap_ptr@XU__crt_internal_free_policy@@@@QBE_NXZ 1002f27b f i libvcruntime:std_type_info.obj
 0001:0002e285       ?release@?$__crt_unique_heap_ptr@DU__crt_internal_free_policy@@@@QAEXXZ 1002f285 f i libvcruntime:std_type_info.obj
 0001:0002e299       ?release@?$__crt_unique_heap_ptr@XU__crt_internal_free_policy@@@@QAEXXZ 1002f299 f i libvcruntime:std_type_info.obj
 0001:0002e2ad       ___std_type_info_compare   1002f2ad f   libvcruntime:std_type_info.obj
 0001:0002e2f8       ___std_type_info_destroy_list 1002f2f8 f   libvcruntime:std_type_info.obj
 0001:0002e323       ___std_type_info_hash      1002f323 f   libvcruntime:std_type_info.obj
 0001:0002e352       ___std_type_info_name      1002f352 f   libvcruntime:std_type_info.obj
 0001:0002e44f       ??$?BX@__crt_fast_encoded_nullptr_t@@QBEPAXXZ 1002f44f f i libvcruntime:winapi_downlevel.obj
 0001:0002e46d       ??$__crt_fast_decode_pointer@PAX@@YAPAXQAX@Z 1002f46d f i libvcruntime:winapi_downlevel.obj
 0001:0002e486       ??$__crt_fast_encode_pointer@PAX@@YAPAXQAX@Z 1002f486 f i libvcruntime:winapi_downlevel.obj
 0001:0002e4aa       ??$__crt_interlocked_compare_exchange_pointer@UHINSTANCE__@@$$T$$T@@YAPAUHINSTANCE__@@PDSAU0@$$T1@Z 1002f4aa f i libvcruntime:winapi_downlevel.obj
 0001:0002e4c0       ??$__crt_interlocked_compare_exchange_pointer@X$$T$$T@@YAPAXPDSAX$$T1@Z 1002f4c0 f i libvcruntime:winapi_downlevel.obj
 0001:0002e4d6       ??$__crt_interlocked_exchange_pointer@UHINSTANCE__@@PAU1@@@YAPAUHINSTANCE__@@PDSAU0@QAU0@@Z 1002f4d6 f i libvcruntime:winapi_downlevel.obj
 0001:0002e4e6       ??$__crt_interlocked_exchange_pointer@UHINSTANCE__@@PAX@@YAPAUHINSTANCE__@@PDSAU0@QAX@Z 1002f4e6 f i libvcruntime:winapi_downlevel.obj
 0001:0002e4f6       ??$__crt_interlocked_exchange_pointer@XPAX@@YAPAXPDSAXQAX@Z 1002f4f6 f i libvcruntime:winapi_downlevel.obj
 0001:0002e506       ??$__crt_interlocked_read_pointer@UHINSTANCE__@@@@YAPAUHINSTANCE__@@PDSAU0@@Z 1002f506 f i libvcruntime:winapi_downlevel.obj
 0001:0002e51a       ??$__crt_interlocked_read_pointer@X@@YAPAXPDSAX@Z 1002f51a f i libvcruntime:winapi_downlevel.obj
 0001:0002e52e       ?__crt_fast_encode_pointer@@YA?AU__crt_fast_encoded_nullptr_t@@$$T@Z 1002f52e f i libvcruntime:winapi_downlevel.obj
 0001:0002e872       ___vcrt_EventRegister      1002f872 f   libvcruntime:winapi_downlevel.obj
 0001:0002e8c2       ___vcrt_EventSetInformation 1002f8c2 f   libvcruntime:winapi_downlevel.obj
 0001:0002e915       ___vcrt_EventUnregister    1002f915 f   libvcruntime:winapi_downlevel.obj
 0001:0002e95d       ___vcrt_EventWriteTransfer 1002f95d f   libvcruntime:winapi_downlevel.obj
 0001:0002e9b8       ___vcrt_FlsAlloc           1002f9b8 f   libvcruntime:winapi_downlevel.obj
 0001:0002ea00       ___vcrt_FlsFree            1002fa00 f   libvcruntime:winapi_downlevel.obj
 0001:0002ea48       ___vcrt_FlsGetValue        1002fa48 f   libvcruntime:winapi_downlevel.obj
 0001:0002ea90       ___vcrt_FlsSetValue        1002fa90 f   libvcruntime:winapi_downlevel.obj
 0001:0002eadc       ___vcrt_InitializeCriticalSectionEx 1002fadc f   libvcruntime:winapi_downlevel.obj
 0001:0002eb33       ___vcrt_initialize_winapi_thunks 1002fb33 f   libvcruntime:winapi_downlevel.obj
 0001:0002eb60       ___vcrt_uninitialize_winapi_thunks 1002fb60 f   libvcruntime:winapi_downlevel.obj
 0001:0002eba0       __local_unwind4            1002fba0 f   libvcruntime:_exsup4_.obj
 0001:0002ec76       __seh_longjmp_unwind4@4    1002fc76 f   libvcruntime:_exsup4_.obj
 0001:0002ec9e       @_EH4_CallFilterFunc@8     1002fc9e f   libvcruntime:_exsup4_.obj
 0001:0002ecb5       @_EH4_TransferToHandler@8  1002fcb5 f   libvcruntime:_exsup4_.obj
 0001:0002ecce       @_EH4_GlobalUnwind2@8      1002fcce f   libvcruntime:_exsup4_.obj
 0001:0002ece7       @_EH4_LocalUnwind@16       1002fce7 f   libvcruntime:_exsup4_.obj
 0001:0002ed55       ___except_validate_context_record 1002fd55 f   libvcruntime:jbcxrval.obj
 0001:0002ed56       ___except_validate_jump_buffer 1002fd56 f   libvcruntime:jbcxrval.obj
 0001:0002ed57       ??$?RU__vcrt_ptd@@@__crt_internal_free_policy@@QBEXQBU__vcrt_ptd@@@Z 1002fd57 f i libvcruntime:per_thread_data.obj
 0001:0002ed6b       ??0?$__crt_unique_heap_ptr@U__vcrt_ptd@@U__crt_internal_free_policy@@@@QAE@QAU__vcrt_ptd@@@Z 1002fd6b f i libvcruntime:per_thread_data.obj
 0001:0002ed7c       ??1?$__crt_unique_heap_ptr@U__vcrt_ptd@@U__crt_internal_free_policy@@@@QAE@XZ 1002fd7c f i libvcruntime:per_thread_data.obj
 0001:0002ed90       ??B?$__crt_unique_heap_ptr@U__vcrt_ptd@@U__crt_internal_free_policy@@@@QBE_NXZ 1002fd90 f i libvcruntime:per_thread_data.obj
 0001:0002ed9a       ?detach@?$__crt_unique_heap_ptr@U__vcrt_ptd@@U__crt_internal_free_policy@@@@QAEPAU__vcrt_ptd@@XZ 1002fd9a f i libvcruntime:per_thread_data.obj
 0001:0002eda0       ?get@?$__crt_unique_heap_ptr@U__vcrt_ptd@@U__crt_internal_free_policy@@@@QBEPAU__vcrt_ptd@@XZ 1002fda0 f i libvcruntime:per_thread_data.obj
 0001:0002eda3       ?is_valid@?$__crt_unique_heap_ptr@U__vcrt_ptd@@U__crt_internal_free_policy@@@@QBE_NXZ 1002fda3 f i libvcruntime:per_thread_data.obj
 0001:0002edad       ?release@?$__crt_unique_heap_ptr@U__vcrt_ptd@@U__crt_internal_free_policy@@@@QAEXXZ 1002fdad f i libvcruntime:per_thread_data.obj
 0001:0002ede1       ___vcrt_freefls@4          1002fde1 f   libvcruntime:per_thread_data.obj
 0001:0002ee04       ___vcrt_freeptd            1002fe04 f   libvcruntime:per_thread_data.obj
 0001:0002ee47       ___vcrt_getptd             1002fe47 f   libvcruntime:per_thread_data.obj
 0001:0002ee58       ___vcrt_getptd_noexit      1002fe58 f   libvcruntime:per_thread_data.obj
 0001:0002eeee       ___vcrt_initialize_ptd     1002feee f   libvcruntime:per_thread_data.obj
 0001:0002ef2d       ___vcrt_uninitialize_ptd   1002ff2d f   libvcruntime:per_thread_data.obj
 0001:0002ef4e       ___vcrt_initialize_locks   1002ff4e f   libvcruntime:locks.obj
 0001:0002ef99       ___vcrt_lock               1002ff99 f   libvcruntime:locks.obj
 0001:0002efb3       ___vcrt_uninitialize_locks 1002ffb3 f   libvcruntime:locks.obj
 0001:0002efed       ___vcrt_unlock             1002ffed f   libvcruntime:locks.obj
 0001:0002f007       ??$?B$$A6AXXZ@__crt_fast_encoded_nullptr_t@@QBEP6AXXZXZ 10030007 f i libvcruntime:purevirt_data.obj
 0001:0002f025       ??$__crt_fast_encode_pointer@P6AXXZ@@YAP6AXXZQ6AXXZ@Z 10030025 f i libvcruntime:purevirt_data.obj
 0001:0002f049       ___vcrt_initialize_pure_virtual_call_handler 10030049 f   libvcruntime:purevirt_data.obj
 0001:0002f06d       ??$__vcrt_va_start_verify_argument_type@QBD@@YAXXZ 1003006d f i libvcruntime:undname.obj
 0001:0002f06e       ??0Block@_HeapManager@@QAE@XZ 1003006e f i libvcruntime:undname.obj
 0001:0002f074       ??0DName@@QAE@AAPBDD@Z     10030074 f   libvcruntime:undname.obj
 0001:0002f15b       ??0DName@@QAE@ABV0@@Z      1003015b f i libvcruntime:undname.obj
 0001:0002f176       ??0DName@@QAE@D@Z          10030176 f   libvcruntime:undname.obj
 0001:0002f1ad       ??0DName@@QAE@PAV0@@Z      100301ad f   libvcruntime:undname.obj
 0001:0002f20d       ??0DName@@QAE@PBD@Z        1003020d f   libvcruntime:undname.obj
 0001:0002f255       ??0DName@@QAE@W4DNameStatus@@@Z 10030255 f   libvcruntime:undname.obj
 0001:0002f2a8       ??0DName@@QAE@XZ           100302a8 f i libvcruntime:undname.obj
 0001:0002f2bd       ??0DName@@QAE@_J@Z         100302bd f   libvcruntime:undname.obj
 0001:0002f377       ??0DName@@QAE@_K@Z         10030377 f   libvcruntime:undname.obj
 0001:0002f401       ??0DNameNode@@IAE@XZ       10030401 f   libvcruntime:undname.obj
 0001:0002f40c       ??0DNameStatusNode@@AAE@W4DNameStatus@@@Z 1003040c f   libvcruntime:undname.obj
 0001:0002f437       ??0Replicator@@QAE@XZ      10030437 f i libvcruntime:undname.obj
 0001:0002f43d       ??0UnDecorator@@QAE@PADPBDHP6APADJ@ZK@Z 1003043d f i libvcruntime:undname.obj
 0001:0002f4c0       ??0charNode@@QAE@D@Z       100304c0 f   libvcruntime:undname.obj
 0001:0002f4da       ??0pDNameNode@@QAE@PAVDName@@@Z 100304da f   libvcruntime:undname.obj
 0001:0002f50c       ??0pairNode@@QAE@PAVDNameNode@@0@Z 1003050c f   libvcruntime:undname.obj
 0001:0002f532       ??0pcharNode@@QAE@PBDH@Z   10030532 f   libvcruntime:undname.obj
 0001:0002f5a1       ??2@YAPAXIAAV_HeapManager@@H@Z 100305a1 f i libvcruntime:undname.obj
 0001:0002f5bb       ??4DName@@QAEAAV0@ABV0@@Z  100305bb f   libvcruntime:undname.obj
 0001:0002f5d6       ??4DName@@QAEAAV0@D@Z      100305d6 f i libvcruntime:undname.obj
 0001:0002f60d       ??4DName@@QAEAAV0@PAV0@@Z  1003060d f   libvcruntime:undname.obj
 0001:0002f668       ??4DName@@QAEAAV0@PBD@Z    10030668 f   libvcruntime:undname.obj
 0001:0002f6a6       ??4DName@@QAEAAV0@W4DNameStatus@@@Z 100306a6 f   libvcruntime:undname.obj
 0001:0002f6e8       ??AReplicator@@QBE?AVDName@@H@Z 100306e8 f   libvcruntime:undname.obj
 0001:0002f733       ??BUnDecorator@@QAEPADXZ   10030733 f i libvcruntime:undname.obj
 0001:0002f90c       ??H@YA?AVDName@@DABV0@@Z   1003090c f i libvcruntime:undname.obj
 0001:0002f939       ??H@YA?AVDName@@PBDABV0@@Z 10030939 f i libvcruntime:undname.obj
 0001:0002f966       ??H@YA?AVDName@@W4DNameStatus@@ABV0@@Z 10030966 f i libvcruntime:undname.obj
 0001:0002f993       ??HDName@@QBE?AV0@ABV0@@Z  10030993 f   libvcruntime:undname.obj
 0001:0002f9bd       ??HDName@@QBE?AV0@D@Z      100309bd f   libvcruntime:undname.obj
 0001:0002f9e7       ??HDName@@QBE?AV0@PAV0@@Z  100309e7 f   libvcruntime:undname.obj
 0001:0002fa11       ??HDName@@QBE?AV0@PBD@Z    10030a11 f   libvcruntime:undname.obj
 0001:0002fa3b       ??HDName@@QBE?AV0@W4DNameStatus@@@Z 10030a3b f   libvcruntime:undname.obj
 0001:0002fa65       ??YDName@@QAEAAV0@ABV0@@Z  10030a65 f   libvcruntime:undname.obj
 0001:0002fab8       ??YDName@@QAEAAV0@D@Z      10030ab8 f   libvcruntime:undname.obj
 0001:0002fb1c       ??YDName@@QAEAAV0@PAV0@@Z  10030b1c f   libvcruntime:undname.obj
 0001:0002fb9a       ??YDName@@QAEAAV0@PBD@Z    10030b9a f   libvcruntime:undname.obj
 0001:0002fc13       ??YDName@@QAEAAV0@W4DNameStatus@@@Z 10030c13 f   libvcruntime:undname.obj
 0001:0002fc63       ??YReplicator@@QAEAAV0@ABVDName@@@Z 10030c63 f   libvcruntime:undname.obj
 0001:0002fcbf       ??_5DName@@QAEAAV0@ABV0@@Z 10030cbf f   libvcruntime:undname.obj
 0001:0002fce2       ?Constructor@_HeapManager@@QAEXP6APAXI@ZP6AXPAX@Z@Z 10030ce2 f i libvcruntime:undname.obj
 0001:0002fd06       ?Destructor@_HeapManager@@QAEXXZ 10030d06 f i libvcruntime:undname.obj
 0001:0002fd4d       ?UScore@UnDecorator@@SAPBDW4Tokens@@@Z 10030d4d f   libvcruntime:undname.obj
 0001:0002fd71       ?append@DName@@AAEXPAVDNameNode@@@Z 10030d71 f   libvcruntime:undname.obj
 0001:0002fdc8       ?composeDeclaration@UnDecorator@@CA?AVDName@@ABV2@@Z 10030dc8 f i libvcruntime:undname.obj
 0001:00030e32       ?doAccessSpecifiers@UnDecorator@@SAHXZ 10031e32 f i libvcruntime:undname.obj
 0001:00030e43       ?doAllocationLanguage@UnDecorator@@SAHXZ 10031e43 f i libvcruntime:undname.obj
 0001:00030e54       ?doAllocationModel@UnDecorator@@SAHXZ 10031e54 f i libvcruntime:undname.obj
 0001:00030e65       ?doEcsu@UnDecorator@@SAHXZ 10031e65 f i libvcruntime:undname.obj
 0001:00030e76       ?doEllipsis@UnDecorator@@SAHXZ 10031e76 f i libvcruntime:undname.obj
 0001:00030e87       ?doFunctionReturns@UnDecorator@@SAHXZ 10031e87 f i libvcruntime:undname.obj
 0001:00030e98       ?doMSKeywords@UnDecorator@@SAHXZ 10031e98 f i libvcruntime:undname.obj
 0001:00030ea8       ?doMemberTypes@UnDecorator@@SAHXZ 10031ea8 f i libvcruntime:undname.obj
 0001:00030eb9       ?doNameOnly@UnDecorator@@SAHXZ 10031eb9 f i libvcruntime:undname.obj
 0001:00030ec6       ?doNoIdentCharCheck@UnDecorator@@SAHXZ 10031ec6 f i libvcruntime:undname.obj
 0001:00030ed3       ?doPchar@DName@@AAEXPBDH@Z 10031ed3 f   libvcruntime:undname.obj
 0001:00030f7f       ?doPtr64@UnDecorator@@SAHXZ 10031f7f f i libvcruntime:undname.obj
 0001:00030f90       ?doRestrictionSpec@UnDecorator@@SAHXZ 10031f90 f i libvcruntime:undname.obj
 0001:00030fa1       ?doThisTypes@UnDecorator@@SAHXZ 10031fa1 f i libvcruntime:undname.obj
 0001:00030fb7       ?doThrowTypes@UnDecorator@@SAHXZ 10031fb7 f i libvcruntime:undname.obj
 0001:00030fc8       ?doTypeOnly@UnDecorator@@SAHXZ 10031fc8 f i libvcruntime:undname.obj
 0001:00030fd5       ?doUnderScore@UnDecorator@@SAHXZ 10031fd5 f i libvcruntime:undname.obj
 0001:00030fe2       ?getArgumentList@UnDecorator@@CA?AVDName@@XZ 10031fe2 f   libvcruntime:undname.obj
 0001:00031131       ?getArgumentTypes@UnDecorator@@CA?AVDName@@XZ 10032131 f   libvcruntime:undname.obj
 0001:00031249       ?getArrayType@UnDecorator@@CA?AVDName@@ABV2@@Z 10032249 f i libvcruntime:undname.obj
 0001:000314cb       ?getBasedType@UnDecorator@@CA?AVDName@@XZ 100324cb f   libvcruntime:undname.obj
 0001:0003158a       ?getBasicDataType@UnDecorator@@CA?AVDName@@ABV2@@Z 1003258a f   libvcruntime:undname.obj
 0001:00031a6f       ?getCallIndex@UnDecorator@@CA?AVDName@@XZ 10032a6f f i libvcruntime:undname.obj
 0001:00031a88       ?getCallingConvention@UnDecorator@@CA?AVDName@@XZ 10032a88 f   libvcruntime:undname.obj
 0001:00031b76       ?getDataIndirectType@UnDecorator@@CA?AVDName@@ABV2@PBD0H@Z 10032b76 f   libvcruntime:undname.obj
 0001:00032320       ?getDataIndirectType@UnDecorator@@CA?AVDName@@XZ 10033320 f i libvcruntime:undname.obj
 0001:00032367       ?getDataType@UnDecorator@@CA?AVDName@@PAV2@@Z 10033367 f   libvcruntime:undname.obj
 0001:0003246d       ?getDecoratedName@UnDecorator@@CA?AVDName@@XZ 1003346d f   libvcruntime:undname.obj
 0001:0003274c       ?getDimension@UnDecorator@@CA?AVDName@@_N@Z 1003374c f   libvcruntime:undname.obj
 0001:000328d0       ?getDispatchTarget@UnDecorator@@CA?AVDName@@XZ 100338d0 f   libvcruntime:undname.obj
 0001:00032941       ?getDisplacement@UnDecorator@@CA?AVDName@@XZ 10033941 f i libvcruntime:undname.obj
 0001:0003295a       ?getECSUDataType@UnDecorator@@CA?AVDName@@XZ 1003395a f   libvcruntime:undname.obj
 0001:00032abe       ?getECSUName@UnDecorator@@CA?AVDName@@XZ 10033abe f i libvcruntime:undname.obj
 0001:00032ad3       ?getEnumType@UnDecorator@@CA?AVDName@@XZ 10033ad3 f i libvcruntime:undname.obj
 0001:00032bfa       ?getExtendedDataIndirectType@UnDecorator@@CA?AVDName@@AAPBDAA_NH@Z 10033bfa f   libvcruntime:undname.obj
 0001:00032e0d       ?getExternalDataType@UnDecorator@@CA?AVDName@@ABV2@@Z 10033e0d f i libvcruntime:undname.obj
 0001:00032ea4       ?getFunctionIndirectType@UnDecorator@@CA?AVDName@@ABV2@@Z 10033ea4 f   libvcruntime:undname.obj
 0001:000333af       ?getGuardNumber@UnDecorator@@CA?AVDName@@XZ 100343af f i libvcruntime:undname.obj
 0001:000333c8       ?getLastChar@DName@@QBEDXZ 100343c8 f i libvcruntime:undname.obj
 0001:000333ee       ?getLastChar@DNameStatusNode@@UBEDXZ 100343ee f i libvcruntime:undname.obj
 0001:000333fd       ?getLastChar@charNode@@UBEDXZ 100343fd f i libvcruntime:undname.obj
 0001:00033401       ?getLastChar@pDNameNode@@UBEDXZ 10034401 f i libvcruntime:undname.obj
 0001:00033412       ?getLastChar@pairNode@@UBEDXZ 10034412 f i libvcruntime:undname.obj
 0001:00033451       ?getLastChar@pcharNode@@UBEDXZ 10034451 f i libvcruntime:undname.obj
 0001:00033467       ?getLexicalFrame@UnDecorator@@CA?AVDName@@XZ 10034467 f i libvcruntime:undname.obj
 0001:000334b3       ?getMemory@_HeapManager@@QAEPAXIH@Z 100344b3 f   libvcruntime:undname.obj
 0001:00033564       ?getNumberOfDimensions@UnDecorator@@CAHXZ 10034564 f   libvcruntime:undname.obj
 0001:000335dd       ?getOperatorName@UnDecorator@@CA?AVDName@@_NPA_N@Z 100345dd f i libvcruntime:undname.obj
 0001:00033d8c       ?getPointerType@UnDecorator@@CA?AVDName@@ABV2@0@Z 10034d8c f i libvcruntime:undname.obj
 0001:00033db1       ?getPointerTypeArray@UnDecorator@@CA?AVDName@@ABV2@0@Z 10034db1 f i libvcruntime:undname.obj
 0001:00033dd6       ?getPrimaryDataType@UnDecorator@@CA?AVDName@@ABV2@@Z 10034dd6 f   libvcruntime:undname.obj
 0001:00034027       ?getPtrRefDataType@UnDecorator@@CA?AVDName@@ABV2@H@Z 10035027 f   libvcruntime:undname.obj
 0001:00034169       ?getPtrRefType@UnDecorator@@CA?AVDName@@ABV2@0PBD@Z 10035169 f   libvcruntime:undname.obj
 0001:000342a4       ?getReferenceType@UnDecorator@@CA?AVDName@@ABV2@0PBD@Z 100352a4 f i libvcruntime:undname.obj
 0001:000342c7       ?getRestrictionSpec@UnDecorator@@CA?AVDName@@XZ 100352c7 f   libvcruntime:undname.obj
 0001:000343f5       ?getReturnType@UnDecorator@@CA?AVDName@@PAV2@@Z 100353f5 f   libvcruntime:undname.obj
 0001:0003442f       ?getScope@UnDecorator@@CA?AVDName@@XZ 1003542f f   libvcruntime:undname.obj
 0001:00034904       ?getScopedName@UnDecorator@@CA?AVDName@@XZ 10035904 f   libvcruntime:undname.obj
 0001:00034a3d       ?getSignedDimension@UnDecorator@@CA?AVDName@@XZ 10035a3d f   libvcruntime:undname.obj
 0001:00034aa4       ?getStorageConvention@UnDecorator@@CA?AVDName@@XZ 10035aa4 f i libvcruntime:undname.obj
 0001:00034ab9       ?getString@DName@@QBEPADPAD0@Z 10035ab9 f i libvcruntime:undname.obj
 0001:00034af0       ?getString@DName@@QBEPADPADH@Z 10035af0 f i libvcruntime:undname.obj
 0001:00034b5b       ?getString@DNameStatusNode@@UBEPADPAD0@Z 10035b5b f i libvcruntime:undname.obj
 0001:00034b8b       ?getString@charNode@@UBEPADPAD0@Z 10035b8b f i libvcruntime:undname.obj
 0001:00034ba5       ?getString@pDNameNode@@UBEPADPAD0@Z 10035ba5 f i libvcruntime:undname.obj
 0001:00034bc1       ?getString@pairNode@@UBEPADPAD0@Z 10035bc1 f i libvcruntime:undname.obj
 0001:00034c16       ?getString@pcharNode@@UBEPADPAD0@Z 10035c16 f i libvcruntime:undname.obj
 0001:00034c37       ?getStringEncoding@UnDecorator@@CA?AVDName@@PADH@Z 10035c37 f   libvcruntime:undname.obj
 0001:00034d02       ?getStringHelper@@YAPADPAD00H@Z 10035d02 f i libvcruntime:undname.obj
 0001:00034d46       ?getSymbolName@UnDecorator@@CA?AVDName@@XZ 10035d46 f i libvcruntime:undname.obj
 0001:00034da0       ?getTemplateArgumentList@UnDecorator@@CA?AVDName@@XZ 10035da0 f   libvcruntime:undname.obj
 0001:000350f8       ?getTemplateConstant@UnDecorator@@CA?AVDName@@XZ 100360f8 f   libvcruntime:undname.obj
 0001:0003550d       ?getTemplateName@UnDecorator@@CA?AVDName@@_N@Z 1003650d f   libvcruntime:undname.obj
 0001:000356b8       ?getThisType@UnDecorator@@CA?AVDName@@XZ 100366b8 f i libvcruntime:undname.obj
 0001:00035700       ?getThrowTypes@UnDecorator@@CA?AVDName@@XZ 10036700 f   libvcruntime:undname.obj
 0001:000357ac       ?getTypeEncoding@UnDecorator@@CAHXZ 100367ac f i libvcruntime:undname.obj
 0001:00035dec       ?getVCallThunkType@UnDecorator@@CA?AVDName@@XZ 10036dec f i libvcruntime:undname.obj
 0001:00035e35       ?getVbTableType@UnDecorator@@CA?AVDName@@ABV2@@Z 10036e35 f i libvcruntime:undname.obj
 0001:00035e4f       ?getVdispMapType@UnDecorator@@CA?AVDName@@ABV2@@Z 10036e4f f i libvcruntime:undname.obj
 0001:00035eba       ?getVfTableType@UnDecorator@@CA?AVDName@@ABV2@@Z 10036eba f i libvcruntime:undname.obj
 0001:00036078       ?getZName@UnDecorator@@CA?AVDName@@_N0@Z 10037078 f   libvcruntime:undname.obj
 0001:00036348       ?haveTemplateParameters@UnDecorator@@SAHXZ 10037348 f i libvcruntime:undname.obj
 0001:00036355       ?isArray@DName@@QBEHXZ     10037355 f i libvcruntime:undname.obj
 0001:00036361       ?isComArray@DName@@QBEHXZ  10037361 f i libvcruntime:undname.obj
 0001:0003636d       ?isEmpty@DName@@QBEHXZ     1003736d f i libvcruntime:undname.obj
 0001:00036377       ?isFull@Replicator@@QBEHXZ 10037377 f i libvcruntime:undname.obj
 0001:00036382       ?isNoTE@DName@@QBEHXZ      10037382 f i libvcruntime:undname.obj
 0001:0003638e       ?isPinPtr@DName@@QBEHXZ    1003738e f i libvcruntime:undname.obj
 0001:0003639a       ?isPtrRef@DName@@QBEHXZ    1003739a f i libvcruntime:undname.obj
 0001:000363a6       ?isUDC@DName@@QBEHXZ       100373a6 f i libvcruntime:undname.obj
 0001:000363bb       ?isUDTThunk@DName@@QBEHXZ  100373bb f i libvcruntime:undname.obj
 0001:000363d0       ?isVCallThunk@DName@@QBEHXZ 100373d0 f i libvcruntime:undname.obj
 0001:000363dc       ?isValid@DName@@QBEHXZ     100373dc f i libvcruntime:undname.obj
 0001:000363e8       ?length@DName@@QBEHXZ      100373e8 f i libvcruntime:undname.obj
 0001:0003640d       ?length@DNameStatusNode@@UBEHXZ 1003740d f i libvcruntime:undname.obj
 0001:00036411       ?length@charNode@@UBEHXZ   10037411 f i libvcruntime:undname.obj
 0001:00036415       ?length@pDNameNode@@UBEHXZ 10037415 f i libvcruntime:undname.obj
 0001:00036426       ?length@pairNode@@UBEHXZ   10037426 f i libvcruntime:undname.obj
 0001:00036482       ?length@pcharNode@@UBEHXZ  10037482 f i libvcruntime:undname.obj
 0001:00036486       ?make@DNameStatusNode@@SAPAV1@W4DNameStatus@@@Z 10037486 f i libvcruntime:undname.obj
 0001:0003652d       ?setIsArray@DName@@QAEXXZ  1003752d f i libvcruntime:undname.obj
 0001:00036537       ?setIsComArray@DName@@QAEXXZ 10037537 f i libvcruntime:undname.obj
 0001:00036541       ?setIsNoTE@DName@@QAEXXZ   10037541 f i libvcruntime:undname.obj
 0001:0003654b       ?setIsPinPtr@DName@@QAEXXZ 1003754b f i libvcruntime:undname.obj
 0001:00036555       ?setIsUDC@DName@@QAEXXZ    10037555 f i libvcruntime:undname.obj
 0001:00036565       ?setIsVCallThunk@DName@@QAEXXZ 10037565 f i libvcruntime:undname.obj
 0001:0003656f       ?setPtrRef@DName@@QAEAAV1@XZ 1003756f f i libvcruntime:undname.obj
 0001:0003657b       ?status@DName@@QBE?AW4DNameStatus@@XZ 1003757b f i libvcruntime:undname.obj
 0001:00036600       ___unDName                 10037600 f   libvcruntime:undname.obj
 0001:000366ba       ___unDNameEx               100376ba f   libvcruntime:undname.obj
 0001:00036774       __vsprintf_s_l             10037774 f i libvcruntime:undname.obj
 0001:000367ac       _sprintf_s                 100377ac f i libvcruntime:undname.obj
 0001:000367d0       __global_unwind2           100377d0 f   libvcruntime:_exsup_.obj
 0001:00036835       __local_unwind2            10037835 f   libvcruntime:_exsup_.obj
 0001:000368b9       __abnormal_termination     100378b9 f   libvcruntime:_exsup_.obj
 0001:000368dc       __NLG_Notify1              100378dc f   libvcruntime:_exsup_.obj
 0001:000368e5       __NLG_Notify               100378e5 f   libvcruntime:_exsup_.obj
 0001:000368fc       __NLG_Dispatch             100378fc     libvcruntime:_exsup_.obj
 0001:000368fc       __NLG_Dispatch2            100378fc     libvcruntime:_exsup_.obj
 0001:00036904       __NLG_Call                 10037904 f   libvcruntime:_exsup_.obj
 0001:00036906       __NLG_Return2              10037906     libvcruntime:_exsup_.obj
 0001:00036954       ??$__crt_fast_decode_pointer@P6AXXZ@@YAP6AXXZQ6AXXZ@Z 10037954 f i libvcruntime:purevirt.obj
 0001:0003696d       ??$__crt_interlocked_compare_exchange_pointer@$$A6AXXZ$$T$$T@@YAP6AXXZPDS6AXXZ$$T1@Z 1003796d f i libvcruntime:purevirt.obj
 0001:00036983       ??$__crt_interlocked_exchange_pointer@$$A6AXXZP6AXXZ@@YAP6AXXZPDS6AXXZQ6AXXZ@Z 10037983 f i libvcruntime:purevirt.obj
 0001:00036993       ??$__crt_interlocked_read_pointer@$$A6AXXZ@@YAP6AXXZPDS6AXXZ@Z 10037993 f i libvcruntime:purevirt.obj
 0001:000369a7       __get_purecall_handler     100379a7 f   libvcruntime:purevirt.obj
 0001:000369cd       __purecall                 100379cd f   libvcruntime:purevirt.obj
 0001:000369ee       __set_purecall_handler     100379ee f   libvcruntime:purevirt.obj
 0001:00036a1c       _malloc                    10037a1c f   libucrt:malloc.obj
 0001:00036a29       ??$?RPAU__crt_stdio_stream_data@@@__crt_internal_free_policy@@QBEXQBQAU__crt_stdio_stream_data@@@Z 10037a29 f i libucrt:_file.obj
 0001:00036a3f       ??0?$__crt_unique_heap_ptr@PAU__crt_stdio_stream_data@@U__crt_internal_free_policy@@@@QAE@QAPAU__crt_stdio_stream_data@@@Z 10037a3f f i libucrt:_file.obj
 0001:00036a53       ??0__crt_stdio_stream@@QAE@QAU_iobuf@@@Z 10037a53 f i libucrt:_file.obj
 0001:00036a67       ??1?$__crt_unique_heap_ptr@PAU__crt_stdio_stream_data@@U__crt_internal_free_policy@@@@QAE@XZ 10037a67 f i libucrt:_file.obj
 0001:00036a7d       ??C__crt_stdio_stream@@QBEPAU__crt_stdio_stream_data@@XZ 10037a7d f i libucrt:_file.obj
 0001:00036a80       ?detach@?$__crt_unique_heap_ptr@PAU__crt_stdio_stream_data@@U__crt_internal_free_policy@@@@QAEPAPAU__crt_stdio_stream_data@@XZ 10037a80 f i libucrt:_file.obj
 0001:00036a86       ?release@?$__crt_unique_heap_ptr@PAU__crt_stdio_stream_data@@U__crt_internal_free_policy@@@@QAEXXZ 10037a86 f i libucrt:_file.obj
 0001:00036a9c       ___acrt_initialize_stdio   10037a9c f   libucrt:_file.obj
 0001:00036b96       ___acrt_iob_func           10037b96 f   libucrt:_file.obj
 0001:00036baa       ___acrt_uninitialize_stdio 10037baa f   libucrt:_file.obj
 0001:00036c09       __get_stream_buffer_pointers 10037c09 f   libucrt:_file.obj
 0001:00036c60       __lock_file                10037c60 f   libucrt:_file.obj
 0001:00036c79       __unlock_file              10037c79 f   libucrt:_file.obj
 0001:00036c92       ??$?0ABV?$stream_output_adapter@D@__crt_stdio_output@@AB_KABQBDABQAU__crt_locale_pointers@@ABQAD@?$format_validation_base@DV?$stream_output_adapter@D@__crt_stdio_output@@@__crt_stdio_output@@IAE@ABV?$stream_output_adapter@D@1@AB_KABQBDABQAU__crt_locale_pointers@@ABQAD@Z 10037c92 f i libucrt:output.obj
 0001:00036cbd       ??$?0ABV?$stream_output_adapter@D@__crt_stdio_output@@AB_KABQBDABQAU__crt_locale_pointers@@ABQAD@?$positional_parameter_base@DV?$stream_output_adapter@D@__crt_stdio_output@@@__crt_stdio_output@@IAE@ABV?$stream_output_adapter@D@1@AB_KABQBDABQAU__crt_locale_pointers@@ABQAD@Z 10037cbd f i libucrt:output.obj
 0001:00036d17       ??$?0ABV?$stream_output_adapter@D@__crt_stdio_output@@AB_KABQBDABQAU__crt_locale_pointers@@ABQAD@?$standard_base@DV?$stream_output_adapter@D@__crt_stdio_output@@@__crt_stdio_output@@IAE@ABV?$stream_output_adapter@D@1@AB_KABQBDABQAU__crt_locale_pointers@@ABQAD@Z 10037d17 f i libucrt:output.obj
 0001:00036d59       ??$?0ABV?$stream_output_adapter@_W@__crt_stdio_output@@AB_KABQB_WABQAU__crt_locale_pointers@@ABQAD@?$format_validation_base@_WV?$stream_output_adapter@_W@__crt_stdio_output@@@__crt_stdio_output@@IAE@ABV?$stream_output_adapter@_W@1@AB_KABQB_WABQAU__crt_locale_pointers@@ABQAD@Z 10037d59 f i libucrt:output.obj
 0001:00036d84       ??$?0ABV?$stream_output_adapter@_W@__crt_stdio_output@@AB_KABQB_WABQAU__crt_locale_pointers@@ABQAD@?$positional_parameter_base@_WV?$stream_output_adapter@_W@__crt_stdio_output@@@__crt_stdio_output@@IAE@ABV?$stream_output_adapter@_W@1@AB_KABQB_WABQAU__crt_locale_pointers@@ABQAD@Z 10037d84 f i libucrt:output.obj
 0001:00036dde       ??$?0ABV?$stream_output_adapter@_W@__crt_stdio_output@@AB_KABQB_WABQAU__crt_locale_pointers@@ABQAD@?$standard_base@_WV?$stream_output_adapter@_W@__crt_stdio_output@@@__crt_stdio_output@@IAE@ABV?$stream_output_adapter@_W@1@AB_KABQB_WABQAU__crt_locale_pointers@@ABQAD@Z 10037dde f i libucrt:output.obj
 0001:00036e20       ??$?0ABV?$string_output_adapter@D@__crt_stdio_output@@AB_KABQBDABQAU__crt_locale_pointers@@ABQAD@?$format_validation_base@DV?$string_output_adapter@D@__crt_stdio_output@@@__crt_stdio_output@@IAE@ABV?$string_output_adapter@D@1@AB_KABQBDABQAU__crt_locale_pointers@@ABQAD@Z 10037e20 f i libucrt:output.obj
 0001:00036e4b       ??$?0ABV?$string_output_adapter@D@__crt_stdio_output@@AB_KABQBDABQAU__crt_locale_pointers@@ABQAD@?$positional_parameter_base@DV?$string_output_adapter@D@__crt_stdio_output@@@__crt_stdio_output@@IAE@ABV?$string_output_adapter@D@1@AB_KABQBDABQAU__crt_locale_pointers@@ABQAD@Z 10037e4b f i libucrt:output.obj
 0001:00036ea5       ??$?0ABV?$string_output_adapter@D@__crt_stdio_output@@AB_KABQBDABQAU__crt_locale_pointers@@ABQAD@?$standard_base@DV?$string_output_adapter@D@__crt_stdio_output@@@__crt_stdio_output@@IAE@ABV?$string_output_adapter@D@1@AB_KABQBDABQAU__crt_locale_pointers@@ABQAD@Z 10037ea5 f i libucrt:output.obj
 0001:00036ee7       ??$?0ABV?$string_output_adapter@_W@__crt_stdio_output@@AB_KABQB_WABQAU__crt_locale_pointers@@ABQAD@?$format_validation_base@_WV?$string_output_adapter@_W@__crt_stdio_output@@@__crt_stdio_output@@IAE@ABV?$string_output_adapter@_W@1@AB_KABQB_WABQAU__crt_locale_pointers@@ABQAD@Z 10037ee7 f i libucrt:output.obj
 0001:00036f12       ??$?0ABV?$string_output_adapter@_W@__crt_stdio_output@@AB_KABQB_WABQAU__crt_locale_pointers@@ABQAD@?$positional_parameter_base@_WV?$string_output_adapter@_W@__crt_stdio_output@@@__crt_stdio_output@@IAE@ABV?$string_output_adapter@_W@1@AB_KABQB_WABQAU__crt_locale_pointers@@ABQAD@Z 10037f12 f i libucrt:output.obj
 0001:00036f6c       ??$?0ABV?$string_output_adapter@_W@__crt_stdio_output@@AB_KABQB_WABQAU__crt_locale_pointers@@ABQAD@?$standard_base@_WV?$string_output_adapter@_W@__crt_stdio_output@@@__crt_stdio_output@@IAE@ABV?$string_output_adapter@_W@1@AB_KABQB_WABQAU__crt_locale_pointers@@ABQAD@Z 10037f6c f i libucrt:output.obj
 0001:00036fae       ??$?RV<lambda_2293f24e3ce1ad6fe22ccfb9dec07671>@@AAV<lambda_2565fc715a641e539f44ad02d6823606>@@V<lambda_d3217f279b832965d9ca670dc2993570>@@@?$__crt_seh_guarded_call@H@@QAEH$$QAV<lambda_2293f24e3ce1ad6fe22ccfb9dec07671>@@AAV<lambda_2565fc715a641e539f44ad02d6823606>@@$$QAV<lambda_d3217f279b832965d9ca670dc2993570>@@@Z 10037fae f i libucrt:output.obj
 0001:00037013       ??$?RV<lambda_4d4ac866be0fa3c441830420fabdd2cb>@@AAV<lambda_63a10c2dc8dbb9e4dd1890be52af7c93>@@V<lambda_002af9fa0f8fe472b648c51882d4fc32>@@@?$__crt_seh_guarded_call@H@@QAEH$$QAV<lambda_4d4ac866be0fa3c441830420fabdd2cb>@@AAV<lambda_63a10c2dc8dbb9e4dd1890be52af7c93>@@$$QAV<lambda_002af9fa0f8fe472b648c51882d4fc32>@@@Z 10038013 f i libucrt:output.obj
 0001:00037078       ??$?RV<lambda_5be909dfbae0a631386585770cd7b676>@@AAV<lambda_e516058a9c289d98c8ca9fea99247804>@@V<lambda_afe2e0cdc5e0ecf6f0d6f5e2f8985e38>@@@?$__crt_seh_guarded_call@H@@QAEH$$QAV<lambda_5be909dfbae0a631386585770cd7b676>@@AAV<lambda_e516058a9c289d98c8ca9fea99247804>@@$$QAV<lambda_afe2e0cdc5e0ecf6f0d6f5e2f8985e38>@@@Z 10038078 f i libucrt:output.obj
 0001:000370dd       ??$?RV<lambda_823d65812123d985753d53e2a8c25d20>@@AAV<lambda_0a97c9e57da7be065955385c79108ff2>@@V<lambda_4d2973f3ad2d226f00468307185dca1b>@@@?$__crt_seh_guarded_call@H@@QAEH$$QAV<lambda_823d65812123d985753d53e2a8c25d20>@@AAV<lambda_0a97c9e57da7be065955385c79108ff2>@@$$QAV<lambda_4d2973f3ad2d226f00468307185dca1b>@@@Z 100380dd f i libucrt:output.obj
 0001:00037142       ??$?RV<lambda_ab9923ffb5d694ec0d78876dd103e44f>@@AAV<lambda_481dd5778c961fbcd3b60b650e9b9dc4>@@V<lambda_7923d86c9e3f319b415918ec4b39749c>@@@?$__crt_seh_guarded_call@H@@QAEH$$QAV<lambda_ab9923ffb5d694ec0d78876dd103e44f>@@AAV<lambda_481dd5778c961fbcd3b60b650e9b9dc4>@@$$QAV<lambda_7923d86c9e3f319b415918ec4b39749c>@@@Z 10038142 f i libucrt:output.obj
 0001:000371a7       ??$?RV<lambda_db08b09ef7aa9d4f8620ce68402612bc>@@AAV<lambda_4f2c1eaeead2a5fc776db5b62ea0fb9b>@@V<lambda_3ae262bc35d4ba6a3825c4f6bcaaf95c>@@@?$__crt_seh_guarded_call@H@@QAEH$$QAV<lambda_db08b09ef7aa9d4f8620ce68402612bc>@@AAV<lambda_4f2c1eaeead2a5fc776db5b62ea0fb9b>@@$$QAV<lambda_3ae262bc35d4ba6a3825c4f6bcaaf95c>@@@Z 100381a7 f i libucrt:output.obj
 0001:0003720c       ??$__acrt_lock_stream_and_call@V<lambda_0a97c9e57da7be065955385c79108ff2>@@@@YAHQAU_iobuf@@$$QAV<lambda_0a97c9e57da7be065955385c79108ff2>@@@Z 1003820c f i libucrt:output.obj
 0001:0003723e       ??$__acrt_lock_stream_and_call@V<lambda_2565fc715a641e539f44ad02d6823606>@@@@YAHQAU_iobuf@@$$QAV<lambda_2565fc715a641e539f44ad02d6823606>@@@Z 1003823e f i libucrt:output.obj
 0001:00037270       ??$__acrt_lock_stream_and_call@V<lambda_481dd5778c961fbcd3b60b650e9b9dc4>@@@@YAHQAU_iobuf@@$$QAV<lambda_481dd5778c961fbcd3b60b650e9b9dc4>@@@Z 10038270 f i libucrt:output.obj
 0001:000372a2       ??$__acrt_lock_stream_and_call@V<lambda_4f2c1eaeead2a5fc776db5b62ea0fb9b>@@@@YAHQAU_iobuf@@$$QAV<lambda_4f2c1eaeead2a5fc776db5b62ea0fb9b>@@@Z 100382a2 f i libucrt:output.obj
 0001:000372d4       ??$__acrt_lock_stream_and_call@V<lambda_63a10c2dc8dbb9e4dd1890be52af7c93>@@@@YAHQAU_iobuf@@$$QAV<lambda_63a10c2dc8dbb9e4dd1890be52af7c93>@@@Z 100382d4 f i libucrt:output.obj
 0001:00037306       ??$__acrt_lock_stream_and_call@V<lambda_e516058a9c289d98c8ca9fea99247804>@@@@YAHQAU_iobuf@@$$QAV<lambda_e516058a9c289d98c8ca9fea99247804>@@@Z 10038306 f i libucrt:output.obj
 0001:00037338       ??$__crt_interlocked_read@J@@YAJPDJ@Z 10038338 f i libucrt:output.obj
 0001:00038583       ??$count@D@formatting_buffer@__crt_stdio_output@@QBEIXZ 10039583 f i libucrt:output.obj
 0001:000385a1       ??$data@D@formatting_buffer@__crt_stdio_output@@QAEPADXZ 100395a1 f i libucrt:output.obj
 0001:000385b1       ??$data@_W@formatting_buffer@__crt_stdio_output@@QAEPA_WXZ 100395b1 f i libucrt:output.obj
 0001:000385c1       ??$ensure_buffer_is_big_enough@D@formatting_buffer@__crt_stdio_output@@QAE_NI@Z 100395c1 f i libucrt:output.obj
 0001:00038668       ??$extract_argument_from_va_list@C_J@?$positional_parameter_base@DV?$stream_output_adapter@D@__crt_stdio_output@@@__crt_stdio_output@@IAE_NAA_J@Z 10039668 f i libucrt:output.obj
 0001:00038706       ??$extract_argument_from_va_list@C_J@?$positional_parameter_base@DV?$string_output_adapter@D@__crt_stdio_output@@@__crt_stdio_output@@IAE_NAA_J@Z 10039706 f i libucrt:output.obj
 0001:000387a4       ??$extract_argument_from_va_list@C_J@?$positional_parameter_base@_WV?$stream_output_adapter@_W@__crt_stdio_output@@@__crt_stdio_output@@IAE_NAA_J@Z 100397a4 f i libucrt:output.obj
 0001:00038842       ??$extract_argument_from_va_list@C_J@?$positional_parameter_base@_WV?$string_output_adapter@_W@__crt_stdio_output@@@__crt_stdio_output@@IAE_NAA_J@Z 10039842 f i libucrt:output.obj
 0001:000388e0       ??$extract_argument_from_va_list@C_J@?$standard_base@DV?$stream_output_adapter@D@__crt_stdio_output@@@__crt_stdio_output@@IAE_NAA_J@Z 100398e0 f i libucrt:output.obj
 0001:00038906       ??$extract_argument_from_va_list@C_J@?$standard_base@DV?$string_output_adapter@D@__crt_stdio_output@@@__crt_stdio_output@@IAE_NAA_J@Z 10039906 f i libucrt:output.obj
 0001:0003892c       ??$extract_argument_from_va_list@C_J@?$standard_base@_WV?$stream_output_adapter@_W@__crt_stdio_output@@@__crt_stdio_output@@IAE_NAA_J@Z 1003992c f i libucrt:output.obj
 0001:00038952       ??$extract_argument_from_va_list@C_J@?$standard_base@_WV?$string_output_adapter@_W@__crt_stdio_output@@@__crt_stdio_output@@IAE_NAA_J@Z 10039952 f i libucrt:output.obj
 0001:00038978       ??$extract_argument_from_va_list@E_J@?$positional_parameter_base@DV?$stream_output_adapter@D@__crt_stdio_output@@@__crt_stdio_output@@IAE_NAA_J@Z 10039978 f i libucrt:output.obj
 0001:00038a16       ??$extract_argument_from_va_list@E_J@?$positional_parameter_base@DV?$string_output_adapter@D@__crt_stdio_output@@@__crt_stdio_output@@IAE_NAA_J@Z 10039a16 f i libucrt:output.obj
 0001:00038ab4       ??$extract_argument_from_va_list@E_J@?$positional_parameter_base@_WV?$stream_output_adapter@_W@__crt_stdio_output@@@__crt_stdio_output@@IAE_NAA_J@Z 10039ab4 f i libucrt:output.obj
 0001:00038b52       ??$extract_argument_from_va_list@E_J@?$positional_parameter_base@_WV?$string_output_adapter@_W@__crt_stdio_output@@@__crt_stdio_output@@IAE_NAA_J@Z 10039b52 f i libucrt:output.obj
 0001:00038bf0       ??$extract_argument_from_va_list@E_J@?$standard_base@DV?$stream_output_adapter@D@__crt_stdio_output@@@__crt_stdio_output@@IAE_NAA_J@Z 10039bf0 f i libucrt:output.obj
 0001:00038c16       ??$extract_argument_from_va_list@E_J@?$standard_base@DV?$string_output_adapter@D@__crt_stdio_output@@@__crt_stdio_output@@IAE_NAA_J@Z 10039c16 f i libucrt:output.obj
 0001:00038c3c       ??$extract_argument_from_va_list@E_J@?$standard_base@_WV?$stream_output_adapter@_W@__crt_stdio_output@@@__crt_stdio_output@@IAE_NAA_J@Z 10039c3c f i libucrt:output.obj
 0001:00038c62       ??$extract_argument_from_va_list@E_J@?$standard_base@_WV?$string_output_adapter@_W@__crt_stdio_output@@@__crt_stdio_output@@IAE_NAA_J@Z 10039c62 f i libucrt:output.obj
 0001:00038c88       ??$extract_argument_from_va_list@F_J@?$positional_parameter_base@DV?$stream_output_adapter@D@__crt_stdio_output@@@__crt_stdio_output@@IAE_NAA_J@Z 10039c88 f i libucrt:output.obj
 0001:00038d26       ??$extract_argument_from_va_list@F_J@?$positional_parameter_base@DV?$string_output_adapter@D@__crt_stdio_output@@@__crt_stdio_output@@IAE_NAA_J@Z 10039d26 f i libucrt:output.obj
 0001:00038dc4       ??$extract_argument_from_va_list@F_J@?$positional_parameter_base@_WV?$stream_output_adapter@_W@__crt_stdio_output@@@__crt_stdio_output@@IAE_NAA_J@Z 10039dc4 f i libucrt:output.obj
 0001:00038e62       ??$extract_argument_from_va_list@F_J@?$positional_parameter_base@_WV?$string_output_adapter@_W@__crt_stdio_output@@@__crt_stdio_output@@IAE_NAA_J@Z 10039e62 f i libucrt:output.obj
 0001:00038f00       ??$extract_argument_from_va_list@F_J@?$standard_base@DV?$stream_output_adapter@D@__crt_stdio_output@@@__crt_stdio_output@@IAE_NAA_J@Z 10039f00 f i libucrt:output.obj
 0001:00038f26       ??$extract_argument_from_va_list@F_J@?$standard_base@DV?$string_output_adapter@D@__crt_stdio_output@@@__crt_stdio_output@@IAE_NAA_J@Z 10039f26 f i libucrt:output.obj
 0001:00038f4c       ??$extract_argument_from_va_list@F_J@?$standard_base@_WV?$stream_output_adapter@_W@__crt_stdio_output@@@__crt_stdio_output@@IAE_NAA_J@Z 10039f4c f i libucrt:output.obj
 0001:00038f72       ??$extract_argument_from_va_list@F_J@?$standard_base@_WV?$string_output_adapter@_W@__crt_stdio_output@@@__crt_stdio_output@@IAE_NAA_J@Z 10039f72 f i libucrt:output.obj
 0001:00038f98       ??$extract_argument_from_va_list@GD@?$positional_parameter_base@DV?$stream_output_adapter@D@__crt_stdio_output@@@__crt_stdio_output@@IAE_NAAD@Z 10039f98 f i libucrt:output.obj
 0001:00039035       ??$extract_argument_from_va_list@GD@?$positional_parameter_base@DV?$string_output_adapter@D@__crt_stdio_output@@@__crt_stdio_output@@IAE_NAAD@Z 1003a035 f i libucrt:output.obj
 0001:000390d2       ??$extract_argument_from_va_list@GD@?$standard_base@DV?$stream_output_adapter@D@__crt_stdio_output@@@__crt_stdio_output@@IAE_NAAD@Z 1003a0d2 f i libucrt:output.obj
 0001:000390f2       ??$extract_argument_from_va_list@GD@?$standard_base@DV?$string_output_adapter@D@__crt_stdio_output@@@__crt_stdio_output@@IAE_NAAD@Z 1003a0f2 f i libucrt:output.obj
 0001:00039112       ??$extract_argument_from_va_list@G_J@?$positional_parameter_base@DV?$stream_output_adapter@D@__crt_stdio_output@@@__crt_stdio_output@@IAE_NAA_J@Z 1003a112 f i libucrt:output.obj
 0001:000391b0       ??$extract_argument_from_va_list@G_J@?$positional_parameter_base@DV?$string_output_adapter@D@__crt_stdio_output@@@__crt_stdio_output@@IAE_NAA_J@Z 1003a1b0 f i libucrt:output.obj
 0001:0003924e       ??$extract_argument_from_va_list@G_J@?$positional_parameter_base@_WV?$stream_output_adapter@_W@__crt_stdio_output@@@__crt_stdio_output@@IAE_NAA_J@Z 1003a24e f i libucrt:output.obj
 0001:000392ec       ??$extract_argument_from_va_list@G_J@?$positional_parameter_base@_WV?$string_output_adapter@_W@__crt_stdio_output@@@__crt_stdio_output@@IAE_NAA_J@Z 1003a2ec f i libucrt:output.obj
 0001:0003938a       ??$extract_argument_from_va_list@G_J@?$standard_base@DV?$stream_output_adapter@D@__crt_stdio_output@@@__crt_stdio_output@@IAE_NAA_J@Z 1003a38a f i libucrt:output.obj
 0001:000393b0       ??$extract_argument_from_va_list@G_J@?$standard_base@DV?$string_output_adapter@D@__crt_stdio_output@@@__crt_stdio_output@@IAE_NAA_J@Z 1003a3b0 f i libucrt:output.obj
 0001:000393d6       ??$extract_argument_from_va_list@G_J@?$standard_base@_WV?$stream_output_adapter@_W@__crt_stdio_output@@@__crt_stdio_output@@IAE_NAA_J@Z 1003a3d6 f i libucrt:output.obj
 0001:000393fc       ??$extract_argument_from_va_list@G_J@?$standard_base@_WV?$string_output_adapter@_W@__crt_stdio_output@@@__crt_stdio_output@@IAE_NAA_J@Z 1003a3fc f i libucrt:output.obj
 0001:00039422       ??$extract_argument_from_va_list@H_J@?$positional_parameter_base@DV?$stream_output_adapter@D@__crt_stdio_output@@@__crt_stdio_output@@IAE_NAA_J@Z 1003a422 f i libucrt:output.obj
 0001:000394be       ??$extract_argument_from_va_list@H_J@?$positional_parameter_base@DV?$string_output_adapter@D@__crt_stdio_output@@@__crt_stdio_output@@IAE_NAA_J@Z 1003a4be f i libucrt:output.obj
 0001:0003955a       ??$extract_argument_from_va_list@H_J@?$positional_parameter_base@_WV?$stream_output_adapter@_W@__crt_stdio_output@@@__crt_stdio_output@@IAE_NAA_J@Z 1003a55a f i libucrt:output.obj
 0001:000395f6       ??$extract_argument_from_va_list@H_J@?$positional_parameter_base@_WV?$string_output_adapter@_W@__crt_stdio_output@@@__crt_stdio_output@@IAE_NAA_J@Z 1003a5f6 f i libucrt:output.obj
 0001:00039692       ??$extract_argument_from_va_list@H_J@?$standard_base@DV?$stream_output_adapter@D@__crt_stdio_output@@@__crt_stdio_output@@IAE_NAA_J@Z 1003a692 f i libucrt:output.obj
 0001:000396b7       ??$extract_argument_from_va_list@H_J@?$standard_base@DV?$string_output_adapter@D@__crt_stdio_output@@@__crt_stdio_output@@IAE_NAA_J@Z 1003a6b7 f i libucrt:output.obj
 0001:000396dc       ??$extract_argument_from_va_list@H_J@?$standard_base@_WV?$stream_output_adapter@_W@__crt_stdio_output@@@__crt_stdio_output@@IAE_NAA_J@Z 1003a6dc f i libucrt:output.obj
 0001:00039701       ??$extract_argument_from_va_list@H_J@?$standard_base@_WV?$string_output_adapter@_W@__crt_stdio_output@@@__crt_stdio_output@@IAE_NAA_J@Z 1003a701 f i libucrt:output.obj
 0001:00039726       ??$extract_argument_from_va_list@I_J@?$positional_parameter_base@DV?$stream_output_adapter@D@__crt_stdio_output@@@__crt_stdio_output@@IAE_NAA_J@Z 1003a726 f i libucrt:output.obj
 0001:000397cd       ??$extract_argument_from_va_list@I_J@?$positional_parameter_base@DV?$string_output_adapter@D@__crt_stdio_output@@@__crt_stdio_output@@IAE_NAA_J@Z 1003a7cd f i libucrt:output.obj
 0001:00039874       ??$extract_argument_from_va_list@I_J@?$positional_parameter_base@_WV?$stream_output_adapter@_W@__crt_stdio_output@@@__crt_stdio_output@@IAE_NAA_J@Z 1003a874 f i libucrt:output.obj
 0001:0003991b       ??$extract_argument_from_va_list@I_J@?$positional_parameter_base@_WV?$string_output_adapter@_W@__crt_stdio_output@@@__crt_stdio_output@@IAE_NAA_J@Z 1003a91b f i libucrt:output.obj
 0001:000399c2       ??$extract_argument_from_va_list@I_J@?$standard_base@DV?$stream_output_adapter@D@__crt_stdio_output@@@__crt_stdio_output@@IAE_NAA_J@Z 1003a9c2 f i libucrt:output.obj
 0001:000399e7       ??$extract_argument_from_va_list@I_J@?$standard_base@DV?$string_output_adapter@D@__crt_stdio_output@@@__crt_stdio_output@@IAE_NAA_J@Z 1003a9e7 f i libucrt:output.obj
 0001:00039a0c       ??$extract_argument_from_va_list@I_J@?$standard_base@_WV?$stream_output_adapter@_W@__crt_stdio_output@@@__crt_stdio_output@@IAE_NAA_J@Z 1003aa0c f i libucrt:output.obj
 0001:00039a31       ??$extract_argument_from_va_list@I_J@?$standard_base@_WV?$string_output_adapter@_W@__crt_stdio_output@@@__crt_stdio_output@@IAE_NAA_J@Z 1003aa31 f i libucrt:output.obj
 0001:00039a56       ??$extract_argument_from_va_list@PADPAD@?$positional_parameter_base@DV?$stream_output_adapter@D@__crt_stdio_output@@@__crt_stdio_output@@IAE_NAAPAD@Z 1003aa56 f i libucrt:output.obj
 0001:00039af3       ??$extract_argument_from_va_list@PADPAD@?$positional_parameter_base@DV?$string_output_adapter@D@__crt_stdio_output@@@__crt_stdio_output@@IAE_NAAPAD@Z 1003aaf3 f i libucrt:output.obj
 0001:00039b90       ??$extract_argument_from_va_list@PADPAD@?$positional_parameter_base@_WV?$stream_output_adapter@_W@__crt_stdio_output@@@__crt_stdio_output@@IAE_NAAPAD@Z 1003ab90 f i libucrt:output.obj
 0001:00039c2d       ??$extract_argument_from_va_list@PADPAD@?$positional_parameter_base@_WV?$string_output_adapter@_W@__crt_stdio_output@@@__crt_stdio_output@@IAE_NAAPAD@Z 1003ac2d f i libucrt:output.obj
 0001:00039cca       ??$extract_argument_from_va_list@PADPAD@?$standard_base@DV?$stream_output_adapter@D@__crt_stdio_output@@@__crt_stdio_output@@IAE_NAAPAD@Z 1003acca f i libucrt:output.obj
 0001:00039cea       ??$extract_argument_from_va_list@PADPAD@?$standard_base@DV?$string_output_adapter@D@__crt_stdio_output@@@__crt_stdio_output@@IAE_NAAPAD@Z 1003acea f i libucrt:output.obj
 0001:00039d0a       ??$extract_argument_from_va_list@PADPAD@?$standard_base@_WV?$stream_output_adapter@_W@__crt_stdio_output@@@__crt_stdio_output@@IAE_NAAPAD@Z 1003ad0a f i libucrt:output.obj
 0001:00039d2a       ??$extract_argument_from_va_list@PADPAD@?$standard_base@_WV?$string_output_adapter@_W@__crt_stdio_output@@@__crt_stdio_output@@IAE_NAAPAD@Z 1003ad2a f i libucrt:output.obj
 0001:00039d4a       ??$extract_argument_from_va_list@PAUansi_string@?1??type_case_Z@?$output_processor@DV?$stream_output_adapter@D@__crt_stdio_output@@V?$format_validation_base@DV?$stream_output_adapter@D@__crt_stdio_output@@@2@@__crt_stdio_output@@AAE_NXZ@PAU1?1??234@AAE_NXZ@@?$standard_base@DV?$stream_output_adapter@D@__crt_stdio_output@@@__crt_stdio_output@@IAE_NAAPAUansi_string@?1??type_case_Z@?$output_processor@DV?$stream_output_adapter@D@__crt_stdio_output@@V?$format_validation_base@DV?$stream_output_adapter@D@__crt_stdio_output@@@2@@1@AAE_NXZ@@Z 1003ad4a f i libucrt:output.obj
 0001:00039d6a       ??$extract_argument_from_va_list@PAUansi_string@?1??type_case_Z@?$output_processor@DV?$stream_output_adapter@D@__crt_stdio_output@@V?$positional_parameter_base@DV?$stream_output_adapter@D@__crt_stdio_output@@@2@@__crt_stdio_output@@AAE_NXZ@PAU1?1??234@AAE_NXZ@@?$positional_parameter_base@DV?$stream_output_adapter@D@__crt_stdio_output@@@__crt_stdio_output@@IAE_NAAPAUansi_string@?1??type_case_Z@?$output_processor@DV?$stream_output_adapter@D@__crt_stdio_output@@V?$positional_parameter_base@DV?$stream_output_adapter@D@__crt_stdio_output@@@2@@1@AAE_NXZ@@Z 1003ad6a f i libucrt:output.obj
 0001:00039e07       ??$extract_argument_from_va_list@PAUansi_string@?1??type_case_Z@?$output_processor@DV?$stream_output_adapter@D@__crt_stdio_output@@V?$positional_parameter_base@DV?$stream_output_adapter@D@__crt_stdio_output@@@2@@__crt_stdio_output@@AAE_NXZ@PAU1?1??234@AAE_NXZ@@?$standard_base@DV?$stream_output_adapter@D@__crt_stdio_output@@@__crt_stdio_output@@IAE_NAAPAUansi_string@?1??type_case_Z@?$output_processor@DV?$stream_output_adapter@D@__crt_stdio_output@@V?$positional_parameter_base@DV?$stream_output_adapter@D@__crt_stdio_output@@@2@@1@AAE_NXZ@@Z 1003ae07 f i libucrt:output.obj
 0001:00039e27       ??$extract_argument_from_va_list@PAUansi_string@?1??type_case_Z@?$output_processor@DV?$stream_output_adapter@D@__crt_stdio_output@@V?$standard_base@DV?$stream_output_adapter@D@__crt_stdio_output@@@2@@__crt_stdio_output@@AAE_NXZ@PAU1?1??234@AAE_NXZ@@?$standard_base@DV?$stream_output_adapter@D@__crt_stdio_output@@@__crt_stdio_output@@IAE_NAAPAUansi_string@?1??type_case_Z@?$output_processor@DV?$stream_output_adapter@D@__crt_stdio_output@@V?$standard_base@DV?$stream_output_adapter@D@__crt_stdio_output@@@2@@1@AAE_NXZ@@Z 1003ae27 f i libucrt:output.obj
 0001:00039e47       ??$extract_argument_from_va_list@PAUansi_string@?1??type_case_Z@?$output_processor@DV?$string_output_adapter@D@__crt_stdio_output@@V?$format_validation_base@DV?$string_output_adapter@D@__crt_stdio_output@@@2@@__crt_stdio_output@@AAE_NXZ@PAU1?1??234@AAE_NXZ@@?$standard_base@DV?$string_output_adapter@D@__crt_stdio_output@@@__crt_stdio_output@@IAE_NAAPAUansi_string@?1??type_case_Z@?$output_processor@DV?$string_output_adapter@D@__crt_stdio_output@@V?$format_validation_base@DV?$string_output_adapter@D@__crt_stdio_output@@@2@@1@AAE_NXZ@@Z 1003ae47 f i libucrt:output.obj
 0001:00039e67       ??$extract_argument_from_va_list@PAUansi_string@?1??type_case_Z@?$output_processor@DV?$string_output_adapter@D@__crt_stdio_output@@V?$positional_parameter_base@DV?$string_output_adapter@D@__crt_stdio_output@@@2@@__crt_stdio_output@@AAE_NXZ@PAU1?1??234@AAE_NXZ@@?$positional_parameter_base@DV?$string_output_adapter@D@__crt_stdio_output@@@__crt_stdio_output@@IAE_NAAPAUansi_string@?1??type_case_Z@?$output_processor@DV?$string_output_adapter@D@__crt_stdio_output@@V?$positional_parameter_base@DV?$string_output_adapter@D@__crt_stdio_output@@@2@@1@AAE_NXZ@@Z 1003ae67 f i libucrt:output.obj
 0001:00039f04       ??$extract_argument_from_va_list@PAUansi_string@?1??type_case_Z@?$output_processor@DV?$string_output_adapter@D@__crt_stdio_output@@V?$positional_parameter_base@DV?$string_output_adapter@D@__crt_stdio_output@@@2@@__crt_stdio_output@@AAE_NXZ@PAU1?1??234@AAE_NXZ@@?$standard_base@DV?$string_output_adapter@D@__crt_stdio_output@@@__crt_stdio_output@@IAE_NAAPAUansi_string@?1??type_case_Z@?$output_processor@DV?$string_output_adapter@D@__crt_stdio_output@@V?$positional_parameter_base@DV?$string_output_adapter@D@__crt_stdio_output@@@2@@1@AAE_NXZ@@Z 1003af04 f i libucrt:output.obj
 0001:00039f24       ??$extract_argument_from_va_list@PAUansi_string@?1??type_case_Z@?$output_processor@DV?$string_output_adapter@D@__crt_stdio_output@@V?$standard_base@DV?$string_output_adapter@D@__crt_stdio_output@@@2@@__crt_stdio_output@@AAE_NXZ@PAU1?1??234@AAE_NXZ@@?$standard_base@DV?$string_output_adapter@D@__crt_stdio_output@@@__crt_stdio_output@@IAE_NAAPAUansi_string@?1??type_case_Z@?$output_processor@DV?$string_output_adapter@D@__crt_stdio_output@@V?$standard_base@DV?$string_output_adapter@D@__crt_stdio_output@@@2@@1@AAE_NXZ@@Z 1003af24 f i libucrt:output.obj
 0001:00039f44       ??$extract_argument_from_va_list@PAUansi_string@?1??type_case_Z@?$output_processor@_WV?$stream_output_adapter@_W@__crt_stdio_output@@V?$format_validation_base@_WV?$stream_output_adapter@_W@__crt_stdio_output@@@2@@__crt_stdio_output@@AAE_NXZ@PAU1?1??234@AAE_NXZ@@?$standard_base@_WV?$stream_output_adapter@_W@__crt_stdio_output@@@__crt_stdio_output@@IAE_NAAPAUansi_string@?1??type_case_Z@?$output_processor@_WV?$stream_output_adapter@_W@__crt_stdio_output@@V?$format_validation_base@_WV?$stream_output_adapter@_W@__crt_stdio_output@@@2@@1@AAE_NXZ@@Z 1003af44 f i libucrt:output.obj
 0001:00039f64       ??$extract_argument_from_va_list@PAUansi_string@?1??type_case_Z@?$output_processor@_WV?$stream_output_adapter@_W@__crt_stdio_output@@V?$positional_parameter_base@_WV?$stream_output_adapter@_W@__crt_stdio_output@@@2@@__crt_stdio_output@@AAE_NXZ@PAU1?1??234@AAE_NXZ@@?$positional_parameter_base@_WV?$stream_output_adapter@_W@__crt_stdio_output@@@__crt_stdio_output@@IAE_NAAPAUansi_string@?1??type_case_Z@?$output_processor@_WV?$stream_output_adapter@_W@__crt_stdio_output@@V?$positional_parameter_base@_WV?$stream_output_adapter@_W@__crt_stdio_output@@@2@@1@AAE_NXZ@@Z 1003af64 f i libucrt:output.obj
 0001:0003a001       ??$extract_argument_from_va_list@PAUansi_string@?1??type_case_Z@?$output_processor@_WV?$stream_output_adapter@_W@__crt_stdio_output@@V?$positional_parameter_base@_WV?$stream_output_adapter@_W@__crt_stdio_output@@@2@@__crt_stdio_output@@AAE_NXZ@PAU1?1??234@AAE_NXZ@@?$standard_base@_WV?$stream_output_adapter@_W@__crt_stdio_output@@@__crt_stdio_output@@IAE_NAAPAUansi_string@?1??type_case_Z@?$output_processor@_WV?$stream_output_adapter@_W@__crt_stdio_output@@V?$positional_parameter_base@_WV?$stream_output_adapter@_W@__crt_stdio_output@@@2@@1@AAE_NXZ@@Z 1003b001 f i libucrt:output.obj
 0001:0003a021       ??$extract_argument_from_va_list@PAUansi_string@?1??type_case_Z@?$output_processor@_WV?$stream_output_adapter@_W@__crt_stdio_output@@V?$standard_base@_WV?$stream_output_adapter@_W@__crt_stdio_output@@@2@@__crt_stdio_output@@AAE_NXZ@PAU1?1??234@AAE_NXZ@@?$standard_base@_WV?$stream_output_adapter@_W@__crt_stdio_output@@@__crt_stdio_output@@IAE_NAAPAUansi_string@?1??type_case_Z@?$output_processor@_WV?$stream_output_adapter@_W@__crt_stdio_output@@V?$standard_base@_WV?$stream_output_adapter@_W@__crt_stdio_output@@@2@@1@AAE_NXZ@@Z 1003b021 f i libucrt:output.obj
 0001:0003a041       ??$extract_argument_from_va_list@PAUansi_string@?1??type_case_Z@?$output_processor@_WV?$string_output_adapter@_W@__crt_stdio_output@@V?$format_validation_base@_WV?$string_output_adapter@_W@__crt_stdio_output@@@2@@__crt_stdio_output@@AAE_NXZ@PAU1?1??234@AAE_NXZ@@?$standard_base@_WV?$string_output_adapter@_W@__crt_stdio_output@@@__crt_stdio_output@@IAE_NAAPAUansi_string@?1??type_case_Z@?$output_processor@_WV?$string_output_adapter@_W@__crt_stdio_output@@V?$format_validation_base@_WV?$string_output_adapter@_W@__crt_stdio_output@@@2@@1@AAE_NXZ@@Z 1003b041 f i libucrt:output.obj
 0001:0003a061       ??$extract_argument_from_va_list@PAUansi_string@?1??type_case_Z@?$output_processor@_WV?$string_output_adapter@_W@__crt_stdio_output@@V?$positional_parameter_base@_WV?$string_output_adapter@_W@__crt_stdio_output@@@2@@__crt_stdio_output@@AAE_NXZ@PAU1?1??234@AAE_NXZ@@?$positional_parameter_base@_WV?$string_output_adapter@_W@__crt_stdio_output@@@__crt_stdio_output@@IAE_NAAPAUansi_string@?1??type_case_Z@?$output_processor@_WV?$string_output_adapter@_W@__crt_stdio_output@@V?$positional_parameter_base@_WV?$string_output_adapter@_W@__crt_stdio_output@@@2@@1@AAE_NXZ@@Z 1003b061 f i libucrt:output.obj
 0001:0003a0fe       ??$extract_argument_from_va_list@PAUansi_string@?1??type_case_Z@?$output_processor@_WV?$string_output_adapter@_W@__crt_stdio_output@@V?$positional_parameter_base@_WV?$string_output_adapter@_W@__crt_stdio_output@@@2@@__crt_stdio_output@@AAE_NXZ@PAU1?1??234@AAE_NXZ@@?$standard_base@_WV?$string_output_adapter@_W@__crt_stdio_output@@@__crt_stdio_output@@IAE_NAAPAUansi_string@?1??type_case_Z@?$output_processor@_WV?$string_output_adapter@_W@__crt_stdio_output@@V?$positional_parameter_base@_WV?$string_output_adapter@_W@__crt_stdio_output@@@2@@1@AAE_NXZ@@Z 1003b0fe f i libucrt:output.obj
 0001:0003a11e       ??$extract_argument_from_va_list@PAUansi_string@?1??type_case_Z@?$output_processor@_WV?$string_output_adapter@_W@__crt_stdio_output@@V?$standard_base@_WV?$string_output_adapter@_W@__crt_stdio_output@@@2@@__crt_stdio_output@@AAE_NXZ@PAU1?1??234@AAE_NXZ@@?$standard_base@_WV?$string_output_adapter@_W@__crt_stdio_output@@@__crt_stdio_output@@IAE_NAAPAUansi_string@?1??type_case_Z@?$output_processor@_WV?$string_output_adapter@_W@__crt_stdio_output@@V?$standard_base@_WV?$string_output_adapter@_W@__crt_stdio_output@@@2@@1@AAE_NXZ@@Z 1003b11e f i libucrt:output.obj
 0001:0003a13e       ??$extract_argument_from_va_list@PAXPAX@?$positional_parameter_base@DV?$stream_output_adapter@D@__crt_stdio_output@@@__crt_stdio_output@@IAE_NAAPAX@Z 1003b13e f i libucrt:output.obj
 0001:0003a1db       ??$extract_argument_from_va_list@PAXPAX@?$positional_parameter_base@DV?$string_output_adapter@D@__crt_stdio_output@@@__crt_stdio_output@@IAE_NAAPAX@Z 1003b1db f i libucrt:output.obj
 0001:0003a278       ??$extract_argument_from_va_list@PAXPAX@?$positional_parameter_base@_WV?$stream_output_adapter@_W@__crt_stdio_output@@@__crt_stdio_output@@IAE_NAAPAX@Z 1003b278 f i libucrt:output.obj
 0001:0003a315       ??$extract_argument_from_va_list@PAXPAX@?$positional_parameter_base@_WV?$string_output_adapter@_W@__crt_stdio_output@@@__crt_stdio_output@@IAE_NAAPAX@Z 1003b315 f i libucrt:output.obj
 0001:0003a3b2       ??$extract_argument_from_va_list@PAXPAX@?$standard_base@DV?$stream_output_adapter@D@__crt_stdio_output@@@__crt_stdio_output@@IAE_NAAPAX@Z 1003b3b2 f i libucrt:output.obj
 0001:0003a3d2       ??$extract_argument_from_va_list@PAXPAX@?$standard_base@DV?$string_output_adapter@D@__crt_stdio_output@@@__crt_stdio_output@@IAE_NAAPAX@Z 1003b3d2 f i libucrt:output.obj
 0001:0003a3f2       ??$extract_argument_from_va_list@PAXPAX@?$standard_base@_WV?$stream_output_adapter@_W@__crt_stdio_output@@@__crt_stdio_output@@IAE_NAAPAX@Z 1003b3f2 f i libucrt:output.obj
 0001:0003a412       ??$extract_argument_from_va_list@PAXPAX@?$standard_base@_WV?$string_output_adapter@_W@__crt_stdio_output@@@__crt_stdio_output@@IAE_NAAPAX@Z 1003b412 f i libucrt:output.obj
 0001:0003a432       ??$extract_argument_from_va_list@U_CRT_DOUBLE@@U1@@?$positional_parameter_base@DV?$stream_output_adapter@D@__crt_stdio_output@@@__crt_stdio_output@@IAE_NAAU_CRT_DOUBLE@@@Z 1003b432 f i libucrt:output.obj
 0001:0003a4e3       ??$extract_argument_from_va_list@U_CRT_DOUBLE@@U1@@?$positional_parameter_base@DV?$string_output_adapter@D@__crt_stdio_output@@@__crt_stdio_output@@IAE_NAAU_CRT_DOUBLE@@@Z 1003b4e3 f i libucrt:output.obj
 0001:0003a594       ??$extract_argument_from_va_list@U_CRT_DOUBLE@@U1@@?$positional_parameter_base@_WV?$stream_output_adapter@_W@__crt_stdio_output@@@__crt_stdio_output@@IAE_NAAU_CRT_DOUBLE@@@Z 1003b594 f i libucrt:output.obj
 0001:0003a645       ??$extract_argument_from_va_list@U_CRT_DOUBLE@@U1@@?$positional_parameter_base@_WV?$string_output_adapter@_W@__crt_stdio_output@@@__crt_stdio_output@@IAE_NAAU_CRT_DOUBLE@@@Z 1003b645 f i libucrt:output.obj
 0001:0003a6f6       ??$extract_argument_from_va_list@U_CRT_DOUBLE@@U1@@?$standard_base@DV?$stream_output_adapter@D@__crt_stdio_output@@@__crt_stdio_output@@IAE_NAAU_CRT_DOUBLE@@@Z 1003b6f6 f i libucrt:output.obj
 0001:0003a71e       ??$extract_argument_from_va_list@U_CRT_DOUBLE@@U1@@?$standard_base@DV?$string_output_adapter@D@__crt_stdio_output@@@__crt_stdio_output@@IAE_NAAU_CRT_DOUBLE@@@Z 1003b71e f i libucrt:output.obj
 0001:0003a746       ??$extract_argument_from_va_list@U_CRT_DOUBLE@@U1@@?$standard_base@_WV?$stream_output_adapter@_W@__crt_stdio_output@@@__crt_stdio_output@@IAE_NAAU_CRT_DOUBLE@@@Z 1003b746 f i libucrt:output.obj
 0001:0003a76e       ??$extract_argument_from_va_list@U_CRT_DOUBLE@@U1@@?$standard_base@_WV?$string_output_adapter@_W@__crt_stdio_output@@@__crt_stdio_output@@IAE_NAAU_CRT_DOUBLE@@@Z 1003b76e f i libucrt:output.obj
 0001:0003a796       ??$extract_argument_from_va_list@_J_J@?$positional_parameter_base@DV?$stream_output_adapter@D@__crt_stdio_output@@@__crt_stdio_output@@IAE_NAA_J@Z 1003b796 f i libucrt:output.obj
 0001:0003a847       ??$extract_argument_from_va_list@_J_J@?$positional_parameter_base@DV?$string_output_adapter@D@__crt_stdio_output@@@__crt_stdio_output@@IAE_NAA_J@Z 1003b847 f i libucrt:output.obj
 0001:0003a8f8       ??$extract_argument_from_va_list@_J_J@?$positional_parameter_base@_WV?$stream_output_adapter@_W@__crt_stdio_output@@@__crt_stdio_output@@IAE_NAA_J@Z 1003b8f8 f i libucrt:output.obj
 0001:0003a9a9       ??$extract_argument_from_va_list@_J_J@?$positional_parameter_base@_WV?$string_output_adapter@_W@__crt_stdio_output@@@__crt_stdio_output@@IAE_NAA_J@Z 1003b9a9 f i libucrt:output.obj
 0001:0003aa5a       ??$extract_argument_from_va_list@_J_J@?$standard_base@DV?$stream_output_adapter@D@__crt_stdio_output@@@__crt_stdio_output@@IAE_NAA_J@Z 1003ba5a f i libucrt:output.obj
 0001:0003aa82       ??$extract_argument_from_va_list@_J_J@?$standard_base@DV?$string_output_adapter@D@__crt_stdio_output@@@__crt_stdio_output@@IAE_NAA_J@Z 1003ba82 f i libucrt:output.obj
 0001:0003aaaa       ??$extract_argument_from_va_list@_J_J@?$standard_base@_WV?$stream_output_adapter@_W@__crt_stdio_output@@@__crt_stdio_output@@IAE_NAA_J@Z 1003baaa f i libucrt:output.obj
 0001:0003aad2       ??$extract_argument_from_va_list@_J_J@?$standard_base@_WV?$string_output_adapter@_W@__crt_stdio_output@@@__crt_stdio_output@@IAE_NAA_J@Z 1003bad2 f i libucrt:output.obj
 0001:0003aafa       ??$extract_argument_from_va_list@_K_J@?$positional_parameter_base@DV?$stream_output_adapter@D@__crt_stdio_output@@@__crt_stdio_output@@IAE_NAA_J@Z 1003bafa f i libucrt:output.obj
 0001:0003abab       ??$extract_argument_from_va_list@_K_J@?$positional_parameter_base@DV?$string_output_adapter@D@__crt_stdio_output@@@__crt_stdio_output@@IAE_NAA_J@Z 1003bbab f i libucrt:output.obj
 0001:0003ac5c       ??$extract_argument_from_va_list@_K_J@?$positional_parameter_base@_WV?$stream_output_adapter@_W@__crt_stdio_output@@@__crt_stdio_output@@IAE_NAA_J@Z 1003bc5c f i libucrt:output.obj
 0001:0003ad0d       ??$extract_argument_from_va_list@_K_J@?$positional_parameter_base@_WV?$string_output_adapter@_W@__crt_stdio_output@@@__crt_stdio_output@@IAE_NAA_J@Z 1003bd0d f i libucrt:output.obj
 0001:0003adbe       ??$extract_argument_from_va_list@_K_J@?$standard_base@DV?$stream_output_adapter@D@__crt_stdio_output@@@__crt_stdio_output@@IAE_NAA_J@Z 1003bdbe f i libucrt:output.obj
 0001:0003ade6       ??$extract_argument_from_va_list@_K_J@?$standard_base@DV?$string_output_adapter@D@__crt_stdio_output@@@__crt_stdio_output@@IAE_NAA_J@Z 1003bde6 f i libucrt:output.obj
 0001:0003ae0e       ??$extract_argument_from_va_list@_K_J@?$standard_base@_WV?$stream_output_adapter@_W@__crt_stdio_output@@@__crt_stdio_output@@IAE_NAA_J@Z 1003be0e f i libucrt:output.obj
 0001:0003ae36       ??$extract_argument_from_va_list@_K_J@?$standard_base@_WV?$string_output_adapter@_W@__crt_stdio_output@@@__crt_stdio_output@@IAE_NAA_J@Z 1003be36 f i libucrt:output.obj
 0001:0003ae5e       ??$extract_argument_from_va_list@_W_W@?$positional_parameter_base@DV?$stream_output_adapter@D@__crt_stdio_output@@@__crt_stdio_output@@IAE_NAA_W@Z 1003be5e f i libucrt:output.obj
 0001:0003af00       ??$extract_argument_from_va_list@_W_W@?$positional_parameter_base@DV?$string_output_adapter@D@__crt_stdio_output@@@__crt_stdio_output@@IAE_NAA_W@Z 1003bf00 f i libucrt:output.obj
 0001:0003afa2       ??$extract_argument_from_va_list@_W_W@?$positional_parameter_base@_WV?$stream_output_adapter@_W@__crt_stdio_output@@@__crt_stdio_output@@IAE_NAA_W@Z 1003bfa2 f i libucrt:output.obj
 0001:0003b044       ??$extract_argument_from_va_list@_W_W@?$positional_parameter_base@_WV?$string_output_adapter@_W@__crt_stdio_output@@@__crt_stdio_output@@IAE_NAA_W@Z 1003c044 f i libucrt:output.obj
 0001:0003b0e6       ??$extract_argument_from_va_list@_W_W@?$standard_base@DV?$stream_output_adapter@D@__crt_stdio_output@@@__crt_stdio_output@@IAE_NAA_W@Z 1003c0e6 f i libucrt:output.obj
 0001:0003b109       ??$extract_argument_from_va_list@_W_W@?$standard_base@DV?$string_output_adapter@D@__crt_stdio_output@@@__crt_stdio_output@@IAE_NAA_W@Z 1003c109 f i libucrt:output.obj
 0001:0003b12c       ??$extract_argument_from_va_list@_W_W@?$standard_base@_WV?$stream_output_adapter@_W@__crt_stdio_output@@@__crt_stdio_output@@IAE_NAA_W@Z 1003c12c f i libucrt:output.obj
 0001:0003b14f       ??$extract_argument_from_va_list@_W_W@?$standard_base@_WV?$string_output_adapter@_W@__crt_stdio_output@@@__crt_stdio_output@@IAE_NAA_W@Z 1003c14f f i libucrt:output.obj
 0001:0003b172       ??$get_parameter_type@D@?$positional_parameter_base@DV?$stream_output_adapter@D@__crt_stdio_output@@@__crt_stdio_output@@CA?AW4parameter_type@01@PAD@Z 1003c172 f i libucrt:output.obj
 0001:0003b176       ??$get_parameter_type@D@?$positional_parameter_base@DV?$string_output_adapter@D@__crt_stdio_output@@@__crt_stdio_output@@CA?AW4parameter_type@01@PAD@Z 1003c176 f i libucrt:output.obj
 0001:0003b17a       ??$get_parameter_type@D@?$positional_parameter_base@_WV?$stream_output_adapter@_W@__crt_stdio_output@@@__crt_stdio_output@@CA?AW4parameter_type@01@PAD@Z 1003c17a f i libucrt:output.obj
 0001:0003b17e       ??$get_parameter_type@D@?$positional_parameter_base@_WV?$string_output_adapter@_W@__crt_stdio_output@@@__crt_stdio_output@@CA?AW4parameter_type@01@PAD@Z 1003c17e f i libucrt:output.obj
 0001:0003b182       ??$get_parameter_type@Uansi_string@?1??type_case_Z@?$output_processor@DV?$stream_output_adapter@D@__crt_stdio_output@@V?$positional_parameter_base@DV?$stream_output_adapter@D@__crt_stdio_output@@@2@@__crt_stdio_output@@AAE_NXZ@@?$positional_parameter_base@DV?$stream_output_adapter@D@__crt_stdio_output@@@__crt_stdio_output@@CA?AW4parameter_type@01@PAUansi_string@?1??type_case_Z@?$output_processor@DV?$stream_output_adapter@D@__crt_stdio_output@@V?$positional_parameter_base@DV?$stream_output_adapter@D@__crt_stdio_output@@@2@@1@AAE_NXZ@@Z 1003c182 f i libucrt:output.obj
 0001:0003b186       ??$get_parameter_type@Uansi_string@?1??type_case_Z@?$output_processor@DV?$string_output_adapter@D@__crt_stdio_output@@V?$positional_parameter_base@DV?$string_output_adapter@D@__crt_stdio_output@@@2@@__crt_stdio_output@@AAE_NXZ@@?$positional_parameter_base@DV?$string_output_adapter@D@__crt_stdio_output@@@__crt_stdio_output@@CA?AW4parameter_type@01@PAUansi_string@?1??type_case_Z@?$output_processor@DV?$string_output_adapter@D@__crt_stdio_output@@V?$positional_parameter_base@DV?$string_output_adapter@D@__crt_stdio_output@@@2@@1@AAE_NXZ@@Z 1003c186 f i libucrt:output.obj
 0001:0003b18a       ??$get_parameter_type@Uansi_string@?1??type_case_Z@?$output_processor@_WV?$stream_output_adapter@_W@__crt_stdio_output@@V?$positional_parameter_base@_WV?$stream_output_adapter@_W@__crt_stdio_output@@@2@@__crt_stdio_output@@AAE_NXZ@@?$positional_parameter_base@_WV?$stream_output_adapter@_W@__crt_stdio_output@@@__crt_stdio_output@@CA?AW4parameter_type@01@PAUansi_string@?1??type_case_Z@?$output_processor@_WV?$stream_output_adapter@_W@__crt_stdio_output@@V?$positional_parameter_base@_WV?$stream_output_adapter@_W@__crt_stdio_output@@@2@@1@AAE_NXZ@@Z 1003c18a f i libucrt:output.obj
 0001:0003b18e       ??$get_parameter_type@Uansi_string@?1??type_case_Z@?$output_processor@_WV?$string_output_adapter@_W@__crt_stdio_output@@V?$positional_parameter_base@_WV?$string_output_adapter@_W@__crt_stdio_output@@@2@@__crt_stdio_output@@AAE_NXZ@@?$positional_parameter_base@_WV?$string_output_adapter@_W@__crt_stdio_output@@@__crt_stdio_output@@CA?AW4parameter_type@01@PAUansi_string@?1??type_case_Z@?$output_processor@_WV?$string_output_adapter@_W@__crt_stdio_output@@V?$positional_parameter_base@_WV?$string_output_adapter@_W@__crt_stdio_output@@@2@@1@AAE_NXZ@@Z 1003c18e f i libucrt:output.obj
 0001:0003b192       ??$get_parameter_type@X@?$positional_parameter_base@DV?$stream_output_adapter@D@__crt_stdio_output@@@__crt_stdio_output@@CA?AW4parameter_type@01@PAX@Z 1003c192 f i libucrt:output.obj
 0001:0003b196       ??$get_parameter_type@X@?$positional_parameter_base@DV?$string_output_adapter@D@__crt_stdio_output@@@__crt_stdio_output@@CA?AW4parameter_type@01@PAX@Z 1003c196 f i libucrt:output.obj
 0001:0003b19a       ??$get_parameter_type@X@?$positional_parameter_base@_WV?$stream_output_adapter@_W@__crt_stdio_output@@@__crt_stdio_output@@CA?AW4parameter_type@01@PAX@Z 1003c19a f i libucrt:output.obj
 0001:0003b19e       ??$get_parameter_type@X@?$positional_parameter_base@_WV?$string_output_adapter@_W@__crt_stdio_output@@@__crt_stdio_output@@CA?AW4parameter_type@01@PAX@Z 1003c19e f i libucrt:output.obj
 0001:0003b1a2       ??$is_character_specifier@D@?$positional_parameter_base@DV?$stream_output_adapter@D@__crt_stdio_output@@@__crt_stdio_output@@CA_ND@Z 1003c1a2 f i libucrt:output.obj
 0001:0003b1c1       ??$is_character_specifier@D@?$positional_parameter_base@DV?$string_output_adapter@D@__crt_stdio_output@@@__crt_stdio_output@@CA_ND@Z 1003c1c1 f i libucrt:output.obj
 0001:0003b1e0       ??$is_character_specifier@_W@?$positional_parameter_base@_WV?$stream_output_adapter@_W@__crt_stdio_output@@@__crt_stdio_output@@CA_N_W@Z 1003c1e0 f i libucrt:output.obj
 0001:0003b203       ??$is_character_specifier@_W@?$positional_parameter_base@_WV?$string_output_adapter@_W@__crt_stdio_output@@@__crt_stdio_output@@CA_N_W@Z 1003c203 f i libucrt:output.obj
 0001:0003b226       ??$is_integral_specifier@D@?$positional_parameter_base@DV?$stream_output_adapter@D@__crt_stdio_output@@@__crt_stdio_output@@CA_ND@Z 1003c226 f i libucrt:output.obj
 0001:0003b25e       ??$is_integral_specifier@D@?$positional_parameter_base@DV?$string_output_adapter@D@__crt_stdio_output@@@__crt_stdio_output@@CA_ND@Z 1003c25e f i libucrt:output.obj
 0001:0003b296       ??$is_integral_specifier@_W@?$positional_parameter_base@_WV?$stream_output_adapter@_W@__crt_stdio_output@@@__crt_stdio_output@@CA_N_W@Z 1003c296 f i libucrt:output.obj
 0001:0003b2e1       ??$is_integral_specifier@_W@?$positional_parameter_base@_WV?$string_output_adapter@_W@__crt_stdio_output@@@__crt_stdio_output@@CA_N_W@Z 1003c2e1 f i libucrt:output.obj
 0001:0003b32c       ??$is_pointer_specifier@D@?$positional_parameter_base@DV?$stream_output_adapter@D@__crt_stdio_output@@@__crt_stdio_output@@CA_ND@Z 1003c32c f i libucrt:output.obj
 0001:0003b340       ??$is_pointer_specifier@D@?$positional_parameter_base@DV?$string_output_adapter@D@__crt_stdio_output@@@__crt_stdio_output@@CA_ND@Z 1003c340 f i libucrt:output.obj
 0001:0003b354       ??$is_pointer_specifier@_W@?$positional_parameter_base@_WV?$stream_output_adapter@_W@__crt_stdio_output@@@__crt_stdio_output@@CA_N_W@Z 1003c354 f i libucrt:output.obj
 0001:0003b369       ??$is_pointer_specifier@_W@?$positional_parameter_base@_WV?$string_output_adapter@_W@__crt_stdio_output@@@__crt_stdio_output@@CA_N_W@Z 1003c369 f i libucrt:output.obj
 0001:0003b37e       ??$is_string_specifier@D@?$positional_parameter_base@DV?$stream_output_adapter@D@__crt_stdio_output@@@__crt_stdio_output@@CA_ND@Z 1003c37e f i libucrt:output.obj
 0001:0003b39d       ??$is_string_specifier@D@?$positional_parameter_base@DV?$string_output_adapter@D@__crt_stdio_output@@@__crt_stdio_output@@CA_ND@Z 1003c39d f i libucrt:output.obj
 0001:0003b3bc       ??$is_string_specifier@_W@?$positional_parameter_base@_WV?$stream_output_adapter@_W@__crt_stdio_output@@@__crt_stdio_output@@CA_N_W@Z 1003c3bc f i libucrt:output.obj
 0001:0003b3df       ??$is_string_specifier@_W@?$positional_parameter_base@_WV?$string_output_adapter@_W@__crt_stdio_output@@@__crt_stdio_output@@CA_N_W@Z 1003c3df f i libucrt:output.obj
 0001:0003b402       ??$is_wide_character_specifier@D@__crt_stdio_output@@YA_N_KDW4length_modifier@0@@Z 1003c402 f i libucrt:output.obj
 0001:0003b452       ??$is_wide_character_specifier@_W@__crt_stdio_output@@YA_N_K_WW4length_modifier@0@@Z 1003c452 f i libucrt:output.obj
 0001:0003b4b4       ??$peek_va_arg@C@__crt_stdio_output@@YACPAD@Z 1003c4b4 f i libucrt:output.obj
 0001:0003b4c3       ??$peek_va_arg@E@__crt_stdio_output@@YAEPAD@Z 1003c4c3 f i libucrt:output.obj
 0001:0003b4d2       ??$peek_va_arg@F@__crt_stdio_output@@YAFPAD@Z 1003c4d2 f i libucrt:output.obj
 0001:0003b4e2       ??$peek_va_arg@G@__crt_stdio_output@@YAGPAD@Z 1003c4e2 f i libucrt:output.obj
 0001:0003b4f2       ??$peek_va_arg@H@__crt_stdio_output@@YAHPAD@Z 1003c4f2 f i libucrt:output.obj
 0001:0003b501       ??$peek_va_arg@I@__crt_stdio_output@@YAIPAD@Z 1003c501 f i libucrt:output.obj
 0001:0003b510       ??$peek_va_arg@PAD@__crt_stdio_output@@YAPADPAD@Z 1003c510 f i libucrt:output.obj
 0001:0003b51f       ??$peek_va_arg@PAUansi_string@?1??type_case_Z@?$output_processor@DV?$stream_output_adapter@D@__crt_stdio_output@@V?$positional_parameter_base@DV?$stream_output_adapter@D@__crt_stdio_output@@@2@@__crt_stdio_output@@AAE_NXZ@@__crt_stdio_output@@YAPAUansi_string@?1??type_case_Z@?$output_processor@DV?$stream_output_adapter@D@__crt_stdio_output@@V?$positional_parameter_base@DV?$stream_output_adapter@D@__crt_stdio_output@@@2@@0@AAE_NXZ@PAD@Z 1003c51f f i libucrt:output.obj
 0001:0003b52e       ??$peek_va_arg@PAUansi_string@?1??type_case_Z@?$output_processor@DV?$string_output_adapter@D@__crt_stdio_output@@V?$positional_parameter_base@DV?$string_output_adapter@D@__crt_stdio_output@@@2@@__crt_stdio_output@@AAE_NXZ@@__crt_stdio_output@@YAPAUansi_string@?1??type_case_Z@?$output_processor@DV?$string_output_adapter@D@__crt_stdio_output@@V?$positional_parameter_base@DV?$string_output_adapter@D@__crt_stdio_output@@@2@@0@AAE_NXZ@PAD@Z 1003c52e f i libucrt:output.obj
 0001:0003b53d       ??$peek_va_arg@PAUansi_string@?1??type_case_Z@?$output_processor@_WV?$stream_output_adapter@_W@__crt_stdio_output@@V?$positional_parameter_base@_WV?$stream_output_adapter@_W@__crt_stdio_output@@@2@@__crt_stdio_output@@AAE_NXZ@@__crt_stdio_output@@YAPAUansi_string@?1??type_case_Z@?$output_processor@_WV?$stream_output_adapter@_W@__crt_stdio_output@@V?$positional_parameter_base@_WV?$stream_output_adapter@_W@__crt_stdio_output@@@2@@0@AAE_NXZ@PAD@Z 1003c53d f i libucrt:output.obj
 0001:0003b54c       ??$peek_va_arg@PAUansi_string@?1??type_case_Z@?$output_processor@_WV?$string_output_adapter@_W@__crt_stdio_output@@V?$positional_parameter_base@_WV?$string_output_adapter@_W@__crt_stdio_output@@@2@@__crt_stdio_output@@AAE_NXZ@@__crt_stdio_output@@YAPAUansi_string@?1??type_case_Z@?$output_processor@_WV?$string_output_adapter@_W@__crt_stdio_output@@V?$positional_parameter_base@_WV?$string_output_adapter@_W@__crt_stdio_output@@@2@@0@AAE_NXZ@PAD@Z 1003c54c f i libucrt:output.obj
 0001:0003b55b       ??$peek_va_arg@PAX@__crt_stdio_output@@YAPAXPAD@Z 1003c55b f i libucrt:output.obj
 0001:0003b56a       ??$peek_va_arg@U_CRT_DOUBLE@@@__crt_stdio_output@@YA?AU_CRT_DOUBLE@@PAD@Z 1003c56a f i libucrt:output.obj
 0001:0003b57c       ??$peek_va_arg@_J@__crt_stdio_output@@YA_JPAD@Z 1003c57c f i libucrt:output.obj
 0001:0003b58e       ??$peek_va_arg@_K@__crt_stdio_output@@YA_KPAD@Z 1003c58e f i libucrt:output.obj
 0001:0003b5a0       ??$peek_va_arg@_W@__crt_stdio_output@@YA_WPAD@Z 1003c5a0 f i libucrt:output.obj
 0001:0003b5b0       ??$puttc_nolock@ABDPAU_iobuf@@@?$__crt_char_traits@D@@SAHABD$$QAPAU_iobuf@@@Z 1003c5b0 f i libucrt:output.obj
 0001:0003b5d0       ??$puttc_nolock@AB_WPAU_iobuf@@@?$__crt_char_traits@_W@@SAGAB_W$$QAPAU_iobuf@@@Z 1003c5d0 f i libucrt:output.obj
 0001:0003b5f0       ??$read_va_arg@C@__crt_stdio_output@@YACAAPAD@Z 1003c5f0 f i libucrt:output.obj
 0001:0003b606       ??$read_va_arg@E@__crt_stdio_output@@YAEAAPAD@Z 1003c606 f i libucrt:output.obj
 0001:0003b61c       ??$read_va_arg@F@__crt_stdio_output@@YAFAAPAD@Z 1003c61c f i libucrt:output.obj
 0001:0003b633       ??$read_va_arg@G@__crt_stdio_output@@YAGAAPAD@Z 1003c633 f i libucrt:output.obj
 0001:0003b64a       ??$read_va_arg@H@__crt_stdio_output@@YAHAAPAD@Z 1003c64a f i libucrt:output.obj
 0001:0003b660       ??$read_va_arg@I@__crt_stdio_output@@YAIAAPAD@Z 1003c660 f i libucrt:output.obj
 0001:0003b676       ??$read_va_arg@PAD@__crt_stdio_output@@YAPADAAPAD@Z 1003c676 f i libucrt:output.obj
 0001:0003b68c       ??$read_va_arg@PAUansi_string@?1??type_case_Z@?$output_processor@DV?$stream_output_adapter@D@__crt_stdio_output@@V?$format_validation_base@DV?$stream_output_adapter@D@__crt_stdio_output@@@2@@__crt_stdio_output@@AAE_NXZ@@__crt_stdio_output@@YAPAUansi_string@?1??type_case_Z@?$output_processor@DV?$stream_output_adapter@D@__crt_stdio_output@@V?$format_validation_base@DV?$stream_output_adapter@D@__crt_stdio_output@@@2@@0@AAE_NXZ@AAPAD@Z 1003c68c f i libucrt:output.obj
 0001:0003b6a2       ??$read_va_arg@PAUansi_string@?1??type_case_Z@?$output_processor@DV?$stream_output_adapter@D@__crt_stdio_output@@V?$positional_parameter_base@DV?$stream_output_adapter@D@__crt_stdio_output@@@2@@__crt_stdio_output@@AAE_NXZ@@__crt_stdio_output@@YAPAUansi_string@?1??type_case_Z@?$output_processor@DV?$stream_output_adapter@D@__crt_stdio_output@@V?$positional_parameter_base@DV?$stream_output_adapter@D@__crt_stdio_output@@@2@@0@AAE_NXZ@AAPAD@Z 1003c6a2 f i libucrt:output.obj
 0001:0003b6b8       ??$read_va_arg@PAUansi_string@?1??type_case_Z@?$output_processor@DV?$stream_output_adapter@D@__crt_stdio_output@@V?$standard_base@DV?$stream_output_adapter@D@__crt_stdio_output@@@2@@__crt_stdio_output@@AAE_NXZ@@__crt_stdio_output@@YAPAUansi_string@?1??type_case_Z@?$output_processor@DV?$stream_output_adapter@D@__crt_stdio_output@@V?$standard_base@DV?$stream_output_adapter@D@__crt_stdio_output@@@2@@0@AAE_NXZ@AAPAD@Z 1003c6b8 f i libucrt:output.obj
 0001:0003b6ce       ??$read_va_arg@PAUansi_string@?1??type_case_Z@?$output_processor@DV?$string_output_adapter@D@__crt_stdio_output@@V?$format_validation_base@DV?$string_output_adapter@D@__crt_stdio_output@@@2@@__crt_stdio_output@@AAE_NXZ@@__crt_stdio_output@@YAPAUansi_string@?1??type_case_Z@?$output_processor@DV?$string_output_adapter@D@__crt_stdio_output@@V?$format_validation_base@DV?$string_output_adapter@D@__crt_stdio_output@@@2@@0@AAE_NXZ@AAPAD@Z 1003c6ce f i libucrt:output.obj
 0001:0003b6e4       ??$read_va_arg@PAUansi_string@?1??type_case_Z@?$output_processor@DV?$string_output_adapter@D@__crt_stdio_output@@V?$positional_parameter_base@DV?$string_output_adapter@D@__crt_stdio_output@@@2@@__crt_stdio_output@@AAE_NXZ@@__crt_stdio_output@@YAPAUansi_string@?1??type_case_Z@?$output_processor@DV?$string_output_adapter@D@__crt_stdio_output@@V?$positional_parameter_base@DV?$string_output_adapter@D@__crt_stdio_output@@@2@@0@AAE_NXZ@AAPAD@Z 1003c6e4 f i libucrt:output.obj
 0001:0003b6fa       ??$read_va_arg@PAUansi_string@?1??type_case_Z@?$output_processor@DV?$string_output_adapter@D@__crt_stdio_output@@V?$standard_base@DV?$string_output_adapter@D@__crt_stdio_output@@@2@@__crt_stdio_output@@AAE_NXZ@@__crt_stdio_output@@YAPAUansi_string@?1??type_case_Z@?$output_processor@DV?$string_output_adapter@D@__crt_stdio_output@@V?$standard_base@DV?$string_output_adapter@D@__crt_stdio_output@@@2@@0@AAE_NXZ@AAPAD@Z 1003c6fa f i libucrt:output.obj
 0001:0003b710       ??$read_va_arg@PAUansi_string@?1??type_case_Z@?$output_processor@_WV?$stream_output_adapter@_W@__crt_stdio_output@@V?$format_validation_base@_WV?$stream_output_adapter@_W@__crt_stdio_output@@@2@@__crt_stdio_output@@AAE_NXZ@@__crt_stdio_output@@YAPAUansi_string@?1??type_case_Z@?$output_processor@_WV?$stream_output_adapter@_W@__crt_stdio_output@@V?$format_validation_base@_WV?$stream_output_adapter@_W@__crt_stdio_output@@@2@@0@AAE_NXZ@AAPAD@Z 1003c710 f i libucrt:output.obj
 0001:0003b726       ??$read_va_arg@PAUansi_string@?1??type_case_Z@?$output_processor@_WV?$stream_output_adapter@_W@__crt_stdio_output@@V?$positional_parameter_base@_WV?$stream_output_adapter@_W@__crt_stdio_output@@@2@@__crt_stdio_output@@AAE_NXZ@@__crt_stdio_output@@YAPAUansi_string@?1??type_case_Z@?$output_processor@_WV?$stream_output_adapter@_W@__crt_stdio_output@@V?$positional_parameter_base@_WV?$stream_output_adapter@_W@__crt_stdio_output@@@2@@0@AAE_NXZ@AAPAD@Z 1003c726 f i libucrt:output.obj
 0001:0003b73c       ??$read_va_arg@PAUansi_string@?1??type_case_Z@?$output_processor@_WV?$stream_output_adapter@_W@__crt_stdio_output@@V?$standard_base@_WV?$stream_output_adapter@_W@__crt_stdio_output@@@2@@__crt_stdio_output@@AAE_NXZ@@__crt_stdio_output@@YAPAUansi_string@?1??type_case_Z@?$output_processor@_WV?$stream_output_adapter@_W@__crt_stdio_output@@V?$standard_base@_WV?$stream_output_adapter@_W@__crt_stdio_output@@@2@@0@AAE_NXZ@AAPAD@Z 1003c73c f i libucrt:output.obj
 0001:0003b752       ??$read_va_arg@PAUansi_string@?1??type_case_Z@?$output_processor@_WV?$string_output_adapter@_W@__crt_stdio_output@@V?$format_validation_base@_WV?$string_output_adapter@_W@__crt_stdio_output@@@2@@__crt_stdio_output@@AAE_NXZ@@__crt_stdio_output@@YAPAUansi_string@?1??type_case_Z@?$output_processor@_WV?$string_output_adapter@_W@__crt_stdio_output@@V?$format_validation_base@_WV?$string_output_adapter@_W@__crt_stdio_output@@@2@@0@AAE_NXZ@AAPAD@Z 1003c752 f i libucrt:output.obj
 0001:0003b768       ??$read_va_arg@PAUansi_string@?1??type_case_Z@?$output_processor@_WV?$string_output_adapter@_W@__crt_stdio_output@@V?$positional_parameter_base@_WV?$string_output_adapter@_W@__crt_stdio_output@@@2@@__crt_stdio_output@@AAE_NXZ@@__crt_stdio_output@@YAPAUansi_string@?1??type_case_Z@?$output_processor@_WV?$string_output_adapter@_W@__crt_stdio_output@@V?$positional_parameter_base@_WV?$string_output_adapter@_W@__crt_stdio_output@@@2@@0@AAE_NXZ@AAPAD@Z 1003c768 f i libucrt:output.obj
 0001:0003b77e       ??$read_va_arg@PAUansi_string@?1??type_case_Z@?$output_processor@_WV?$string_output_adapter@_W@__crt_stdio_output@@V?$standard_base@_WV?$string_output_adapter@_W@__crt_stdio_output@@@2@@__crt_stdio_output@@AAE_NXZ@@__crt_stdio_output@@YAPAUansi_string@?1??type_case_Z@?$output_processor@_WV?$string_output_adapter@_W@__crt_stdio_output@@V?$standard_base@_WV?$string_output_adapter@_W@__crt_stdio_output@@@2@@0@AAE_NXZ@AAPAD@Z 1003c77e f i libucrt:output.obj
 0001:0003b794       ??$read_va_arg@PAX@__crt_stdio_output@@YAPAXAAPAD@Z 1003c794 f i libucrt:output.obj
 0001:0003b7aa       ??$read_va_arg@U_CRT_DOUBLE@@@__crt_stdio_output@@YA?AU_CRT_DOUBLE@@AAPAD@Z 1003c7aa f i libucrt:output.obj
 0001:0003b7c4       ??$read_va_arg@_J@__crt_stdio_output@@YA_JAAPAD@Z 1003c7c4 f i libucrt:output.obj
 0001:0003b7de       ??$read_va_arg@_K@__crt_stdio_output@@YA_KAAPAD@Z 1003c7de f i libucrt:output.obj
 0001:0003b7f8       ??$read_va_arg@_W@__crt_stdio_output@@YA_WAAPAD@Z 1003c7f8 f i libucrt:output.obj
 0001:0003b80f       ??$scratch_count@D@formatting_buffer@__crt_stdio_output@@QBEIXZ 1003c80f f i libucrt:output.obj
 0001:0003b814       ??$scratch_data@D@formatting_buffer@__crt_stdio_output@@QAEPADXZ 1003c814 f i libucrt:output.obj
 0001:0003b839       ??$tcstol@AAPBDPAPADH@?$__crt_char_traits@D@@SAJAAPBD$$QAPAPAD$$QAH@Z 1003c839 f i libucrt:output.obj
 0001:0003b85e       ??$tcstol@AAPB_WPAPA_WH@?$__crt_char_traits@_W@@SAJAAPB_W$$QAPAPA_W$$QAH@Z 1003c85e f i libucrt:output.obj
 0001:0003b883       ??$tcstol@PBDPAPADH@?$__crt_char_traits@D@@SAJ$$QAPBD$$QAPAPAD$$QAH@Z 1003c883 f i libucrt:output.obj
 0001:0003b8a8       ??$tcstol@PB_WPAPA_WH@?$__crt_char_traits@_W@@SAJ$$QAPB_W$$QAPAPA_W$$QAH@Z 1003c8a8 f i libucrt:output.obj
 0001:0003b8cd       ??$type_case_integer_parse_into_buffer@I@?$output_processor@DV?$stream_output_adapter@D@__crt_stdio_output@@V?$format_validation_base@DV?$stream_output_adapter@D@__crt_stdio_output@@@2@@__crt_stdio_output@@AAEXII_N@Z 1003c8cd f i libucrt:output.obj
 0001:0003b95f       ??$type_case_integer_parse_into_buffer@I@?$output_processor@DV?$stream_output_adapter@D@__crt_stdio_output@@V?$positional_parameter_base@DV?$stream_output_adapter@D@__crt_stdio_output@@@2@@__crt_stdio_output@@AAEXII_N@Z 1003c95f f i libucrt:output.obj
 0001:0003b9f1       ??$type_case_integer_parse_into_buffer@I@?$output_processor@DV?$stream_output_adapter@D@__crt_stdio_output@@V?$standard_base@DV?$stream_output_adapter@D@__crt_stdio_output@@@2@@__crt_stdio_output@@AAEXII_N@Z 1003c9f1 f i libucrt:output.obj
 0001:0003ba83       ??$type_case_integer_parse_into_buffer@I@?$output_processor@DV?$string_output_adapter@D@__crt_stdio_output@@V?$format_validation_base@DV?$string_output_adapter@D@__crt_stdio_output@@@2@@__crt_stdio_output@@AAEXII_N@Z 1003ca83 f i libucrt:output.obj
 0001:0003bb15       ??$type_case_integer_parse_into_buffer@I@?$output_processor@DV?$string_output_adapter@D@__crt_stdio_output@@V?$positional_parameter_base@DV?$string_output_adapter@D@__crt_stdio_output@@@2@@__crt_stdio_output@@AAEXII_N@Z 1003cb15 f i libucrt:output.obj
 0001:0003bba7       ??$type_case_integer_parse_into_buffer@I@?$output_processor@DV?$string_output_adapter@D@__crt_stdio_output@@V?$standard_base@DV?$string_output_adapter@D@__crt_stdio_output@@@2@@__crt_stdio_output@@AAEXII_N@Z 1003cba7 f i libucrt:output.obj
 0001:0003bc39       ??$type_case_integer_parse_into_buffer@I@?$output_processor@_WV?$stream_output_adapter@_W@__crt_stdio_output@@V?$format_validation_base@_WV?$stream_output_adapter@_W@__crt_stdio_output@@@2@@__crt_stdio_output@@AAEXII_N@Z 1003cc39 f i libucrt:output.obj
 0001:0003bccb       ??$type_case_integer_parse_into_buffer@I@?$output_processor@_WV?$stream_output_adapter@_W@__crt_stdio_output@@V?$positional_parameter_base@_WV?$stream_output_adapter@_W@__crt_stdio_output@@@2@@__crt_stdio_output@@AAEXII_N@Z 1003cccb f i libucrt:output.obj
 0001:0003bd5d       ??$type_case_integer_parse_into_buffer@I@?$output_processor@_WV?$stream_output_adapter@_W@__crt_stdio_output@@V?$standard_base@_WV?$stream_output_adapter@_W@__crt_stdio_output@@@2@@__crt_stdio_output@@AAEXII_N@Z 1003cd5d f i libucrt:output.obj
 0001:0003bdef       ??$type_case_integer_parse_into_buffer@I@?$output_processor@_WV?$string_output_adapter@_W@__crt_stdio_output@@V?$format_validation_base@_WV?$string_output_adapter@_W@__crt_stdio_output@@@2@@__crt_stdio_output@@AAEXII_N@Z 1003cdef f i libucrt:output.obj
 0001:0003be81       ??$type_case_integer_parse_into_buffer@I@?$output_processor@_WV?$string_output_adapter@_W@__crt_stdio_output@@V?$positional_parameter_base@_WV?$string_output_adapter@_W@__crt_stdio_output@@@2@@__crt_stdio_output@@AAEXII_N@Z 1003ce81 f i libucrt:output.obj
 0001:0003bf13       ??$type_case_integer_parse_into_buffer@I@?$output_processor@_WV?$string_output_adapter@_W@__crt_stdio_output@@V?$standard_base@_WV?$string_output_adapter@_W@__crt_stdio_output@@@2@@__crt_stdio_output@@AAEXII_N@Z 1003cf13 f i libucrt:output.obj
 0001:0003bfa5       ??$type_case_integer_parse_into_buffer@_K@?$output_processor@DV?$stream_output_adapter@D@__crt_stdio_output@@V?$format_validation_base@DV?$stream_output_adapter@D@__crt_stdio_output@@@2@@__crt_stdio_output@@AAEX_KI_N@Z 1003cfa5 f i libucrt:output.obj
 0001:0003c04f       ??$type_case_integer_parse_into_buffer@_K@?$output_processor@DV?$stream_output_adapter@D@__crt_stdio_output@@V?$positional_parameter_base@DV?$stream_output_adapter@D@__crt_stdio_output@@@2@@__crt_stdio_output@@AAEX_KI_N@Z 1003d04f f i libucrt:output.obj
 0001:0003c0f9       ??$type_case_integer_parse_into_buffer@_K@?$output_processor@DV?$stream_output_adapter@D@__crt_stdio_output@@V?$standard_base@DV?$stream_output_adapter@D@__crt_stdio_output@@@2@@__crt_stdio_output@@AAEX_KI_N@Z 1003d0f9 f i libucrt:output.obj
 0001:0003c1a3       ??$type_case_integer_parse_into_buffer@_K@?$output_processor@DV?$string_output_adapter@D@__crt_stdio_output@@V?$format_validation_base@DV?$string_output_adapter@D@__crt_stdio_output@@@2@@__crt_stdio_output@@AAEX_KI_N@Z 1003d1a3 f i libucrt:output.obj
 0001:0003c24d       ??$type_case_integer_parse_into_buffer@_K@?$output_processor@DV?$string_output_adapter@D@__crt_stdio_output@@V?$positional_parameter_base@DV?$string_output_adapter@D@__crt_stdio_output@@@2@@__crt_stdio_output@@AAEX_KI_N@Z 1003d24d f i libucrt:output.obj
 0001:0003c2f7       ??$type_case_integer_parse_into_buffer@_K@?$output_processor@DV?$string_output_adapter@D@__crt_stdio_output@@V?$standard_base@DV?$string_output_adapter@D@__crt_stdio_output@@@2@@__crt_stdio_output@@AAEX_KI_N@Z 1003d2f7 f i libucrt:output.obj
 0001:0003c3a1       ??$type_case_integer_parse_into_buffer@_K@?$output_processor@_WV?$stream_output_adapter@_W@__crt_stdio_output@@V?$format_validation_base@_WV?$stream_output_adapter@_W@__crt_stdio_output@@@2@@__crt_stdio_output@@AAEX_KI_N@Z 1003d3a1 f i libucrt:output.obj
 0001:0003c44b       ??$type_case_integer_parse_into_buffer@_K@?$output_processor@_WV?$stream_output_adapter@_W@__crt_stdio_output@@V?$positional_parameter_base@_WV?$stream_output_adapter@_W@__crt_stdio_output@@@2@@__crt_stdio_output@@AAEX_KI_N@Z 1003d44b f i libucrt:output.obj
 0001:0003c4f5       ??$type_case_integer_parse_into_buffer@_K@?$output_processor@_WV?$stream_output_adapter@_W@__crt_stdio_output@@V?$standard_base@_WV?$stream_output_adapter@_W@__crt_stdio_output@@@2@@__crt_stdio_output@@AAEX_KI_N@Z 1003d4f5 f i libucrt:output.obj
 0001:0003c59f       ??$type_case_integer_parse_into_buffer@_K@?$output_processor@_WV?$string_output_adapter@_W@__crt_stdio_output@@V?$format_validation_base@_WV?$string_output_adapter@_W@__crt_stdio_output@@@2@@__crt_stdio_output@@AAEX_KI_N@Z 1003d59f f i libucrt:output.obj
 0001:0003c649       ??$type_case_integer_parse_into_buffer@_K@?$output_processor@_WV?$string_output_adapter@_W@__crt_stdio_output@@V?$positional_parameter_base@_WV?$string_output_adapter@_W@__crt_stdio_output@@@2@@__crt_stdio_output@@AAEX_KI_N@Z 1003d649 f i libucrt:output.obj
 0001:0003c6f3       ??$type_case_integer_parse_into_buffer@_K@?$output_processor@_WV?$string_output_adapter@_W@__crt_stdio_output@@V?$standard_base@_WV?$string_output_adapter@_W@__crt_stdio_output@@@2@@__crt_stdio_output@@AAEX_KI_N@Z 1003d6f3 f i libucrt:output.obj
 0001:0003c79d       ??$write_multiple_characters@V?$stream_output_adapter@D@__crt_stdio_output@@D@__crt_stdio_output@@YAXABV?$stream_output_adapter@D@0@DHQAH@Z 1003d79d f i libucrt:output.obj
 0001:0003c7d4       ??$write_multiple_characters@V?$stream_output_adapter@_W@__crt_stdio_output@@D@__crt_stdio_output@@YAXABV?$stream_output_adapter@_W@0@DHQAH@Z 1003d7d4 f i libucrt:output.obj
 0001:0003c811       ??$write_multiple_characters@V?$string_output_adapter@D@__crt_stdio_output@@D@__crt_stdio_output@@YAXABV?$string_output_adapter@D@0@DHQAH@Z 1003d811 f i libucrt:output.obj
 0001:0003c848       ??$write_multiple_characters@V?$string_output_adapter@_W@__crt_stdio_output@@D@__crt_stdio_output@@YAXABV?$string_output_adapter@_W@0@DHQAH@Z 1003d848 f i libucrt:output.obj
 0001:0003cab9       ??0?$common_data@D@__crt_stdio_output@@IAE@XZ 1003dab9 f i libucrt:output.obj
 0001:0003cb11       ??0?$common_data@_W@__crt_stdio_output@@IAE@XZ 1003db11 f i libucrt:output.obj
 0001:0003cb70       ??0?$output_adapter_data@DV?$stream_output_adapter@D@__crt_stdio_output@@@__crt_stdio_output@@IAE@ABV?$stream_output_adapter@D@1@_KQBDQAU__crt_locale_pointers@@QAD@Z 1003db70 f i libucrt:output.obj
 0001:0003cbbb       ??0?$output_adapter_data@DV?$string_output_adapter@D@__crt_stdio_output@@@__crt_stdio_output@@IAE@ABV?$string_output_adapter@D@1@_KQBDQAU__crt_locale_pointers@@QAD@Z 1003dbbb f i libucrt:output.obj
 0001:0003cc06       ??0?$output_adapter_data@_WV?$stream_output_adapter@_W@__crt_stdio_output@@@__crt_stdio_output@@IAE@ABV?$stream_output_adapter@_W@1@_KQB_WQAU__crt_locale_pointers@@QAD@Z 1003dc06 f i libucrt:output.obj
 0001:0003cc51       ??0?$output_adapter_data@_WV?$string_output_adapter@_W@__crt_stdio_output@@@__crt_stdio_output@@IAE@ABV?$string_output_adapter@_W@1@_KQB_WQAU__crt_locale_pointers@@QAD@Z 1003dc51 f i libucrt:output.obj
 0001:0003cc9c       ??0?$output_processor@DV?$stream_output_adapter@D@__crt_stdio_output@@V?$format_validation_base@DV?$stream_output_adapter@D@__crt_stdio_output@@@2@@__crt_stdio_output@@QAE@ABV?$stream_output_adapter@D@1@_KQBDQAU__crt_locale_pointers@@QAD@Z 1003dc9c f i libucrt:output.obj
 0001:0003ccde       ??0?$output_processor@DV?$stream_output_adapter@D@__crt_stdio_output@@V?$positional_parameter_base@DV?$stream_output_adapter@D@__crt_stdio_output@@@2@@__crt_stdio_output@@QAE@ABV?$stream_output_adapter@D@1@_KQBDQAU__crt_locale_pointers@@QAD@Z 1003dcde f i libucrt:output.obj
 0001:0003cd18       ??0?$output_processor@DV?$stream_output_adapter@D@__crt_stdio_output@@V?$standard_base@DV?$stream_output_adapter@D@__crt_stdio_output@@@2@@__crt_stdio_output@@QAE@ABV?$stream_output_adapter@D@1@_KQBDQAU__crt_locale_pointers@@QAD@Z 1003dd18 f i libucrt:output.obj
 0001:0003cd5a       ??0?$output_processor@DV?$string_output_adapter@D@__crt_stdio_output@@V?$format_validation_base@DV?$string_output_adapter@D@__crt_stdio_output@@@2@@__crt_stdio_output@@QAE@ABV?$string_output_adapter@D@1@_KQBDQAU__crt_locale_pointers@@QAD@Z 1003dd5a f i libucrt:output.obj
 0001:0003cd9c       ??0?$output_processor@DV?$string_output_adapter@D@__crt_stdio_output@@V?$positional_parameter_base@DV?$string_output_adapter@D@__crt_stdio_output@@@2@@__crt_stdio_output@@QAE@ABV?$string_output_adapter@D@1@_KQBDQAU__crt_locale_pointers@@QAD@Z 1003dd9c f i libucrt:output.obj
 0001:0003cdd6       ??0?$output_processor@DV?$string_output_adapter@D@__crt_stdio_output@@V?$standard_base@DV?$string_output_adapter@D@__crt_stdio_output@@@2@@__crt_stdio_output@@QAE@ABV?$string_output_adapter@D@1@_KQBDQAU__crt_locale_pointers@@QAD@Z 1003ddd6 f i libucrt:output.obj
 0001:0003ce18       ??0?$output_processor@_WV?$stream_output_adapter@_W@__crt_stdio_output@@V?$format_validation_base@_WV?$stream_output_adapter@_W@__crt_stdio_output@@@2@@__crt_stdio_output@@QAE@ABV?$stream_output_adapter@_W@1@_KQB_WQAU__crt_locale_pointers@@QAD@Z 1003de18 f i libucrt:output.obj
 0001:0003ce5a       ??0?$output_processor@_WV?$stream_output_adapter@_W@__crt_stdio_output@@V?$positional_parameter_base@_WV?$stream_output_adapter@_W@__crt_stdio_output@@@2@@__crt_stdio_output@@QAE@ABV?$stream_output_adapter@_W@1@_KQB_WQAU__crt_locale_pointers@@QAD@Z 1003de5a f i libucrt:output.obj
 0001:0003ce94       ??0?$output_processor@_WV?$stream_output_adapter@_W@__crt_stdio_output@@V?$standard_base@_WV?$stream_output_adapter@_W@__crt_stdio_output@@@2@@__crt_stdio_output@@QAE@ABV?$stream_output_adapter@_W@1@_KQB_WQAU__crt_locale_pointers@@QAD@Z 1003de94 f i libucrt:output.obj
 0001:0003ced6       ??0?$output_processor@_WV?$string_output_adapter@_W@__crt_stdio_output@@V?$format_validation_base@_WV?$string_output_adapter@_W@__crt_stdio_output@@@2@@__crt_stdio_output@@QAE@ABV?$string_output_adapter@_W@1@_KQB_WQAU__crt_locale_pointers@@QAD@Z 1003ded6 f i libucrt:output.obj
 0001:0003cf18       ??0?$output_processor@_WV?$string_output_adapter@_W@__crt_stdio_output@@V?$positional_parameter_base@_WV?$string_output_adapter@_W@__crt_stdio_output@@@2@@__crt_stdio_output@@QAE@ABV?$string_output_adapter@_W@1@_KQB_WQAU__crt_locale_pointers@@QAD@Z 1003df18 f i libucrt:output.obj
 0001:0003cf52       ??0?$output_processor@_WV?$string_output_adapter@_W@__crt_stdio_output@@V?$standard_base@_WV?$string_output_adapter@_W@__crt_stdio_output@@@2@@__crt_stdio_output@@QAE@ABV?$string_output_adapter@_W@1@_KQB_WQAU__crt_locale_pointers@@QAD@Z 1003df52 f i libucrt:output.obj
 0001:0003cf94       ??0?$stream_output_adapter@D@__crt_stdio_output@@QAE@QAU_iobuf@@@Z 1003df94 f i libucrt:output.obj
 0001:0003cfa8       ??0?$stream_output_adapter@_W@__crt_stdio_output@@QAE@QAU_iobuf@@@Z 1003dfa8 f i libucrt:output.obj
 0001:0003cfbc       ??0?$string_output_adapter@D@__crt_stdio_output@@QAE@QAU?$string_output_adapter_context@D@1@@Z 1003dfbc f i libucrt:output.obj
 0001:0003cfd0       ??0?$string_output_adapter@_W@__crt_stdio_output@@QAE@QAU?$string_output_adapter_context@_W@1@@Z 1003dfd0 f i libucrt:output.obj
 0001:0003cfe4       ??0_LocaleUpdate@@QAE@QAU__crt_locale_pointers@@@Z 1003dfe4 f i libucrt:output.obj
 0001:0003d087       ??0__acrt_stdio_temporary_buffering_guard@@QAE@QAU_iobuf@@@Z 1003e087 f i libucrt:output.obj
 0001:0003d0ac       ??0__crt_errno_guard@@QAE@QAH@Z 1003e0ac f i libucrt:output.obj
 0001:0003d0ca       ??0formatting_buffer@__crt_stdio_output@@QAE@XZ 1003e0ca f i libucrt:output.obj
 0001:0003d0df       ??1?$common_data@D@__crt_stdio_output@@QAE@XZ 1003e0df f i libucrt:output.obj
 0001:0003d0e9       ??1?$common_data@_W@__crt_stdio_output@@QAE@XZ 1003e0e9 f i libucrt:output.obj
 0001:0003d0f3       ??1?$format_validation_base@DV?$stream_output_adapter@D@__crt_stdio_output@@@__crt_stdio_output@@QAE@XZ 1003e0f3 f i libucrt:output.obj
 0001:0003d0fd       ??1?$format_validation_base@DV?$string_output_adapter@D@__crt_stdio_output@@@__crt_stdio_output@@QAE@XZ 1003e0fd f i libucrt:output.obj
 0001:0003d107       ??1?$format_validation_base@_WV?$stream_output_adapter@_W@__crt_stdio_output@@@__crt_stdio_output@@QAE@XZ 1003e107 f i libucrt:output.obj
 0001:0003d111       ??1?$format_validation_base@_WV?$string_output_adapter@_W@__crt_stdio_output@@@__crt_stdio_output@@QAE@XZ 1003e111 f i libucrt:output.obj
 0001:0003d11b       ??1?$output_adapter_data@DV?$stream_output_adapter@D@__crt_stdio_output@@@__crt_stdio_output@@QAE@XZ 1003e11b f i libucrt:output.obj
 0001:0003d125       ??1?$output_adapter_data@DV?$string_output_adapter@D@__crt_stdio_output@@@__crt_stdio_output@@QAE@XZ 1003e125 f i libucrt:output.obj
 0001:0003d12f       ??1?$output_adapter_data@_WV?$stream_output_adapter@_W@__crt_stdio_output@@@__crt_stdio_output@@QAE@XZ 1003e12f f i libucrt:output.obj
 0001:0003d139       ??1?$output_adapter_data@_WV?$string_output_adapter@_W@__crt_stdio_output@@@__crt_stdio_output@@QAE@XZ 1003e139 f i libucrt:output.obj
 0001:0003d143       ??1?$output_processor@DV?$stream_output_adapter@D@__crt_stdio_output@@V?$format_validation_base@DV?$stream_output_adapter@D@__crt_stdio_output@@@2@@__crt_stdio_output@@QAE@XZ 1003e143 f i libucrt:output.obj
 0001:0003d14d       ??1?$output_processor@DV?$stream_output_adapter@D@__crt_stdio_output@@V?$positional_parameter_base@DV?$stream_output_adapter@D@__crt_stdio_output@@@2@@__crt_stdio_output@@QAE@XZ 1003e14d f i libucrt:output.obj
 0001:0003d157       ??1?$output_processor@DV?$stream_output_adapter@D@__crt_stdio_output@@V?$standard_base@DV?$stream_output_adapter@D@__crt_stdio_output@@@2@@__crt_stdio_output@@QAE@XZ 1003e157 f i libucrt:output.obj
 0001:0003d161       ??1?$output_processor@DV?$string_output_adapter@D@__crt_stdio_output@@V?$format_validation_base@DV?$string_output_adapter@D@__crt_stdio_output@@@2@@__crt_stdio_output@@QAE@XZ 1003e161 f i libucrt:output.obj
 0001:0003d16b       ??1?$output_processor@DV?$string_output_adapter@D@__crt_stdio_output@@V?$positional_parameter_base@DV?$string_output_adapter@D@__crt_stdio_output@@@2@@__crt_stdio_output@@QAE@XZ 1003e16b f i libucrt:output.obj
 0001:0003d175       ??1?$output_processor@DV?$string_output_adapter@D@__crt_stdio_output@@V?$standard_base@DV?$string_output_adapter@D@__crt_stdio_output@@@2@@__crt_stdio_output@@QAE@XZ 1003e175 f i libucrt:output.obj
 0001:0003d17f       ??1?$output_processor@_WV?$stream_output_adapter@_W@__crt_stdio_output@@V?$format_validation_base@_WV?$stream_output_adapter@_W@__crt_stdio_output@@@2@@__crt_stdio_output@@QAE@XZ 1003e17f f i libucrt:output.obj
 0001:0003d189       ??1?$output_processor@_WV?$stream_output_adapter@_W@__crt_stdio_output@@V?$positional_parameter_base@_WV?$stream_output_adapter@_W@__crt_stdio_output@@@2@@__crt_stdio_output@@QAE@XZ 1003e189 f i libucrt:output.obj
 0001:0003d193       ??1?$output_processor@_WV?$stream_output_adapter@_W@__crt_stdio_output@@V?$standard_base@_WV?$stream_output_adapter@_W@__crt_stdio_output@@@2@@__crt_stdio_output@@QAE@XZ 1003e193 f i libucrt:output.obj
 0001:0003d19d       ??1?$output_processor@_WV?$string_output_adapter@_W@__crt_stdio_output@@V?$format_validation_base@_WV?$string_output_adapter@_W@__crt_stdio_output@@@2@@__crt_stdio_output@@QAE@XZ 1003e19d f i libucrt:output.obj
 0001:0003d1a7       ??1?$output_processor@_WV?$string_output_adapter@_W@__crt_stdio_output@@V?$positional_parameter_base@_WV?$string_output_adapter@_W@__crt_stdio_output@@@2@@__crt_stdio_output@@QAE@XZ 1003e1a7 f i libucrt:output.obj
 0001:0003d1b1       ??1?$output_processor@_WV?$string_output_adapter@_W@__crt_stdio_output@@V?$standard_base@_WV?$string_output_adapter@_W@__crt_stdio_output@@@2@@__crt_stdio_output@@QAE@XZ 1003e1b1 f i libucrt:output.obj
 0001:0003d1bb       ??1?$positional_parameter_base@DV?$stream_output_adapter@D@__crt_stdio_output@@@__crt_stdio_output@@QAE@XZ 1003e1bb f i libucrt:output.obj
 0001:0003d1c5       ??1?$positional_parameter_base@DV?$string_output_adapter@D@__crt_stdio_output@@@__crt_stdio_output@@QAE@XZ 1003e1c5 f i libucrt:output.obj
 0001:0003d1cf       ??1?$positional_parameter_base@_WV?$stream_output_adapter@_W@__crt_stdio_output@@@__crt_stdio_output@@QAE@XZ 1003e1cf f i libucrt:output.obj
 0001:0003d1d9       ??1?$positional_parameter_base@_WV?$string_output_adapter@_W@__crt_stdio_output@@@__crt_stdio_output@@QAE@XZ 1003e1d9 f i libucrt:output.obj
 0001:0003d1e3       ??1?$standard_base@DV?$stream_output_adapter@D@__crt_stdio_output@@@__crt_stdio_output@@QAE@XZ 1003e1e3 f i libucrt:output.obj
 0001:0003d1ed       ??1?$standard_base@DV?$string_output_adapter@D@__crt_stdio_output@@@__crt_stdio_output@@QAE@XZ 1003e1ed f i libucrt:output.obj
 0001:0003d1f7       ??1?$standard_base@_WV?$stream_output_adapter@_W@__crt_stdio_output@@@__crt_stdio_output@@QAE@XZ 1003e1f7 f i libucrt:output.obj
 0001:0003d201       ??1?$standard_base@_WV?$string_output_adapter@_W@__crt_stdio_output@@@__crt_stdio_output@@QAE@XZ 1003e201 f i libucrt:output.obj
 0001:0003d20b       ??1_LocaleUpdate@@QAE@XZ   1003e20b f i libucrt:output.obj
 0001:0003d21f       ??1__acrt_stdio_temporary_buffering_guard@@QAE@XZ 1003e21f f i libucrt:output.obj
 0001:0003d231       ??1__crt_errno_guard@@QAE@XZ 1003e231 f i libucrt:output.obj
 0001:0003d246       ??1formatting_buffer@__crt_stdio_output@@QAE@XZ 1003e246 f i libucrt:output.obj
 0001:0003d266       ??4?$__crt_unique_heap_ptr@DU__crt_internal_free_policy@@@@QAEAAV0@$$QAV0@@Z 1003e266 f i libucrt:output.obj
 0001:0003d949       ?GetLocaleT@_LocaleUpdate@@QAEPAU__crt_locale_pointers@@XZ 1003e949 f i libucrt:output.obj
 0001:0003d94d       ?__crt_interlocked_read_32@@YAHPDH@Z 1003e94d f i libucrt:output.obj
 0001:0003d95c       ?adjust_hexit@?$output_processor@DV?$stream_output_adapter@D@__crt_stdio_output@@V?$format_validation_base@DV?$stream_output_adapter@D@__crt_stdio_output@@@2@@__crt_stdio_output@@CADH_N@Z 1003e95c f i libucrt:output.obj
 0001:0003d981       ?adjust_hexit@?$output_processor@DV?$stream_output_adapter@D@__crt_stdio_output@@V?$positional_parameter_base@DV?$stream_output_adapter@D@__crt_stdio_output@@@2@@__crt_stdio_output@@CADH_N@Z 1003e981 f i libucrt:output.obj
 0001:0003d9a6       ?adjust_hexit@?$output_processor@DV?$stream_output_adapter@D@__crt_stdio_output@@V?$standard_base@DV?$stream_output_adapter@D@__crt_stdio_output@@@2@@__crt_stdio_output@@CADH_N@Z 1003e9a6 f i libucrt:output.obj
 0001:0003d9cb       ?adjust_hexit@?$output_processor@DV?$string_output_adapter@D@__crt_stdio_output@@V?$format_validation_base@DV?$string_output_adapter@D@__crt_stdio_output@@@2@@__crt_stdio_output@@CADH_N@Z 1003e9cb f i libucrt:output.obj
 0001:0003d9f0       ?adjust_hexit@?$output_processor@DV?$string_output_adapter@D@__crt_stdio_output@@V?$positional_parameter_base@DV?$string_output_adapter@D@__crt_stdio_output@@@2@@__crt_stdio_output@@CADH_N@Z 1003e9f0 f i libucrt:output.obj
 0001:0003da15       ?adjust_hexit@?$output_processor@DV?$string_output_adapter@D@__crt_stdio_output@@V?$standard_base@DV?$string_output_adapter@D@__crt_stdio_output@@@2@@__crt_stdio_output@@CADH_N@Z 1003ea15 f i libucrt:output.obj
 0001:0003da3a       ?adjust_hexit@?$output_processor@_WV?$stream_output_adapter@_W@__crt_stdio_output@@V?$format_validation_base@_WV?$stream_output_adapter@_W@__crt_stdio_output@@@2@@__crt_stdio_output@@CADH_N@Z 1003ea3a f i libucrt:output.obj
 0001:0003da5f       ?adjust_hexit@?$output_processor@_WV?$stream_output_adapter@_W@__crt_stdio_output@@V?$positional_parameter_base@_WV?$stream_output_adapter@_W@__crt_stdio_output@@@2@@__crt_stdio_output@@CADH_N@Z 1003ea5f f i libucrt:output.obj
 0001:0003da84       ?adjust_hexit@?$output_processor@_WV?$stream_output_adapter@_W@__crt_stdio_output@@V?$standard_base@_WV?$stream_output_adapter@_W@__crt_stdio_output@@@2@@__crt_stdio_output@@CADH_N@Z 1003ea84 f i libucrt:output.obj
 0001:0003daa9       ?adjust_hexit@?$output_processor@_WV?$string_output_adapter@_W@__crt_stdio_output@@V?$format_validation_base@_WV?$string_output_adapter@_W@__crt_stdio_output@@@2@@__crt_stdio_output@@CADH_N@Z 1003eaa9 f i libucrt:output.obj
 0001:0003dace       ?adjust_hexit@?$output_processor@_WV?$string_output_adapter@_W@__crt_stdio_output@@V?$positional_parameter_base@_WV?$string_output_adapter@_W@__crt_stdio_output@@@2@@__crt_stdio_output@@CADH_N@Z 1003eace f i libucrt:output.obj
 0001:0003daf3       ?adjust_hexit@?$output_processor@_WV?$string_output_adapter@_W@__crt_stdio_output@@V?$standard_base@_WV?$string_output_adapter@_W@__crt_stdio_output@@@2@@__crt_stdio_output@@CADH_N@Z 1003eaf3 f i libucrt:output.obj
 0001:0003db18       ?advance_to_next_pass@?$positional_parameter_base@DV?$stream_output_adapter@D@__crt_stdio_output@@@__crt_stdio_output@@IAE_NXZ 1003eb18 f i libucrt:output.obj
 0001:0003db77       ?advance_to_next_pass@?$positional_parameter_base@DV?$string_output_adapter@D@__crt_stdio_output@@@__crt_stdio_output@@IAE_NXZ 1003eb77 f i libucrt:output.obj
 0001:0003dbd6       ?advance_to_next_pass@?$positional_parameter_base@_WV?$stream_output_adapter@_W@__crt_stdio_output@@@__crt_stdio_output@@IAE_NXZ 1003ebd6 f i libucrt:output.obj
 0001:0003dc35       ?advance_to_next_pass@?$positional_parameter_base@_WV?$string_output_adapter@_W@__crt_stdio_output@@@__crt_stdio_output@@IAE_NXZ 1003ec35 f i libucrt:output.obj
 0001:0003dc94       ?advance_to_next_pass@?$standard_base@DV?$stream_output_adapter@D@__crt_stdio_output@@@__crt_stdio_output@@IAE_NXZ 1003ec94 f i libucrt:output.obj
 0001:0003dcab       ?advance_to_next_pass@?$standard_base@DV?$string_output_adapter@D@__crt_stdio_output@@@__crt_stdio_output@@IAE_NXZ 1003ecab f i libucrt:output.obj
 0001:0003dcc2       ?advance_to_next_pass@?$standard_base@_WV?$stream_output_adapter@_W@__crt_stdio_output@@@__crt_stdio_output@@IAE_NXZ 1003ecc2 f i libucrt:output.obj
 0001:0003dcd9       ?advance_to_next_pass@?$standard_base@_WV?$string_output_adapter@_W@__crt_stdio_output@@@__crt_stdio_output@@IAE_NXZ 1003ecd9 f i libucrt:output.obj
 0001:0003dcf0       ?crop_zeroes@__crt_stdio_output@@YAXPADQAU__crt_locale_pointers@@@Z 1003ecf0 f i libucrt:output.obj
 0001:0003dd5c       ?find_next_state@?$output_processor@DV?$stream_output_adapter@D@__crt_stdio_output@@V?$format_validation_base@DV?$stream_output_adapter@D@__crt_stdio_output@@@2@@__crt_stdio_output@@ABE?AW4state@2@DW432@@Z 1003ed5c f i libucrt:output.obj
 0001:0003dd9e       ?find_next_state@?$output_processor@DV?$stream_output_adapter@D@__crt_stdio_output@@V?$positional_parameter_base@DV?$stream_output_adapter@D@__crt_stdio_output@@@2@@__crt_stdio_output@@ABE?AW4state@2@DW432@@Z 1003ed9e f i libucrt:output.obj
 0001:0003dde0       ?find_next_state@?$output_processor@DV?$stream_output_adapter@D@__crt_stdio_output@@V?$standard_base@DV?$stream_output_adapter@D@__crt_stdio_output@@@2@@__crt_stdio_output@@ABE?AW4state@2@DW432@@Z 1003ede0 f i libucrt:output.obj
 0001:0003de1e       ?find_next_state@?$output_processor@DV?$string_output_adapter@D@__crt_stdio_output@@V?$format_validation_base@DV?$string_output_adapter@D@__crt_stdio_output@@@2@@__crt_stdio_output@@ABE?AW4state@2@DW432@@Z 1003ee1e f i libucrt:output.obj
 0001:0003de60       ?find_next_state@?$output_processor@DV?$string_output_adapter@D@__crt_stdio_output@@V?$positional_parameter_base@DV?$string_output_adapter@D@__crt_stdio_output@@@2@@__crt_stdio_output@@ABE?AW4state@2@DW432@@Z 1003ee60 f i libucrt:output.obj
 0001:0003dea2       ?find_next_state@?$output_processor@DV?$string_output_adapter@D@__crt_stdio_output@@V?$standard_base@DV?$string_output_adapter@D@__crt_stdio_output@@@2@@__crt_stdio_output@@ABE?AW4state@2@DW432@@Z 1003eea2 f i libucrt:output.obj
 0001:0003dee0       ?find_next_state@?$output_processor@_WV?$stream_output_adapter@_W@__crt_stdio_output@@V?$format_validation_base@_WV?$stream_output_adapter@_W@__crt_stdio_output@@@2@@__crt_stdio_output@@ABE?AW4state@2@_WW432@@Z 1003eee0 f i libucrt:output.obj
 0001:0003df24       ?find_next_state@?$output_processor@_WV?$stream_output_adapter@_W@__crt_stdio_output@@V?$positional_parameter_base@_WV?$stream_output_adapter@_W@__crt_stdio_output@@@2@@__crt_stdio_output@@ABE?AW4state@2@_WW432@@Z 1003ef24 f i libucrt:output.obj
 0001:0003df68       ?find_next_state@?$output_processor@_WV?$stream_output_adapter@_W@__crt_stdio_output@@V?$standard_base@_WV?$stream_output_adapter@_W@__crt_stdio_output@@@2@@__crt_stdio_output@@ABE?AW4state@2@_WW432@@Z 1003ef68 f i libucrt:output.obj
 0001:0003dfa9       ?find_next_state@?$output_processor@_WV?$string_output_adapter@_W@__crt_stdio_output@@V?$format_validation_base@_WV?$string_output_adapter@_W@__crt_stdio_output@@@2@@__crt_stdio_output@@ABE?AW4state@2@_WW432@@Z 1003efa9 f i libucrt:output.obj
 0001:0003dfed       ?find_next_state@?$output_processor@_WV?$string_output_adapter@_W@__crt_stdio_output@@V?$positional_parameter_base@_WV?$string_output_adapter@_W@__crt_stdio_output@@@2@@__crt_stdio_output@@ABE?AW4state@2@_WW432@@Z 1003efed f i libucrt:output.obj
 0001:0003e031       ?find_next_state@?$output_processor@_WV?$string_output_adapter@_W@__crt_stdio_output@@V?$standard_base@_WV?$string_output_adapter@_W@__crt_stdio_output@@@2@@__crt_stdio_output@@ABE?AW4state@2@_WW432@@Z 1003f031 f i libucrt:output.obj
 0001:0003e072       ?force_decimal_point@__crt_stdio_output@@YAXPADQAU__crt_locale_pointers@@@Z 1003f072 f i libucrt:output.obj
 0001:0003e0e5       ?get_flags@__crt_stdio_stream@@QBEJXZ 1003f0e5 f i libucrt:output.obj
 0001:0003e0eb       ?get_parameter_type@?$positional_parameter_base@DV?$stream_output_adapter@D@__crt_stdio_output@@@__crt_stdio_output@@CA?AW4parameter_type@12@F@Z 1003f0eb f i libucrt:output.obj
 0001:0003e0ef       ?get_parameter_type@?$positional_parameter_base@DV?$stream_output_adapter@D@__crt_stdio_output@@@__crt_stdio_output@@CA?AW4parameter_type@12@G@Z 1003f0ef f i libucrt:output.obj
 0001:0003e0f3       ?get_parameter_type@?$positional_parameter_base@DV?$stream_output_adapter@D@__crt_stdio_output@@@__crt_stdio_output@@CA?AW4parameter_type@12@H@Z 1003f0f3 f i libucrt:output.obj
 0001:0003e0f7       ?get_parameter_type@?$positional_parameter_base@DV?$stream_output_adapter@D@__crt_stdio_output@@@__crt_stdio_output@@CA?AW4parameter_type@12@I@Z 1003f0f7 f i libucrt:output.obj
 0001:0003e0fb       ?get_parameter_type@?$positional_parameter_base@DV?$stream_output_adapter@D@__crt_stdio_output@@@__crt_stdio_output@@CA?AW4parameter_type@12@U_CRT_DOUBLE@@@Z 1003f0fb f i libucrt:output.obj
 0001:0003e0ff       ?get_parameter_type@?$positional_parameter_base@DV?$stream_output_adapter@D@__crt_stdio_output@@@__crt_stdio_output@@CA?AW4parameter_type@12@_J@Z 1003f0ff f i libucrt:output.obj
 0001:0003e103       ?get_parameter_type@?$positional_parameter_base@DV?$stream_output_adapter@D@__crt_stdio_output@@@__crt_stdio_output@@CA?AW4parameter_type@12@_K@Z 1003f103 f i libucrt:output.obj
 0001:0003e107       ?get_parameter_type@?$positional_parameter_base@DV?$stream_output_adapter@D@__crt_stdio_output@@@__crt_stdio_output@@CA?AW4parameter_type@12@_W@Z 1003f107 f i libucrt:output.obj
 0001:0003e10b       ?get_parameter_type@?$positional_parameter_base@DV?$string_output_adapter@D@__crt_stdio_output@@@__crt_stdio_output@@CA?AW4parameter_type@12@F@Z 1003f10b f i libucrt:output.obj
 0001:0003e10f       ?get_parameter_type@?$positional_parameter_base@DV?$string_output_adapter@D@__crt_stdio_output@@@__crt_stdio_output@@CA?AW4parameter_type@12@G@Z 1003f10f f i libucrt:output.obj
 0001:0003e113       ?get_parameter_type@?$positional_parameter_base@DV?$string_output_adapter@D@__crt_stdio_output@@@__crt_stdio_output@@CA?AW4parameter_type@12@H@Z 1003f113 f i libucrt:output.obj
 0001:0003e117       ?get_parameter_type@?$positional_parameter_base@DV?$string_output_adapter@D@__crt_stdio_output@@@__crt_stdio_output@@CA?AW4parameter_type@12@I@Z 1003f117 f i libucrt:output.obj
 0001:0003e11b       ?get_parameter_type@?$positional_parameter_base@DV?$string_output_adapter@D@__crt_stdio_output@@@__crt_stdio_output@@CA?AW4parameter_type@12@U_CRT_DOUBLE@@@Z 1003f11b f i libucrt:output.obj
 0001:0003e11f       ?get_parameter_type@?$positional_parameter_base@DV?$string_output_adapter@D@__crt_stdio_output@@@__crt_stdio_output@@CA?AW4parameter_type@12@_J@Z 1003f11f f i libucrt:output.obj
 0001:0003e123       ?get_parameter_type@?$positional_parameter_base@DV?$string_output_adapter@D@__crt_stdio_output@@@__crt_stdio_output@@CA?AW4parameter_type@12@_K@Z 1003f123 f i libucrt:output.obj
 0001:0003e127       ?get_parameter_type@?$positional_parameter_base@DV?$string_output_adapter@D@__crt_stdio_output@@@__crt_stdio_output@@CA?AW4parameter_type@12@_W@Z 1003f127 f i libucrt:output.obj
 0001:0003e12b       ?get_parameter_type@?$positional_parameter_base@_WV?$stream_output_adapter@_W@__crt_stdio_output@@@__crt_stdio_output@@CA?AW4parameter_type@12@F@Z 1003f12b f i libucrt:output.obj
 0001:0003e12f       ?get_parameter_type@?$positional_parameter_base@_WV?$stream_output_adapter@_W@__crt_stdio_output@@@__crt_stdio_output@@CA?AW4parameter_type@12@G@Z 1003f12f f i libucrt:output.obj
 0001:0003e133       ?get_parameter_type@?$positional_parameter_base@_WV?$stream_output_adapter@_W@__crt_stdio_output@@@__crt_stdio_output@@CA?AW4parameter_type@12@H@Z 1003f133 f i libucrt:output.obj
 0001:0003e137       ?get_parameter_type@?$positional_parameter_base@_WV?$stream_output_adapter@_W@__crt_stdio_output@@@__crt_stdio_output@@CA?AW4parameter_type@12@I@Z 1003f137 f i libucrt:output.obj
 0001:0003e13b       ?get_parameter_type@?$positional_parameter_base@_WV?$stream_output_adapter@_W@__crt_stdio_output@@@__crt_stdio_output@@CA?AW4parameter_type@12@U_CRT_DOUBLE@@@Z 1003f13b f i libucrt:output.obj
 0001:0003e13f       ?get_parameter_type@?$positional_parameter_base@_WV?$stream_output_adapter@_W@__crt_stdio_output@@@__crt_stdio_output@@CA?AW4parameter_type@12@_J@Z 1003f13f f i libucrt:output.obj
 0001:0003e143       ?get_parameter_type@?$positional_parameter_base@_WV?$stream_output_adapter@_W@__crt_stdio_output@@@__crt_stdio_output@@CA?AW4parameter_type@12@_K@Z 1003f143 f i libucrt:output.obj
 0001:0003e147       ?get_parameter_type@?$positional_parameter_base@_WV?$stream_output_adapter@_W@__crt_stdio_output@@@__crt_stdio_output@@CA?AW4parameter_type@12@_W@Z 1003f147 f i libucrt:output.obj
 0001:0003e14b       ?get_parameter_type@?$positional_parameter_base@_WV?$string_output_adapter@_W@__crt_stdio_output@@@__crt_stdio_output@@CA?AW4parameter_type@12@F@Z 1003f14b f i libucrt:output.obj
 0001:0003e14f       ?get_parameter_type@?$positional_parameter_base@_WV?$string_output_adapter@_W@__crt_stdio_output@@@__crt_stdio_output@@CA?AW4parameter_type@12@G@Z 1003f14f f i libucrt:output.obj
 0001:0003e153       ?get_parameter_type@?$positional_parameter_base@_WV?$string_output_adapter@_W@__crt_stdio_output@@@__crt_stdio_output@@CA?AW4parameter_type@12@H@Z 1003f153 f i libucrt:output.obj
 0001:0003e157       ?get_parameter_type@?$positional_parameter_base@_WV?$string_output_adapter@_W@__crt_stdio_output@@@__crt_stdio_output@@CA?AW4parameter_type@12@I@Z 1003f157 f i libucrt:output.obj
 0001:0003e15b       ?get_parameter_type@?$positional_parameter_base@_WV?$string_output_adapter@_W@__crt_stdio_output@@@__crt_stdio_output@@CA?AW4parameter_type@12@U_CRT_DOUBLE@@@Z 1003f15b f i libucrt:output.obj
 0001:0003e15f       ?get_parameter_type@?$positional_parameter_base@_WV?$string_output_adapter@_W@__crt_stdio_output@@@__crt_stdio_output@@CA?AW4parameter_type@12@_J@Z 1003f15f f i libucrt:output.obj
 0001:0003e163       ?get_parameter_type@?$positional_parameter_base@_WV?$string_output_adapter@_W@__crt_stdio_output@@@__crt_stdio_output@@CA?AW4parameter_type@12@_K@Z 1003f163 f i libucrt:output.obj
 0001:0003e167       ?get_parameter_type@?$positional_parameter_base@_WV?$string_output_adapter@_W@__crt_stdio_output@@@__crt_stdio_output@@CA?AW4parameter_type@12@_W@Z 1003f167 f i libucrt:output.obj
 0001:0003e16b       ?has_flag@?$output_processor@DV?$stream_output_adapter@D@__crt_stdio_output@@V?$format_validation_base@DV?$stream_output_adapter@D@__crt_stdio_output@@@2@@__crt_stdio_output@@ABE_NI@Z 1003f16b f i libucrt:output.obj
 0001:0003e185       ?has_flag@?$output_processor@DV?$stream_output_adapter@D@__crt_stdio_output@@V?$positional_parameter_base@DV?$stream_output_adapter@D@__crt_stdio_output@@@2@@__crt_stdio_output@@ABE_NI@Z 1003f185 f i libucrt:output.obj
 0001:0003e19f       ?has_flag@?$output_processor@DV?$stream_output_adapter@D@__crt_stdio_output@@V?$standard_base@DV?$stream_output_adapter@D@__crt_stdio_output@@@2@@__crt_stdio_output@@ABE_NI@Z 1003f19f f i libucrt:output.obj
 0001:0003e1b9       ?has_flag@?$output_processor@DV?$string_output_adapter@D@__crt_stdio_output@@V?$format_validation_base@DV?$string_output_adapter@D@__crt_stdio_output@@@2@@__crt_stdio_output@@ABE_NI@Z 1003f1b9 f i libucrt:output.obj
 0001:0003e1d3       ?has_flag@?$output_processor@DV?$string_output_adapter@D@__crt_stdio_output@@V?$positional_parameter_base@DV?$string_output_adapter@D@__crt_stdio_output@@@2@@__crt_stdio_output@@ABE_NI@Z 1003f1d3 f i libucrt:output.obj
 0001:0003e1ed       ?has_flag@?$output_processor@DV?$string_output_adapter@D@__crt_stdio_output@@V?$standard_base@DV?$string_output_adapter@D@__crt_stdio_output@@@2@@__crt_stdio_output@@ABE_NI@Z 1003f1ed f i libucrt:output.obj
 0001:0003e207       ?has_flag@?$output_processor@_WV?$stream_output_adapter@_W@__crt_stdio_output@@V?$format_validation_base@_WV?$stream_output_adapter@_W@__crt_stdio_output@@@2@@__crt_stdio_output@@ABE_NI@Z 1003f207 f i libucrt:output.obj
 0001:0003e221       ?has_flag@?$output_processor@_WV?$stream_output_adapter@_W@__crt_stdio_output@@V?$positional_parameter_base@_WV?$stream_output_adapter@_W@__crt_stdio_output@@@2@@__crt_stdio_output@@ABE_NI@Z 1003f221 f i libucrt:output.obj
 0001:0003e23b       ?has_flag@?$output_processor@_WV?$stream_output_adapter@_W@__crt_stdio_output@@V?$standard_base@_WV?$stream_output_adapter@_W@__crt_stdio_output@@@2@@__crt_stdio_output@@ABE_NI@Z 1003f23b f i libucrt:output.obj
 0001:0003e255       ?has_flag@?$output_processor@_WV?$string_output_adapter@_W@__crt_stdio_output@@V?$format_validation_base@_WV?$string_output_adapter@_W@__crt_stdio_output@@@2@@__crt_stdio_output@@ABE_NI@Z 1003f255 f i libucrt:output.obj
 0001:0003e26f       ?has_flag@?$output_processor@_WV?$string_output_adapter@_W@__crt_stdio_output@@V?$positional_parameter_base@_WV?$string_output_adapter@_W@__crt_stdio_output@@@2@@__crt_stdio_output@@ABE_NI@Z 1003f26f f i libucrt:output.obj
 0001:0003e289       ?has_flag@?$output_processor@_WV?$string_output_adapter@_W@__crt_stdio_output@@V?$standard_base@_WV?$string_output_adapter@_W@__crt_stdio_output@@@2@@__crt_stdio_output@@ABE_NI@Z 1003f289 f i libucrt:output.obj
 0001:0003e2a3       ?is_positional_parameter_reappearance_consistent@?$positional_parameter_base@DV?$stream_output_adapter@D@__crt_stdio_output@@@__crt_stdio_output@@AAE_NABUparameter_data@12@W4parameter_type@12@DW4length_modifier@2@@Z 1003f2a3 f i libucrt:output.obj
 0001:0003e41c       ?is_positional_parameter_reappearance_consistent@?$positional_parameter_base@DV?$string_output_adapter@D@__crt_stdio_output@@@__crt_stdio_output@@AAE_NABUparameter_data@12@W4parameter_type@12@DW4length_modifier@2@@Z 1003f41c f i libucrt:output.obj
 0001:0003e595       ?is_positional_parameter_reappearance_consistent@?$positional_parameter_base@_WV?$stream_output_adapter@_W@__crt_stdio_output@@@__crt_stdio_output@@AAE_NABUparameter_data@12@W4parameter_type@12@_WW4length_modifier@2@@Z 1003f595 f i libucrt:output.obj
 0001:0003e700       ?is_positional_parameter_reappearance_consistent@?$positional_parameter_base@_WV?$string_output_adapter@_W@__crt_stdio_output@@@__crt_stdio_output@@AAE_NABUparameter_data@12@W4parameter_type@12@_WW4length_modifier@2@@Z 1003f700 f i libucrt:output.obj
 0001:0003e86b       ?is_string_backed@__crt_stdio_stream@@QBE_NXZ 1003f86b f i libucrt:output.obj
 0001:0003e87a       ?narrow_null_string@?$output_processor@DV?$stream_output_adapter@D@__crt_stdio_output@@V?$format_validation_base@DV?$stream_output_adapter@D@__crt_stdio_output@@@2@@__crt_stdio_output@@CAPADXZ 1003f87a f i libucrt:output.obj
 0001:0003e880       ?narrow_null_string@?$output_processor@DV?$stream_output_adapter@D@__crt_stdio_output@@V?$positional_parameter_base@DV?$stream_output_adapter@D@__crt_stdio_output@@@2@@__crt_stdio_output@@CAPADXZ 1003f880 f i libucrt:output.obj
 0001:0003e886       ?narrow_null_string@?$output_processor@DV?$stream_output_adapter@D@__crt_stdio_output@@V?$standard_base@DV?$stream_output_adapter@D@__crt_stdio_output@@@2@@__crt_stdio_output@@CAPADXZ 1003f886 f i libucrt:output.obj
 0001:0003e88c       ?narrow_null_string@?$output_processor@DV?$string_output_adapter@D@__crt_stdio_output@@V?$format_validation_base@DV?$string_output_adapter@D@__crt_stdio_output@@@2@@__crt_stdio_output@@CAPADXZ 1003f88c f i libucrt:output.obj
 0001:0003e892       ?narrow_null_string@?$output_processor@DV?$string_output_adapter@D@__crt_stdio_output@@V?$positional_parameter_base@DV?$string_output_adapter@D@__crt_stdio_output@@@2@@__crt_stdio_output@@CAPADXZ 1003f892 f i libucrt:output.obj
 0001:0003e898       ?narrow_null_string@?$output_processor@DV?$string_output_adapter@D@__crt_stdio_output@@V?$standard_base@DV?$string_output_adapter@D@__crt_stdio_output@@@2@@__crt_stdio_output@@CAPADXZ 1003f898 f i libucrt:output.obj
 0001:0003e89e       ?narrow_null_string@?$output_processor@_WV?$stream_output_adapter@_W@__crt_stdio_output@@V?$format_validation_base@_WV?$stream_output_adapter@_W@__crt_stdio_output@@@2@@__crt_stdio_output@@CAPADXZ 1003f89e f i libucrt:output.obj
 0001:0003e8a4       ?narrow_null_string@?$output_processor@_WV?$stream_output_adapter@_W@__crt_stdio_output@@V?$positional_parameter_base@_WV?$stream_output_adapter@_W@__crt_stdio_output@@@2@@__crt_stdio_output@@CAPADXZ 1003f8a4 f i libucrt:output.obj
 0001:0003e8aa       ?narrow_null_string@?$output_processor@_WV?$stream_output_adapter@_W@__crt_stdio_output@@V?$standard_base@_WV?$stream_output_adapter@_W@__crt_stdio_output@@@2@@__crt_stdio_output@@CAPADXZ 1003f8aa f i libucrt:output.obj
 0001:0003e8b0       ?narrow_null_string@?$output_processor@_WV?$string_output_adapter@_W@__crt_stdio_output@@V?$format_validation_base@_WV?$string_output_adapter@_W@__crt_stdio_output@@@2@@__crt_stdio_output@@CAPADXZ 1003f8b0 f i libucrt:output.obj
 0001:0003e8b6       ?narrow_null_string@?$output_processor@_WV?$string_output_adapter@_W@__crt_stdio_output@@V?$positional_parameter_base@_WV?$string_output_adapter@_W@__crt_stdio_output@@@2@@__crt_stdio_output@@CAPADXZ 1003f8b6 f i libucrt:output.obj
 0001:0003e8bc       ?narrow_null_string@?$output_processor@_WV?$string_output_adapter@_W@__crt_stdio_output@@V?$standard_base@_WV?$string_output_adapter@_W@__crt_stdio_output@@@2@@__crt_stdio_output@@CAPADXZ 1003f8bc f i libucrt:output.obj
 0001:0003e8c2       ?parse_int_from_format_string@?$output_processor@DV?$stream_output_adapter@D@__crt_stdio_output@@V?$format_validation_base@DV?$stream_output_adapter@D@__crt_stdio_output@@@2@@__crt_stdio_output@@AAE_NQAH@Z 1003f8c2 f i libucrt:output.obj
 0001:0003e935       ?parse_int_from_format_string@?$output_processor@DV?$stream_output_adapter@D@__crt_stdio_output@@V?$positional_parameter_base@DV?$stream_output_adapter@D@__crt_stdio_output@@@2@@__crt_stdio_output@@AAE_NQAH@Z 1003f935 f i libucrt:output.obj
 0001:0003e9a8       ?parse_int_from_format_string@?$output_processor@DV?$stream_output_adapter@D@__crt_stdio_output@@V?$standard_base@DV?$stream_output_adapter@D@__crt_stdio_output@@@2@@__crt_stdio_output@@AAE_NQAH@Z 1003f9a8 f i libucrt:output.obj
 0001:0003ea1b       ?parse_int_from_format_string@?$output_processor@DV?$string_output_adapter@D@__crt_stdio_output@@V?$format_validation_base@DV?$string_output_adapter@D@__crt_stdio_output@@@2@@__crt_stdio_output@@AAE_NQAH@Z 1003fa1b f i libucrt:output.obj
 0001:0003ea8e       ?parse_int_from_format_string@?$output_processor@DV?$string_output_adapter@D@__crt_stdio_output@@V?$positional_parameter_base@DV?$string_output_adapter@D@__crt_stdio_output@@@2@@__crt_stdio_output@@AAE_NQAH@Z 1003fa8e f i libucrt:output.obj
 0001:0003eb01       ?parse_int_from_format_string@?$output_processor@DV?$string_output_adapter@D@__crt_stdio_output@@V?$standard_base@DV?$string_output_adapter@D@__crt_stdio_output@@@2@@__crt_stdio_output@@AAE_NQAH@Z 1003fb01 f i libucrt:output.obj
 0001:0003eb74       ?parse_int_from_format_string@?$output_processor@_WV?$stream_output_adapter@_W@__crt_stdio_output@@V?$format_validation_base@_WV?$stream_output_adapter@_W@__crt_stdio_output@@@2@@__crt_stdio_output@@AAE_NQAH@Z 1003fb74 f i libucrt:output.obj
 0001:0003ebe9       ?parse_int_from_format_string@?$output_processor@_WV?$stream_output_adapter@_W@__crt_stdio_output@@V?$positional_parameter_base@_WV?$stream_output_adapter@_W@__crt_stdio_output@@@2@@__crt_stdio_output@@AAE_NQAH@Z 1003fbe9 f i libucrt:output.obj
 0001:0003ec5e       ?parse_int_from_format_string@?$output_processor@_WV?$stream_output_adapter@_W@__crt_stdio_output@@V?$standard_base@_WV?$stream_output_adapter@_W@__crt_stdio_output@@@2@@__crt_stdio_output@@AAE_NQAH@Z 1003fc5e f i libucrt:output.obj
 0001:0003ecd3       ?parse_int_from_format_string@?$output_processor@_WV?$string_output_adapter@_W@__crt_stdio_output@@V?$format_validation_base@_WV?$string_output_adapter@_W@__crt_stdio_output@@@2@@__crt_stdio_output@@AAE_NQAH@Z 1003fcd3 f i libucrt:output.obj
 0001:0003ed48       ?parse_int_from_format_string@?$output_processor@_WV?$string_output_adapter@_W@__crt_stdio_output@@V?$positional_parameter_base@_WV?$string_output_adapter@_W@__crt_stdio_output@@@2@@__crt_stdio_output@@AAE_NQAH@Z 1003fd48 f i libucrt:output.obj
 0001:0003edbd       ?parse_int_from_format_string@?$output_processor@_WV?$string_output_adapter@_W@__crt_stdio_output@@V?$standard_base@_WV?$string_output_adapter@_W@__crt_stdio_output@@@2@@__crt_stdio_output@@AAE_NQAH@Z 1003fdbd f i libucrt:output.obj
 0001:0003ee32       ?process@?$output_processor@DV?$stream_output_adapter@D@__crt_stdio_output@@V?$format_validation_base@DV?$stream_output_adapter@D@__crt_stdio_output@@@2@@__crt_stdio_output@@QAEHXZ 1003fe32 f i libucrt:output.obj
 0001:0003efa4       ?process@?$output_processor@DV?$stream_output_adapter@D@__crt_stdio_output@@V?$positional_parameter_base@DV?$stream_output_adapter@D@__crt_stdio_output@@@2@@__crt_stdio_output@@QAEHXZ 1003ffa4 f i libucrt:output.obj
 0001:0003f157       ?process@?$output_processor@DV?$stream_output_adapter@D@__crt_stdio_output@@V?$standard_base@DV?$stream_output_adapter@D@__crt_stdio_output@@@2@@__crt_stdio_output@@QAEHXZ 10040157 f i libucrt:output.obj
 0001:0003f2ba       ?process@?$output_processor@DV?$string_output_adapter@D@__crt_stdio_output@@V?$format_validation_base@DV?$string_output_adapter@D@__crt_stdio_output@@@2@@__crt_stdio_output@@QAEHXZ 100402ba f i libucrt:output.obj
 0001:0003f42c       ?process@?$output_processor@DV?$string_output_adapter@D@__crt_stdio_output@@V?$positional_parameter_base@DV?$string_output_adapter@D@__crt_stdio_output@@@2@@__crt_stdio_output@@QAEHXZ 1004042c f i libucrt:output.obj
 0001:0003f5df       ?process@?$output_processor@DV?$string_output_adapter@D@__crt_stdio_output@@V?$standard_base@DV?$string_output_adapter@D@__crt_stdio_output@@@2@@__crt_stdio_output@@QAEHXZ 100405df f i libucrt:output.obj
 0001:0003f742       ?process@?$output_processor@_WV?$stream_output_adapter@_W@__crt_stdio_output@@V?$format_validation_base@_WV?$stream_output_adapter@_W@__crt_stdio_output@@@2@@__crt_stdio_output@@QAEHXZ 10040742 f i libucrt:output.obj
 0001:0003f8be       ?process@?$output_processor@_WV?$stream_output_adapter@_W@__crt_stdio_output@@V?$positional_parameter_base@_WV?$stream_output_adapter@_W@__crt_stdio_output@@@2@@__crt_stdio_output@@QAEHXZ 100408be f i libucrt:output.obj
 0001:0003fa76       ?process@?$output_processor@_WV?$stream_output_adapter@_W@__crt_stdio_output@@V?$standard_base@_WV?$stream_output_adapter@_W@__crt_stdio_output@@@2@@__crt_stdio_output@@QAEHXZ 10040a76 f i libucrt:output.obj
 0001:0003fbde       ?process@?$output_processor@_WV?$string_output_adapter@_W@__crt_stdio_output@@V?$format_validation_base@_WV?$string_output_adapter@_W@__crt_stdio_output@@@2@@__crt_stdio_output@@QAEHXZ 10040bde f i libucrt:output.obj
 0001:0003fd5a       ?process@?$output_processor@_WV?$string_output_adapter@_W@__crt_stdio_output@@V?$positional_parameter_base@_WV?$string_output_adapter@_W@__crt_stdio_output@@@2@@__crt_stdio_output@@QAEHXZ 10040d5a f i libucrt:output.obj
 0001:0003ff12       ?process@?$output_processor@_WV?$string_output_adapter@_W@__crt_stdio_output@@V?$standard_base@_WV?$string_output_adapter@_W@__crt_stdio_output@@@2@@__crt_stdio_output@@QAEHXZ 10040f12 f i libucrt:output.obj
 0001:0004007a       ?public_stream@__crt_stdio_stream@@QBEPAU_iobuf@@XZ 1004107a f i libucrt:output.obj
 0001:0004007d       ?set_flag@?$output_processor@DV?$stream_output_adapter@D@__crt_stdio_output@@V?$format_validation_base@DV?$stream_output_adapter@D@__crt_stdio_output@@@2@@__crt_stdio_output@@AAEXI@Z 1004107d f i libucrt:output.obj
 0001:0004008f       ?set_flag@?$output_processor@DV?$stream_output_adapter@D@__crt_stdio_output@@V?$positional_parameter_base@DV?$stream_output_adapter@D@__crt_stdio_output@@@2@@__crt_stdio_output@@AAEXI@Z 1004108f f i libucrt:output.obj
 0001:000400a1       ?set_flag@?$output_processor@DV?$stream_output_adapter@D@__crt_stdio_output@@V?$standard_base@DV?$stream_output_adapter@D@__crt_stdio_output@@@2@@__crt_stdio_output@@AAEXI@Z 100410a1 f i libucrt:output.obj
 0001:000400b3       ?set_flag@?$output_processor@DV?$string_output_adapter@D@__crt_stdio_output@@V?$format_validation_base@DV?$string_output_adapter@D@__crt_stdio_output@@@2@@__crt_stdio_output@@AAEXI@Z 100410b3 f i libucrt:output.obj
 0001:000400c5       ?set_flag@?$output_processor@DV?$string_output_adapter@D@__crt_stdio_output@@V?$positional_parameter_base@DV?$string_output_adapter@D@__crt_stdio_output@@@2@@__crt_stdio_output@@AAEXI@Z 100410c5 f i libucrt:output.obj
 0001:000400d7       ?set_flag@?$output_processor@DV?$string_output_adapter@D@__crt_stdio_output@@V?$standard_base@DV?$string_output_adapter@D@__crt_stdio_output@@@2@@__crt_stdio_output@@AAEXI@Z 100410d7 f i libucrt:output.obj
 0001:000400e9       ?set_flag@?$output_processor@_WV?$stream_output_adapter@_W@__crt_stdio_output@@V?$format_validation_base@_WV?$stream_output_adapter@_W@__crt_stdio_output@@@2@@__crt_stdio_output@@AAEXI@Z 100410e9 f i libucrt:output.obj
 0001:000400fb       ?set_flag@?$output_processor@_WV?$stream_output_adapter@_W@__crt_stdio_output@@V?$positional_parameter_base@_WV?$stream_output_adapter@_W@__crt_stdio_output@@@2@@__crt_stdio_output@@AAEXI@Z 100410fb f i libucrt:output.obj
 0001:0004010d       ?set_flag@?$output_processor@_WV?$stream_output_adapter@_W@__crt_stdio_output@@V?$standard_base@_WV?$stream_output_adapter@_W@__crt_stdio_output@@@2@@__crt_stdio_output@@AAEXI@Z 1004110d f i libucrt:output.obj
 0001:0004011f       ?set_flag@?$output_processor@_WV?$string_output_adapter@_W@__crt_stdio_output@@V?$format_validation_base@_WV?$string_output_adapter@_W@__crt_stdio_output@@@2@@__crt_stdio_output@@AAEXI@Z 1004111f f i libucrt:output.obj
 0001:00040131       ?set_flag@?$output_processor@_WV?$string_output_adapter@_W@__crt_stdio_output@@V?$positional_parameter_base@_WV?$string_output_adapter@_W@__crt_stdio_output@@@2@@__crt_stdio_output@@AAEXI@Z 10041131 f i libucrt:output.obj
 0001:00040143       ?set_flag@?$output_processor@_WV?$string_output_adapter@_W@__crt_stdio_output@@V?$standard_base@_WV?$string_output_adapter@_W@__crt_stdio_output@@@2@@__crt_stdio_output@@AAEXI@Z 10041143 f i libucrt:output.obj
 0001:00040155       ?should_format@?$positional_parameter_base@DV?$stream_output_adapter@D@__crt_stdio_output@@@__crt_stdio_output@@IAE_NXZ 10041155 f i libucrt:output.obj
 0001:00040170       ?should_format@?$positional_parameter_base@DV?$string_output_adapter@D@__crt_stdio_output@@@__crt_stdio_output@@IAE_NXZ 10041170 f i libucrt:output.obj
 0001:0004018b       ?should_format@?$positional_parameter_base@_WV?$stream_output_adapter@_W@__crt_stdio_output@@@__crt_stdio_output@@IAE_NXZ 1004118b f i libucrt:output.obj
 0001:000401a6       ?should_format@?$positional_parameter_base@_WV?$string_output_adapter@_W@__crt_stdio_output@@@__crt_stdio_output@@IAE_NXZ 100411a6 f i libucrt:output.obj
 0001:000401c1       ?should_format@?$standard_base@DV?$stream_output_adapter@D@__crt_stdio_output@@@__crt_stdio_output@@IAE_NXZ 100411c1 f i libucrt:output.obj
 0001:000401c4       ?should_format@?$standard_base@DV?$string_output_adapter@D@__crt_stdio_output@@@__crt_stdio_output@@IAE_NXZ 100411c4 f i libucrt:output.obj
 0001:000401c7       ?should_format@?$standard_base@_WV?$stream_output_adapter@_W@__crt_stdio_output@@@__crt_stdio_output@@IAE_NXZ 100411c7 f i libucrt:output.obj
 0001:000401ca       ?should_format@?$standard_base@_WV?$string_output_adapter@_W@__crt_stdio_output@@@__crt_stdio_output@@IAE_NXZ 100411ca f i libucrt:output.obj
 0001:000401cd       ?should_skip_normal_state_processing@?$positional_parameter_base@DV?$stream_output_adapter@D@__crt_stdio_output@@@__crt_stdio_output@@IAE_NXZ 100411cd f i libucrt:output.obj
 0001:000401ff       ?should_skip_normal_state_processing@?$positional_parameter_base@DV?$string_output_adapter@D@__crt_stdio_output@@@__crt_stdio_output@@IAE_NXZ 100411ff f i libucrt:output.obj
 0001:00040231       ?should_skip_normal_state_processing@?$positional_parameter_base@_WV?$stream_output_adapter@_W@__crt_stdio_output@@@__crt_stdio_output@@IAE_NXZ 10041231 f i libucrt:output.obj
 0001:00040263       ?should_skip_normal_state_processing@?$positional_parameter_base@_WV?$string_output_adapter@_W@__crt_stdio_output@@@__crt_stdio_output@@IAE_NXZ 10041263 f i libucrt:output.obj
 0001:00040295       ?should_skip_normal_state_processing@?$standard_base@DV?$stream_output_adapter@D@__crt_stdio_output@@@__crt_stdio_output@@IAE_NXZ 10041295 f i libucrt:output.obj
 0001:00040298       ?should_skip_normal_state_processing@?$standard_base@DV?$string_output_adapter@D@__crt_stdio_output@@@__crt_stdio_output@@IAE_NXZ 10041298 f i libucrt:output.obj
 0001:0004029b       ?should_skip_normal_state_processing@?$standard_base@_WV?$stream_output_adapter@_W@__crt_stdio_output@@@__crt_stdio_output@@IAE_NXZ 1004129b f i libucrt:output.obj
 0001:0004029e       ?should_skip_normal_state_processing@?$standard_base@_WV?$string_output_adapter@_W@__crt_stdio_output@@@__crt_stdio_output@@IAE_NXZ 1004129e f i libucrt:output.obj
 0001:000402a1       ?should_skip_type_state_output@?$positional_parameter_base@DV?$stream_output_adapter@D@__crt_stdio_output@@@__crt_stdio_output@@IBE_NXZ 100412a1 f i libucrt:output.obj
 0001:000402bd       ?should_skip_type_state_output@?$positional_parameter_base@DV?$string_output_adapter@D@__crt_stdio_output@@@__crt_stdio_output@@IBE_NXZ 100412bd f i libucrt:output.obj
 0001:000402d9       ?should_skip_type_state_output@?$positional_parameter_base@_WV?$stream_output_adapter@_W@__crt_stdio_output@@@__crt_stdio_output@@IBE_NXZ 100412d9 f i libucrt:output.obj
 0001:000402f5       ?should_skip_type_state_output@?$positional_parameter_base@_WV?$string_output_adapter@_W@__crt_stdio_output@@@__crt_stdio_output@@IBE_NXZ 100412f5 f i libucrt:output.obj
 0001:00040311       ?should_skip_type_state_output@?$standard_base@DV?$stream_output_adapter@D@__crt_stdio_output@@@__crt_stdio_output@@IBE_NXZ 10041311 f i libucrt:output.obj
 0001:00040314       ?should_skip_type_state_output@?$standard_base@DV?$string_output_adapter@D@__crt_stdio_output@@@__crt_stdio_output@@IBE_NXZ 10041314 f i libucrt:output.obj
 0001:00040317       ?should_skip_type_state_output@?$standard_base@_WV?$stream_output_adapter@_W@__crt_stdio_output@@@__crt_stdio_output@@IBE_NXZ 10041317 f i libucrt:output.obj
 0001:0004031a       ?should_skip_type_state_output@?$standard_base@_WV?$string_output_adapter@_W@__crt_stdio_output@@@__crt_stdio_output@@IBE_NXZ 1004131a f i libucrt:output.obj
 0001:0004031d       ?state_case_dot@?$output_processor@DV?$stream_output_adapter@D@__crt_stdio_output@@V?$format_validation_base@DV?$stream_output_adapter@D@__crt_stdio_output@@@2@@__crt_stdio_output@@AAE_NXZ 1004131d f i libucrt:output.obj
 0001:00040324       ?state_case_dot@?$output_processor@DV?$stream_output_adapter@D@__crt_stdio_output@@V?$positional_parameter_base@DV?$stream_output_adapter@D@__crt_stdio_output@@@2@@__crt_stdio_output@@AAE_NXZ 10041324 f i libucrt:output.obj
 0001:0004032b       ?state_case_dot@?$output_processor@DV?$stream_output_adapter@D@__crt_stdio_output@@V?$standard_base@DV?$stream_output_adapter@D@__crt_stdio_output@@@2@@__crt_stdio_output@@AAE_NXZ 1004132b f i libucrt:output.obj
 0001:00040332       ?state_case_dot@?$output_processor@DV?$string_output_adapter@D@__crt_stdio_output@@V?$format_validation_base@DV?$string_output_adapter@D@__crt_stdio_output@@@2@@__crt_stdio_output@@AAE_NXZ 10041332 f i libucrt:output.obj
 0001:00040339       ?state_case_dot@?$output_processor@DV?$string_output_adapter@D@__crt_stdio_output@@V?$positional_parameter_base@DV?$string_output_adapter@D@__crt_stdio_output@@@2@@__crt_stdio_output@@AAE_NXZ 10041339 f i libucrt:output.obj
 0001:00040340       ?state_case_dot@?$output_processor@DV?$string_output_adapter@D@__crt_stdio_output@@V?$standard_base@DV?$string_output_adapter@D@__crt_stdio_output@@@2@@__crt_stdio_output@@AAE_NXZ 10041340 f i libucrt:output.obj
 0001:00040347       ?state_case_dot@?$output_processor@_WV?$stream_output_adapter@_W@__crt_stdio_output@@V?$format_validation_base@_WV?$stream_output_adapter@_W@__crt_stdio_output@@@2@@__crt_stdio_output@@AAE_NXZ 10041347 f i libucrt:output.obj
 0001:0004034e       ?state_case_dot@?$output_processor@_WV?$stream_output_adapter@_W@__crt_stdio_output@@V?$positional_parameter_base@_WV?$stream_output_adapter@_W@__crt_stdio_output@@@2@@__crt_stdio_output@@AAE_NXZ 1004134e f i libucrt:output.obj
 0001:00040355       ?state_case_dot@?$output_processor@_WV?$stream_output_adapter@_W@__crt_stdio_output@@V?$standard_base@_WV?$stream_output_adapter@_W@__crt_stdio_output@@@2@@__crt_stdio_output@@AAE_NXZ 10041355 f i libucrt:output.obj
 0001:0004035c       ?state_case_dot@?$output_processor@_WV?$string_output_adapter@_W@__crt_stdio_output@@V?$format_validation_base@_WV?$string_output_adapter@_W@__crt_stdio_output@@@2@@__crt_stdio_output@@AAE_NXZ 1004135c f i libucrt:output.obj
 0001:00040363       ?state_case_dot@?$output_processor@_WV?$string_output_adapter@_W@__crt_stdio_output@@V?$positional_parameter_base@_WV?$string_output_adapter@_W@__crt_stdio_output@@@2@@__crt_stdio_output@@AAE_NXZ 10041363 f i libucrt:output.obj
 0001:0004036a       ?state_case_dot@?$output_processor@_WV?$string_output_adapter@_W@__crt_stdio_output@@V?$standard_base@_WV?$string_output_adapter@_W@__crt_stdio_output@@@2@@__crt_stdio_output@@AAE_NXZ 1004136a f i libucrt:output.obj
 0001:00040371       ?state_case_flag@?$output_processor@DV?$stream_output_adapter@D@__crt_stdio_output@@V?$format_validation_base@DV?$stream_output_adapter@D@__crt_stdio_output@@@2@@__crt_stdio_output@@AAE_NXZ 10041371 f i libucrt:output.obj
 0001:000403bd       ?state_case_flag@?$output_processor@DV?$stream_output_adapter@D@__crt_stdio_output@@V?$positional_parameter_base@DV?$stream_output_adapter@D@__crt_stdio_output@@@2@@__crt_stdio_output@@AAE_NXZ 100413bd f i libucrt:output.obj
 0001:00040409       ?state_case_flag@?$output_processor@DV?$stream_output_adapter@D@__crt_stdio_output@@V?$standard_base@DV?$stream_output_adapter@D@__crt_stdio_output@@@2@@__crt_stdio_output@@AAE_NXZ 10041409 f i libucrt:output.obj
 0001:00040455       ?state_case_flag@?$output_processor@DV?$string_output_adapter@D@__crt_stdio_output@@V?$format_validation_base@DV?$string_output_adapter@D@__crt_stdio_output@@@2@@__crt_stdio_output@@AAE_NXZ 10041455 f i libucrt:output.obj
 0001:000404a1       ?state_case_flag@?$output_processor@DV?$string_output_adapter@D@__crt_stdio_output@@V?$positional_parameter_base@DV?$string_output_adapter@D@__crt_stdio_output@@@2@@__crt_stdio_output@@AAE_NXZ 100414a1 f i libucrt:output.obj
 0001:000404ed       ?state_case_flag@?$output_processor@DV?$string_output_adapter@D@__crt_stdio_output@@V?$standard_base@DV?$string_output_adapter@D@__crt_stdio_output@@@2@@__crt_stdio_output@@AAE_NXZ 100414ed f i libucrt:output.obj
 0001:00040539       ?state_case_flag@?$output_processor@_WV?$stream_output_adapter@_W@__crt_stdio_output@@V?$format_validation_base@_WV?$stream_output_adapter@_W@__crt_stdio_output@@@2@@__crt_stdio_output@@AAE_NXZ 10041539 f i libucrt:output.obj
 0001:00040585       ?state_case_flag@?$output_processor@_WV?$stream_output_adapter@_W@__crt_stdio_output@@V?$positional_parameter_base@_WV?$stream_output_adapter@_W@__crt_stdio_output@@@2@@__crt_stdio_output@@AAE_NXZ 10041585 f i libucrt:output.obj
 0001:000405d1       ?state_case_flag@?$output_processor@_WV?$stream_output_adapter@_W@__crt_stdio_output@@V?$standard_base@_WV?$stream_output_adapter@_W@__crt_stdio_output@@@2@@__crt_stdio_output@@AAE_NXZ 100415d1 f i libucrt:output.obj
 0001:0004061d       ?state_case_flag@?$output_processor@_WV?$string_output_adapter@_W@__crt_stdio_output@@V?$format_validation_base@_WV?$string_output_adapter@_W@__crt_stdio_output@@@2@@__crt_stdio_output@@AAE_NXZ 1004161d f i libucrt:output.obj
 0001:00040669       ?state_case_flag@?$output_processor@_WV?$string_output_adapter@_W@__crt_stdio_output@@V?$positional_parameter_base@_WV?$string_output_adapter@_W@__crt_stdio_output@@@2@@__crt_stdio_output@@AAE_NXZ 10041669 f i libucrt:output.obj
 0001:000406b5       ?state_case_flag@?$output_processor@_WV?$string_output_adapter@_W@__crt_stdio_output@@V?$standard_base@_WV?$string_output_adapter@_W@__crt_stdio_output@@@2@@__crt_stdio_output@@AAE_NXZ 100416b5 f i libucrt:output.obj
 0001:00040701       ?state_case_normal@?$output_processor@DV?$stream_output_adapter@D@__crt_stdio_output@@V?$format_validation_base@DV?$stream_output_adapter@D@__crt_stdio_output@@@2@@__crt_stdio_output@@AAE_NXZ 10041701 f i libucrt:output.obj
 0001:00040727       ?state_case_normal@?$output_processor@DV?$stream_output_adapter@D@__crt_stdio_output@@V?$positional_parameter_base@DV?$stream_output_adapter@D@__crt_stdio_output@@@2@@__crt_stdio_output@@AAE_NXZ 10041727 f i libucrt:output.obj
 0001:00040764       ?state_case_normal@?$output_processor@DV?$stream_output_adapter@D@__crt_stdio_output@@V?$standard_base@DV?$stream_output_adapter@D@__crt_stdio_output@@@2@@__crt_stdio_output@@AAE_NXZ 10041764 f i libucrt:output.obj
 0001:0004078a       ?state_case_normal@?$output_processor@DV?$string_output_adapter@D@__crt_stdio_output@@V?$format_validation_base@DV?$string_output_adapter@D@__crt_stdio_output@@@2@@__crt_stdio_output@@AAE_NXZ 1004178a f i libucrt:output.obj
 0001:000407b0       ?state_case_normal@?$output_processor@DV?$string_output_adapter@D@__crt_stdio_output@@V?$positional_parameter_base@DV?$string_output_adapter@D@__crt_stdio_output@@@2@@__crt_stdio_output@@AAE_NXZ 100417b0 f i libucrt:output.obj
 0001:000407ed       ?state_case_normal@?$output_processor@DV?$string_output_adapter@D@__crt_stdio_output@@V?$standard_base@DV?$string_output_adapter@D@__crt_stdio_output@@@2@@__crt_stdio_output@@AAE_NXZ 100417ed f i libucrt:output.obj
 0001:00040813       ?state_case_normal@?$output_processor@_WV?$stream_output_adapter@_W@__crt_stdio_output@@V?$format_validation_base@_WV?$stream_output_adapter@_W@__crt_stdio_output@@@2@@__crt_stdio_output@@AAE_NXZ 10041813 f i libucrt:output.obj
 0001:00040839       ?state_case_normal@?$output_processor@_WV?$stream_output_adapter@_W@__crt_stdio_output@@V?$positional_parameter_base@_WV?$stream_output_adapter@_W@__crt_stdio_output@@@2@@__crt_stdio_output@@AAE_NXZ 10041839 f i libucrt:output.obj
 0001:00040876       ?state_case_normal@?$output_processor@_WV?$stream_output_adapter@_W@__crt_stdio_output@@V?$standard_base@_WV?$stream_output_adapter@_W@__crt_stdio_output@@@2@@__crt_stdio_output@@AAE_NXZ 10041876 f i libucrt:output.obj
 0001:0004089c       ?state_case_normal@?$output_processor@_WV?$string_output_adapter@_W@__crt_stdio_output@@V?$format_validation_base@_WV?$string_output_adapter@_W@__crt_stdio_output@@@2@@__crt_stdio_output@@AAE_NXZ 1004189c f i libucrt:output.obj
 0001:000408c2       ?state_case_normal@?$output_processor@_WV?$string_output_adapter@_W@__crt_stdio_output@@V?$positional_parameter_base@_WV?$string_output_adapter@_W@__crt_stdio_output@@@2@@__crt_stdio_output@@AAE_NXZ 100418c2 f i libucrt:output.obj
 0001:000408ff       ?state_case_normal@?$output_processor@_WV?$string_output_adapter@_W@__crt_stdio_output@@V?$standard_base@_WV?$string_output_adapter@_W@__crt_stdio_output@@@2@@__crt_stdio_output@@AAE_NXZ 100418ff f i libucrt:output.obj
 0001:00040925       ?state_case_normal_common@?$output_processor@DV?$stream_output_adapter@D@__crt_stdio_output@@V?$format_validation_base@DV?$stream_output_adapter@D@__crt_stdio_output@@@2@@__crt_stdio_output@@AAE_NXZ 10041925 f i libucrt:output.obj
 0001:00040959       ?state_case_normal_common@?$output_processor@DV?$stream_output_adapter@D@__crt_stdio_output@@V?$positional_parameter_base@DV?$stream_output_adapter@D@__crt_stdio_output@@@2@@__crt_stdio_output@@AAE_NXZ 10041959 f i libucrt:output.obj
 0001:0004098d       ?state_case_normal_common@?$output_processor@DV?$stream_output_adapter@D@__crt_stdio_output@@V?$standard_base@DV?$stream_output_adapter@D@__crt_stdio_output@@@2@@__crt_stdio_output@@AAE_NXZ 1004198d f i libucrt:output.obj
 0001:000409c1       ?state_case_normal_common@?$output_processor@DV?$string_output_adapter@D@__crt_stdio_output@@V?$format_validation_base@DV?$string_output_adapter@D@__crt_stdio_output@@@2@@__crt_stdio_output@@AAE_NXZ 100419c1 f i libucrt:output.obj
 0001:000409f5       ?state_case_normal_common@?$output_processor@DV?$string_output_adapter@D@__crt_stdio_output@@V?$positional_parameter_base@DV?$string_output_adapter@D@__crt_stdio_output@@@2@@__crt_stdio_output@@AAE_NXZ 100419f5 f i libucrt:output.obj
 0001:00040a29       ?state_case_normal_common@?$output_processor@DV?$string_output_adapter@D@__crt_stdio_output@@V?$standard_base@DV?$string_output_adapter@D@__crt_stdio_output@@@2@@__crt_stdio_output@@AAE_NXZ 10041a29 f i libucrt:output.obj
 0001:00040a5d       ?state_case_normal_common@?$output_processor@_WV?$stream_output_adapter@_W@__crt_stdio_output@@V?$format_validation_base@_WV?$stream_output_adapter@_W@__crt_stdio_output@@@2@@__crt_stdio_output@@AAE_NXZ 10041a5d f i libucrt:output.obj
 0001:00040a7e       ?state_case_normal_common@?$output_processor@_WV?$stream_output_adapter@_W@__crt_stdio_output@@V?$positional_parameter_base@_WV?$stream_output_adapter@_W@__crt_stdio_output@@@2@@__crt_stdio_output@@AAE_NXZ 10041a7e f i libucrt:output.obj
 0001:00040a9f       ?state_case_normal_common@?$output_processor@_WV?$stream_output_adapter@_W@__crt_stdio_output@@V?$standard_base@_WV?$stream_output_adapter@_W@__crt_stdio_output@@@2@@__crt_stdio_output@@AAE_NXZ 10041a9f f i libucrt:output.obj
 0001:00040ac0       ?state_case_normal_common@?$output_processor@_WV?$string_output_adapter@_W@__crt_stdio_output@@V?$format_validation_base@_WV?$string_output_adapter@_W@__crt_stdio_output@@@2@@__crt_stdio_output@@AAE_NXZ 10041ac0 f i libucrt:output.obj
 0001:00040ae1       ?state_case_normal_common@?$output_processor@_WV?$string_output_adapter@_W@__crt_stdio_output@@V?$positional_parameter_base@_WV?$string_output_adapter@_W@__crt_stdio_output@@@2@@__crt_stdio_output@@AAE_NXZ 10041ae1 f i libucrt:output.obj
 0001:00040b02       ?state_case_normal_common@?$output_processor@_WV?$string_output_adapter@_W@__crt_stdio_output@@V?$standard_base@_WV?$string_output_adapter@_W@__crt_stdio_output@@@2@@__crt_stdio_output@@AAE_NXZ 10041b02 f i libucrt:output.obj
 0001:00040b23       ?state_case_normal_tchar@?$output_processor@DV?$stream_output_adapter@D@__crt_stdio_output@@V?$format_validation_base@DV?$stream_output_adapter@D@__crt_stdio_output@@@2@@__crt_stdio_output@@AAE_ND@Z 10041b23 f i libucrt:output.obj
 0001:00040b9c       ?state_case_normal_tchar@?$output_processor@DV?$stream_output_adapter@D@__crt_stdio_output@@V?$positional_parameter_base@DV?$stream_output_adapter@D@__crt_stdio_output@@@2@@__crt_stdio_output@@AAE_ND@Z 10041b9c f i libucrt:output.obj
 0001:00040c15       ?state_case_normal_tchar@?$output_processor@DV?$stream_output_adapter@D@__crt_stdio_output@@V?$standard_base@DV?$stream_output_adapter@D@__crt_stdio_output@@@2@@__crt_stdio_output@@AAE_ND@Z 10041c15 f i libucrt:output.obj
 0001:00040c8e       ?state_case_normal_tchar@?$output_processor@DV?$string_output_adapter@D@__crt_stdio_output@@V?$format_validation_base@DV?$string_output_adapter@D@__crt_stdio_output@@@2@@__crt_stdio_output@@AAE_ND@Z 10041c8e f i libucrt:output.obj
 0001:00040d07       ?state_case_normal_tchar@?$output_processor@DV?$string_output_adapter@D@__crt_stdio_output@@V?$positional_parameter_base@DV?$string_output_adapter@D@__crt_stdio_output@@@2@@__crt_stdio_output@@AAE_ND@Z 10041d07 f i libucrt:output.obj
 0001:00040d80       ?state_case_normal_tchar@?$output_processor@DV?$string_output_adapter@D@__crt_stdio_output@@V?$standard_base@DV?$string_output_adapter@D@__crt_stdio_output@@@2@@__crt_stdio_output@@AAE_ND@Z 10041d80 f i libucrt:output.obj
 0001:00040df9       ?state_case_normal_tchar@?$output_processor@_WV?$stream_output_adapter@_W@__crt_stdio_output@@V?$format_validation_base@_WV?$stream_output_adapter@_W@__crt_stdio_output@@@2@@__crt_stdio_output@@AAE_N_W@Z 10041df9 f i libucrt:output.obj
 0001:00040e04       ?state_case_normal_tchar@?$output_processor@_WV?$stream_output_adapter@_W@__crt_stdio_output@@V?$positional_parameter_base@_WV?$stream_output_adapter@_W@__crt_stdio_output@@@2@@__crt_stdio_output@@AAE_N_W@Z 10041e04 f i libucrt:output.obj
 0001:00040e0f       ?state_case_normal_tchar@?$output_processor@_WV?$stream_output_adapter@_W@__crt_stdio_output@@V?$standard_base@_WV?$stream_output_adapter@_W@__crt_stdio_output@@@2@@__crt_stdio_output@@AAE_N_W@Z 10041e0f f i libucrt:output.obj
 0001:00040e1a       ?state_case_normal_tchar@?$output_processor@_WV?$string_output_adapter@_W@__crt_stdio_output@@V?$format_validation_base@_WV?$string_output_adapter@_W@__crt_stdio_output@@@2@@__crt_stdio_output@@AAE_N_W@Z 10041e1a f i libucrt:output.obj
 0001:00040e25       ?state_case_normal_tchar@?$output_processor@_WV?$string_output_adapter@_W@__crt_stdio_output@@V?$positional_parameter_base@_WV?$string_output_adapter@_W@__crt_stdio_output@@@2@@__crt_stdio_output@@AAE_N_W@Z 10041e25 f i libucrt:output.obj
 0001:00040e30       ?state_case_normal_tchar@?$output_processor@_WV?$string_output_adapter@_W@__crt_stdio_output@@V?$standard_base@_WV?$string_output_adapter@_W@__crt_stdio_output@@@2@@__crt_stdio_output@@AAE_N_W@Z 10041e30 f i libucrt:output.obj
 0001:00040e3b       ?state_case_percent@?$output_processor@DV?$stream_output_adapter@D@__crt_stdio_output@@V?$format_validation_base@DV?$stream_output_adapter@D@__crt_stdio_output@@@2@@__crt_stdio_output@@AAE_NXZ 10041e3b f i libucrt:output.obj
 0001:00040e59       ?state_case_percent@?$output_processor@DV?$stream_output_adapter@D@__crt_stdio_output@@V?$positional_parameter_base@DV?$stream_output_adapter@D@__crt_stdio_output@@@2@@__crt_stdio_output@@AAE_NXZ 10041e59 f i libucrt:output.obj
 0001:00040e77       ?state_case_percent@?$output_processor@DV?$stream_output_adapter@D@__crt_stdio_output@@V?$standard_base@DV?$stream_output_adapter@D@__crt_stdio_output@@@2@@__crt_stdio_output@@AAE_NXZ 10041e77 f i libucrt:output.obj
 0001:00040e95       ?state_case_percent@?$output_processor@DV?$string_output_adapter@D@__crt_stdio_output@@V?$format_validation_base@DV?$string_output_adapter@D@__crt_stdio_output@@@2@@__crt_stdio_output@@AAE_NXZ 10041e95 f i libucrt:output.obj
 0001:00040eb3       ?state_case_percent@?$output_processor@DV?$string_output_adapter@D@__crt_stdio_output@@V?$positional_parameter_base@DV?$string_output_adapter@D@__crt_stdio_output@@@2@@__crt_stdio_output@@AAE_NXZ 10041eb3 f i libucrt:output.obj
 0001:00040ed1       ?state_case_percent@?$output_processor@DV?$string_output_adapter@D@__crt_stdio_output@@V?$standard_base@DV?$string_output_adapter@D@__crt_stdio_output@@@2@@__crt_stdio_output@@AAE_NXZ 10041ed1 f i libucrt:output.obj
 0001:00040eef       ?state_case_percent@?$output_processor@_WV?$stream_output_adapter@_W@__crt_stdio_output@@V?$format_validation_base@_WV?$stream_output_adapter@_W@__crt_stdio_output@@@2@@__crt_stdio_output@@AAE_NXZ 10041eef f i libucrt:output.obj
 0001:00040f0d       ?state_case_percent@?$output_processor@_WV?$stream_output_adapter@_W@__crt_stdio_output@@V?$positional_parameter_base@_WV?$stream_output_adapter@_W@__crt_stdio_output@@@2@@__crt_stdio_output@@AAE_NXZ 10041f0d f i libucrt:output.obj
 0001:00040f2b       ?state_case_percent@?$output_processor@_WV?$stream_output_adapter@_W@__crt_stdio_output@@V?$standard_base@_WV?$stream_output_adapter@_W@__crt_stdio_output@@@2@@__crt_stdio_output@@AAE_NXZ 10041f2b f i libucrt:output.obj
 0001:00040f49       ?state_case_percent@?$output_processor@_WV?$string_output_adapter@_W@__crt_stdio_output@@V?$format_validation_base@_WV?$string_output_adapter@_W@__crt_stdio_output@@@2@@__crt_stdio_output@@AAE_NXZ 10041f49 f i libucrt:output.obj
 0001:00040f67       ?state_case_percent@?$output_processor@_WV?$string_output_adapter@_W@__crt_stdio_output@@V?$positional_parameter_base@_WV?$string_output_adapter@_W@__crt_stdio_output@@@2@@__crt_stdio_output@@AAE_NXZ 10041f67 f i libucrt:output.obj
 0001:00040f85       ?state_case_percent@?$output_processor@_WV?$string_output_adapter@_W@__crt_stdio_output@@V?$standard_base@_WV?$string_output_adapter@_W@__crt_stdio_output@@@2@@__crt_stdio_output@@AAE_NXZ 10041f85 f i libucrt:output.obj
 0001:00040fa3       ?state_case_precision@?$output_processor@DV?$stream_output_adapter@D@__crt_stdio_output@@V?$format_validation_base@DV?$stream_output_adapter@D@__crt_stdio_output@@@2@@__crt_stdio_output@@AAE_NXZ 10041fa3 f i libucrt:output.obj
 0001:00040fd5       ?state_case_precision@?$output_processor@DV?$stream_output_adapter@D@__crt_stdio_output@@V?$positional_parameter_base@DV?$stream_output_adapter@D@__crt_stdio_output@@@2@@__crt_stdio_output@@AAE_NXZ 10041fd5 f i libucrt:output.obj
 0001:0004101d       ?state_case_precision@?$output_processor@DV?$stream_output_adapter@D@__crt_stdio_output@@V?$standard_base@DV?$stream_output_adapter@D@__crt_stdio_output@@@2@@__crt_stdio_output@@AAE_NXZ 1004201d f i libucrt:output.obj
 0001:0004104f       ?state_case_precision@?$output_processor@DV?$string_output_adapter@D@__crt_stdio_output@@V?$format_validation_base@DV?$string_output_adapter@D@__crt_stdio_output@@@2@@__crt_stdio_output@@AAE_NXZ 1004204f f i libucrt:output.obj
 0001:00041081       ?state_case_precision@?$output_processor@DV?$string_output_adapter@D@__crt_stdio_output@@V?$positional_parameter_base@DV?$string_output_adapter@D@__crt_stdio_output@@@2@@__crt_stdio_output@@AAE_NXZ 10042081 f i libucrt:output.obj
 0001:000410c9       ?state_case_precision@?$output_processor@DV?$string_output_adapter@D@__crt_stdio_output@@V?$standard_base@DV?$string_output_adapter@D@__crt_stdio_output@@@2@@__crt_stdio_output@@AAE_NXZ 100420c9 f i libucrt:output.obj
 0001:000410fb       ?state_case_precision@?$output_processor@_WV?$stream_output_adapter@_W@__crt_stdio_output@@V?$format_validation_base@_WV?$stream_output_adapter@_W@__crt_stdio_output@@@2@@__crt_stdio_output@@AAE_NXZ 100420fb f i libucrt:output.obj
 0001:0004112e       ?state_case_precision@?$output_processor@_WV?$stream_output_adapter@_W@__crt_stdio_output@@V?$positional_parameter_base@_WV?$stream_output_adapter@_W@__crt_stdio_output@@@2@@__crt_stdio_output@@AAE_NXZ 1004212e f i libucrt:output.obj
 0001:00041177       ?state_case_precision@?$output_processor@_WV?$stream_output_adapter@_W@__crt_stdio_output@@V?$standard_base@_WV?$stream_output_adapter@_W@__crt_stdio_output@@@2@@__crt_stdio_output@@AAE_NXZ 10042177 f i libucrt:output.obj
 0001:000411aa       ?state_case_precision@?$output_processor@_WV?$string_output_adapter@_W@__crt_stdio_output@@V?$format_validation_base@_WV?$string_output_adapter@_W@__crt_stdio_output@@@2@@__crt_stdio_output@@AAE_NXZ 100421aa f i libucrt:output.obj
 0001:000411dd       ?state_case_precision@?$output_processor@_WV?$string_output_adapter@_W@__crt_stdio_output@@V?$positional_parameter_base@_WV?$string_output_adapter@_W@__crt_stdio_output@@@2@@__crt_stdio_output@@AAE_NXZ 100421dd f i libucrt:output.obj
 0001:00041226       ?state_case_precision@?$output_processor@_WV?$string_output_adapter@_W@__crt_stdio_output@@V?$standard_base@_WV?$string_output_adapter@_W@__crt_stdio_output@@@2@@__crt_stdio_output@@AAE_NXZ 10042226 f i libucrt:output.obj
 0001:00041259       ?state_case_size@?$output_processor@DV?$stream_output_adapter@D@__crt_stdio_output@@V?$format_validation_base@DV?$stream_output_adapter@D@__crt_stdio_output@@@2@@__crt_stdio_output@@AAE_NXZ 10042259 f i libucrt:output.obj
 0001:0004141c       ?state_case_size@?$output_processor@DV?$stream_output_adapter@D@__crt_stdio_output@@V?$positional_parameter_base@DV?$stream_output_adapter@D@__crt_stdio_output@@@2@@__crt_stdio_output@@AAE_NXZ 1004241c f i libucrt:output.obj
 0001:000415df       ?state_case_size@?$output_processor@DV?$stream_output_adapter@D@__crt_stdio_output@@V?$standard_base@DV?$stream_output_adapter@D@__crt_stdio_output@@@2@@__crt_stdio_output@@AAE_NXZ 100425df f i libucrt:output.obj
 0001:000417a2       ?state_case_size@?$output_processor@DV?$string_output_adapter@D@__crt_stdio_output@@V?$format_validation_base@DV?$string_output_adapter@D@__crt_stdio_output@@@2@@__crt_stdio_output@@AAE_NXZ 100427a2 f i libucrt:output.obj
 0001:00041965       ?state_case_size@?$output_processor@DV?$string_output_adapter@D@__crt_stdio_output@@V?$positional_parameter_base@DV?$string_output_adapter@D@__crt_stdio_output@@@2@@__crt_stdio_output@@AAE_NXZ 10042965 f i libucrt:output.obj
 0001:00041b28       ?state_case_size@?$output_processor@DV?$string_output_adapter@D@__crt_stdio_output@@V?$standard_base@DV?$string_output_adapter@D@__crt_stdio_output@@@2@@__crt_stdio_output@@AAE_NXZ 10042b28 f i libucrt:output.obj
 0001:00041ceb       ?state_case_size@?$output_processor@_WV?$stream_output_adapter@_W@__crt_stdio_output@@V?$format_validation_base@_WV?$stream_output_adapter@_W@__crt_stdio_output@@@2@@__crt_stdio_output@@AAE_NXZ 10042ceb f i libucrt:output.obj
 0001:00041ec6       ?state_case_size@?$output_processor@_WV?$stream_output_adapter@_W@__crt_stdio_output@@V?$positional_parameter_base@_WV?$stream_output_adapter@_W@__crt_stdio_output@@@2@@__crt_stdio_output@@AAE_NXZ 10042ec6 f i libucrt:output.obj
 0001:000420a1       ?state_case_size@?$output_processor@_WV?$stream_output_adapter@_W@__crt_stdio_output@@V?$standard_base@_WV?$stream_output_adapter@_W@__crt_stdio_output@@@2@@__crt_stdio_output@@AAE_NXZ 100430a1 f i libucrt:output.obj
 0001:0004227c       ?state_case_size@?$output_processor@_WV?$string_output_adapter@_W@__crt_stdio_output@@V?$format_validation_base@_WV?$string_output_adapter@_W@__crt_stdio_output@@@2@@__crt_stdio_output@@AAE_NXZ 1004327c f i libucrt:output.obj
 0001:00042457       ?state_case_size@?$output_processor@_WV?$string_output_adapter@_W@__crt_stdio_output@@V?$positional_parameter_base@_WV?$string_output_adapter@_W@__crt_stdio_output@@@2@@__crt_stdio_output@@AAE_NXZ 10043457 f i libucrt:output.obj
 0001:00042632       ?state_case_size@?$output_processor@_WV?$string_output_adapter@_W@__crt_stdio_output@@V?$standard_base@_WV?$string_output_adapter@_W@__crt_stdio_output@@@2@@__crt_stdio_output@@AAE_NXZ 10043632 f i libucrt:output.obj
 0001:0004280d       ?state_case_type@?$output_processor@DV?$stream_output_adapter@D@__crt_stdio_output@@V?$format_validation_base@DV?$stream_output_adapter@D@__crt_stdio_output@@@2@@__crt_stdio_output@@AAE_NXZ 1004380d f i libucrt:output.obj
 0001:00042ac7       ?state_case_type@?$output_processor@DV?$stream_output_adapter@D@__crt_stdio_output@@V?$positional_parameter_base@DV?$stream_output_adapter@D@__crt_stdio_output@@@2@@__crt_stdio_output@@AAE_NXZ 10043ac7 f i libucrt:output.obj
 0001:00042d8f       ?state_case_type@?$output_processor@DV?$stream_output_adapter@D@__crt_stdio_output@@V?$standard_base@DV?$stream_output_adapter@D@__crt_stdio_output@@@2@@__crt_stdio_output@@AAE_NXZ 10043d8f f i libucrt:output.obj
 0001:00043049       ?state_case_type@?$output_processor@DV?$string_output_adapter@D@__crt_stdio_output@@V?$format_validation_base@DV?$string_output_adapter@D@__crt_stdio_output@@@2@@__crt_stdio_output@@AAE_NXZ 10044049 f i libucrt:output.obj
 0001:00043303       ?state_case_type@?$output_processor@DV?$string_output_adapter@D@__crt_stdio_output@@V?$positional_parameter_base@DV?$string_output_adapter@D@__crt_stdio_output@@@2@@__crt_stdio_output@@AAE_NXZ 10044303 f i libucrt:output.obj
 0001:000435cb       ?state_case_type@?$output_processor@DV?$string_output_adapter@D@__crt_stdio_output@@V?$standard_base@DV?$string_output_adapter@D@__crt_stdio_output@@@2@@__crt_stdio_output@@AAE_NXZ 100445cb f i libucrt:output.obj
 0001:00043885       ?state_case_type@?$output_processor@_WV?$stream_output_adapter@_W@__crt_stdio_output@@V?$format_validation_base@_WV?$stream_output_adapter@_W@__crt_stdio_output@@@2@@__crt_stdio_output@@AAE_NXZ 10044885 f i libucrt:output.obj
 0001:00043b79       ?state_case_type@?$output_processor@_WV?$stream_output_adapter@_W@__crt_stdio_output@@V?$positional_parameter_base@_WV?$stream_output_adapter@_W@__crt_stdio_output@@@2@@__crt_stdio_output@@AAE_NXZ 10044b79 f i libucrt:output.obj
 0001:00043e80       ?state_case_type@?$output_processor@_WV?$stream_output_adapter@_W@__crt_stdio_output@@V?$standard_base@_WV?$stream_output_adapter@_W@__crt_stdio_output@@@2@@__crt_stdio_output@@AAE_NXZ 10044e80 f i libucrt:output.obj
 0001:00044174       ?state_case_type@?$output_processor@_WV?$string_output_adapter@_W@__crt_stdio_output@@V?$format_validation_base@_WV?$string_output_adapter@_W@__crt_stdio_output@@@2@@__crt_stdio_output@@AAE_NXZ 10045174 f i libucrt:output.obj
 0001:00044468       ?state_case_type@?$output_processor@_WV?$string_output_adapter@_W@__crt_stdio_output@@V?$positional_parameter_base@_WV?$string_output_adapter@_W@__crt_stdio_output@@@2@@__crt_stdio_output@@AAE_NXZ 10045468 f i libucrt:output.obj
 0001:0004476f       ?state_case_type@?$output_processor@_WV?$string_output_adapter@_W@__crt_stdio_output@@V?$standard_base@_WV?$string_output_adapter@_W@__crt_stdio_output@@@2@@__crt_stdio_output@@AAE_NXZ 1004576f f i libucrt:output.obj
 0001:00044a63       ?state_case_width@?$output_processor@DV?$stream_output_adapter@D@__crt_stdio_output@@V?$format_validation_base@DV?$stream_output_adapter@D@__crt_stdio_output@@@2@@__crt_stdio_output@@AAE_NXZ 10045a63 f i libucrt:output.obj
 0001:00044a98       ?state_case_width@?$output_processor@DV?$stream_output_adapter@D@__crt_stdio_output@@V?$positional_parameter_base@DV?$stream_output_adapter@D@__crt_stdio_output@@@2@@__crt_stdio_output@@AAE_NXZ 10045a98 f i libucrt:output.obj
 0001:00044ae8       ?state_case_width@?$output_processor@DV?$stream_output_adapter@D@__crt_stdio_output@@V?$standard_base@DV?$stream_output_adapter@D@__crt_stdio_output@@@2@@__crt_stdio_output@@AAE_NXZ 10045ae8 f i libucrt:output.obj
 0001:00044b1d       ?state_case_width@?$output_processor@DV?$string_output_adapter@D@__crt_stdio_output@@V?$format_validation_base@DV?$string_output_adapter@D@__crt_stdio_output@@@2@@__crt_stdio_output@@AAE_NXZ 10045b1d f i libucrt:output.obj
 0001:00044b52       ?state_case_width@?$output_processor@DV?$string_output_adapter@D@__crt_stdio_output@@V?$positional_parameter_base@DV?$string_output_adapter@D@__crt_stdio_output@@@2@@__crt_stdio_output@@AAE_NXZ 10045b52 f i libucrt:output.obj
 0001:00044ba2       ?state_case_width@?$output_processor@DV?$string_output_adapter@D@__crt_stdio_output@@V?$standard_base@DV?$string_output_adapter@D@__crt_stdio_output@@@2@@__crt_stdio_output@@AAE_NXZ 10045ba2 f i libucrt:output.obj
 0001:00044bd7       ?state_case_width@?$output_processor@_WV?$stream_output_adapter@_W@__crt_stdio_output@@V?$format_validation_base@_WV?$stream_output_adapter@_W@__crt_stdio_output@@@2@@__crt_stdio_output@@AAE_NXZ 10045bd7 f i libucrt:output.obj
 0001:00044c0e       ?state_case_width@?$output_processor@_WV?$stream_output_adapter@_W@__crt_stdio_output@@V?$positional_parameter_base@_WV?$stream_output_adapter@_W@__crt_stdio_output@@@2@@__crt_stdio_output@@AAE_NXZ 10045c0e f i libucrt:output.obj
 0001:00044c5f       ?state_case_width@?$output_processor@_WV?$stream_output_adapter@_W@__crt_stdio_output@@V?$standard_base@_WV?$stream_output_adapter@_W@__crt_stdio_output@@@2@@__crt_stdio_output@@AAE_NXZ 10045c5f f i libucrt:output.obj
 0001:00044c96       ?state_case_width@?$output_processor@_WV?$string_output_adapter@_W@__crt_stdio_output@@V?$format_validation_base@_WV?$string_output_adapter@_W@__crt_stdio_output@@@2@@__crt_stdio_output@@AAE_NXZ 10045c96 f i libucrt:output.obj
 0001:00044ccd       ?state_case_width@?$output_processor@_WV?$string_output_adapter@_W@__crt_stdio_output@@V?$positional_parameter_base@_WV?$string_output_adapter@_W@__crt_stdio_output@@@2@@__crt_stdio_output@@AAE_NXZ 10045ccd f i libucrt:output.obj
 0001:00044d1e       ?state_case_width@?$output_processor@_WV?$string_output_adapter@_W@__crt_stdio_output@@V?$standard_base@_WV?$string_output_adapter@_W@__crt_stdio_output@@@2@@__crt_stdio_output@@AAE_NXZ 10045d1e f i libucrt:output.obj
 0001:00044d55       ?state_count@?$format_validation_base@DV?$stream_output_adapter@D@__crt_stdio_output@@@__crt_stdio_output@@KAIXZ 10045d55 f i libucrt:output.obj
 0001:00044d59       ?state_count@?$format_validation_base@DV?$string_output_adapter@D@__crt_stdio_output@@@__crt_stdio_output@@KAIXZ 10045d59 f i libucrt:output.obj
 0001:00044d5d       ?state_count@?$format_validation_base@_WV?$stream_output_adapter@_W@__crt_stdio_output@@@__crt_stdio_output@@KAIXZ 10045d5d f i libucrt:output.obj
 0001:00044d61       ?state_count@?$format_validation_base@_WV?$string_output_adapter@_W@__crt_stdio_output@@@__crt_stdio_output@@KAIXZ 10045d61 f i libucrt:output.obj
 0001:00044d65       ?state_count@?$standard_base@DV?$stream_output_adapter@D@__crt_stdio_output@@@__crt_stdio_output@@KAIXZ 10045d65 f i libucrt:output.obj
 0001:00044d69       ?state_count@?$standard_base@DV?$string_output_adapter@D@__crt_stdio_output@@@__crt_stdio_output@@KAIXZ 10045d69 f i libucrt:output.obj
 0001:00044d6d       ?state_count@?$standard_base@_WV?$stream_output_adapter@_W@__crt_stdio_output@@@__crt_stdio_output@@KAIXZ 10045d6d f i libucrt:output.obj
 0001:00044d71       ?state_count@?$standard_base@_WV?$string_output_adapter@_W@__crt_stdio_output@@@__crt_stdio_output@@KAIXZ 10045d71 f i libucrt:output.obj
 0001:00044d75       ?state_transition_table@?$format_validation_base@DV?$stream_output_adapter@D@__crt_stdio_output@@@__crt_stdio_output@@KAPBEXZ 10045d75 f i libucrt:output.obj
 0001:00044d7b       ?state_transition_table@?$format_validation_base@DV?$string_output_adapter@D@__crt_stdio_output@@@__crt_stdio_output@@KAPBEXZ 10045d7b f i libucrt:output.obj
 0001:00044d81       ?state_transition_table@?$format_validation_base@_WV?$stream_output_adapter@_W@__crt_stdio_output@@@__crt_stdio_output@@KAPBEXZ 10045d81 f i libucrt:output.obj
 0001:00044d87       ?state_transition_table@?$format_validation_base@_WV?$string_output_adapter@_W@__crt_stdio_output@@@__crt_stdio_output@@KAPBEXZ 10045d87 f i libucrt:output.obj
 0001:00044d8d       ?state_transition_table@?$standard_base@DV?$stream_output_adapter@D@__crt_stdio_output@@@__crt_stdio_output@@KAPBEXZ 10045d8d f i libucrt:output.obj
 0001:00044d93       ?state_transition_table@?$standard_base@DV?$string_output_adapter@D@__crt_stdio_output@@@__crt_stdio_output@@KAPBEXZ 10045d93 f i libucrt:output.obj
 0001:00044d99       ?state_transition_table@?$standard_base@_WV?$stream_output_adapter@_W@__crt_stdio_output@@@__crt_stdio_output@@KAPBEXZ 10045d99 f i libucrt:output.obj
 0001:00044d9f       ?state_transition_table@?$standard_base@_WV?$string_output_adapter@_W@__crt_stdio_output@@@__crt_stdio_output@@KAPBEXZ 10045d9f f i libucrt:output.obj
 0001:00044da5       ?to_integer_size@__crt_stdio_output@@YAIW4length_modifier@1@@Z 10045da5 f i libucrt:output.obj
 0001:00044e18       ?type_case_X@?$output_processor@DV?$stream_output_adapter@D@__crt_stdio_output@@V?$format_validation_base@DV?$stream_output_adapter@D@__crt_stdio_output@@@2@@__crt_stdio_output@@AAE_NXZ 10045e18 f i libucrt:output.obj
 0001:00044e24       ?type_case_X@?$output_processor@DV?$stream_output_adapter@D@__crt_stdio_output@@V?$positional_parameter_base@DV?$stream_output_adapter@D@__crt_stdio_output@@@2@@__crt_stdio_output@@AAE_NXZ 10045e24 f i libucrt:output.obj
 0001:00044e30       ?type_case_X@?$output_processor@DV?$stream_output_adapter@D@__crt_stdio_output@@V?$standard_base@DV?$stream_output_adapter@D@__crt_stdio_output@@@2@@__crt_stdio_output@@AAE_NXZ 10045e30 f i libucrt:output.obj
 0001:00044e3c       ?type_case_X@?$output_processor@DV?$string_output_adapter@D@__crt_stdio_output@@V?$format_validation_base@DV?$string_output_adapter@D@__crt_stdio_output@@@2@@__crt_stdio_output@@AAE_NXZ 10045e3c f i libucrt:output.obj
 0001:00044e48       ?type_case_X@?$output_processor@DV?$string_output_adapter@D@__crt_stdio_output@@V?$positional_parameter_base@DV?$string_output_adapter@D@__crt_stdio_output@@@2@@__crt_stdio_output@@AAE_NXZ 10045e48 f i libucrt:output.obj
 0001:00044e54       ?type_case_X@?$output_processor@DV?$string_output_adapter@D@__crt_stdio_output@@V?$standard_base@DV?$string_output_adapter@D@__crt_stdio_output@@@2@@__crt_stdio_output@@AAE_NXZ 10045e54 f i libucrt:output.obj
 0001:00044e60       ?type_case_X@?$output_processor@_WV?$stream_output_adapter@_W@__crt_stdio_output@@V?$format_validation_base@_WV?$stream_output_adapter@_W@__crt_stdio_output@@@2@@__crt_stdio_output@@AAE_NXZ 10045e60 f i libucrt:output.obj
 0001:00044e6c       ?type_case_X@?$output_processor@_WV?$stream_output_adapter@_W@__crt_stdio_output@@V?$positional_parameter_base@_WV?$stream_output_adapter@_W@__crt_stdio_output@@@2@@__crt_stdio_output@@AAE_NXZ 10045e6c f i libucrt:output.obj
 0001:00044e78       ?type_case_X@?$output_processor@_WV?$stream_output_adapter@_W@__crt_stdio_output@@V?$standard_base@_WV?$stream_output_adapter@_W@__crt_stdio_output@@@2@@__crt_stdio_output@@AAE_NXZ 10045e78 f i libucrt:output.obj
 0001:00044e84       ?type_case_X@?$output_processor@_WV?$string_output_adapter@_W@__crt_stdio_output@@V?$format_validation_base@_WV?$string_output_adapter@_W@__crt_stdio_output@@@2@@__crt_stdio_output@@AAE_NXZ 10045e84 f i libucrt:output.obj
 0001:00044e90       ?type_case_X@?$output_processor@_WV?$string_output_adapter@_W@__crt_stdio_output@@V?$positional_parameter_base@_WV?$string_output_adapter@_W@__crt_stdio_output@@@2@@__crt_stdio_output@@AAE_NXZ 10045e90 f i libucrt:output.obj
 0001:00044e9c       ?type_case_X@?$output_processor@_WV?$string_output_adapter@_W@__crt_stdio_output@@V?$standard_base@_WV?$string_output_adapter@_W@__crt_stdio_output@@@2@@__crt_stdio_output@@AAE_NXZ 10045e9c f i libucrt:output.obj
 0001:00044ea8       ?type_case_Z@?$output_processor@DV?$stream_output_adapter@D@__crt_stdio_output@@V?$format_validation_base@DV?$stream_output_adapter@D@__crt_stdio_output@@@2@@__crt_stdio_output@@AAE_NXZ 10045ea8 f i libucrt:output.obj
 0001:00044f23       ?type_case_Z@?$output_processor@DV?$stream_output_adapter@D@__crt_stdio_output@@V?$positional_parameter_base@DV?$stream_output_adapter@D@__crt_stdio_output@@@2@@__crt_stdio_output@@AAE_NXZ 10045f23 f i libucrt:output.obj
 0001:00044fc1       ?type_case_Z@?$output_processor@DV?$stream_output_adapter@D@__crt_stdio_output@@V?$standard_base@DV?$stream_output_adapter@D@__crt_stdio_output@@@2@@__crt_stdio_output@@AAE_NXZ 10045fc1 f i libucrt:output.obj
 0001:0004503c       ?type_case_Z@?$output_processor@DV?$string_output_adapter@D@__crt_stdio_output@@V?$format_validation_base@DV?$string_output_adapter@D@__crt_stdio_output@@@2@@__crt_stdio_output@@AAE_NXZ 1004603c f i libucrt:output.obj
 0001:000450b7       ?type_case_Z@?$output_processor@DV?$string_output_adapter@D@__crt_stdio_output@@V?$positional_parameter_base@DV?$string_output_adapter@D@__crt_stdio_output@@@2@@__crt_stdio_output@@AAE_NXZ 100460b7 f i libucrt:output.obj
 0001:00045155       ?type_case_Z@?$output_processor@DV?$string_output_adapter@D@__crt_stdio_output@@V?$standard_base@DV?$string_output_adapter@D@__crt_stdio_output@@@2@@__crt_stdio_output@@AAE_NXZ 10046155 f i libucrt:output.obj
 0001:000451d0       ?type_case_Z@?$output_processor@_WV?$stream_output_adapter@_W@__crt_stdio_output@@V?$format_validation_base@_WV?$stream_output_adapter@_W@__crt_stdio_output@@@2@@__crt_stdio_output@@AAE_NXZ 100461d0 f i libucrt:output.obj
 0001:0004524b       ?type_case_Z@?$output_processor@_WV?$stream_output_adapter@_W@__crt_stdio_output@@V?$positional_parameter_base@_WV?$stream_output_adapter@_W@__crt_stdio_output@@@2@@__crt_stdio_output@@AAE_NXZ 1004624b f i libucrt:output.obj
 0001:000452e9       ?type_case_Z@?$output_processor@_WV?$stream_output_adapter@_W@__crt_stdio_output@@V?$standard_base@_WV?$stream_output_adapter@_W@__crt_stdio_output@@@2@@__crt_stdio_output@@AAE_NXZ 100462e9 f i libucrt:output.obj
 0001:00045364       ?type_case_Z@?$output_processor@_WV?$string_output_adapter@_W@__crt_stdio_output@@V?$format_validation_base@_WV?$string_output_adapter@_W@__crt_stdio_output@@@2@@__crt_stdio_output@@AAE_NXZ 10046364 f i libucrt:output.obj
 0001:000453df       ?type_case_Z@?$output_processor@_WV?$string_output_adapter@_W@__crt_stdio_output@@V?$positional_parameter_base@_WV?$string_output_adapter@_W@__crt_stdio_output@@@2@@__crt_stdio_output@@AAE_NXZ 100463df f i libucrt:output.obj
 0001:0004547d       ?type_case_Z@?$output_processor@_WV?$string_output_adapter@_W@__crt_stdio_output@@V?$standard_base@_WV?$string_output_adapter@_W@__crt_stdio_output@@@2@@__crt_stdio_output@@AAE_NXZ 1004647d f i libucrt:output.obj
 0001:000454f8       ?type_case_a@?$output_processor@DV?$stream_output_adapter@D@__crt_stdio_output@@V?$format_validation_base@DV?$stream_output_adapter@D@__crt_stdio_output@@@2@@__crt_stdio_output@@AAE_NXZ 100464f8 f i libucrt:output.obj
 0001:000456a8       ?type_case_a@?$output_processor@DV?$stream_output_adapter@D@__crt_stdio_output@@V?$positional_parameter_base@DV?$stream_output_adapter@D@__crt_stdio_output@@@2@@__crt_stdio_output@@AAE_NXZ 100466a8 f i libucrt:output.obj
 0001:0004587f       ?type_case_a@?$output_processor@DV?$stream_output_adapter@D@__crt_stdio_output@@V?$standard_base@DV?$stream_output_adapter@D@__crt_stdio_output@@@2@@__crt_stdio_output@@AAE_NXZ 1004687f f i libucrt:output.obj
 0001:00045a2f       ?type_case_a@?$output_processor@DV?$string_output_adapter@D@__crt_stdio_output@@V?$format_validation_base@DV?$string_output_adapter@D@__crt_stdio_output@@@2@@__crt_stdio_output@@AAE_NXZ 10046a2f f i libucrt:output.obj
 0001:00045bdf       ?type_case_a@?$output_processor@DV?$string_output_adapter@D@__crt_stdio_output@@V?$positional_parameter_base@DV?$string_output_adapter@D@__crt_stdio_output@@@2@@__crt_stdio_output@@AAE_NXZ 10046bdf f i libucrt:output.obj
 0001:00045db6       ?type_case_a@?$output_processor@DV?$string_output_adapter@D@__crt_stdio_output@@V?$standard_base@DV?$string_output_adapter@D@__crt_stdio_output@@@2@@__crt_stdio_output@@AAE_NXZ 10046db6 f i libucrt:output.obj
 0001:00045f66       ?type_case_a@?$output_processor@_WV?$stream_output_adapter@_W@__crt_stdio_output@@V?$format_validation_base@_WV?$stream_output_adapter@_W@__crt_stdio_output@@@2@@__crt_stdio_output@@AAE_NXZ 10046f66 f i libucrt:output.obj
 0001:00046134       ?type_case_a@?$output_processor@_WV?$stream_output_adapter@_W@__crt_stdio_output@@V?$positional_parameter_base@_WV?$stream_output_adapter@_W@__crt_stdio_output@@@2@@__crt_stdio_output@@AAE_NXZ 10047134 f i libucrt:output.obj
 0001:00046329       ?type_case_a@?$output_processor@_WV?$stream_output_adapter@_W@__crt_stdio_output@@V?$standard_base@_WV?$stream_output_adapter@_W@__crt_stdio_output@@@2@@__crt_stdio_output@@AAE_NXZ 10047329 f i libucrt:output.obj
 0001:000464f7       ?type_case_a@?$output_processor@_WV?$string_output_adapter@_W@__crt_stdio_output@@V?$format_validation_base@_WV?$string_output_adapter@_W@__crt_stdio_output@@@2@@__crt_stdio_output@@AAE_NXZ 100474f7 f i libucrt:output.obj
 0001:000466c5       ?type_case_a@?$output_processor@_WV?$string_output_adapter@_W@__crt_stdio_output@@V?$positional_parameter_base@_WV?$string_output_adapter@_W@__crt_stdio_output@@@2@@__crt_stdio_output@@AAE_NXZ 100476c5 f i libucrt:output.obj
 0001:000468ba       ?type_case_a@?$output_processor@_WV?$string_output_adapter@_W@__crt_stdio_output@@V?$standard_base@_WV?$string_output_adapter@_W@__crt_stdio_output@@@2@@__crt_stdio_output@@AAE_NXZ 100478ba f i libucrt:output.obj
 0001:00046a88       ?type_case_c@?$output_processor@DV?$stream_output_adapter@D@__crt_stdio_output@@V?$format_validation_base@DV?$stream_output_adapter@D@__crt_stdio_output@@@2@@__crt_stdio_output@@AAE_NXZ 10047a88 f i libucrt:output.obj
 0001:00046a92       ?type_case_c@?$output_processor@DV?$stream_output_adapter@D@__crt_stdio_output@@V?$positional_parameter_base@DV?$stream_output_adapter@D@__crt_stdio_output@@@2@@__crt_stdio_output@@AAE_NXZ 10047a92 f i libucrt:output.obj
 0001:00046a9c       ?type_case_c@?$output_processor@DV?$stream_output_adapter@D@__crt_stdio_output@@V?$standard_base@DV?$stream_output_adapter@D@__crt_stdio_output@@@2@@__crt_stdio_output@@AAE_NXZ 10047a9c f i libucrt:output.obj
 0001:00046aa6       ?type_case_c@?$output_processor@DV?$string_output_adapter@D@__crt_stdio_output@@V?$format_validation_base@DV?$string_output_adapter@D@__crt_stdio_output@@@2@@__crt_stdio_output@@AAE_NXZ 10047aa6 f i libucrt:output.obj
 0001:00046ab0       ?type_case_c@?$output_processor@DV?$string_output_adapter@D@__crt_stdio_output@@V?$positional_parameter_base@DV?$string_output_adapter@D@__crt_stdio_output@@@2@@__crt_stdio_output@@AAE_NXZ 10047ab0 f i libucrt:output.obj
 0001:00046aba       ?type_case_c@?$output_processor@DV?$string_output_adapter@D@__crt_stdio_output@@V?$standard_base@DV?$string_output_adapter@D@__crt_stdio_output@@@2@@__crt_stdio_output@@AAE_NXZ 10047aba f i libucrt:output.obj
 0001:00046ac4       ?type_case_c@?$output_processor@_WV?$stream_output_adapter@_W@__crt_stdio_output@@V?$format_validation_base@_WV?$stream_output_adapter@_W@__crt_stdio_output@@@2@@__crt_stdio_output@@AAE_NXZ 10047ac4 f i libucrt:output.obj
 0001:00046ace       ?type_case_c@?$output_processor@_WV?$stream_output_adapter@_W@__crt_stdio_output@@V?$positional_parameter_base@_WV?$stream_output_adapter@_W@__crt_stdio_output@@@2@@__crt_stdio_output@@AAE_NXZ 10047ace f i libucrt:output.obj
 0001:00046ad8       ?type_case_c@?$output_processor@_WV?$stream_output_adapter@_W@__crt_stdio_output@@V?$standard_base@_WV?$stream_output_adapter@_W@__crt_stdio_output@@@2@@__crt_stdio_output@@AAE_NXZ 10047ad8 f i libucrt:output.obj
 0001:00046ae2       ?type_case_c@?$output_processor@_WV?$string_output_adapter@_W@__crt_stdio_output@@V?$format_validation_base@_WV?$string_output_adapter@_W@__crt_stdio_output@@@2@@__crt_stdio_output@@AAE_NXZ 10047ae2 f i libucrt:output.obj
 0001:00046aec       ?type_case_c@?$output_processor@_WV?$string_output_adapter@_W@__crt_stdio_output@@V?$positional_parameter_base@_WV?$string_output_adapter@_W@__crt_stdio_output@@@2@@__crt_stdio_output@@AAE_NXZ 10047aec f i libucrt:output.obj
 0001:00046af6       ?type_case_c@?$output_processor@_WV?$string_output_adapter@_W@__crt_stdio_output@@V?$standard_base@_WV?$string_output_adapter@_W@__crt_stdio_output@@@2@@__crt_stdio_output@@AAE_NXZ 10047af6 f i libucrt:output.obj
 0001:00046b00       ?type_case_c_tchar@?$output_processor@DV?$stream_output_adapter@D@__crt_stdio_output@@V?$format_validation_base@DV?$stream_output_adapter@D@__crt_stdio_output@@@2@@__crt_stdio_output@@AAE_ND@Z 10047b00 f i libucrt:output.obj
 0001:00046bb4       ?type_case_c_tchar@?$output_processor@DV?$stream_output_adapter@D@__crt_stdio_output@@V?$positional_parameter_base@DV?$stream_output_adapter@D@__crt_stdio_output@@@2@@__crt_stdio_output@@AAE_ND@Z 10047bb4 f i libucrt:output.obj
 0001:00046ca4       ?type_case_c_tchar@?$output_processor@DV?$stream_output_adapter@D@__crt_stdio_output@@V?$standard_base@DV?$stream_output_adapter@D@__crt_stdio_output@@@2@@__crt_stdio_output@@AAE_ND@Z 10047ca4 f i libucrt:output.obj
 0001:00046d58       ?type_case_c_tchar@?$output_processor@DV?$string_output_adapter@D@__crt_stdio_output@@V?$format_validation_base@DV?$string_output_adapter@D@__crt_stdio_output@@@2@@__crt_stdio_output@@AAE_ND@Z 10047d58 f i libucrt:output.obj
 0001:00046e0c       ?type_case_c_tchar@?$output_processor@DV?$string_output_adapter@D@__crt_stdio_output@@V?$positional_parameter_base@DV?$string_output_adapter@D@__crt_stdio_output@@@2@@__crt_stdio_output@@AAE_ND@Z 10047e0c f i libucrt:output.obj
 0001:00046efc       ?type_case_c_tchar@?$output_processor@DV?$string_output_adapter@D@__crt_stdio_output@@V?$standard_base@DV?$string_output_adapter@D@__crt_stdio_output@@@2@@__crt_stdio_output@@AAE_ND@Z 10047efc f i libucrt:output.obj
 0001:00046fb0       ?type_case_c_tchar@?$output_processor@_WV?$stream_output_adapter@_W@__crt_stdio_output@@V?$format_validation_base@_WV?$stream_output_adapter@_W@__crt_stdio_output@@@2@@__crt_stdio_output@@AAE_N_W@Z 10047fb0 f i libucrt:output.obj
 0001:0004706e       ?type_case_c_tchar@?$output_processor@_WV?$stream_output_adapter@_W@__crt_stdio_output@@V?$positional_parameter_base@_WV?$stream_output_adapter@_W@__crt_stdio_output@@@2@@__crt_stdio_output@@AAE_N_W@Z 1004806e f i libucrt:output.obj
 0001:00047148       ?type_case_c_tchar@?$output_processor@_WV?$stream_output_adapter@_W@__crt_stdio_output@@V?$standard_base@_WV?$stream_output_adapter@_W@__crt_stdio_output@@@2@@__crt_stdio_output@@AAE_N_W@Z 10048148 f i libucrt:output.obj
 0001:00047206       ?type_case_c_tchar@?$output_processor@_WV?$string_output_adapter@_W@__crt_stdio_output@@V?$format_validation_base@_WV?$string_output_adapter@_W@__crt_stdio_output@@@2@@__crt_stdio_output@@AAE_N_W@Z 10048206 f i libucrt:output.obj
 0001:000472c4       ?type_case_c_tchar@?$output_processor@_WV?$string_output_adapter@_W@__crt_stdio_output@@V?$positional_parameter_base@_WV?$string_output_adapter@_W@__crt_stdio_output@@@2@@__crt_stdio_output@@AAE_N_W@Z 100482c4 f i libucrt:output.obj
 0001:0004739e       ?type_case_c_tchar@?$output_processor@_WV?$string_output_adapter@_W@__crt_stdio_output@@V?$standard_base@_WV?$string_output_adapter@_W@__crt_stdio_output@@@2@@__crt_stdio_output@@AAE_N_W@Z 1004839e f i libucrt:output.obj
 0001:0004745c       ?type_case_d@?$output_processor@DV?$stream_output_adapter@D@__crt_stdio_output@@V?$format_validation_base@DV?$stream_output_adapter@D@__crt_stdio_output@@@2@@__crt_stdio_output@@AAE_NXZ 1004845c f i libucrt:output.obj
 0001:0004746d       ?type_case_d@?$output_processor@DV?$stream_output_adapter@D@__crt_stdio_output@@V?$positional_parameter_base@DV?$stream_output_adapter@D@__crt_stdio_output@@@2@@__crt_stdio_output@@AAE_NXZ 1004846d f i libucrt:output.obj
 0001:0004747e       ?type_case_d@?$output_processor@DV?$stream_output_adapter@D@__crt_stdio_output@@V?$standard_base@DV?$stream_output_adapter@D@__crt_stdio_output@@@2@@__crt_stdio_output@@AAE_NXZ 1004847e f i libucrt:output.obj
 0001:0004748f       ?type_case_d@?$output_processor@DV?$string_output_adapter@D@__crt_stdio_output@@V?$format_validation_base@DV?$string_output_adapter@D@__crt_stdio_output@@@2@@__crt_stdio_output@@AAE_NXZ 1004848f f i libucrt:output.obj
 0001:000474a0       ?type_case_d@?$output_processor@DV?$string_output_adapter@D@__crt_stdio_output@@V?$positional_parameter_base@DV?$string_output_adapter@D@__crt_stdio_output@@@2@@__crt_stdio_output@@AAE_NXZ 100484a0 f i libucrt:output.obj
 0001:000474b1       ?type_case_d@?$output_processor@DV?$string_output_adapter@D@__crt_stdio_output@@V?$standard_base@DV?$string_output_adapter@D@__crt_stdio_output@@@2@@__crt_stdio_output@@AAE_NXZ 100484b1 f i libucrt:output.obj
 0001:000474c2       ?type_case_d@?$output_processor@_WV?$stream_output_adapter@_W@__crt_stdio_output@@V?$format_validation_base@_WV?$stream_output_adapter@_W@__crt_stdio_output@@@2@@__crt_stdio_output@@AAE_NXZ 100484c2 f i libucrt:output.obj
 0001:000474d3       ?type_case_d@?$output_processor@_WV?$stream_output_adapter@_W@__crt_stdio_output@@V?$positional_parameter_base@_WV?$stream_output_adapter@_W@__crt_stdio_output@@@2@@__crt_stdio_output@@AAE_NXZ 100484d3 f i libucrt:output.obj
 0001:000474e4       ?type_case_d@?$output_processor@_WV?$stream_output_adapter@_W@__crt_stdio_output@@V?$standard_base@_WV?$stream_output_adapter@_W@__crt_stdio_output@@@2@@__crt_stdio_output@@AAE_NXZ 100484e4 f i libucrt:output.obj
 0001:000474f5       ?type_case_d@?$output_processor@_WV?$string_output_adapter@_W@__crt_stdio_output@@V?$format_validation_base@_WV?$string_output_adapter@_W@__crt_stdio_output@@@2@@__crt_stdio_output@@AAE_NXZ 100484f5 f i libucrt:output.obj
 0001:00047506       ?type_case_d@?$output_processor@_WV?$string_output_adapter@_W@__crt_stdio_output@@V?$positional_parameter_base@_WV?$string_output_adapter@_W@__crt_stdio_output@@@2@@__crt_stdio_output@@AAE_NXZ 10048506 f i libucrt:output.obj
 0001:00047517       ?type_case_d@?$output_processor@_WV?$string_output_adapter@_W@__crt_stdio_output@@V?$standard_base@_WV?$string_output_adapter@_W@__crt_stdio_output@@@2@@__crt_stdio_output@@AAE_NXZ 10048517 f i libucrt:output.obj
 0001:00047528       ?type_case_integer@?$output_processor@DV?$stream_output_adapter@D@__crt_stdio_output@@V?$format_validation_base@DV?$stream_output_adapter@D@__crt_stdio_output@@@2@@__crt_stdio_output@@AAE_NI_N@Z 10048528 f i libucrt:output.obj
 0001:000476c4       ?type_case_integer@?$output_processor@DV?$stream_output_adapter@D@__crt_stdio_output@@V?$positional_parameter_base@DV?$stream_output_adapter@D@__crt_stdio_output@@@2@@__crt_stdio_output@@AAE_NI_N@Z 100486c4 f i libucrt:output.obj
 0001:000478a1       ?type_case_integer@?$output_processor@DV?$stream_output_adapter@D@__crt_stdio_output@@V?$standard_base@DV?$stream_output_adapter@D@__crt_stdio_output@@@2@@__crt_stdio_output@@AAE_NI_N@Z 100488a1 f i libucrt:output.obj
 0001:00047a3d       ?type_case_integer@?$output_processor@DV?$string_output_adapter@D@__crt_stdio_output@@V?$format_validation_base@DV?$string_output_adapter@D@__crt_stdio_output@@@2@@__crt_stdio_output@@AAE_NI_N@Z 10048a3d f i libucrt:output.obj
 0001:00047bd9       ?type_case_integer@?$output_processor@DV?$string_output_adapter@D@__crt_stdio_output@@V?$positional_parameter_base@DV?$string_output_adapter@D@__crt_stdio_output@@@2@@__crt_stdio_output@@AAE_NI_N@Z 10048bd9 f i libucrt:output.obj
 0001:00047db6       ?type_case_integer@?$output_processor@DV?$string_output_adapter@D@__crt_stdio_output@@V?$standard_base@DV?$string_output_adapter@D@__crt_stdio_output@@@2@@__crt_stdio_output@@AAE_NI_N@Z 10048db6 f i libucrt:output.obj
 0001:00047f52       ?type_case_integer@?$output_processor@_WV?$stream_output_adapter@_W@__crt_stdio_output@@V?$format_validation_base@_WV?$stream_output_adapter@_W@__crt_stdio_output@@@2@@__crt_stdio_output@@AAE_NI_N@Z 10048f52 f i libucrt:output.obj
 0001:000480ee       ?type_case_integer@?$output_processor@_WV?$stream_output_adapter@_W@__crt_stdio_output@@V?$positional_parameter_base@_WV?$stream_output_adapter@_W@__crt_stdio_output@@@2@@__crt_stdio_output@@AAE_NI_N@Z 100490ee f i libucrt:output.obj
 0001:000482cb       ?type_case_integer@?$output_processor@_WV?$stream_output_adapter@_W@__crt_stdio_output@@V?$standard_base@_WV?$stream_output_adapter@_W@__crt_stdio_output@@@2@@__crt_stdio_output@@AAE_NI_N@Z 100492cb f i libucrt:output.obj
 0001:00048467       ?type_case_integer@?$output_processor@_WV?$string_output_adapter@_W@__crt_stdio_output@@V?$format_validation_base@_WV?$string_output_adapter@_W@__crt_stdio_output@@@2@@__crt_stdio_output@@AAE_NI_N@Z 10049467 f i libucrt:output.obj
 0001:00048603       ?type_case_integer@?$output_processor@_WV?$string_output_adapter@_W@__crt_stdio_output@@V?$positional_parameter_base@_WV?$string_output_adapter@_W@__crt_stdio_output@@@2@@__crt_stdio_output@@AAE_NI_N@Z 10049603 f i libucrt:output.obj
 0001:000487e0       ?type_case_integer@?$output_processor@_WV?$string_output_adapter@_W@__crt_stdio_output@@V?$standard_base@_WV?$string_output_adapter@_W@__crt_stdio_output@@@2@@__crt_stdio_output@@AAE_NI_N@Z 100497e0 f i libucrt:output.obj
 0001:0004897c       ?type_case_n@?$output_processor@DV?$stream_output_adapter@D@__crt_stdio_output@@V?$format_validation_base@DV?$stream_output_adapter@D@__crt_stdio_output@@@2@@__crt_stdio_output@@AAE_NXZ 1004997c f i libucrt:output.obj
 0001:00048a0d       ?type_case_n@?$output_processor@DV?$stream_output_adapter@D@__crt_stdio_output@@V?$positional_parameter_base@DV?$stream_output_adapter@D@__crt_stdio_output@@@2@@__crt_stdio_output@@AAE_NXZ 10049a0d f i libucrt:output.obj
 0001:00048acc       ?type_case_n@?$output_processor@DV?$stream_output_adapter@D@__crt_stdio_output@@V?$standard_base@DV?$stream_output_adapter@D@__crt_stdio_output@@@2@@__crt_stdio_output@@AAE_NXZ 10049acc f i libucrt:output.obj
 0001:00048b5d       ?type_case_n@?$output_processor@DV?$string_output_adapter@D@__crt_stdio_output@@V?$format_validation_base@DV?$string_output_adapter@D@__crt_stdio_output@@@2@@__crt_stdio_output@@AAE_NXZ 10049b5d f i libucrt:output.obj
 0001:00048bee       ?type_case_n@?$output_processor@DV?$string_output_adapter@D@__crt_stdio_output@@V?$positional_parameter_base@DV?$string_output_adapter@D@__crt_stdio_output@@@2@@__crt_stdio_output@@AAE_NXZ 10049bee f i libucrt:output.obj
 0001:00048cad       ?type_case_n@?$output_processor@DV?$string_output_adapter@D@__crt_stdio_output@@V?$standard_base@DV?$string_output_adapter@D@__crt_stdio_output@@@2@@__crt_stdio_output@@AAE_NXZ 10049cad f i libucrt:output.obj
 0001:00048d3e       ?type_case_n@?$output_processor@_WV?$stream_output_adapter@_W@__crt_stdio_output@@V?$format_validation_base@_WV?$stream_output_adapter@_W@__crt_stdio_output@@@2@@__crt_stdio_output@@AAE_NXZ 10049d3e f i libucrt:output.obj
 0001:00048dcf       ?type_case_n@?$output_processor@_WV?$stream_output_adapter@_W@__crt_stdio_output@@V?$positional_parameter_base@_WV?$stream_output_adapter@_W@__crt_stdio_output@@@2@@__crt_stdio_output@@AAE_NXZ 10049dcf f i libucrt:output.obj
 0001:00048e8e       ?type_case_n@?$output_processor@_WV?$stream_output_adapter@_W@__crt_stdio_output@@V?$standard_base@_WV?$stream_output_adapter@_W@__crt_stdio_output@@@2@@__crt_stdio_output@@AAE_NXZ 10049e8e f i libucrt:output.obj
 0001:00048f1f       ?type_case_n@?$output_processor@_WV?$string_output_adapter@_W@__crt_stdio_output@@V?$format_validation_base@_WV?$string_output_adapter@_W@__crt_stdio_output@@@2@@__crt_stdio_output@@AAE_NXZ 10049f1f f i libucrt:output.obj
 0001:00048fb0       ?type_case_n@?$output_processor@_WV?$string_output_adapter@_W@__crt_stdio_output@@V?$positional_parameter_base@_WV?$string_output_adapter@_W@__crt_stdio_output@@@2@@__crt_stdio_output@@AAE_NXZ 10049fb0 f i libucrt:output.obj
 0001:0004906f       ?type_case_n@?$output_processor@_WV?$string_output_adapter@_W@__crt_stdio_output@@V?$standard_base@_WV?$string_output_adapter@_W@__crt_stdio_output@@@2@@__crt_stdio_output@@AAE_NXZ 1004a06f f i libucrt:output.obj
 0001:00049100       ?type_case_o@?$output_processor@DV?$stream_output_adapter@D@__crt_stdio_output@@V?$format_validation_base@DV?$stream_output_adapter@D@__crt_stdio_output@@@2@@__crt_stdio_output@@AAE_NXZ 1004a100 f i libucrt:output.obj
 0001:00049126       ?type_case_o@?$output_processor@DV?$stream_output_adapter@D@__crt_stdio_output@@V?$positional_parameter_base@DV?$stream_output_adapter@D@__crt_stdio_output@@@2@@__crt_stdio_output@@AAE_NXZ 1004a126 f i libucrt:output.obj
 0001:0004914c       ?type_case_o@?$output_processor@DV?$stream_output_adapter@D@__crt_stdio_output@@V?$standard_base@DV?$stream_output_adapter@D@__crt_stdio_output@@@2@@__crt_stdio_output@@AAE_NXZ 1004a14c f i libucrt:output.obj
 0001:00049172       ?type_case_o@?$output_processor@DV?$string_output_adapter@D@__crt_stdio_output@@V?$format_validation_base@DV?$string_output_adapter@D@__crt_stdio_output@@@2@@__crt_stdio_output@@AAE_NXZ 1004a172 f i libucrt:output.obj
 0001:00049198       ?type_case_o@?$output_processor@DV?$string_output_adapter@D@__crt_stdio_output@@V?$positional_parameter_base@DV?$string_output_adapter@D@__crt_stdio_output@@@2@@__crt_stdio_output@@AAE_NXZ 1004a198 f i libucrt:output.obj
 0001:000491be       ?type_case_o@?$output_processor@DV?$string_output_adapter@D@__crt_stdio_output@@V?$standard_base@DV?$string_output_adapter@D@__crt_stdio_output@@@2@@__crt_stdio_output@@AAE_NXZ 1004a1be f i libucrt:output.obj
 0001:000491e4       ?type_case_o@?$output_processor@_WV?$stream_output_adapter@_W@__crt_stdio_output@@V?$format_validation_base@_WV?$stream_output_adapter@_W@__crt_stdio_output@@@2@@__crt_stdio_output@@AAE_NXZ 1004a1e4 f i libucrt:output.obj
 0001:0004920a       ?type_case_o@?$output_processor@_WV?$stream_output_adapter@_W@__crt_stdio_output@@V?$positional_parameter_base@_WV?$stream_output_adapter@_W@__crt_stdio_output@@@2@@__crt_stdio_output@@AAE_NXZ 1004a20a f i libucrt:output.obj
 0001:00049230       ?type_case_o@?$output_processor@_WV?$stream_output_adapter@_W@__crt_stdio_output@@V?$standard_base@_WV?$stream_output_adapter@_W@__crt_stdio_output@@@2@@__crt_stdio_output@@AAE_NXZ 1004a230 f i libucrt:output.obj
 0001:00049256       ?type_case_o@?$output_processor@_WV?$string_output_adapter@_W@__crt_stdio_output@@V?$format_validation_base@_WV?$string_output_adapter@_W@__crt_stdio_output@@@2@@__crt_stdio_output@@AAE_NXZ 1004a256 f i libucrt:output.obj
 0001:0004927c       ?type_case_o@?$output_processor@_WV?$string_output_adapter@_W@__crt_stdio_output@@V?$positional_parameter_base@_WV?$string_output_adapter@_W@__crt_stdio_output@@@2@@__crt_stdio_output@@AAE_NXZ 1004a27c f i libucrt:output.obj
 0001:000492a2       ?type_case_o@?$output_processor@_WV?$string_output_adapter@_W@__crt_stdio_output@@V?$standard_base@_WV?$string_output_adapter@_W@__crt_stdio_output@@@2@@__crt_stdio_output@@AAE_NXZ 1004a2a2 f i libucrt:output.obj
 0001:000492c8       ?type_case_p@?$output_processor@DV?$stream_output_adapter@D@__crt_stdio_output@@V?$format_validation_base@DV?$stream_output_adapter@D@__crt_stdio_output@@@2@@__crt_stdio_output@@AAE_NXZ 1004a2c8 f i libucrt:output.obj
 0001:000492e6       ?type_case_p@?$output_processor@DV?$stream_output_adapter@D@__crt_stdio_output@@V?$positional_parameter_base@DV?$stream_output_adapter@D@__crt_stdio_output@@@2@@__crt_stdio_output@@AAE_NXZ 1004a2e6 f i libucrt:output.obj
 0001:00049304       ?type_case_p@?$output_processor@DV?$stream_output_adapter@D@__crt_stdio_output@@V?$standard_base@DV?$stream_output_adapter@D@__crt_stdio_output@@@2@@__crt_stdio_output@@AAE_NXZ 1004a304 f i libucrt:output.obj
 0001:00049322       ?type_case_p@?$output_processor@DV?$string_output_adapter@D@__crt_stdio_output@@V?$format_validation_base@DV?$string_output_adapter@D@__crt_stdio_output@@@2@@__crt_stdio_output@@AAE_NXZ 1004a322 f i libucrt:output.obj
 0001:00049340       ?type_case_p@?$output_processor@DV?$string_output_adapter@D@__crt_stdio_output@@V?$positional_parameter_base@DV?$string_output_adapter@D@__crt_stdio_output@@@2@@__crt_stdio_output@@AAE_NXZ 1004a340 f i libucrt:output.obj
 0001:0004935e       ?type_case_p@?$output_processor@DV?$string_output_adapter@D@__crt_stdio_output@@V?$standard_base@DV?$string_output_adapter@D@__crt_stdio_output@@@2@@__crt_stdio_output@@AAE_NXZ 1004a35e f i libucrt:output.obj
 0001:0004937c       ?type_case_p@?$output_processor@_WV?$stream_output_adapter@_W@__crt_stdio_output@@V?$format_validation_base@_WV?$stream_output_adapter@_W@__crt_stdio_output@@@2@@__crt_stdio_output@@AAE_NXZ 1004a37c f i libucrt:output.obj
 0001:0004939a       ?type_case_p@?$output_processor@_WV?$stream_output_adapter@_W@__crt_stdio_output@@V?$positional_parameter_base@_WV?$stream_output_adapter@_W@__crt_stdio_output@@@2@@__crt_stdio_output@@AAE_NXZ 1004a39a f i libucrt:output.obj
 0001:000493b8       ?type_case_p@?$output_processor@_WV?$stream_output_adapter@_W@__crt_stdio_output@@V?$standard_base@_WV?$stream_output_adapter@_W@__crt_stdio_output@@@2@@__crt_stdio_output@@AAE_NXZ 1004a3b8 f i libucrt:output.obj
 0001:000493d6       ?type_case_p@?$output_processor@_WV?$string_output_adapter@_W@__crt_stdio_output@@V?$format_validation_base@_WV?$string_output_adapter@_W@__crt_stdio_output@@@2@@__crt_stdio_output@@AAE_NXZ 1004a3d6 f i libucrt:output.obj
 0001:000493f4       ?type_case_p@?$output_processor@_WV?$string_output_adapter@_W@__crt_stdio_output@@V?$positional_parameter_base@_WV?$string_output_adapter@_W@__crt_stdio_output@@@2@@__crt_stdio_output@@AAE_NXZ 1004a3f4 f i libucrt:output.obj
 0001:00049412       ?type_case_p@?$output_processor@_WV?$string_output_adapter@_W@__crt_stdio_output@@V?$standard_base@_WV?$string_output_adapter@_W@__crt_stdio_output@@@2@@__crt_stdio_output@@AAE_NXZ 1004a412 f i libucrt:output.obj
 0001:00049430       ?type_case_s@?$output_processor@DV?$stream_output_adapter@D@__crt_stdio_output@@V?$format_validation_base@DV?$stream_output_adapter@D@__crt_stdio_output@@@2@@__crt_stdio_output@@AAE_NXZ 1004a430 f i libucrt:output.obj
 0001:000494bf       ?type_case_s@?$output_processor@DV?$stream_output_adapter@D@__crt_stdio_output@@V?$positional_parameter_base@DV?$stream_output_adapter@D@__crt_stdio_output@@@2@@__crt_stdio_output@@AAE_NXZ 1004a4bf f i libucrt:output.obj
 0001:0004955a       ?type_case_s@?$output_processor@DV?$stream_output_adapter@D@__crt_stdio_output@@V?$standard_base@DV?$stream_output_adapter@D@__crt_stdio_output@@@2@@__crt_stdio_output@@AAE_NXZ 1004a55a f i libucrt:output.obj
 0001:000495e9       ?type_case_s@?$output_processor@DV?$string_output_adapter@D@__crt_stdio_output@@V?$format_validation_base@DV?$string_output_adapter@D@__crt_stdio_output@@@2@@__crt_stdio_output@@AAE_NXZ 1004a5e9 f i libucrt:output.obj
 0001:00049678       ?type_case_s@?$output_processor@DV?$string_output_adapter@D@__crt_stdio_output@@V?$positional_parameter_base@DV?$string_output_adapter@D@__crt_stdio_output@@@2@@__crt_stdio_output@@AAE_NXZ 1004a678 f i libucrt:output.obj
 0001:00049713       ?type_case_s@?$output_processor@DV?$string_output_adapter@D@__crt_stdio_output@@V?$standard_base@DV?$string_output_adapter@D@__crt_stdio_output@@@2@@__crt_stdio_output@@AAE_NXZ 1004a713 f i libucrt:output.obj
 0001:000497a2       ?type_case_s@?$output_processor@_WV?$stream_output_adapter@_W@__crt_stdio_output@@V?$format_validation_base@_WV?$stream_output_adapter@_W@__crt_stdio_output@@@2@@__crt_stdio_output@@AAE_NXZ 1004a7a2 f i libucrt:output.obj
 0001:00049833       ?type_case_s@?$output_processor@_WV?$stream_output_adapter@_W@__crt_stdio_output@@V?$positional_parameter_base@_WV?$stream_output_adapter@_W@__crt_stdio_output@@@2@@__crt_stdio_output@@AAE_NXZ 1004a833 f i libucrt:output.obj
 0001:000498d0       ?type_case_s@?$output_processor@_WV?$stream_output_adapter@_W@__crt_stdio_output@@V?$standard_base@_WV?$stream_output_adapter@_W@__crt_stdio_output@@@2@@__crt_stdio_output@@AAE_NXZ 1004a8d0 f i libucrt:output.obj
 0001:00049961       ?type_case_s@?$output_processor@_WV?$string_output_adapter@_W@__crt_stdio_output@@V?$format_validation_base@_WV?$string_output_adapter@_W@__crt_stdio_output@@@2@@__crt_stdio_output@@AAE_NXZ 1004a961 f i libucrt:output.obj
 0001:000499f2       ?type_case_s@?$output_processor@_WV?$string_output_adapter@_W@__crt_stdio_output@@V?$positional_parameter_base@_WV?$string_output_adapter@_W@__crt_stdio_output@@@2@@__crt_stdio_output@@AAE_NXZ 1004a9f2 f i libucrt:output.obj
 0001:00049a8f       ?type_case_s@?$output_processor@_WV?$string_output_adapter@_W@__crt_stdio_output@@V?$standard_base@_WV?$string_output_adapter@_W@__crt_stdio_output@@@2@@__crt_stdio_output@@AAE_NXZ 1004aa8f f i libucrt:output.obj
 0001:00049b20       ?type_case_s_compute_narrow_string_length@?$output_processor@DV?$stream_output_adapter@D@__crt_stdio_output@@V?$format_validation_base@DV?$stream_output_adapter@D@__crt_stdio_output@@@2@@__crt_stdio_output@@ABEHHD@Z 1004ab20 f i libucrt:output.obj
 0001:00049b3b       ?type_case_s_compute_narrow_string_length@?$output_processor@DV?$stream_output_adapter@D@__crt_stdio_output@@V?$positional_parameter_base@DV?$stream_output_adapter@D@__crt_stdio_output@@@2@@__crt_stdio_output@@ABEHHD@Z 1004ab3b f i libucrt:output.obj
 0001:00049b56       ?type_case_s_compute_narrow_string_length@?$output_processor@DV?$stream_output_adapter@D@__crt_stdio_output@@V?$standard_base@DV?$stream_output_adapter@D@__crt_stdio_output@@@2@@__crt_stdio_output@@ABEHHD@Z 1004ab56 f i libucrt:output.obj
 0001:00049b71       ?type_case_s_compute_narrow_string_length@?$output_processor@DV?$string_output_adapter@D@__crt_stdio_output@@V?$format_validation_base@DV?$string_output_adapter@D@__crt_stdio_output@@@2@@__crt_stdio_output@@ABEHHD@Z 1004ab71 f i libucrt:output.obj
 0001:00049b8c       ?type_case_s_compute_narrow_string_length@?$output_processor@DV?$string_output_adapter@D@__crt_stdio_output@@V?$positional_parameter_base@DV?$string_output_adapter@D@__crt_stdio_output@@@2@@__crt_stdio_output@@ABEHHD@Z 1004ab8c f i libucrt:output.obj
 0001:00049ba7       ?type_case_s_compute_narrow_string_length@?$output_processor@DV?$string_output_adapter@D@__crt_stdio_output@@V?$standard_base@DV?$string_output_adapter@D@__crt_stdio_output@@@2@@__crt_stdio_output@@ABEHHD@Z 1004aba7 f i libucrt:output.obj
 0001:00049bc2       ?type_case_s_compute_narrow_string_length@?$output_processor@_WV?$stream_output_adapter@_W@__crt_stdio_output@@V?$format_validation_base@_WV?$stream_output_adapter@_W@__crt_stdio_output@@@2@@__crt_stdio_output@@ABEHH_W@Z 1004abc2 f i libucrt:output.obj
 0001:00049c12       ?type_case_s_compute_narrow_string_length@?$output_processor@_WV?$stream_output_adapter@_W@__crt_stdio_output@@V?$positional_parameter_base@_WV?$stream_output_adapter@_W@__crt_stdio_output@@@2@@__crt_stdio_output@@ABEHH_W@Z 1004ac12 f i libucrt:output.obj
 0001:00049c62       ?type_case_s_compute_narrow_string_length@?$output_processor@_WV?$stream_output_adapter@_W@__crt_stdio_output@@V?$standard_base@_WV?$stream_output_adapter@_W@__crt_stdio_output@@@2@@__crt_stdio_output@@ABEHH_W@Z 1004ac62 f i libucrt:output.obj
 0001:00049cb2       ?type_case_s_compute_narrow_string_length@?$output_processor@_WV?$string_output_adapter@_W@__crt_stdio_output@@V?$format_validation_base@_WV?$string_output_adapter@_W@__crt_stdio_output@@@2@@__crt_stdio_output@@ABEHH_W@Z 1004acb2 f i libucrt:output.obj
 0001:00049d02       ?type_case_s_compute_narrow_string_length@?$output_processor@_WV?$string_output_adapter@_W@__crt_stdio_output@@V?$positional_parameter_base@_WV?$string_output_adapter@_W@__crt_stdio_output@@@2@@__crt_stdio_output@@ABEHH_W@Z 1004ad02 f i libucrt:output.obj
 0001:00049d52       ?type_case_s_compute_narrow_string_length@?$output_processor@_WV?$string_output_adapter@_W@__crt_stdio_output@@V?$standard_base@_WV?$string_output_adapter@_W@__crt_stdio_output@@@2@@__crt_stdio_output@@ABEHH_W@Z 1004ad52 f i libucrt:output.obj
 0001:00049da2       ?type_case_u@?$output_processor@DV?$stream_output_adapter@D@__crt_stdio_output@@V?$format_validation_base@DV?$stream_output_adapter@D@__crt_stdio_output@@@2@@__crt_stdio_output@@AAE_NXZ 1004ada2 f i libucrt:output.obj
 0001:00049dae       ?type_case_u@?$output_processor@DV?$stream_output_adapter@D@__crt_stdio_output@@V?$positional_parameter_base@DV?$stream_output_adapter@D@__crt_stdio_output@@@2@@__crt_stdio_output@@AAE_NXZ 1004adae f i libucrt:output.obj
 0001:00049dba       ?type_case_u@?$output_processor@DV?$stream_output_adapter@D@__crt_stdio_output@@V?$standard_base@DV?$stream_output_adapter@D@__crt_stdio_output@@@2@@__crt_stdio_output@@AAE_NXZ 1004adba f i libucrt:output.obj
 0001:00049dc6       ?type_case_u@?$output_processor@DV?$string_output_adapter@D@__crt_stdio_output@@V?$format_validation_base@DV?$string_output_adapter@D@__crt_stdio_output@@@2@@__crt_stdio_output@@AAE_NXZ 1004adc6 f i libucrt:output.obj
 0001:00049dd2       ?type_case_u@?$output_processor@DV?$string_output_adapter@D@__crt_stdio_output@@V?$positional_parameter_base@DV?$string_output_adapter@D@__crt_stdio_output@@@2@@__crt_stdio_output@@AAE_NXZ 1004add2 f i libucrt:output.obj
 0001:00049dde       ?type_case_u@?$output_processor@DV?$string_output_adapter@D@__crt_stdio_output@@V?$standard_base@DV?$string_output_adapter@D@__crt_stdio_output@@@2@@__crt_stdio_output@@AAE_NXZ 1004adde f i libucrt:output.obj
 0001:00049dea       ?type_case_u@?$output_processor@_WV?$stream_output_adapter@_W@__crt_stdio_output@@V?$format_validation_base@_WV?$stream_output_adapter@_W@__crt_stdio_output@@@2@@__crt_stdio_output@@AAE_NXZ 1004adea f i libucrt:output.obj
 0001:00049df6       ?type_case_u@?$output_processor@_WV?$stream_output_adapter@_W@__crt_stdio_output@@V?$positional_parameter_base@_WV?$stream_output_adapter@_W@__crt_stdio_output@@@2@@__crt_stdio_output@@AAE_NXZ 1004adf6 f i libucrt:output.obj
 0001:00049e02       ?type_case_u@?$output_processor@_WV?$stream_output_adapter@_W@__crt_stdio_output@@V?$standard_base@_WV?$stream_output_adapter@_W@__crt_stdio_output@@@2@@__crt_stdio_output@@AAE_NXZ 1004ae02 f i libucrt:output.obj
 0001:00049e0e       ?type_case_u@?$output_processor@_WV?$string_output_adapter@_W@__crt_stdio_output@@V?$format_validation_base@_WV?$string_output_adapter@_W@__crt_stdio_output@@@2@@__crt_stdio_output@@AAE_NXZ 1004ae0e f i libucrt:output.obj
 0001:00049e1a       ?type_case_u@?$output_processor@_WV?$string_output_adapter@_W@__crt_stdio_output@@V?$positional_parameter_base@_WV?$string_output_adapter@_W@__crt_stdio_output@@@2@@__crt_stdio_output@@AAE_NXZ 1004ae1a f i libucrt:output.obj
 0001:00049e26       ?type_case_u@?$output_processor@_WV?$string_output_adapter@_W@__crt_stdio_output@@V?$standard_base@_WV?$string_output_adapter@_W@__crt_stdio_output@@@2@@__crt_stdio_output@@AAE_NXZ 1004ae26 f i libucrt:output.obj
 0001:00049e32       ?type_case_x@?$output_processor@DV?$stream_output_adapter@D@__crt_stdio_output@@V?$format_validation_base@DV?$stream_output_adapter@D@__crt_stdio_output@@@2@@__crt_stdio_output@@AAE_NXZ 1004ae32 f i libucrt:output.obj
 0001:00049e3e       ?type_case_x@?$output_processor@DV?$stream_output_adapter@D@__crt_stdio_output@@V?$positional_parameter_base@DV?$stream_output_adapter@D@__crt_stdio_output@@@2@@__crt_stdio_output@@AAE_NXZ 1004ae3e f i libucrt:output.obj
 0001:00049e4a       ?type_case_x@?$output_processor@DV?$stream_output_adapter@D@__crt_stdio_output@@V?$standard_base@DV?$stream_output_adapter@D@__crt_stdio_output@@@2@@__crt_stdio_output@@AAE_NXZ 1004ae4a f i libucrt:output.obj
 0001:00049e56       ?type_case_x@?$output_processor@DV?$string_output_adapter@D@__crt_stdio_output@@V?$format_validation_base@DV?$string_output_adapter@D@__crt_stdio_output@@@2@@__crt_stdio_output@@AAE_NXZ 1004ae56 f i libucrt:output.obj
 0001:00049e62       ?type_case_x@?$output_processor@DV?$string_output_adapter@D@__crt_stdio_output@@V?$positional_parameter_base@DV?$string_output_adapter@D@__crt_stdio_output@@@2@@__crt_stdio_output@@AAE_NXZ 1004ae62 f i libucrt:output.obj
 0001:00049e6e       ?type_case_x@?$output_processor@DV?$string_output_adapter@D@__crt_stdio_output@@V?$standard_base@DV?$string_output_adapter@D@__crt_stdio_output@@@2@@__crt_stdio_output@@AAE_NXZ 1004ae6e f i libucrt:output.obj
 0001:00049e7a       ?type_case_x@?$output_processor@_WV?$stream_output_adapter@_W@__crt_stdio_output@@V?$format_validation_base@_WV?$stream_output_adapter@_W@__crt_stdio_output@@@2@@__crt_stdio_output@@AAE_NXZ 1004ae7a f i libucrt:output.obj
 0001:00049e86       ?type_case_x@?$output_processor@_WV?$stream_output_adapter@_W@__crt_stdio_output@@V?$positional_parameter_base@_WV?$stream_output_adapter@_W@__crt_stdio_output@@@2@@__crt_stdio_output@@AAE_NXZ 1004ae86 f i libucrt:output.obj
 0001:00049e92       ?type_case_x@?$output_processor@_WV?$stream_output_adapter@_W@__crt_stdio_output@@V?$standard_base@_WV?$stream_output_adapter@_W@__crt_stdio_output@@@2@@__crt_stdio_output@@AAE_NXZ 1004ae92 f i libucrt:output.obj
 0001:00049e9e       ?type_case_x@?$output_processor@_WV?$string_output_adapter@_W@__crt_stdio_output@@V?$format_validation_base@_WV?$string_output_adapter@_W@__crt_stdio_output@@@2@@__crt_stdio_output@@AAE_NXZ 1004ae9e f i libucrt:output.obj
 0001:00049eaa       ?type_case_x@?$output_processor@_WV?$string_output_adapter@_W@__crt_stdio_output@@V?$positional_parameter_base@_WV?$string_output_adapter@_W@__crt_stdio_output@@@2@@__crt_stdio_output@@AAE_NXZ 1004aeaa f i libucrt:output.obj
 0001:00049eb6       ?type_case_x@?$output_processor@_WV?$string_output_adapter@_W@__crt_stdio_output@@V?$standard_base@_WV?$string_output_adapter@_W@__crt_stdio_output@@@2@@__crt_stdio_output@@AAE_NXZ 1004aeb6 f i libucrt:output.obj
 0001:00049ec2       ?unset_flag@?$output_processor@DV?$stream_output_adapter@D@__crt_stdio_output@@V?$format_validation_base@DV?$stream_output_adapter@D@__crt_stdio_output@@@2@@__crt_stdio_output@@AAEXI@Z 1004aec2 f i libucrt:output.obj
 0001:00049ed7       ?unset_flag@?$output_processor@DV?$stream_output_adapter@D@__crt_stdio_output@@V?$positional_parameter_base@DV?$stream_output_adapter@D@__crt_stdio_output@@@2@@__crt_stdio_output@@AAEXI@Z 1004aed7 f i libucrt:output.obj
 0001:00049eec       ?unset_flag@?$output_processor@DV?$stream_output_adapter@D@__crt_stdio_output@@V?$standard_base@DV?$stream_output_adapter@D@__crt_stdio_output@@@2@@__crt_stdio_output@@AAEXI@Z 1004aeec f i libucrt:output.obj
 0001:00049f01       ?unset_flag@?$output_processor@DV?$string_output_adapter@D@__crt_stdio_output@@V?$format_validation_base@DV?$string_output_adapter@D@__crt_stdio_output@@@2@@__crt_stdio_output@@AAEXI@Z 1004af01 f i libucrt:output.obj
 0001:00049f16       ?unset_flag@?$output_processor@DV?$string_output_adapter@D@__crt_stdio_output@@V?$positional_parameter_base@DV?$string_output_adapter@D@__crt_stdio_output@@@2@@__crt_stdio_output@@AAEXI@Z 1004af16 f i libucrt:output.obj
 0001:00049f2b       ?unset_flag@?$output_processor@DV?$string_output_adapter@D@__crt_stdio_output@@V?$standard_base@DV?$string_output_adapter@D@__crt_stdio_output@@@2@@__crt_stdio_output@@AAEXI@Z 1004af2b f i libucrt:output.obj
 0001:00049f40       ?unset_flag@?$output_processor@_WV?$stream_output_adapter@_W@__crt_stdio_output@@V?$format_validation_base@_WV?$stream_output_adapter@_W@__crt_stdio_output@@@2@@__crt_stdio_output@@AAEXI@Z 1004af40 f i libucrt:output.obj
 0001:00049f55       ?unset_flag@?$output_processor@_WV?$stream_output_adapter@_W@__crt_stdio_output@@V?$positional_parameter_base@_WV?$stream_output_adapter@_W@__crt_stdio_output@@@2@@__crt_stdio_output@@AAEXI@Z 1004af55 f i libucrt:output.obj
 0001:00049f6a       ?unset_flag@?$output_processor@_WV?$stream_output_adapter@_W@__crt_stdio_output@@V?$standard_base@_WV?$stream_output_adapter@_W@__crt_stdio_output@@@2@@__crt_stdio_output@@AAEXI@Z 1004af6a f i libucrt:output.obj
 0001:00049f7f       ?unset_flag@?$output_processor@_WV?$string_output_adapter@_W@__crt_stdio_output@@V?$format_validation_base@_WV?$string_output_adapter@_W@__crt_stdio_output@@@2@@__crt_stdio_output@@AAEXI@Z 1004af7f f i libucrt:output.obj
 0001:00049f94       ?unset_flag@?$output_processor@_WV?$string_output_adapter@_W@__crt_stdio_output@@V?$positional_parameter_base@_WV?$string_output_adapter@_W@__crt_stdio_output@@@2@@__crt_stdio_output@@AAEXI@Z 1004af94 f i libucrt:output.obj
 0001:00049fa9       ?unset_flag@?$output_processor@_WV?$string_output_adapter@_W@__crt_stdio_output@@V?$standard_base@_WV?$string_output_adapter@_W@__crt_stdio_output@@@2@@__crt_stdio_output@@AAEXI@Z 1004afa9 f i libucrt:output.obj
 0001:00049fbe       ?update_field_width@?$positional_parameter_base@DV?$stream_output_adapter@D@__crt_stdio_output@@@__crt_stdio_output@@IAE_NXZ 1004afbe f i libucrt:output.obj
 0001:0004a0a1       ?update_field_width@?$positional_parameter_base@DV?$string_output_adapter@D@__crt_stdio_output@@@__crt_stdio_output@@IAE_NXZ 1004b0a1 f i libucrt:output.obj
 0001:0004a184       ?update_field_width@?$positional_parameter_base@_WV?$stream_output_adapter@_W@__crt_stdio_output@@@__crt_stdio_output@@IAE_NXZ 1004b184 f i libucrt:output.obj
 0001:0004a268       ?update_field_width@?$positional_parameter_base@_WV?$string_output_adapter@_W@__crt_stdio_output@@@__crt_stdio_output@@IAE_NXZ 1004b268 f i libucrt:output.obj
 0001:0004a34c       ?update_field_width@?$standard_base@DV?$stream_output_adapter@D@__crt_stdio_output@@@__crt_stdio_output@@IAE_NXZ 1004b34c f i libucrt:output.obj
 0001:0004a360       ?update_field_width@?$standard_base@DV?$string_output_adapter@D@__crt_stdio_output@@@__crt_stdio_output@@IAE_NXZ 1004b360 f i libucrt:output.obj
 0001:0004a374       ?update_field_width@?$standard_base@_WV?$stream_output_adapter@_W@__crt_stdio_output@@@__crt_stdio_output@@IAE_NXZ 1004b374 f i libucrt:output.obj
 0001:0004a388       ?update_field_width@?$standard_base@_WV?$string_output_adapter@_W@__crt_stdio_output@@@__crt_stdio_output@@IAE_NXZ 1004b388 f i libucrt:output.obj
 0001:0004a39c       ?update_precision@?$positional_parameter_base@DV?$stream_output_adapter@D@__crt_stdio_output@@@__crt_stdio_output@@IAE_NXZ 1004b39c f i libucrt:output.obj
 0001:0004a47f       ?update_precision@?$positional_parameter_base@DV?$string_output_adapter@D@__crt_stdio_output@@@__crt_stdio_output@@IAE_NXZ 1004b47f f i libucrt:output.obj
 0001:0004a562       ?update_precision@?$positional_parameter_base@_WV?$stream_output_adapter@_W@__crt_stdio_output@@@__crt_stdio_output@@IAE_NXZ 1004b562 f i libucrt:output.obj
 0001:0004a646       ?update_precision@?$positional_parameter_base@_WV?$string_output_adapter@_W@__crt_stdio_output@@@__crt_stdio_output@@IAE_NXZ 1004b646 f i libucrt:output.obj
 0001:0004a72a       ?update_precision@?$standard_base@DV?$stream_output_adapter@D@__crt_stdio_output@@@__crt_stdio_output@@IAE_NXZ 1004b72a f i libucrt:output.obj
 0001:0004a73e       ?update_precision@?$standard_base@DV?$string_output_adapter@D@__crt_stdio_output@@@__crt_stdio_output@@IAE_NXZ 1004b73e f i libucrt:output.obj
 0001:0004a752       ?update_precision@?$standard_base@_WV?$stream_output_adapter@_W@__crt_stdio_output@@@__crt_stdio_output@@IAE_NXZ 1004b752 f i libucrt:output.obj
 0001:0004a766       ?update_precision@?$standard_base@_WV?$string_output_adapter@_W@__crt_stdio_output@@@__crt_stdio_output@@IAE_NXZ 1004b766 f i libucrt:output.obj
 0001:0004a77a       ?valid@__crt_stdio_stream@@QBE_NXZ 1004b77a f i libucrt:output.obj
 0001:0004a784       ?validate@?$stream_output_adapter@D@__crt_stdio_output@@QBE_NXZ 1004b784 f i libucrt:output.obj
 0001:0004a7ad       ?validate@?$stream_output_adapter@_W@__crt_stdio_output@@QBE_NXZ 1004b7ad f i libucrt:output.obj
 0001:0004a7ce       ?validate@?$string_output_adapter@D@__crt_stdio_output@@QBE_NXZ 1004b7ce f i libucrt:output.obj
 0001:0004a7ef       ?validate@?$string_output_adapter@_W@__crt_stdio_output@@QBE_NXZ 1004b7ef f i libucrt:output.obj
 0001:0004a810       ?validate_and_store_parameter_data@?$positional_parameter_base@DV?$stream_output_adapter@D@__crt_stdio_output@@@__crt_stdio_output@@AAE_NAAUparameter_data@12@W4parameter_type@12@DW4length_modifier@2@@Z 1004b810 f i libucrt:output.obj
 0001:0004a86d       ?validate_and_store_parameter_data@?$positional_parameter_base@DV?$string_output_adapter@D@__crt_stdio_output@@@__crt_stdio_output@@AAE_NAAUparameter_data@12@W4parameter_type@12@DW4length_modifier@2@@Z 1004b86d f i libucrt:output.obj
 0001:0004a8ca       ?validate_and_store_parameter_data@?$positional_parameter_base@_WV?$stream_output_adapter@_W@__crt_stdio_output@@@__crt_stdio_output@@AAE_NAAUparameter_data@12@W4parameter_type@12@_WW4length_modifier@2@@Z 1004b8ca f i libucrt:output.obj
 0001:0004a92a       ?validate_and_store_parameter_data@?$positional_parameter_base@_WV?$string_output_adapter@_W@__crt_stdio_output@@@__crt_stdio_output@@AAE_NAAUparameter_data@12@W4parameter_type@12@_WW4length_modifier@2@@Z 1004b92a f i libucrt:output.obj
 0001:0004a98a       ?validate_and_update_state_at_beginning_of_format_character@?$positional_parameter_base@DV?$stream_output_adapter@D@__crt_stdio_output@@@__crt_stdio_output@@IAE_NXZ 1004b98a f i libucrt:output.obj
 0001:0004aac0       ?validate_and_update_state_at_beginning_of_format_character@?$positional_parameter_base@DV?$string_output_adapter@D@__crt_stdio_output@@@__crt_stdio_output@@IAE_NXZ 1004bac0 f i libucrt:output.obj
 0001:0004abf6       ?validate_and_update_state_at_beginning_of_format_character@?$positional_parameter_base@_WV?$stream_output_adapter@_W@__crt_stdio_output@@@__crt_stdio_output@@IAE_NXZ 1004bbf6 f i libucrt:output.obj
 0001:0004ad38       ?validate_and_update_state_at_beginning_of_format_character@?$positional_parameter_base@_WV?$string_output_adapter@_W@__crt_stdio_output@@@__crt_stdio_output@@IAE_NXZ 1004bd38 f i libucrt:output.obj
 0001:0004ae7a       ?validate_and_update_state_at_beginning_of_format_character@?$standard_base@DV?$stream_output_adapter@D@__crt_stdio_output@@@__crt_stdio_output@@IAE_NXZ 1004be7a f i libucrt:output.obj
 0001:0004ae7d       ?validate_and_update_state_at_beginning_of_format_character@?$standard_base@DV?$string_output_adapter@D@__crt_stdio_output@@@__crt_stdio_output@@IAE_NXZ 1004be7d f i libucrt:output.obj
 0001:0004ae80       ?validate_and_update_state_at_beginning_of_format_character@?$standard_base@_WV?$stream_output_adapter@_W@__crt_stdio_output@@@__crt_stdio_output@@IAE_NXZ 1004be80 f i libucrt:output.obj
 0001:0004ae83       ?validate_and_update_state_at_beginning_of_format_character@?$standard_base@_WV?$string_output_adapter@_W@__crt_stdio_output@@@__crt_stdio_output@@IAE_NXZ 1004be83 f i libucrt:output.obj
 0001:0004ae86       ?validate_and_update_state_at_end_of_format_string@?$format_validation_base@DV?$stream_output_adapter@D@__crt_stdio_output@@@__crt_stdio_output@@IBE_NXZ 1004be86 f i libucrt:output.obj
 0001:0004aeb0       ?validate_and_update_state_at_end_of_format_string@?$format_validation_base@DV?$string_output_adapter@D@__crt_stdio_output@@@__crt_stdio_output@@IBE_NXZ 1004beb0 f i libucrt:output.obj
 0001:0004aeda       ?validate_and_update_state_at_end_of_format_string@?$format_validation_base@_WV?$stream_output_adapter@_W@__crt_stdio_output@@@__crt_stdio_output@@IBE_NXZ 1004beda f i libucrt:output.obj
 0001:0004af04       ?validate_and_update_state_at_end_of_format_string@?$format_validation_base@_WV?$string_output_adapter@_W@__crt_stdio_output@@@__crt_stdio_output@@IBE_NXZ 1004bf04 f i libucrt:output.obj
 0001:0004af2e       ?validate_and_update_state_at_end_of_format_string@?$positional_parameter_base@DV?$stream_output_adapter@D@__crt_stdio_output@@@__crt_stdio_output@@IAE_NXZ 1004bf2e f i libucrt:output.obj
 0001:0004afce       ?validate_and_update_state_at_end_of_format_string@?$positional_parameter_base@DV?$string_output_adapter@D@__crt_stdio_output@@@__crt_stdio_output@@IAE_NXZ 1004bfce f i libucrt:output.obj
 0001:0004b06e       ?validate_and_update_state_at_end_of_format_string@?$positional_parameter_base@_WV?$stream_output_adapter@_W@__crt_stdio_output@@@__crt_stdio_output@@IAE_NXZ 1004c06e f i libucrt:output.obj
 0001:0004b10e       ?validate_and_update_state_at_end_of_format_string@?$positional_parameter_base@_WV?$string_output_adapter@_W@__crt_stdio_output@@@__crt_stdio_output@@IAE_NXZ 1004c10e f i libucrt:output.obj
 0001:0004b1ae       ?validate_and_update_state_at_end_of_format_string@?$standard_base@DV?$stream_output_adapter@D@__crt_stdio_output@@@__crt_stdio_output@@IBE_NXZ 1004c1ae f i libucrt:output.obj
 0001:0004b1b1       ?validate_and_update_state_at_end_of_format_string@?$standard_base@DV?$string_output_adapter@D@__crt_stdio_output@@@__crt_stdio_output@@IBE_NXZ 1004c1b1 f i libucrt:output.obj
 0001:0004b1b4       ?validate_and_update_state_at_end_of_format_string@?$standard_base@_WV?$stream_output_adapter@_W@__crt_stdio_output@@@__crt_stdio_output@@IBE_NXZ 1004c1b4 f i libucrt:output.obj
 0001:0004b1b7       ?validate_and_update_state_at_end_of_format_string@?$standard_base@_WV?$string_output_adapter@_W@__crt_stdio_output@@@__crt_stdio_output@@IBE_NXZ 1004c1b7 f i libucrt:output.obj
 0001:0004b1ba       ?validate_state_for_type_case_a@?$positional_parameter_base@DV?$stream_output_adapter@D@__crt_stdio_output@@@__crt_stdio_output@@IAE_NXZ 1004c1ba f i libucrt:output.obj
 0001:0004b221       ?validate_state_for_type_case_a@?$positional_parameter_base@DV?$string_output_adapter@D@__crt_stdio_output@@@__crt_stdio_output@@IAE_NXZ 1004c221 f i libucrt:output.obj
 0001:0004b288       ?validate_state_for_type_case_a@?$positional_parameter_base@_WV?$stream_output_adapter@_W@__crt_stdio_output@@@__crt_stdio_output@@IAE_NXZ 1004c288 f i libucrt:output.obj
 0001:0004b2ef       ?validate_state_for_type_case_a@?$positional_parameter_base@_WV?$string_output_adapter@_W@__crt_stdio_output@@@__crt_stdio_output@@IAE_NXZ 1004c2ef f i libucrt:output.obj
 0001:0004b356       ?validate_state_for_type_case_a@?$standard_base@DV?$stream_output_adapter@D@__crt_stdio_output@@@__crt_stdio_output@@IBE_NXZ 1004c356 f i libucrt:output.obj
 0001:0004b359       ?validate_state_for_type_case_a@?$standard_base@DV?$string_output_adapter@D@__crt_stdio_output@@@__crt_stdio_output@@IBE_NXZ 1004c359 f i libucrt:output.obj
 0001:0004b35c       ?validate_state_for_type_case_a@?$standard_base@_WV?$stream_output_adapter@_W@__crt_stdio_output@@@__crt_stdio_output@@IBE_NXZ 1004c35c f i libucrt:output.obj
 0001:0004b35f       ?validate_state_for_type_case_a@?$standard_base@_WV?$string_output_adapter@_W@__crt_stdio_output@@@__crt_stdio_output@@IBE_NXZ 1004c35f f i libucrt:output.obj
 0001:0004b362       ?validate_stream_is_ansi_if_required@?$__acrt_stdio_char_traits@D@@SA_NQAU_iobuf@@@Z 1004c362 f i libucrt:output.obj
 0001:0004b404       ?validate_stream_is_ansi_if_required@?$__acrt_stdio_char_traits@_W@@SA_NQAU_iobuf@@@Z 1004c404 f i libucrt:output.obj
 0001:0004b407       ?wide_null_string@?$output_processor@DV?$stream_output_adapter@D@__crt_stdio_output@@V?$format_validation_base@DV?$stream_output_adapter@D@__crt_stdio_output@@@2@@__crt_stdio_output@@CAPA_WXZ 1004c407 f i libucrt:output.obj
 0001:0004b40d       ?wide_null_string@?$output_processor@DV?$stream_output_adapter@D@__crt_stdio_output@@V?$positional_parameter_base@DV?$stream_output_adapter@D@__crt_stdio_output@@@2@@__crt_stdio_output@@CAPA_WXZ 1004c40d f i libucrt:output.obj
 0001:0004b413       ?wide_null_string@?$output_processor@DV?$stream_output_adapter@D@__crt_stdio_output@@V?$standard_base@DV?$stream_output_adapter@D@__crt_stdio_output@@@2@@__crt_stdio_output@@CAPA_WXZ 1004c413 f i libucrt:output.obj
 0001:0004b419       ?wide_null_string@?$output_processor@DV?$string_output_adapter@D@__crt_stdio_output@@V?$format_validation_base@DV?$string_output_adapter@D@__crt_stdio_output@@@2@@__crt_stdio_output@@CAPA_WXZ 1004c419 f i libucrt:output.obj
 0001:0004b41f       ?wide_null_string@?$output_processor@DV?$string_output_adapter@D@__crt_stdio_output@@V?$positional_parameter_base@DV?$string_output_adapter@D@__crt_stdio_output@@@2@@__crt_stdio_output@@CAPA_WXZ 1004c41f f i libucrt:output.obj
 0001:0004b425       ?wide_null_string@?$output_processor@DV?$string_output_adapter@D@__crt_stdio_output@@V?$standard_base@DV?$string_output_adapter@D@__crt_stdio_output@@@2@@__crt_stdio_output@@CAPA_WXZ 1004c425 f i libucrt:output.obj
 0001:0004b42b       ?wide_null_string@?$output_processor@_WV?$stream_output_adapter@_W@__crt_stdio_output@@V?$format_validation_base@_WV?$stream_output_adapter@_W@__crt_stdio_output@@@2@@__crt_stdio_output@@CAPA_WXZ 1004c42b f i libucrt:output.obj
 0001:0004b431       ?wide_null_string@?$output_processor@_WV?$stream_output_adapter@_W@__crt_stdio_output@@V?$positional_parameter_base@_WV?$stream_output_adapter@_W@__crt_stdio_output@@@2@@__crt_stdio_output@@CAPA_WXZ 1004c431 f i libucrt:output.obj
 0001:0004b437       ?wide_null_string@?$output_processor@_WV?$stream_output_adapter@_W@__crt_stdio_output@@V?$standard_base@_WV?$stream_output_adapter@_W@__crt_stdio_output@@@2@@__crt_stdio_output@@CAPA_WXZ 1004c437 f i libucrt:output.obj
 0001:0004b43d       ?wide_null_string@?$output_processor@_WV?$string_output_adapter@_W@__crt_stdio_output@@V?$format_validation_base@_WV?$string_output_adapter@_W@__crt_stdio_output@@@2@@__crt_stdio_output@@CAPA_WXZ 1004c43d f i libucrt:output.obj
 0001:0004b443       ?wide_null_string@?$output_processor@_WV?$string_output_adapter@_W@__crt_stdio_output@@V?$positional_parameter_base@_WV?$string_output_adapter@_W@__crt_stdio_output@@@2@@__crt_stdio_output@@CAPA_WXZ 1004c443 f i libucrt:output.obj
 0001:0004b449       ?wide_null_string@?$output_processor@_WV?$string_output_adapter@_W@__crt_stdio_output@@V?$standard_base@_WV?$string_output_adapter@_W@__crt_stdio_output@@@2@@__crt_stdio_output@@CAPA_WXZ 1004c449 f i libucrt:output.obj
 0001:0004b44f       ?write_character@?$stream_output_adapter@D@__crt_stdio_output@@QBEXDQAH@Z 1004c44f f i libucrt:output.obj
 0001:0004b49b       ?write_character@?$stream_output_adapter@_W@__crt_stdio_output@@QBEX_WQAH@Z 1004c49b f i libucrt:output.obj
 0001:0004b4eb       ?write_character@?$string_output_adapter@D@__crt_stdio_output@@QBE_NDQAH@Z 1004c4eb f i libucrt:output.obj
 0001:0004b53d       ?write_character@?$string_output_adapter@_W@__crt_stdio_output@@QBE_N_WQAH@Z 1004c53d f i libucrt:output.obj
 0001:0004b593       ?write_stored_string_tchar@?$output_processor@DV?$stream_output_adapter@D@__crt_stdio_output@@V?$format_validation_base@DV?$stream_output_adapter@D@__crt_stdio_output@@@2@@__crt_stdio_output@@AAE_ND@Z 1004c593 f i libucrt:output.obj
 0001:0004b663       ?write_stored_string_tchar@?$output_processor@DV?$stream_output_adapter@D@__crt_stdio_output@@V?$positional_parameter_base@DV?$stream_output_adapter@D@__crt_stdio_output@@@2@@__crt_stdio_output@@AAE_ND@Z 1004c663 f i libucrt:output.obj
 0001:0004b733       ?write_stored_string_tchar@?$output_processor@DV?$stream_output_adapter@D@__crt_stdio_output@@V?$standard_base@DV?$stream_output_adapter@D@__crt_stdio_output@@@2@@__crt_stdio_output@@AAE_ND@Z 1004c733 f i libucrt:output.obj
 0001:0004b803       ?write_stored_string_tchar@?$output_processor@DV?$string_output_adapter@D@__crt_stdio_output@@V?$format_validation_base@DV?$string_output_adapter@D@__crt_stdio_output@@@2@@__crt_stdio_output@@AAE_ND@Z 1004c803 f i libucrt:output.obj
 0001:0004b8d3       ?write_stored_string_tchar@?$output_processor@DV?$string_output_adapter@D@__crt_stdio_output@@V?$positional_parameter_base@DV?$string_output_adapter@D@__crt_stdio_output@@@2@@__crt_stdio_output@@AAE_ND@Z 1004c8d3 f i libucrt:output.obj
 0001:0004b9a3       ?write_stored_string_tchar@?$output_processor@DV?$string_output_adapter@D@__crt_stdio_output@@V?$standard_base@DV?$string_output_adapter@D@__crt_stdio_output@@@2@@__crt_stdio_output@@AAE_ND@Z 1004c9a3 f i libucrt:output.obj
 0001:0004ba73       ?write_stored_string_tchar@?$output_processor@_WV?$stream_output_adapter@_W@__crt_stdio_output@@V?$format_validation_base@_WV?$stream_output_adapter@_W@__crt_stdio_output@@@2@@__crt_stdio_output@@AAE_N_W@Z 1004ca73 f i libucrt:output.obj
 0001:0004bb20       ?write_stored_string_tchar@?$output_processor@_WV?$stream_output_adapter@_W@__crt_stdio_output@@V?$positional_parameter_base@_WV?$stream_output_adapter@_W@__crt_stdio_output@@@2@@__crt_stdio_output@@AAE_N_W@Z 1004cb20 f i libucrt:output.obj
 0001:0004bbcd       ?write_stored_string_tchar@?$output_processor@_WV?$stream_output_adapter@_W@__crt_stdio_output@@V?$standard_base@_WV?$stream_output_adapter@_W@__crt_stdio_output@@@2@@__crt_stdio_output@@AAE_N_W@Z 1004cbcd f i libucrt:output.obj
 0001:0004bc7a       ?write_stored_string_tchar@?$output_processor@_WV?$string_output_adapter@_W@__crt_stdio_output@@V?$format_validation_base@_WV?$string_output_adapter@_W@__crt_stdio_output@@@2@@__crt_stdio_output@@AAE_N_W@Z 1004cc7a f i libucrt:output.obj
 0001:0004bd27       ?write_stored_string_tchar@?$output_processor@_WV?$string_output_adapter@_W@__crt_stdio_output@@V?$positional_parameter_base@_WV?$string_output_adapter@_W@__crt_stdio_output@@@2@@__crt_stdio_output@@AAE_N_W@Z 1004cd27 f i libucrt:output.obj
 0001:0004bdd4       ?write_stored_string_tchar@?$output_processor@_WV?$string_output_adapter@_W@__crt_stdio_output@@V?$standard_base@_WV?$string_output_adapter@_W@__crt_stdio_output@@@2@@__crt_stdio_output@@AAE_N_W@Z 1004cdd4 f i libucrt:output.obj
 0001:0004be81       ?write_string@?$stream_output_adapter@D@__crt_stdio_output@@QBEXQBDHQAH1@Z 1004ce81 f i libucrt:output.obj
 0001:0004bf2d       ?write_string@?$stream_output_adapter@_W@__crt_stdio_output@@QBEXQB_WHQAH1@Z 1004cf2d f i libucrt:output.obj
 0001:0004bfdd       ?write_string@?$string_output_adapter@D@__crt_stdio_output@@QBEXQBDHQAH1@Z 1004cfdd f i libucrt:output.obj
 0001:0004c094       ?write_string@?$string_output_adapter@_W@__crt_stdio_output@@QBEXQB_WHQAH1@Z 1004d094 f i libucrt:output.obj
 0001:0004c154       ___acrt_isleadbyte_l_noupdate 1004d154 f i libucrt:output.obj
 0001:0004c175       ___acrt_locale_changed     1004d175 f i libucrt:output.obj
 0001:0004c186       ___stdio_common_vfprintf   1004d186 f   libucrt:output.obj
 0001:0004c21a       ___stdio_common_vfprintf_p 1004d21a f   libucrt:output.obj
 0001:0004c2ae       ___stdio_common_vfprintf_s 1004d2ae f   libucrt:output.obj
 0001:0004c342       ___stdio_common_vfwprintf  1004d342 f   libucrt:output.obj
 0001:0004c3d6       ___stdio_common_vfwprintf_p 1004d3d6 f   libucrt:output.obj
 0001:0004c46a       ___stdio_common_vfwprintf_s 1004d46a f   libucrt:output.obj
 0001:0004c4fe       ___stdio_common_vsnprintf_s 1004d4fe f   libucrt:output.obj
 0001:0004c52e       ___stdio_common_vsnwprintf_s 1004d52e f   libucrt:output.obj
 0001:0004c55e       ___stdio_common_vsprintf   1004d55e f   libucrt:output.obj
 0001:0004c58b       ___stdio_common_vsprintf_p 1004d58b f   libucrt:output.obj
 0001:0004c5b8       ___stdio_common_vsprintf_s 1004d5b8 f   libucrt:output.obj
 0001:0004c5e5       ___stdio_common_vswprintf  1004d5e5 f   libucrt:output.obj
 0001:0004c612       ___stdio_common_vswprintf_p 1004d612 f   libucrt:output.obj
 0001:0004c63f       ___stdio_common_vswprintf_s 1004d63f f   libucrt:output.obj
 0001:0004c66c       ___libm_sse2_pow           1004d66c f   libucrt:pow_sse2.obj
 0001:0004d382       _calloc                    1004e382 f   libucrt:calloc.obj
 0001:0004d38f       _free                      1004e38f f   libucrt:free.obj
 0001:0004d394       ??$__vcrt_va_start_verify_argument_type@QB_W@@YAXXZ 1004e394 f i libucrt:assert.obj
 0001:0004e331       ??$ftprintf@PAU_iobuf@@PBDABQBDABQBDABI@?$__crt_char_traits@D@@SAH$$QAPAU_iobuf@@$$QAPBDABQBD2ABI@Z 1004f331 f i libucrt:assert.obj
 0001:0004e363       ??$ftprintf@PAU_iobuf@@PB_WABQB_WABQB_WABI@?$__crt_char_traits@_W@@SAH$$QAPAU_iobuf@@$$QAPB_WABQB_W2ABI@Z 1004f363 f i libucrt:assert.obj
 0001:0004e395       ??$get_module_file_name@AAPAUHINSTANCE__@@AAY0BAF@DK@?$__crt_char_traits@D@@SAKAAPAUHINSTANCE__@@AAY0BAF@D$$QAK@Z 1004f395 f i libucrt:assert.obj
 0001:0004e3b5       ??$get_module_file_name@AAPAUHINSTANCE__@@AAY0BAF@_WK@?$__crt_char_traits@_W@@SAKAAPAUHINSTANCE__@@AAY0BAF@_W$$QAK@Z 1004f3b5 f i libucrt:assert.obj
 0001:0004e3d5       ??$itot_s@ABIQAD$$CBIH@?$__crt_char_traits@D@@SAHABI$$QBQAD$$QBI$$QAH@Z 1004f3d5 f i libucrt:assert.obj
 0001:0004e400       ??$itot_s@ABIQA_W$$CBIH@?$__crt_char_traits@_W@@SAHABI$$QBQA_W$$QBI$$QAH@Z 1004f400 f i libucrt:assert.obj
 0001:0004e42b       ??$show_message_box@AAY0CEA@DPBDJ@?$__crt_char_traits@D@@SAHAAY0CEA@D$$QAPBD$$QAJ@Z 1004f42b f i libucrt:assert.obj
 0001:0004e44e       ??$show_message_box@AAY0CEA@_WPB_WJ@?$__crt_char_traits@_W@@SAHAAY0CEA@_W$$QAPB_W$$QAJ@Z 1004f44e f i libucrt:assert.obj
 0001:0004e471       ??$tcscat_s@ABQADABIAAPAD@?$__crt_char_traits@D@@SAHABQADABIAAPAD@Z 1004f471 f i libucrt:assert.obj
 0001:0004e496       ??$tcscat_s@ABQADABIABQBD@?$__crt_char_traits@D@@SAHABQADABIABQBD@Z 1004f496 f i libucrt:assert.obj
 0001:0004e4bb       ??$tcscat_s@ABQADABIPBD@?$__crt_char_traits@D@@SAHABQADABI$$QAPBD@Z 1004f4bb f i libucrt:assert.obj
 0001:0004e4e0       ??$tcscat_s@ABQA_WABIAAPA_W@?$__crt_char_traits@_W@@SAHABQA_WABIAAPA_W@Z 1004f4e0 f i libucrt:assert.obj
 0001:0004e505       ??$tcscat_s@ABQA_WABIABQB_W@?$__crt_char_traits@_W@@SAHABQA_WABIABQB_W@Z 1004f505 f i libucrt:assert.obj
 0001:0004e52a       ??$tcscat_s@ABQA_WABIPB_W@?$__crt_char_traits@_W@@SAHABQA_WABI$$QAPB_W@Z 1004f52a f i libucrt:assert.obj
 0001:0004e54f       ??$tcscpy_s@AAY0BAF@DIPBD@?$__crt_char_traits@D@@SAHAAY0BAF@D$$QAI$$QAPBD@Z 1004f54f f i libucrt:assert.obj
 0001:0004e572       ??$tcscpy_s@AAY0BAF@_WIPB_W@?$__crt_char_traits@_W@@SAHAAY0BAF@_W$$QAI$$QAPB_W@Z 1004f572 f i libucrt:assert.obj
 0001:0004e595       ??$tcscpy_s@ABQADABIPBD@?$__crt_char_traits@D@@SAHABQADABI$$QAPBD@Z 1004f595 f i libucrt:assert.obj
 0001:0004e5ba       ??$tcscpy_s@ABQA_WABIPB_W@?$__crt_char_traits@_W@@SAHABQA_WABI$$QAPB_W@Z 1004f5ba f i libucrt:assert.obj
 0001:0004e5df       ??$tcslen@AAY0BAF@D@?$__crt_char_traits@D@@SAIAAY0BAF@D@Z 1004f5df f i libucrt:assert.obj
 0001:0004e5fa       ??$tcslen@AAY0BAF@_W@?$__crt_char_traits@_W@@SAIAAY0BAF@_W@Z 1004f5fa f i libucrt:assert.obj
 0001:0004e61d       ??$tcslen@ABQAD@?$__crt_char_traits@D@@SAIABQAD@Z 1004f61d f i libucrt:assert.obj
 0001:0004e63b       ??$tcslen@ABQA_W@?$__crt_char_traits@_W@@SAIABQA_W@Z 1004f63b f i libucrt:assert.obj
 0001:0004e660       ??$tcslen@ABQBD@?$__crt_char_traits@D@@SAIABQBD@Z 1004f660 f i libucrt:assert.obj
 0001:0004e67e       ??$tcslen@ABQB_W@?$__crt_char_traits@_W@@SAIABQB_W@Z 1004f67e f i libucrt:assert.obj
 0001:0004e6a3       ??$tcsncat_s@ABQADABIAAPBD$$CBI@?$__crt_char_traits@D@@SAHABQADABIAAPBD$$QBI@Z 1004f6a3 f i libucrt:assert.obj
 0001:0004e6ce       ??$tcsncat_s@ABQADABIABQBDABI@?$__crt_char_traits@D@@SAHABQADABIABQBD1@Z 1004f6ce f i libucrt:assert.obj
 0001:0004e6f9       ??$tcsncat_s@ABQADABIPBD$$CBI@?$__crt_char_traits@D@@SAHABQADABI$$QAPBD$$QBI@Z 1004f6f9 f i libucrt:assert.obj
 0001:0004e724       ??$tcsncat_s@ABQA_WABIAAPB_W$$CBI@?$__crt_char_traits@_W@@SAHABQA_WABIAAPB_W$$QBI@Z 1004f724 f i libucrt:assert.obj
 0001:0004e74f       ??$tcsncat_s@ABQA_WABIABQB_WABI@?$__crt_char_traits@_W@@SAHABQA_WABIABQB_W1@Z 1004f74f f i libucrt:assert.obj
 0001:0004e77a       ??$tcsncat_s@ABQA_WABIPB_W$$CBI@?$__crt_char_traits@_W@@SAHABQA_WABI$$QAPB_W$$QBI@Z 1004f77a f i libucrt:assert.obj
 0001:0004e91f       ?has_any_buffer@__crt_stdio_stream@@QBE_NXZ 1004f91f f i libucrt:assert.obj
 0001:0004e934       ?has_any_of@__crt_stdio_stream@@QBE_NJ@Z 1004f934 f i libucrt:assert.obj
 0001:0004e950       __assert                   1004f950 f   libucrt:assert.obj
 0001:0004e9aa       __invoke_watson_if_error   1004f9aa f i libucrt:assert.obj
 0001:0004e9d4       __vfwprintf_l              1004f9d4 f i libucrt:assert.obj
 0001:0004ea02       __vswprintf_c_l            1004fa02 f i libucrt:assert.obj
 0001:0004ea3c       __wassert                  1004fa3c f   libucrt:assert.obj
 0001:0004ea96       _fwprintf                  1004fa96 f i libucrt:assert.obj
 0001:0004eb58       _swprintf                  1004fb58 f i libucrt:assert.obj
 0001:0004eb7d       _realloc                   1004fb7d f   libucrt:realloc.obj
 0001:0004eb8a       ??$?B$$A6GXPAXK0@Z@__crt_fast_encoded_nullptr_t@@QBEP6GXPAXK0@ZXZ 1004fb8a f i libucrt:exit.obj
 0001:0004eba8       ??$__crt_fast_decode_pointer@P6GXPAXK0@Z@@YAP6GXPAXK0@ZQ6GX0K0@Z@Z 1004fba8 f i libucrt:exit.obj
 0001:0004ebc3       ??$__crt_fast_encode_pointer@P6GXPAXK0@Z@@YAP6GXPAXK0@ZQ6GX0K0@Z@Z 1004fbc3 f i libucrt:exit.obj
 0001:0004ebe9       ??$__crt_get_proc_address@P6GXI@Z@@YAP6GXI@ZQAUHINSTANCE__@@QBD@Z 1004fbe9 f i libucrt:exit.obj
 0001:0004ec00       ??0?$__crt_unique_handle_t@U__crt_hmodule_traits@@@@QAE@QAUHINSTANCE__@@@Z 1004fc00 f i libucrt:exit.obj
 0001:0004ec14       ??1?$__crt_unique_handle_t@U__crt_hmodule_traits@@@@QAE@XZ 1004fc14 f i libucrt:exit.obj
 0001:0004ec47       ?close@?$__crt_unique_handle_t@U__crt_hmodule_traits@@@@QAEXXZ 1004fc47 f i libucrt:exit.obj
 0001:0004ec63       ?close@__crt_hmodule_traits@@SA_NPAUHINSTANCE__@@@Z 1004fc63 f i libucrt:exit.obj
 0001:0004ee2e       ?get@?$__crt_unique_handle_t@U__crt_hmodule_traits@@@@QBEPAUHINSTANCE__@@XZ 1004fe2e f i libucrt:exit.obj
 0001:0004ee31       ?get_address_of@?$__crt_unique_handle_t@U__crt_hmodule_traits@@@@QAEPAPAUHINSTANCE__@@XZ 1004fe31 f i libucrt:exit.obj
 0001:0004ee34       ?get_invalid_value@__crt_hmodule_traits@@SAPAUHINSTANCE__@@XZ 1004fe34 f i libucrt:exit.obj
 0001:0004ef31       __Exit                     1004ff31 f   libucrt:exit.obj
 0001:0004ef4c       ___acrt_initialize_thread_local_exit_callback 1004ff4c f   libucrt:exit.obj
 0001:0004ef5e       __c_exit                   1004ff5e f   libucrt:exit.obj
 0001:0004ef70       __cexit                    1004ff70 f   libucrt:exit.obj
 0001:0004ef82       __exit                     1004ff82 f   libucrt:exit.obj
 0001:0004ef9d       __is_c_termination_complete 1004ff9d f   libucrt:exit.obj
 0001:0004efa3       __register_thread_local_exe_atexit_callback 1004ffa3 f   libucrt:exit.obj
 0001:0004efe9       _exit                      1004ffe9 f   libucrt:exit.obj
 0001:0004f004       _quick_exit                10050004 f   libucrt:exit.obj
 0001:0004f020       _strncat                   10050020 f   libucrt:strncat.obj
 0001:0004f1b0       _strncpy                   100501b0 f   libucrt:strncpy.obj
 0001:0004f31d       ?is_in_use@__crt_stdio_stream@@QBE_NXZ 1005031d f i libucrt:fclose.obj
 0001:0004f32c       __fclose_nolock            1005032c f   libucrt:fclose.obj
 0001:0004f3bf       _fclose                    100503bf f   libucrt:fclose.obj
 0001:0004f6f1       ??$open_file@ABQBDABQBDABHPAU_iobuf@@@?$__crt_char_traits@D@@SAPAU_iobuf@@ABQBD0ABH$$QAPAU1@@Z 100506f1 f i libucrt:fopen.obj
 0001:0004f71c       ??$open_file@ABQB_WABQB_WABHPAU_iobuf@@@?$__crt_char_traits@_W@@SAPAU_iobuf@@ABQB_W0ABH$$QAPAU1@@Z 1005071c f i libucrt:fopen.obj
 0001:0004f747       ?unlock@__crt_stdio_stream@@QBEXXZ 10050747 f i libucrt:fopen.obj
 0001:0004f752       __fsopen                   10050752 f   libucrt:fopen.obj
 0001:0004f75f       __wfopen                   1005075f f   libucrt:fopen.obj
 0001:0004f77b       __wfopen_s                 1005077b f   libucrt:fopen.obj
 0001:0004f7d3       __wfsopen                  100507d3 f   libucrt:fopen.obj
 0001:0004f7e0       _fopen                     100507e0 f   libucrt:fopen.obj
 0001:0004f7fc       _fopen_s                   100507fc f   libucrt:fopen.obj
 0001:0004f854       ?set_flags@__crt_stdio_stream@@QBE_NJ@Z 10050854 f i libucrt:fread.obj
 0001:0004f884       __fread_nolock             10050884 f   libucrt:fread.obj
 0001:0004f8a8       __fread_nolock_s           100508a8 f   libucrt:fread.obj
 0001:0004fae7       _fread                     10050ae7 f   libucrt:fread.obj
 0001:0004fb0b       _fread_s                   10050b0b f   libucrt:fread.obj
 0001:0004fc63       ??$?RV<lambda_11b4f7b0d3157825a5656a18eba1ae27>@@AAV<lambda_b51c0495177f500e782686251704ae76>@@V<lambda_cf89b47920b5017557bfe891e78aca36>@@@?$__crt_seh_guarded_call@I@@QAEI$$QAV<lambda_11b4f7b0d3157825a5656a18eba1ae27>@@AAV<lambda_b51c0495177f500e782686251704ae76>@@$$QAV<lambda_cf89b47920b5017557bfe891e78aca36>@@@Z 10050c63 f i libucrt:fwrite.obj
 0001:0004fcc8       ??$__acrt_lock_stream_and_call@V<lambda_b51c0495177f500e782686251704ae76>@@@@YAIQAU_iobuf@@$$QAV<lambda_b51c0495177f500e782686251704ae76>@@@Z 10050cc8 f i libucrt:fwrite.obj
 0001:0004fdbd       ?has_big_buffer@__crt_stdio_stream@@QBE_NXZ 10050dbd f i libucrt:fwrite.obj
 0001:0004fdce       __fwrite_nolock            10050dce f   libucrt:fwrite.obj
 0001:0004ffa5       _fwrite                    10050fa5 f   libucrt:fwrite.obj
 0001:00050013       ??$?R_W@__crt_internal_free_policy@@QBEXQB_W@Z 10051013 f i libucrt:unlink.obj
 0001:00050029       ??0?$__crt_unique_heap_ptr@_WU__crt_internal_free_policy@@@@QAE@QA_W@Z 10051029 f i libucrt:unlink.obj
 0001:0005003d       ??1?$__crt_unique_heap_ptr@_WU__crt_internal_free_policy@@@@QAE@XZ 1005103d f i libucrt:unlink.obj
 0001:00050053       ?get@?$__crt_unique_heap_ptr@_WU__crt_internal_free_policy@@@@QBEPA_WXZ 10051053 f i libucrt:unlink.obj
 0001:00050056       ?get_address_of@?$__crt_unique_heap_ptr@_WU__crt_internal_free_policy@@@@QAEPAPA_WXZ 10051056 f i libucrt:unlink.obj
 0001:00050059       ?release@?$__crt_unique_heap_ptr@_WU__crt_internal_free_policy@@@@QAEXXZ 10051059 f i libucrt:unlink.obj
 0001:0005006f       __unlink                   1005106f f   libucrt:unlink.obj
 0001:0005007c       _remove                    1005107c f   libucrt:unlink.obj
 0001:000500dc       ?__acrt_stdio_reset_buffer@@YAXV__crt_stdio_stream@@@Z 100510dc f i libucrt:rewind.obj
 0001:000500f7       ?has_all_of@__crt_stdio_stream@@QBE_NJ@Z 100510f7 f i libucrt:rewind.obj
 0001:00050116       ?unset_flags@__crt_stdio_stream@@QBE_NJ@Z 10051116 f i libucrt:rewind.obj
 0001:0005014a       _rewind                    1005114a f   libucrt:rewind.obj
 0001:0005024b       _ldexp                     1005124b f   libucrt:ldexp.obj
 0001:000504b0       _strncmp                   100514b0 f   libucrt:strncmp.obj
 0001:00050546       __errcode                  10051546 f   libucrt:fpexcept.obj
 0001:00050587       __except1                  10051587 f   libucrt:fpexcept.obj
 0001:00050688       __except2                  10051688 f   libucrt:fpexcept.obj
 0001:000507d1       __handle_exc               100517d1 f   libucrt:fpexcept.obj
 0001:00050a29       __handle_qnan2             10051a29 f   libucrt:fpexcept.obj
 0001:00050a39       __raise_exc                10051a39 f   libucrt:fpexcept.obj
 0001:00050a64       __raise_exc_ex             10051a64 f   libucrt:fpexcept.obj
 0001:00050e11       __raise_excf               10051e11 f   libucrt:fpexcept.obj
 0001:00050e3c       __set_errno_from_matherr   10051e3c f   libucrt:fpexcept.obj
 0001:00050e76       __umatherr                 10051e76 f   libucrt:fpexcept.obj
 0001:00050f40       __initterm                 10051f40 f   libucrt:initterm.obj
 0001:00050fb3       __initterm_e               10051fb3 f   libucrt:initterm.obj
 0001:00051036       __seh_filter_dll           10052036 f   libucrt:exception_filter.obj
 0001:0005105e       __seh_filter_exe           1005205e f   libucrt:exception_filter.obj
 0001:0005122d       ??$?RPAD@__crt_internal_free_policy@@QBEXQBQAD@Z 1005222d f i libucrt:environment_initialization.obj
 0001:00051243       ??$?RPA_W@__crt_internal_free_policy@@QBEXQBQA_W@Z 10052243 f i libucrt:environment_initialization.obj
 0001:00051721       ??$get_environment_from_os@$$$V@?$__crt_char_traits@D@@SAPADXZ 10052721 f i libucrt:environment_initialization.obj
 0001:00051726       ??$get_environment_from_os@$$$V@?$__crt_char_traits@_W@@SAPA_WXZ 10052726 f i libucrt:environment_initialization.obj
 0001:00051860       ??$set_variable_in_environment_nolock@PADH@?$__crt_char_traits@D@@SAH$$QAPAD$$QAH@Z 10052860 f i libucrt:environment_initialization.obj
 0001:0005187e       ??$set_variable_in_environment_nolock@PA_WH@?$__crt_char_traits@_W@@SAH$$QAPA_W$$QAH@Z 1005287e f i libucrt:environment_initialization.obj
 0001:0005189c       ??$tcscpy_s@PADABIAAPAD@?$__crt_char_traits@D@@SAH$$QAPADABIAAPAD@Z 1005289c f i libucrt:environment_initialization.obj
 0001:000518c1       ??$tcscpy_s@PA_WABIAAPA_W@?$__crt_char_traits@_W@@SAH$$QAPA_WABIAAPA_W@Z 100528c1 f i libucrt:environment_initialization.obj
 0001:000518e6       ??$tcslen@AAPAD@?$__crt_char_traits@D@@SAIAAPAD@Z 100528e6 f i libucrt:environment_initialization.obj
 0001:00051904       ??$tcslen@AAPA_W@?$__crt_char_traits@_W@@SAIAAPA_W@Z 10052904 f i libucrt:environment_initialization.obj
 0001:00051929       ??$uninitialize@A6AXAAPAPAD@Z@?$dual_state_global@PAPAD@__crt_state_management@@QAEXA6AXAAPAPAD@Z@Z 10052929 f i libucrt:environment_initialization.obj
 0001:00051979       ??$uninitialize@A6AXAAPAPA_W@Z@?$dual_state_global@PAPA_W@__crt_state_management@@QAEXA6AXAAPAPA_W@Z@Z 10052979 f i libucrt:environment_initialization.obj
 0001:00051a0b       ??0?$__crt_unique_heap_ptr@PADU__crt_internal_free_policy@@@@QAE@QAPAD@Z 10052a0b f i libucrt:environment_initialization.obj
 0001:00051a1f       ??0?$__crt_unique_heap_ptr@PA_WU__crt_internal_free_policy@@@@QAE@QAPA_W@Z 10052a1f f i libucrt:environment_initialization.obj
 0001:00051a33       ??1?$__crt_unique_heap_ptr@PADU__crt_internal_free_policy@@@@QAE@XZ 10052a33 f i libucrt:environment_initialization.obj
 0001:00051a49       ??1?$__crt_unique_heap_ptr@PA_WU__crt_internal_free_policy@@@@QAE@XZ 10052a49 f i libucrt:environment_initialization.obj
 0001:00051a5f       ??B?$__crt_unique_heap_ptr@PADU__crt_internal_free_policy@@@@QBE_NXZ 10052a5f f i libucrt:environment_initialization.obj
 0001:00051a69       ??B?$__crt_unique_heap_ptr@PA_WU__crt_internal_free_policy@@@@QBE_NXZ 10052a69 f i libucrt:environment_initialization.obj
 0001:00051a73       ??B?$__crt_unique_heap_ptr@_WU__crt_internal_free_policy@@@@QBE_NXZ 10052a73 f i libucrt:environment_initialization.obj
 0001:00051a7d       ?__crt_compute_required_transform_buffer_count@@YAIIQBD@Z 10052a7d f i libucrt:environment_initialization.obj
 0001:00051a9d       ?__crt_compute_required_transform_buffer_count@@YAIIQB_W@Z 10052a9d f i libucrt:environment_initialization.obj
 0001:00051ac0       ?__crt_transform_string@@YAIIQBDQA_WI@Z 10052ac0 f i libucrt:environment_initialization.obj
 0001:00051ae4       ?__crt_transform_string@@YAIIQB_WQADI@Z 10052ae4 f i libucrt:environment_initialization.obj
 0001:00051b0c       ?detach@?$__crt_unique_heap_ptr@DU__crt_internal_free_policy@@@@QAEPADXZ 10052b0c f i libucrt:environment_initialization.obj
 0001:00051b12       ?detach@?$__crt_unique_heap_ptr@PADU__crt_internal_free_policy@@@@QAEPAPADXZ 10052b12 f i libucrt:environment_initialization.obj
 0001:00051b18       ?detach@?$__crt_unique_heap_ptr@PA_WU__crt_internal_free_policy@@@@QAEPAPA_WXZ 10052b18 f i libucrt:environment_initialization.obj
 0001:00051b1e       ?detach@?$__crt_unique_heap_ptr@_WU__crt_internal_free_policy@@@@QAEPA_WXZ 10052b1e f i libucrt:environment_initialization.obj
 0001:00051b24       ?get@?$__crt_unique_heap_ptr@PADU__crt_internal_free_policy@@@@QBEPAPADXZ 10052b24 f i libucrt:environment_initialization.obj
 0001:00051b27       ?get@?$__crt_unique_heap_ptr@PA_WU__crt_internal_free_policy@@@@QBEPAPA_WXZ 10052b27 f i libucrt:environment_initialization.obj
 0001:00051b2a       ?get_current_state_index@__crt_state_management@@YAIXZ 10052b2a f i libucrt:environment_initialization.obj
 0001:00051b51       ?initialize@?$dual_state_global@PAPAD@__crt_state_management@@QAEXQAPAD@Z 10052b51 f i libucrt:environment_initialization.obj
 0001:00051b8e       ?initialize@?$dual_state_global@PAPA_W@__crt_state_management@@QAEXQAPA_W@Z 10052b8e f i libucrt:environment_initialization.obj
 0001:00051bcb       ?is_valid@?$__crt_unique_heap_ptr@PADU__crt_internal_free_policy@@@@QBE_NXZ 10052bcb f i libucrt:environment_initialization.obj
 0001:00051bd5       ?is_valid@?$__crt_unique_heap_ptr@PA_WU__crt_internal_free_policy@@@@QBE_NXZ 10052bd5 f i libucrt:environment_initialization.obj
 0001:00051bdf       ?is_valid@?$__crt_unique_heap_ptr@_WU__crt_internal_free_policy@@@@QBE_NXZ 10052bdf f i libucrt:environment_initialization.obj
 0001:00051bef       ?release@?$__crt_unique_heap_ptr@PADU__crt_internal_free_policy@@@@QAEXXZ 10052bef f i libucrt:environment_initialization.obj
 0001:00051c05       ?release@?$__crt_unique_heap_ptr@PA_WU__crt_internal_free_policy@@@@QAEXXZ 10052c05 f i libucrt:environment_initialization.obj
 0001:00051c1b       ?value@?$dual_state_global@PAPAD@__crt_state_management@@QAEAAPAPADXZ 10052c1b f i libucrt:environment_initialization.obj
 0001:00051c1e       ?value@?$dual_state_global@PAPA_W@__crt_state_management@@QAEAAPAPA_WXZ 10052c1e f i libucrt:environment_initialization.obj
 0001:00051c21       ___dcrt_get_or_create_narrow_environment_nolock 10052c21 f   libucrt:environment_initialization.obj
 0001:00051c26       ___dcrt_get_or_create_wide_environment_nolock 10052c26 f   libucrt:environment_initialization.obj
 0001:00051c2b       ___dcrt_uninitialize_environments_nolock 10052c2b f   libucrt:environment_initialization.obj
 0001:00051c6f       ___p__environ              10052c6f f   libucrt:environment_initialization.obj
 0001:00051c75       ___p__wenviron             10052c75 f   libucrt:environment_initialization.obj
 0001:00051c7b       __get_initial_narrow_environment 10052c7b f   libucrt:environment_initialization.obj
 0001:00051c94       __get_initial_wide_environment 10052c94 f   libucrt:environment_initialization.obj
 0001:00051cad       __initialize_narrow_environment 10052cad f   libucrt:environment_initialization.obj
 0001:00051cb2       __initialize_wide_environment 10052cb2 f   libucrt:environment_initialization.obj
 0001:00051cb7       ??$?BP6AXXZ@__crt_fast_encoded_nullptr_t@@QBEPAP6AXXZXZ 10052cb7 f i libucrt:onexit.obj
 0001:00051cd5       ??$?RP6AXXZ@__crt_internal_free_policy@@QBEXQBQ6AXXZ@Z 10052cd5 f i libucrt:onexit.obj
 0001:00051ceb       ??$?RV<lambda_800076c951b434888f4765a74a194fcc>@@AAV<lambda_4e60a939b0d047cfe11ddc22648dfba9>@@V<lambda_6dbb1268764f43b569ce7b67e331d33a>@@@?$__crt_seh_guarded_call@H@@QAEH$$QAV<lambda_800076c951b434888f4765a74a194fcc>@@AAV<lambda_4e60a939b0d047cfe11ddc22648dfba9>@@$$QAV<lambda_6dbb1268764f43b569ce7b67e331d33a>@@@Z 10052ceb f i libucrt:onexit.obj
 0001:00051d50       ??$?RV<lambda_995298e7d72eb4c2aab26c0585b3abe5>@@AAV<lambda_275893d493268fdec8709772e3fcec0e>@@V<lambda_293819299cbf9a7022e18b56a874bb5c>@@@?$__crt_seh_guarded_call@H@@QAEH$$QAV<lambda_995298e7d72eb4c2aab26c0585b3abe5>@@AAV<lambda_275893d493268fdec8709772e3fcec0e>@@$$QAV<lambda_293819299cbf9a7022e18b56a874bb5c>@@@Z 10052d50 f i libucrt:onexit.obj
 0001:00051db5       ??$__acrt_lock_and_call@V<lambda_275893d493268fdec8709772e3fcec0e>@@@@YAHW4__acrt_lock_id@@$$QAV<lambda_275893d493268fdec8709772e3fcec0e>@@@Z 10052db5 f i libucrt:onexit.obj
 0001:00051de7       ??$__acrt_lock_and_call@V<lambda_4e60a939b0d047cfe11ddc22648dfba9>@@@@YAHW4__acrt_lock_id@@$$QAV<lambda_4e60a939b0d047cfe11ddc22648dfba9>@@@Z 10052de7 f i libucrt:onexit.obj
 0001:00051e19       ??$__crt_fast_encode_pointer@P6AHXZ@@YAP6AHXZQ6AHXZ@Z 10052e19 f i libucrt:onexit.obj
 0001:00051ec6       ??0?$__crt_unique_heap_ptr@P6AXXZU__crt_internal_free_policy@@@@QAE@QAP6AXXZ@Z 10052ec6 f i libucrt:onexit.obj
 0001:00051eda       ??1?$__crt_unique_heap_ptr@P6AXXZU__crt_internal_free_policy@@@@QAE@XZ 10052eda f i libucrt:onexit.obj
 0001:00052215       ?detach@?$__crt_unique_heap_ptr@P6AXXZU__crt_internal_free_policy@@@@QAEPAP6AXXZXZ 10053215 f i libucrt:onexit.obj
 0001:0005221b       ?release@?$__crt_unique_heap_ptr@P6AXXZU__crt_internal_free_policy@@@@QAEXXZ 1005321b f i libucrt:onexit.obj
 0001:00052231       __crt_at_quick_exit        10053231 f   libucrt:onexit.obj
 0001:0005224c       __crt_atexit               1005324c f   libucrt:onexit.obj
 0001:00052267       __execute_onexit_table     10053267 f   libucrt:onexit.obj
 0001:0005228b       __initialize_onexit_table  1005328b f   libucrt:onexit.obj
 0001:000522d7       __register_onexit_function 100532d7 f   libucrt:onexit.obj
 0001:0005243e       ?initialize@?$dual_state_global@PAU__crt_locale_data@@@__crt_state_management@@QAEXQAU__crt_locale_data@@@Z 1005343e f i libucrt:initialization.obj
 0001:0005247b       ___acrt_initialize         1005347b f   libucrt:initialization.obj
 0001:00052491       ___acrt_thread_attach      10053491 f   libucrt:initialization.obj
 0001:0005249e       ___acrt_thread_detach      1005349e f   libucrt:initialization.obj
 0001:000524a8       ___acrt_uninitialize       100534a8 f   libucrt:initialization.obj
 0001:000524be       ___acrt_uninitialize_critical 100534be f   libucrt:initialization.obj
 0001:000524ef       __get_terminate            100534ef f   libucrt:terminate.obj
 0001:00052505       _set_terminate             10053505 f   libucrt:terminate.obj
 0001:0005252d       _terminate                 1005352d f   libucrt:terminate.obj
 0001:00052578       ??$__crt_interlocked_exchange_pointer@X$$T@@YAPAXPDSAX$$T@Z 10053578 f i libucrt:free_base.obj
 0001:00052590       ___acrt_get_msvcrt_heap_handle 10053590 f   libucrt:free_base.obj
 0001:00052621       __free_base                10053621 f   libucrt:free_base.obj
 0001:00052669       __malloc_base              10053669 f   libucrt:malloc_base.obj
 0001:0005273a       _strcpy_s                  1005373a f   libucrt:strcpy_s.obj
 0001:000527aa       __set_abort_behavior       100537aa f   libucrt:abort.obj
 0001:000527d3       _abort                     100537d3 f   libucrt:abort.obj
 0001:00052826       __calloc_base              10053826 f   libucrt:calloc_base.obj
 0001:0005289a       ??$is_overflow_condition@K@__crt_strtox@@YA_NIK@Z 1005389a f i libucrt:atox.obj
 0001:000528d9       ??$is_overflow_condition@_K@__crt_strtox@@YA_NI_K@Z 100538d9 f i libucrt:atox.obj
 0001:0005292c       ??$make_c_string_character_source@D$$T@__crt_strtox@@YA?AV?$c_string_character_source@D@0@QBD$$T@Z 1005392c f i libucrt:atox.obj
 0001:0005294d       ??$make_c_string_character_source@_W$$T@__crt_strtox@@YA?AV?$c_string_character_source@_W@0@QB_W$$T@Z 1005394d f i libucrt:atox.obj
 0001:0005296e       ??$parse_integer@KV?$c_string_character_source@D@__crt_strtox@@@__crt_strtox@@YAKQAU__crt_locale_pointers@@V?$c_string_character_source@D@0@H_N@Z 1005396e f i libucrt:atox.obj
 0001:00052c20       ??$parse_integer@KV?$c_string_character_source@_W@__crt_strtox@@@__crt_strtox@@YAKQAU__crt_locale_pointers@@V?$c_string_character_source@_W@0@H_N@Z 10053c20 f i libucrt:atox.obj
 0001:000534be       ??$parse_integer@_KV?$c_string_character_source@D@__crt_strtox@@@__crt_strtox@@YA_KQAU__crt_locale_pointers@@V?$c_string_character_source@D@0@H_N@Z 100544be f i libucrt:atox.obj
 0001:0005380d       ??$parse_integer@_KV?$c_string_character_source@_W@__crt_strtox@@@__crt_strtox@@YA_KQAU__crt_locale_pointers@@V?$c_string_character_source@_W@0@H_N@Z 1005480d f i libucrt:atox.obj
 0001:00053f7f       ??$parse_integer_from_string@JD$$T@__crt_strtox@@YAJQBD$$THQAU__crt_locale_pointers@@@Z 10054f7f f i libucrt:atox.obj
 0001:00053fb7       ??$parse_integer_from_string@J_W$$T@__crt_strtox@@YAJQB_W$$THQAU__crt_locale_pointers@@@Z 10054fb7 f i libucrt:atox.obj
 0001:00053fef       ??$parse_integer_from_string@_JD$$T@__crt_strtox@@YA_JQBD$$THQAU__crt_locale_pointers@@@Z 10054fef f i libucrt:atox.obj
 0001:00054027       ??$parse_integer_from_string@_J_W$$T@__crt_strtox@@YA_JQB_W$$THQAU__crt_locale_pointers@@@Z 10055027 f i libucrt:atox.obj
 0001:0005405f       ??0?$c_string_character_source@D@__crt_strtox@@QAE@QBDQAPBD@Z 1005505f f i libucrt:atox.obj
 0001:00054082       ??0?$c_string_character_source@_W@__crt_strtox@@QAE@QB_WQAPB_W@Z 10055082 f i libucrt:atox.obj
 0001:000540a5       ??1?$c_string_character_source@D@__crt_strtox@@QAE@XZ 100550a5 f i libucrt:atox.obj
 0001:000540b4       ??1?$c_string_character_source@_W@__crt_strtox@@QAE@XZ 100550b4 f i libucrt:atox.obj
 0001:000540c3       ?get@?$c_string_character_source@D@__crt_strtox@@QAEDXZ 100550c3 f i libucrt:atox.obj
 0001:000540cd       ?get@?$c_string_character_source@_W@__crt_strtox@@QAE_WXZ 100550cd f i libucrt:atox.obj
 0001:000540da       ?is_space@__crt_strtox@@YA_NDQAU__crt_locale_pointers@@@Z 100550da f i libucrt:atox.obj
 0001:00054100       ?is_space@__crt_strtox@@YA_N_WPAU__crt_locale_pointers@@@Z 10055100 f i libucrt:atox.obj
 0001:0005411f       ?maximum_signed_value@__crt_strtox@@YAJK@Z 1005511f f i libucrt:atox.obj
 0001:00054125       ?maximum_signed_value@__crt_strtox@@YA_J_K@Z 10055125 f i libucrt:atox.obj
 0001:00054130       ?minimum_signed_value@__crt_strtox@@YAJK@Z 10055130 f i libucrt:atox.obj
 0001:00054136       ?minimum_signed_value@__crt_strtox@@YA_J_K@Z 10055136 f i libucrt:atox.obj
 0001:00054140       ?parse_digit@__crt_strtox@@YAID@Z 10055140 f i libucrt:atox.obj
 0001:00054188       ?parse_digit@__crt_strtox@@YAI_W@Z 10055188 f i libucrt:atox.obj
 0001:000543e5       ?restore_state@?$c_string_character_source@D@__crt_strtox@@QAE_NQBD@Z 100553e5 f i libucrt:atox.obj
 0001:000543f9       ?restore_state@?$c_string_character_source@_W@__crt_strtox@@QAE_NQB_W@Z 100553f9 f i libucrt:atox.obj
 0001:0005440d       ?save_state@?$c_string_character_source@D@__crt_strtox@@QBEPBDXZ 1005540d f i libucrt:atox.obj
 0001:00054410       ?save_state@?$c_string_character_source@_W@__crt_strtox@@QBEPB_WXZ 10055410 f i libucrt:atox.obj
 0001:00054413       ?unget@?$c_string_character_source@D@__crt_strtox@@QAEXD@Z 10055413 f i libucrt:atox.obj
 0001:00054445       ?unget@?$c_string_character_source@_W@__crt_strtox@@QAEX_W@Z 10055445 f i libucrt:atox.obj
 0001:0005447c       ?validate@?$c_string_character_source@D@__crt_strtox@@QBE_NXZ 1005547c f i libucrt:atox.obj
 0001:0005449d       ?validate@?$c_string_character_source@_W@__crt_strtox@@QBE_NXZ 1005549d f i libucrt:atox.obj
 0001:000544be       ?wide_character_to_digit@__crt_strtox@@YAH_W@Z 100554be f i libucrt:atox.obj
 0001:000546c7       ___acrt_get_locale_data_prefix 100556c7 f i libucrt:atox.obj
 0001:000546d6       __atoi64                   100556d6 f   libucrt:atox.obj
 0001:0005470a       __atoi64_l                 1005570a f   libucrt:atox.obj
 0001:0005473f       __atoi_l                   1005573f f   libucrt:atox.obj
 0001:00054774       __atol_l                   10055774 f   libucrt:atox.obj
 0001:000547a9       __atoll_l                  100557a9 f   libucrt:atox.obj
 0001:000547de       __chvalidchk_l             100557de f i libucrt:atox.obj
 0001:00054812       __ischartype_l             10055812 f i libucrt:atox.obj
 0001:00054851       __wtoi                     10055851 f   libucrt:atox.obj
 0001:00054885       __wtoi64                   10055885 f   libucrt:atox.obj
 0001:000548b9       __wtoi64_l                 100558b9 f   libucrt:atox.obj
 0001:000548ee       __wtoi_l                   100558ee f   libucrt:atox.obj
 0001:00054923       __wtol                     10055923 f   libucrt:atox.obj
 0001:00054957       __wtol_l                   10055957 f   libucrt:atox.obj
 0001:0005498c       __wtoll                    1005598c f   libucrt:atox.obj
 0001:000549c0       __wtoll_l                  100559c0 f   libucrt:atox.obj
 0001:000549f5       _atoi                      100559f5 f   libucrt:atox.obj
 0001:00054a29       _atol                      10055a29 f   libucrt:atox.obj
 0001:00054a5d       _atoll                     10055a5d f   libucrt:atox.obj
 0001:00054a91       ??$__crt_fast_decode_pointer@P6AXPB_W00II@Z@@YAP6AXPB_W00II@ZQ6AX000II@Z@Z 10055a91 f i libucrt:invalid_parameter.obj
 0001:00054aac       ??$__crt_fast_encode_pointer@P6AXPB_W00II@Z@@YAP6AXPB_W00II@ZQ6AX000II@Z@Z 10055aac f i libucrt:invalid_parameter.obj
 0001:00054ad2       ?initialize@?$dual_state_global@P6AXPB_W00II@Z@__crt_state_management@@QAEXQ6AXPB_W00II@Z@Z 10055ad2 f i libucrt:invalid_parameter.obj
 0001:00054b0f       ?value@?$dual_state_global@P6AXPB_W00II@Z@__crt_state_management@@QAEAAP6AXPB_W00II@ZXZ 10055b0f f i libucrt:invalid_parameter.obj
 0001:00054b12       ___acrt_call_reportfault   10055b12 f   libucrt:invalid_parameter.obj
 0001:00054c9b       ___acrt_initialize_invalid_parameter_handler 10055c9b f   libucrt:invalid_parameter.obj
 0001:00054cb4       __get_invalid_parameter_handler 10055cb4 f   libucrt:invalid_parameter.obj
 0001:00054ccb       __get_thread_local_invalid_parameter_handler 10055ccb f   libucrt:invalid_parameter.obj
 0001:00054ce0       __invalid_parameter        10055ce0 f   libucrt:invalid_parameter.obj
 0001:00054d79       __invalid_parameter_noinfo 10055d79 f   libucrt:invalid_parameter.obj
 0001:00054d8d       __invalid_parameter_noinfo_noreturn 10055d8d f   libucrt:invalid_parameter.obj
 0001:00054db1       __invoke_watson            10055db1 f   libucrt:invalid_parameter.obj
 0001:00054df0       __set_invalid_parameter_handler 10055df0 f   libucrt:invalid_parameter.obj
 0001:00054e2c       __set_thread_local_invalid_parameter_handler 10055e2c f   libucrt:invalid_parameter.obj
 0001:00054e50       ___acrt_errno_from_os_error 10055e50 f   libucrt:errno.obj
 0001:00054ea3       ___acrt_errno_map_os_error 10055ea3 f   libucrt:errno.obj
 0001:00054ece       ___doserrno                10055ece f   libucrt:errno.obj
 0001:00054ee5       __errno                    10055ee5 f   libucrt:errno.obj
 0001:00054efc       __get_doserrno             10055efc f   libucrt:errno.obj
 0001:00054f2a       __get_errno                10055f2a f   libucrt:errno.obj
 0001:00054f58       __set_doserrno             10055f58 f   libucrt:errno.obj
 0001:00054f81       __set_errno                10055f81 f   libucrt:errno.obj
 0001:00055001       ??$?B$$A6GHPA_WKJ@Z@__crt_fast_encoded_nullptr_t@@QBEP6GHPA_WKJ@ZXZ 10056001 f i libucrt:winapi_thunks.obj
 0001:0005501f       ??$?RV<lambda_9227be29367c048ad7fd93a717dcb1a1>@@AAV<lambda_a463b7b0560cfcaf9b17f27c6ef46564>@@V<lambda_ccea11b5727ccf69be64f5f5d9a08d9f>@@@?$__crt_seh_guarded_call@H@@QAEH$$QAV<lambda_9227be29367c048ad7fd93a717dcb1a1>@@AAV<lambda_a463b7b0560cfcaf9b17f27c6ef46564>@@$$QAV<lambda_ccea11b5727ccf69be64f5f5d9a08d9f>@@@Z 1005601f f i libucrt:winapi_thunks.obj
 0001:000550c4       ??$__acrt_lock_and_call@V<lambda_a463b7b0560cfcaf9b17f27c6ef46564>@@@@YAHW4__acrt_lock_id@@$$QAV<lambda_a463b7b0560cfcaf9b17f27c6ef46564>@@@Z 100560c4 f i libucrt:winapi_thunks.obj
 0001:000550f6       ??$__crt_fast_decode_pointer@P6GHPA_WKJ@Z@@YAP6GHPA_WKJ@ZQ6GH0KJ@Z@Z 100560f6 f i libucrt:winapi_thunks.obj
 0001:00055111       ??$__crt_fast_encode_pointer@P6GHPA_WKJ@Z@@YAP6GHPA_WKJ@ZQ6GH0KJ@Z@Z 10056111 f i libucrt:winapi_thunks.obj
 0001:0005583e       ___acrt_AreFileApisANSI@0  1005683e f   libucrt:winapi_thunks.obj
 0001:0005589f       ___acrt_CompareStringEx@36 1005689f f   libucrt:winapi_thunks.obj
 0001:00055930       ___acrt_EnumSystemLocalesEx@16 10056930 f   libucrt:winapi_thunks.obj
 0001:000559b8       ___acrt_FlsAlloc@4         100569b8 f   libucrt:winapi_thunks.obj
 0001:00055a23       ___acrt_FlsFree@4          10056a23 f   libucrt:winapi_thunks.obj
 0001:00055a8e       ___acrt_FlsGetValue@4      10056a8e f   libucrt:winapi_thunks.obj
 0001:00055af9       ___acrt_FlsSetValue@8      10056af9 f   libucrt:winapi_thunks.obj
 0001:00055b68       ___acrt_GetDateFormatEx@28 10056b68 f   libucrt:winapi_thunks.obj
 0001:00055c0a       ___acrt_GetEnabledXStateFeatures@0 10056c0a f   libucrt:winapi_thunks.obj
 0001:00055c6c       ___acrt_GetFileInformationByHandleEx@16 10056c6c f   libucrt:winapi_thunks.obj
 0001:00055ce7       ___acrt_GetLocaleInfoEx@16 10056ce7 f   libucrt:winapi_thunks.obj
 0001:00055d6b       ___acrt_GetSystemTimePreciseAsFileTime@4 10056d6b f   libucrt:winapi_thunks.obj
 0001:00055dd6       ___acrt_GetTimeFormatEx@24 10056dd6 f   libucrt:winapi_thunks.obj
 0001:00055e62       ___acrt_GetUserDefaultLocaleName@8 10056e62 f   libucrt:winapi_thunks.obj
 0001:00055ee2       ___acrt_GetXStateFeaturesMask@8 10056ee2 f   libucrt:winapi_thunks.obj
 0001:00055f4e       ___acrt_InitializeCriticalSectionEx@12 10056f4e f   libucrt:winapi_thunks.obj
 0001:00055fc8       ___acrt_IsValidLocaleName@4 10056fc8 f   libucrt:winapi_thunks.obj
 0001:00056043       ___acrt_LCIDToLocaleName@16 10057043 f   libucrt:winapi_thunks.obj
 0001:000560c7       ___acrt_LCMapStringEx@36   100570c7 f   libucrt:winapi_thunks.obj
 0001:00056171       ___acrt_LocaleNameToLCID@8 10057171 f   libucrt:winapi_thunks.obj
 0001:000561e4       ___acrt_LocateXStateFeature@12 100571e4 f   libucrt:winapi_thunks.obj
 0001:0005623b       ___acrt_MessageBoxA@16     1005723b f   libucrt:winapi_thunks.obj
 0001:00056296       ___acrt_MessageBoxW@16     10057296 f   libucrt:winapi_thunks.obj
 0001:000562f1       ___acrt_RoInitialize@4     100572f1 f   libucrt:winapi_thunks.obj
 0001:00056357       ___acrt_RoUninitialize@0   10057357 f   libucrt:winapi_thunks.obj
 0001:000563b2       ___acrt_RtlGenRandom@8     100573b2 f   libucrt:winapi_thunks.obj
 0001:0005641e       ___acrt_SetThreadStackGuarantee@4 1005741e f   libucrt:winapi_thunks.obj
 0001:00056484       ___acrt_can_show_message_box 10057484 f   libucrt:winapi_thunks.obj
 0001:000564a3       ___acrt_can_use_vista_locale_apis 100574a3 f   libucrt:winapi_thunks.obj
 0001:000564b2       ___acrt_can_use_xstate_apis 100574b2 f   libucrt:winapi_thunks.obj
 0001:000564c1       ___acrt_get_parent_window  100574c1 f   libucrt:winapi_thunks.obj
 0001:0005655f       ___acrt_initialize_winapi_thunks 1005755f f   libucrt:winapi_thunks.obj
 0001:0005658e       ___acrt_is_interactive     1005758e f   libucrt:winapi_thunks.obj
 0001:0005665d       ___acrt_is_packaged_app    1005765d f   libucrt:winapi_thunks.obj
 0001:00056705       ___acrt_uninitialize_winapi_thunks 10057705 f   libucrt:winapi_thunks.obj
 0001:00056748       ??0__crt_stdio_stream@@QAE@QAU__crt_stdio_stream_data@@@Z 10057748 f i libucrt:closeall.obj
 0001:0005675c       __fcloseall                1005775c f   libucrt:closeall.obj
 0001:00056824       ___acrt_stdio_flush_nolock 10057824 f   libucrt:fflush.obj
 0001:000568a3       __fflush_nolock            100578a3 f   libucrt:fflush.obj
 0001:000568fb       __flushall                 100578fb f   libucrt:fflush.obj
 0001:00056a14       _fflush                    10057a14 f   libucrt:fflush.obj
 0001:00056a83       ?has_crt_buffer@__crt_stdio_stream@@QBE_NXZ 10057a83 f i libucrt:_freebuf.obj
 0001:00056a92       ___acrt_stdio_free_buffer_nolock 10057a92 f   libucrt:_freebuf.obj
 0001:00056ccf       ___acrt_initialize_lowio   10057ccf f   libucrt:ioinit.obj
 0001:00056d3a       ___acrt_uninitialize_lowio 10057d3a f   libucrt:ioinit.obj
 0001:00056d8c       ___isascii                 10057d8c f i libucrt:_ctype.obj
 0001:00056da2       ___iscsym                  10057da2 f i libucrt:_ctype.obj
 0001:00056dcc       ___iscsymf                 10057dcc f i libucrt:_ctype.obj
 0001:00056df2       ___toascii                 10057df2 f i libucrt:_ctype.obj
 0001:00056e02       __isalnum_l                10057e02 f i libucrt:_ctype.obj
 0001:00056e4b       __isalpha_l                10057e4b f i libucrt:_ctype.obj
 0001:00056e94       __isblank_l                10057e94 f i libucrt:_ctype.obj
 0001:00056ee7       __iscntrl_l                10057ee7 f i libucrt:_ctype.obj
 0001:00056f2d       __iscsym_l                 10057f2d f i libucrt:_ctype.obj
 0001:00056f58       __iscsymf_l                10057f58 f i libucrt:_ctype.obj
 0001:00056f83       __isdigit_l                10057f83 f i libucrt:_ctype.obj
 0001:00056fc9       __isgraph_l                10057fc9 f i libucrt:_ctype.obj
 0001:00057012       __islower_l                10058012 f i libucrt:_ctype.obj
 0001:00057058       __isprint_l                10058058 f i libucrt:_ctype.obj
 0001:000570a1       __ispunct_l                100580a1 f i libucrt:_ctype.obj
 0001:000570e7       __isspace_l                100580e7 f i libucrt:_ctype.obj
 0001:0005712d       __isupper_l                1005812d f i libucrt:_ctype.obj
 0001:00057173       __isxdigit_l               10058173 f i libucrt:_ctype.obj
 0001:000571bc       _isalnum                   100581bc f i libucrt:_ctype.obj
 0001:000571f6       _isalpha                   100581f6 f i libucrt:_ctype.obj
 0001:00057230       _isblank                   10058230 f i libucrt:_ctype.obj
 0001:00057274       _iscntrl                   10058274 f i libucrt:_ctype.obj
 0001:000572ac       _isdigit                   100582ac f i libucrt:_ctype.obj
 0001:000572e4       _isgraph                   100582e4 f i libucrt:_ctype.obj
 0001:0005731e       _islower                   1005831e f i libucrt:_ctype.obj
 0001:00057356       _isprint                   10058356 f i libucrt:_ctype.obj
 0001:00057390       _ispunct                   10058390 f i libucrt:_ctype.obj
 0001:000573c8       _isspace                   100583c8 f i libucrt:_ctype.obj
 0001:00057400       _isupper                   10058400 f i libucrt:_ctype.obj
 0001:00057438       _isxdigit                  10058438 f i libucrt:_ctype.obj
 0001:00057830       __tolower                  10058830 f   libucrt:tolower_toupper.obj
 0001:00057840       __tolower_l                10058840 f   libucrt:tolower_toupper.obj
 0001:00057860       __toupper                  10058860 f   libucrt:tolower_toupper.obj
 0001:00057870       __toupper_l                10058870 f   libucrt:tolower_toupper.obj
 0001:00057890       _tolower                   10058890 f   libucrt:tolower_toupper.obj
 0001:000578cc       _toupper                   100588cc f   libucrt:tolower_toupper.obj
 0001:00057908       ??$make_c_string_character_source@DPAPAD@__crt_strtox@@YA?AV?$c_string_character_source@D@0@QBDQAPAD@Z 10058908 f i libucrt:strtox.obj
 0001:00057929       ??$make_c_string_character_source@_WPAPA_W@__crt_strtox@@YA?AV?$c_string_character_source@_W@0@QB_WQAPA_W@Z 10058929 f i libucrt:strtox.obj
 0001:0005794a       ??$parse_integer_from_string@JDPAPAD@__crt_strtox@@YAJQBDQAPADHQAU__crt_locale_pointers@@@Z 1005894a f i libucrt:strtox.obj
 0001:00057982       ??$parse_integer_from_string@J_WPAPA_W@__crt_strtox@@YAJQB_WQAPA_WHQAU__crt_locale_pointers@@@Z 10058982 f i libucrt:strtox.obj
 0001:000579ba       ??$parse_integer_from_string@KDPAPAD@__crt_strtox@@YAKQBDQAPADHQAU__crt_locale_pointers@@@Z 100589ba f i libucrt:strtox.obj
 0001:000579f2       ??$parse_integer_from_string@K_WPAPA_W@__crt_strtox@@YAKQB_WQAPA_WHQAU__crt_locale_pointers@@@Z 100589f2 f i libucrt:strtox.obj
 0001:00057a2a       ??$parse_integer_from_string@_JDPAPAD@__crt_strtox@@YA_JQBDQAPADHQAU__crt_locale_pointers@@@Z 10058a2a f i libucrt:strtox.obj
 0001:00057a62       ??$parse_integer_from_string@_J_WPAPA_W@__crt_strtox@@YA_JQB_WQAPA_WHQAU__crt_locale_pointers@@@Z 10058a62 f i libucrt:strtox.obj
 0001:00057a9a       ??$parse_integer_from_string@_KDPAPAD@__crt_strtox@@YA_KQBDQAPADHQAU__crt_locale_pointers@@@Z 10058a9a f i libucrt:strtox.obj
 0001:00057ad2       ??$parse_integer_from_string@_K_WPAPA_W@__crt_strtox@@YA_KQB_WQAPA_WHQAU__crt_locale_pointers@@@Z 10058ad2 f i libucrt:strtox.obj
 0001:00057b0a       __strtoi64                 10058b0a f   libucrt:strtox.obj
 0001:00057b41       __strtoi64_l               10058b41 f   libucrt:strtox.obj
 0001:00057b79       __strtoimax_l              10058b79 f   libucrt:strtox.obj
 0001:00057bb1       __strtol_l                 10058bb1 f   libucrt:strtox.obj
 0001:00057be9       __strtoll_l                10058be9 f   libucrt:strtox.obj
 0001:00057c21       __strtoui64                10058c21 f   libucrt:strtox.obj
 0001:00057c58       __strtoui64_l              10058c58 f   libucrt:strtox.obj
 0001:00057c90       __strtoul_l                10058c90 f   libucrt:strtox.obj
 0001:00057cc8       __strtoull_l               10058cc8 f   libucrt:strtox.obj
 0001:00057d00       __strtoumax_l              10058d00 f   libucrt:strtox.obj
 0001:00057d38       __wcstoi64                 10058d38 f   libucrt:strtox.obj
 0001:00057d6f       __wcstoi64_l               10058d6f f   libucrt:strtox.obj
 0001:00057da7       __wcstoimax_l              10058da7 f   libucrt:strtox.obj
 0001:00057ddf       __wcstol_l                 10058ddf f   libucrt:strtox.obj
 0001:00057e17       __wcstoll_l                10058e17 f   libucrt:strtox.obj
 0001:00057e4f       __wcstoui64                10058e4f f   libucrt:strtox.obj
 0001:00057e86       __wcstoui64_l              10058e86 f   libucrt:strtox.obj
 0001:00057ebe       __wcstoul_l                10058ebe f   libucrt:strtox.obj
 0001:00057ef6       __wcstoull_l               10058ef6 f   libucrt:strtox.obj
 0001:00057f2e       __wcstoumax_l              10058f2e f   libucrt:strtox.obj
 0001:00057f66       _strtoimax                 10058f66 f   libucrt:strtox.obj
 0001:00057f9d       _strtol                    10058f9d f   libucrt:strtox.obj
 0001:00057fd4       _strtoll                   10058fd4 f   libucrt:strtox.obj
 0001:0005800b       _strtoul                   1005900b f   libucrt:strtox.obj
 0001:00058042       _strtoull                  10059042 f   libucrt:strtox.obj
 0001:00058079       _strtoumax                 10059079 f   libucrt:strtox.obj
 0001:000580b0       _wcstoimax                 100590b0 f   libucrt:strtox.obj
 0001:000580e7       _wcstol                    100590e7 f   libucrt:strtox.obj
 0001:0005811e       _wcstoll                   1005911e f   libucrt:strtox.obj
 0001:00058155       _wcstoul                   10059155 f   libucrt:strtox.obj
 0001:0005818c       _wcstoull                  1005918c f   libucrt:strtox.obj
 0001:000581c3       _wcstoumax                 100591c3 f   libucrt:strtox.obj
 0001:000581fa       __mbtowc_l                 100591fa f   libucrt:mbtowc.obj
 0001:00058332       _mbtowc                    10059332 f   libucrt:mbtowc.obj
 0001:00058352       __wctomb_l                 10059352 f   libucrt:wctomb.obj
 0001:000583b9       __wctomb_s_l               100593b9 f   libucrt:wctomb.obj
 0001:00058522       _wctomb                    10059522 f   libucrt:wctomb.obj
 0001:00058563       _wctomb_s                  10059563 f   libucrt:wctomb.obj
 0001:00058c7b       ??1?$__crt_simd_cleanup_guard@$00@@QAE@XZ 10059c7b f i libucrt:strnlen.obj
 0001:00058c7f       ??1?$__crt_simd_cleanup_guard@$0A@@@QAE@XZ 10059c7f f i libucrt:strnlen.obj
 0001:00058c80       ?compare_equals@?$__crt_simd_traits@$00E@@SA?AT__m256i@@T2@0@Z 10059c80 f i libucrt:strnlen.obj
 0001:00058c85       ?compare_equals@?$__crt_simd_traits@$00G@@SA?AT__m256i@@T2@0@Z 10059c85 f i libucrt:strnlen.obj
 0001:00058c8a       ?compare_equals@?$__crt_simd_traits@$0A@E@@SA?AT__m128i@@T2@0@Z 10059c8a f i libucrt:strnlen.obj
 0001:00058c8f       ?compare_equals@?$__crt_simd_traits@$0A@G@@SA?AT__m128i@@T2@0@Z 10059c8f f i libucrt:strnlen.obj
 0001:00058c94       ?compute_byte_mask@?$__crt_simd_pack_traits@$00@@SAHT__m256i@@@Z 10059c94 f i libucrt:strnlen.obj
 0001:00058c99       ?compute_byte_mask@?$__crt_simd_pack_traits@$0A@@@SAHT__m128i@@@Z 10059c99 f i libucrt:strnlen.obj
 0001:00058c9e       ?get_zero_pack@?$__crt_simd_pack_traits@$00@@SA?AT__m256i@@XZ 10059c9e f i libucrt:strnlen.obj
 0001:00058ca3       ?get_zero_pack@?$__crt_simd_pack_traits@$0A@@@SA?AT__m128i@@XZ 10059ca3 f i libucrt:strnlen.obj
 0001:00058ca8       _strnlen                   10059ca8 f   libucrt:strnlen.obj
 0001:00058e18       _wcsnlen                   10059e18 f   libucrt:strnlen.obj
 0001:0005903c       ??$?RU__acrt_ptd@@@__crt_internal_free_policy@@QBEXQBU__acrt_ptd@@@Z 1005a03c f i libucrt:per_thread_data.obj
 0001:00059052       ??$?RV<lambda_3518db117f0e7cdb002338c5d3c47b6c>@@AAV<lambda_b2ea41f6bbb362cd97d94c6828d90b61>@@V<lambda_abdedf541bb04549bc734292b4a045d4>@@@?$__crt_seh_guarded_call@X@@QAEX$$QAV<lambda_3518db117f0e7cdb002338c5d3c47b6c>@@AAV<lambda_b2ea41f6bbb362cd97d94c6828d90b61>@@$$QAV<lambda_abdedf541bb04549bc734292b4a045d4>@@@Z 1005a052 f i libucrt:per_thread_data.obj
 0001:000590b6       ??$?RV<lambda_51b6e8b1eb166f2a3faf91f424b38130>@@AAV<lambda_6250bd4b2a391816dd638c3bf72b0bcb>@@V<lambda_0b5a4a3e68152e1d9b943535f5f47bed>@@@?$__crt_seh_guarded_call@X@@QAEX$$QAV<lambda_51b6e8b1eb166f2a3faf91f424b38130>@@AAV<lambda_6250bd4b2a391816dd638c3bf72b0bcb>@@$$QAV<lambda_0b5a4a3e68152e1d9b943535f5f47bed>@@@Z 1005a0b6 f i libucrt:per_thread_data.obj
 0001:0005912f       ??$?RV<lambda_5b71d36f03204c0beab531769a5b5694>@@AAV<lambda_be2b3da3f62db62e9dad5dc70221a656>@@V<lambda_8f9ce462984622f9bf76b59e2aaaf805>@@@?$__crt_seh_guarded_call@X@@QAEX$$QAV<lambda_5b71d36f03204c0beab531769a5b5694>@@AAV<lambda_be2b3da3f62db62e9dad5dc70221a656>@@$$QAV<lambda_8f9ce462984622f9bf76b59e2aaaf805>@@@Z 1005a12f f i libucrt:per_thread_data.obj
 0001:0005918c       ??$?RV<lambda_9df27f884b057bc3edfc946cb5b7cf47>@@AAV<lambda_e69574bed617af4e071282c136b37893>@@V<lambda_cc0d902bcbbeb830f749456577db4721>@@@?$__crt_seh_guarded_call@X@@QAEX$$QAV<lambda_9df27f884b057bc3edfc946cb5b7cf47>@@AAV<lambda_e69574bed617af4e071282c136b37893>@@$$QAV<lambda_cc0d902bcbbeb830f749456577db4721>@@@Z 1005a18c f i libucrt:per_thread_data.obj
 0001:000591e6       ??$__acrt_lock_and_call@V<lambda_6250bd4b2a391816dd638c3bf72b0bcb>@@@@YAXW4__acrt_lock_id@@$$QAV<lambda_6250bd4b2a391816dd638c3bf72b0bcb>@@@Z 1005a1e6 f i libucrt:per_thread_data.obj
 0001:00059218       ??$__acrt_lock_and_call@V<lambda_b2ea41f6bbb362cd97d94c6828d90b61>@@@@YAXW4__acrt_lock_id@@$$QAV<lambda_b2ea41f6bbb362cd97d94c6828d90b61>@@@Z 1005a218 f i libucrt:per_thread_data.obj
 0001:0005924a       ??$__acrt_lock_and_call@V<lambda_be2b3da3f62db62e9dad5dc70221a656>@@@@YAXW4__acrt_lock_id@@$$QAV<lambda_be2b3da3f62db62e9dad5dc70221a656>@@@Z 1005a24a f i libucrt:per_thread_data.obj
 0001:0005927c       ??$__acrt_lock_and_call@V<lambda_e69574bed617af4e071282c136b37893>@@@@YAXW4__acrt_lock_id@@$$QAV<lambda_e69574bed617af4e071282c136b37893>@@@Z 1005a27c f i libucrt:per_thread_data.obj
 0001:000593b5       ??0?$__crt_unique_heap_ptr@U__acrt_ptd@@U__crt_internal_free_policy@@@@QAE@QAU__acrt_ptd@@@Z 1005a3b5 f i libucrt:per_thread_data.obj
 0001:000593c9       ??0__crt_scoped_get_last_error_reset@@QAE@XZ 1005a3c9 f i libucrt:per_thread_data.obj
 0001:000593de       ??1?$__crt_unique_heap_ptr@U__acrt_ptd@@U__crt_internal_free_policy@@@@QAE@XZ 1005a3de f i libucrt:per_thread_data.obj
 0001:000593f4       ??1__crt_scoped_get_last_error_reset@@QAE@XZ 1005a3f4 f i libucrt:per_thread_data.obj
 0001:000593ff       ??B?$__crt_unique_heap_ptr@U__acrt_ptd@@U__crt_internal_free_policy@@@@QBE_NXZ 1005a3ff f i libucrt:per_thread_data.obj
 0001:00059575       ?dangerous_get_state_array@?$dual_state_global@PAU__crt_locale_data@@@__crt_state_management@@QAEPAPAU__crt_locale_data@@XZ 1005a575 f i libucrt:per_thread_data.obj
 0001:00059679       ?detach@?$__crt_unique_heap_ptr@U__acrt_ptd@@U__crt_internal_free_policy@@@@QAEPAU__acrt_ptd@@XZ 1005a679 f i libucrt:per_thread_data.obj
 0001:0005967f       ?get@?$__crt_unique_heap_ptr@U__acrt_ptd@@U__crt_internal_free_policy@@@@QBEPAU__acrt_ptd@@XZ 1005a67f f i libucrt:per_thread_data.obj
 0001:0005978e       ?is_valid@?$__crt_unique_heap_ptr@U__acrt_ptd@@U__crt_internal_free_policy@@@@QBE_NXZ 1005a78e f i libucrt:per_thread_data.obj
 0001:00059798       ?release@?$__crt_unique_heap_ptr@U__acrt_ptd@@U__crt_internal_free_policy@@@@QAEXXZ 1005a798 f i libucrt:per_thread_data.obj
 0001:00059824       ?value@?$dual_state_global@PAU__crt_locale_data@@@__crt_state_management@@QAEAAPAU__crt_locale_data@@XZ 1005a824 f i libucrt:per_thread_data.obj
 0001:00059827       ___acrt_freeptd            1005a827 f   libucrt:per_thread_data.obj
 0001:0005985e       ___acrt_getptd             1005a85e f   libucrt:per_thread_data.obj
 0001:00059903       ___acrt_getptd_noexit      1005a903 f   libucrt:per_thread_data.obj
 0001:000599a9       ___acrt_initialize_ptd     1005a9a9 f   libucrt:per_thread_data.obj
 0001:000599e0       ___acrt_uninitialize_ptd   1005a9e0 f   libucrt:per_thread_data.obj
 0001:00059a00       ___threadhandle            1005aa00 f   libucrt:per_thread_data.obj
 0001:00059a06       ___threadid                1005aa06 f   libucrt:per_thread_data.obj
 0001:00059a0c       ___acrt_update_locale_info 1005aa0c f   libucrt:locale_update.obj
 0001:00059a44       ___acrt_update_multibyte_info 1005aa44 f   libucrt:locale_update.obj
 0001:00059a7c       ?__acrt_fp_classify@@YA?AW4__acrt_fp_class@@ABN@Z 1005aa7c f i libucrt:cvt.obj
 0001:00059b03       ?__acrt_fp_is_negative@@YA_NABN@Z 1005ab03 f i libucrt:cvt.obj
 0001:0005a576       ?strrchr@@YAPADQADH@Z      1005b576 f i libucrt:cvt.obj
 0001:0005a583       ___acrt_fp_format          1005b583 f   libucrt:cvt.obj
 0001:0005a75d       __fputwc_nolock            1005b75d f   libucrt:fputwc.obj
 0001:0005a8cc       __fputwchar                1005b8cc f   libucrt:fputwc.obj
 0001:0005a8ec       __putwc_nolock             1005b8ec f   libucrt:fputwc.obj
 0001:0005a8f9       _fputwc                    1005b8f9 f   libucrt:fputwc.obj
 0001:0005a992       _putwc                     1005b992 f   libucrt:fputwc.obj
 0001:0005a99f       _putwchar                  1005b99f f   libucrt:fputwc.obj
 0001:0005a9ac       ?lowio_handle@__crt_stdio_stream@@QBEHXZ 1005b9ac f i libucrt:fileno.obj
 0001:0005a9b2       __fileno                   1005b9b2 f   libucrt:fileno.obj
 0001:0005a9e1       __fputc_nolock             1005b9e1 f   libucrt:fputc.obj
 0001:0005aa14       __fputchar                 1005ba14 f   libucrt:fputc.obj
 0001:0005aa34       __putc_nolock              1005ba34 f   libucrt:fputc.obj
 0001:0005aa41       _fputc                     1005ba41 f   libucrt:fputc.obj
 0001:0005ab86       _putc                      1005bb86 f   libucrt:fputc.obj
 0001:0005ab93       _putchar                   1005bb93 f   libucrt:fputc.obj
 0001:0005aba0       __get_printf_count_output  1005bba0 f   libucrt:printf_count_output.obj
 0001:0005abba       __set_printf_count_output  1005bbba f   libucrt:printf_count_output.obj
 0001:0005abee       ?has_temporary_buffer@__crt_stdio_stream@@QBE_NXZ 1005bbee f i libucrt:_sftbuf.obj
 0001:0005abfd       ___acrt_stdio_begin_temporary_buffering_nolock 1005bbfd f   libucrt:_sftbuf.obj
 0001:0005acdf       ___acrt_stdio_end_temporary_buffering_nolock 1005bcdf f   libucrt:_sftbuf.obj
 0001:0005ad29       ??$?RU__crt_locale_data@@@__crt_internal_free_policy@@QBEXQBU__crt_locale_data@@@Z 1005bd29 f i libucrt:wsetlocale.obj
 0001:0005ad3f       ??$?RU__crt_locale_pointers@@@__crt_internal_free_policy@@QBEXQBU__crt_locale_pointers@@@Z 1005bd3f f i libucrt:wsetlocale.obj
 0001:0005ad55       ??$?RU__crt_multibyte_data@@@__crt_internal_free_policy@@QBEXQBU__crt_multibyte_data@@@Z 1005bd55 f i libucrt:wsetlocale.obj
 0001:0005ad6b       ??$?RV<lambda_70818de7b02deff9841e8b0962a60ed9>@@AAV<lambda_2af78c5f5901b1372d98f9ab3177dfa6>@@AAV<lambda_f51fe5fd7c79a33db34fc9310f277369>@@@?$__crt_seh_guarded_call@X@@QAEX$$QAV<lambda_70818de7b02deff9841e8b0962a60ed9>@@AAV<lambda_2af78c5f5901b1372d98f9ab3177dfa6>@@AAV<lambda_f51fe5fd7c79a33db34fc9310f277369>@@@Z 1005bd6b f i libucrt:wsetlocale.obj
 0001:0005adb4       ??$?RV<lambda_76aaead6e312921abc834cb00a638bdd>@@AAV<lambda_176e34f99554166dd2fac165c457248c>@@V<lambda_998ee1c9f4290b119b936bcd6215875a>@@@?$__crt_seh_guarded_call@X@@QAEX$$QAV<lambda_76aaead6e312921abc834cb00a638bdd>@@AAV<lambda_176e34f99554166dd2fac165c457248c>@@$$QAV<lambda_998ee1c9f4290b119b936bcd6215875a>@@@Z 1005bdb4 f i libucrt:wsetlocale.obj
 0001:0005ae10       ??$?RV<lambda_c76fdea48760d5f9368b465f31df4405>@@AAV<lambda_e378711a6f6581bf7f0efd7cdf97f5d9>@@V<lambda_e927a58b2a85c081d733e8c6192ae2d2>@@@?$__crt_seh_guarded_call@X@@QAEX$$QAV<lambda_c76fdea48760d5f9368b465f31df4405>@@AAV<lambda_e378711a6f6581bf7f0efd7cdf97f5d9>@@$$QAV<lambda_e927a58b2a85c081d733e8c6192ae2d2>@@@Z 1005be10 f i libucrt:wsetlocale.obj
 0001:0005ae63       ??$?RV<lambda_c9469061b39d205f0f236529d4a41659>@@AAV<lambda_b7fb1a997d3ebc0cc0186c5835178808>@@V<lambda_14b92c79d699846b5cc916cd4cf280e4>@@@?$__crt_seh_guarded_call@X@@QAEX$$QAV<lambda_c9469061b39d205f0f236529d4a41659>@@AAV<lambda_b7fb1a997d3ebc0cc0186c5835178808>@@$$QAV<lambda_14b92c79d699846b5cc916cd4cf280e4>@@@Z 1005be63 f i libucrt:wsetlocale.obj
 0001:0005aebd       ??$__acrt_lock_and_call@V<lambda_176e34f99554166dd2fac165c457248c>@@@@YAXW4__acrt_lock_id@@$$QAV<lambda_176e34f99554166dd2fac165c457248c>@@@Z 1005bebd f i libucrt:wsetlocale.obj
 0001:0005aeef       ??$__acrt_lock_and_call@V<lambda_b7fb1a997d3ebc0cc0186c5835178808>@@@@YAXW4__acrt_lock_id@@$$QAV<lambda_b7fb1a997d3ebc0cc0186c5835178808>@@@Z 1005beef f i libucrt:wsetlocale.obj
 0001:0005af21       ??$__acrt_lock_and_call@V<lambda_e378711a6f6581bf7f0efd7cdf97f5d9>@@@@YAXW4__acrt_lock_id@@$$QAV<lambda_e378711a6f6581bf7f0efd7cdf97f5d9>@@@Z 1005bf21 f i libucrt:wsetlocale.obj
 0001:0005af53       ??$__crt_call_and_cleanup@V<lambda_2af78c5f5901b1372d98f9ab3177dfa6>@@V<lambda_f51fe5fd7c79a33db34fc9310f277369>@@@@YAX$$QAV<lambda_2af78c5f5901b1372d98f9ab3177dfa6>@@$$QAV<lambda_f51fe5fd7c79a33db34fc9310f277369>@@@Z 1005bf53 f i libucrt:wsetlocale.obj
 0001:0005af76       ??$__vcrt_va_start_verify_argument_type@H@@YAXXZ 1005bf76 f i libucrt:wsetlocale.obj
 0001:0005b09b       ??0?$__crt_unique_heap_ptr@U__crt_locale_data@@U__crt_internal_free_policy@@@@QAE@QAU__crt_locale_data@@@Z 1005c09b f i libucrt:wsetlocale.obj
 0001:0005b0af       ??0?$__crt_unique_heap_ptr@U__crt_locale_pointers@@U__crt_internal_free_policy@@@@QAE@QAU__crt_locale_pointers@@@Z 1005c0af f i libucrt:wsetlocale.obj
 0001:0005b0c3       ??0?$__crt_unique_heap_ptr@U__crt_multibyte_data@@U__crt_internal_free_policy@@@@QAE@QAU__crt_multibyte_data@@@Z 1005c0c3 f i libucrt:wsetlocale.obj
 0001:0005b0d7       ??1?$__crt_unique_heap_ptr@U__crt_locale_data@@U__crt_internal_free_policy@@@@QAE@XZ 1005c0d7 f i libucrt:wsetlocale.obj
 0001:0005b0ed       ??1?$__crt_unique_heap_ptr@U__crt_locale_pointers@@U__crt_internal_free_policy@@@@QAE@XZ 1005c0ed f i libucrt:wsetlocale.obj
 0001:0005b103       ??1?$__crt_unique_heap_ptr@U__crt_multibyte_data@@U__crt_internal_free_policy@@@@QAE@XZ 1005c103 f i libucrt:wsetlocale.obj
 0001:0005b119       ??B?$__crt_unique_heap_ptr@U__crt_locale_data@@U__crt_internal_free_policy@@@@QBE_NXZ 1005c119 f i libucrt:wsetlocale.obj
 0001:0005b123       ??B?$__crt_unique_heap_ptr@U__crt_locale_pointers@@U__crt_internal_free_policy@@@@QBE_NXZ 1005c123 f i libucrt:wsetlocale.obj
 0001:0005b12d       ??B?$__crt_unique_heap_ptr@U__crt_multibyte_data@@U__crt_internal_free_policy@@@@QBE_NXZ 1005c12d f i libucrt:wsetlocale.obj
 0001:0005b356       ?detach@?$__crt_unique_heap_ptr@U__crt_locale_data@@U__crt_internal_free_policy@@@@QAEPAU__crt_locale_data@@XZ 1005c356 f i libucrt:wsetlocale.obj
 0001:0005b35c       ?detach@?$__crt_unique_heap_ptr@U__crt_locale_pointers@@U__crt_internal_free_policy@@@@QAEPAU__crt_locale_pointers@@XZ 1005c35c f i libucrt:wsetlocale.obj
 0001:0005b362       ?detach@?$__crt_unique_heap_ptr@U__crt_multibyte_data@@U__crt_internal_free_policy@@@@QAEPAU__crt_multibyte_data@@XZ 1005c362 f i libucrt:wsetlocale.obj
 0001:0005b368       ?get@?$__crt_unique_heap_ptr@U__crt_locale_data@@U__crt_internal_free_policy@@@@QBEPAU__crt_locale_data@@XZ 1005c368 f i libucrt:wsetlocale.obj
 0001:0005b36b       ?get@?$__crt_unique_heap_ptr@U__crt_locale_pointers@@U__crt_internal_free_policy@@@@QBEPAU__crt_locale_pointers@@XZ 1005c36b f i libucrt:wsetlocale.obj
 0001:0005b36e       ?get@?$__crt_unique_heap_ptr@U__crt_multibyte_data@@U__crt_internal_free_policy@@@@QBEPAU__crt_multibyte_data@@XZ 1005c36e f i libucrt:wsetlocale.obj
 0001:0005b371       ?is_valid@?$__crt_unique_heap_ptr@U__crt_locale_data@@U__crt_internal_free_policy@@@@QBE_NXZ 1005c371 f i libucrt:wsetlocale.obj
 0001:0005b37b       ?is_valid@?$__crt_unique_heap_ptr@U__crt_locale_pointers@@U__crt_internal_free_policy@@@@QBE_NXZ 1005c37b f i libucrt:wsetlocale.obj
 0001:0005b385       ?is_valid@?$__crt_unique_heap_ptr@U__crt_multibyte_data@@U__crt_internal_free_policy@@@@QBE_NXZ 1005c385 f i libucrt:wsetlocale.obj
 0001:0005b38f       ?release@?$__crt_unique_heap_ptr@U__crt_locale_data@@U__crt_internal_free_policy@@@@QAEXXZ 1005c38f f i libucrt:wsetlocale.obj
 0001:0005b3a5       ?release@?$__crt_unique_heap_ptr@U__crt_locale_pointers@@U__crt_internal_free_policy@@@@QAEXXZ 1005c3a5 f i libucrt:wsetlocale.obj
 0001:0005b3bb       ?release@?$__crt_unique_heap_ptr@U__crt_multibyte_data@@U__crt_internal_free_policy@@@@QAEXXZ 1005c3bb f i libucrt:wsetlocale.obj
 0001:0005b3d1       ___acrt_copy_locale_name   1005c3d1 f   libucrt:wsetlocale.obj
 0001:0005b450       ___acrt_set_locale_changed 1005c450 f   libucrt:wsetlocale.obj
 0001:0005b45d       ___acrt_uninitialize_locale 1005c45d f   libucrt:wsetlocale.obj
 0001:0005b4c3       ___lc_lctowcs              1005c4c3 f   libucrt:wsetlocale.obj
 0001:0005b54f       ___lc_wcstolc              1005c54f f   libucrt:wsetlocale.obj
 0001:0005b6c9       __configthreadlocale       1005c6c9 f   libucrt:wsetlocale.obj
 0001:0005b77d       __create_locale            1005c77d f   libucrt:wsetlocale.obj
 0001:0005b7fa       __expandlocale             1005c7fa f   libucrt:wsetlocale.obj
 0001:0005bc4e       __free_locale              1005cc4e f   libucrt:wsetlocale.obj
 0001:0005bd34       __get_current_locale       1005cd34 f   libucrt:wsetlocale.obj
 0001:0005bdcd       __wcreate_locale           1005cdcd f   libucrt:wsetlocale.obj
 0001:0005bf18       __wcscats                  1005cf18 f   libucrt:wsetlocale.obj
 0001:0005bf69       __wsetlocale               1005cf69 f   libucrt:wsetlocale.obj
 0001:0005ca8f       ___p___mb_cur_max          1005da8f f   libucrt:nlsdata.obj
 0001:0005cb86       ___acrt_report_runtime_error 1005db86 f   libucrt:report_runtime_error.obj
 0001:0005ccec       __query_app_type           1005dcec f   libucrt:report_runtime_error.obj
 0001:0005ccf2       __set_app_type             1005dcf2 f   libucrt:report_runtime_error.obj
 0001:0005d1de       __i64toa                   1005e1de f   libucrt:xtoa.obj
 0001:0005d231       __i64toa_s                 1005e231 f   libucrt:xtoa.obj
 0001:0005d282       __i64tow                   1005e282 f   libucrt:xtoa.obj
 0001:0005d2d5       __i64tow_s                 1005e2d5 f   libucrt:xtoa.obj
 0001:0005d326       __itoa                     1005e326 f   libucrt:xtoa.obj
 0001:0005d36a       __itoa_s                   1005e36a f   libucrt:xtoa.obj
 0001:0005d3ac       __itow                     1005e3ac f   libucrt:xtoa.obj
 0001:0005d3f0       __itow_s                   1005e3f0 f   libucrt:xtoa.obj
 0001:0005d432       __ltoa                     1005e432 f   libucrt:xtoa.obj
 0001:0005d476       __ltoa_s                   1005e476 f   libucrt:xtoa.obj
 0001:0005d4b8       __ltow                     1005e4b8 f   libucrt:xtoa.obj
 0001:0005d4fc       __ltow_s                   1005e4fc f   libucrt:xtoa.obj
 0001:0005d53e       __ui64toa                  1005e53e f   libucrt:xtoa.obj
 0001:0005d568       __ui64toa_s                1005e568 f   libucrt:xtoa.obj
 0001:0005d590       __ui64tow                  1005e590 f   libucrt:xtoa.obj
 0001:0005d5ba       __ui64tow_s                1005e5ba f   libucrt:xtoa.obj
 0001:0005d5e2       __ultoa                    1005e5e2 f   libucrt:xtoa.obj
 0001:0005d608       __ultoa_s                  1005e608 f   libucrt:xtoa.obj
 0001:0005d62c       __ultow                    1005e62c f   libucrt:xtoa.obj
 0001:0005d652       __ultow_s                  1005e652 f   libucrt:xtoa.obj
 0001:0005d676       __set_error_mode           1005e676 f   libucrt:set_error_mode.obj
 0001:0005d752       _wcscat_s                  1005e752 f   libucrt:wcscat_s.obj
 0001:0005d85c       _wcscpy_s                  1005e85c f   libucrt:wcscpy_s.obj
 0001:0005d9fc       _wcsncat_s                 1005e9fc f   libucrt:wcsncat_s.obj
 0001:0005da8c       _strcat_s                  1005ea8c f   libucrt:strcat_s.obj
 0001:0005dc13       _strncat_s                 1005ec13 f   libucrt:strncat_s.obj
 0001:0005de3e       ??$message_box@$$TAAPBDAAPBDAAI@?$__crt_char_traits@D@@SAH$$QA$$TAAPBD1AAI@Z 1005ee3e f i libucrt:crtmbox.obj
 0001:0005de66       ??$message_box@$$TAAPB_WAAPB_WAAI@?$__crt_char_traits@_W@@SAH$$QA$$TAAPB_W1AAI@Z 1005ee66 f i libucrt:crtmbox.obj
 0001:0005de8e       ??$message_box@$$TABQBDABQBDK@?$__crt_char_traits@D@@SAH$$QA$$TABQBD1$$QAK@Z 1005ee8e f i libucrt:crtmbox.obj
 0001:0005deb6       ??$message_box@$$TABQB_WABQB_WK@?$__crt_char_traits@_W@@SAH$$QA$$TABQB_W1$$QAK@Z 1005eeb6 f i libucrt:crtmbox.obj
 0001:0005dede       ??$message_box@PAUHWND__@@ABQBDABQBDABI@?$__crt_char_traits@D@@SAH$$QAPAUHWND__@@ABQBD1ABI@Z 1005eede f i libucrt:crtmbox.obj
 0001:0005df06       ??$message_box@PAUHWND__@@ABQB_WABQB_WABI@?$__crt_char_traits@_W@@SAH$$QAPAUHWND__@@ABQB_W1ABI@Z 1005ef06 f i libucrt:crtmbox.obj
 0001:0005df82       ??$output_debug_string@ABQBD@?$__crt_char_traits@D@@SAXABQBD@Z 1005ef82 f i libucrt:crtmbox.obj
 0001:0005df98       ??$output_debug_string@ABQB_W@?$__crt_char_traits@_W@@SAXABQB_W@Z 1005ef98 f i libucrt:crtmbox.obj
 0001:0005dfae       ??0?$__crt_unique_handle_t@U__crt_handle_traits@@@@QAE@QAX@Z 1005efae f i libucrt:crtmbox.obj
 0001:0005dfc2       ??1?$__crt_unique_handle_t@U__crt_handle_traits@@@@QAE@XZ 1005efc2 f i libucrt:crtmbox.obj
 0001:0005dfde       ??B?$__crt_unique_handle_t@U__crt_handle_traits@@@@QBE_NXZ 1005efde f i libucrt:crtmbox.obj
 0001:0005dfe9       ?close@?$__crt_unique_handle_t@U__crt_handle_traits@@@@QAEXXZ 1005efe9 f i libucrt:crtmbox.obj
 0001:0005e005       ?close@__crt_handle_traits@@SA_NPAX@Z 1005f005 f i libucrt:crtmbox.obj
 0001:0005e020       ?get@?$__crt_unique_handle_t@U__crt_handle_traits@@@@QBEPAXXZ 1005f020 f i libucrt:crtmbox.obj
 0001:0005e023       ?get_invalid_value@__crt_handle_traits@@SAPAXXZ 1005f023 f i libucrt:crtmbox.obj
 0001:0005e027       ?is_valid@?$__crt_unique_handle_t@U__crt_handle_traits@@@@QBE_NXZ 1005f027 f i libucrt:crtmbox.obj
 0001:0005e032       ___acrt_show_narrow_message_box 1005f032 f   libucrt:crtmbox.obj
 0001:0005e03f       ___acrt_show_wide_message_box 1005f03f f   libucrt:crtmbox.obj
 0001:0005e04c       ??$?RV<lambda_d92cfe8357b99225085016881b624cb0>@@AAV<lambda_b721fa326cdb32351d23dfa67958c160>@@V<lambda_42d75b0848218ec137fa420c8ba9fdf9>@@@?$__crt_seh_guarded_call@H@@QAEH$$QAV<lambda_d92cfe8357b99225085016881b624cb0>@@AAV<lambda_b721fa326cdb32351d23dfa67958c160>@@$$QAV<lambda_42d75b0848218ec137fa420c8ba9fdf9>@@@Z 1005f04c f i libucrt:setvbuf.obj
 0001:0005e0b1       ??$__acrt_lock_stream_and_call@V<lambda_b721fa326cdb32351d23dfa67958c160>@@@@YAHQAU_iobuf@@$$QAV<lambda_b721fa326cdb32351d23dfa67958c160>@@@Z 1005f0b1 f i libucrt:setvbuf.obj
 0001:0005e24e       _setvbuf                   1005f24e f   libucrt:setvbuf.obj
 0001:0005e2e1       ??$?B$$A6AXH@Z@__crt_fast_encoded_nullptr_t@@QBEP6AXH@ZXZ 1005f2e1 f i libucrt:signal.obj
 0001:0005e2ff       ??$?RV<lambda_a048d3beccc847880fc8490e18b82769>@@AAV<lambda_ec61778202f4f5fc7e7711acc23c3bca>@@V<lambda_f7496a158712204296dd6628a163878e>@@@?$__crt_seh_guarded_call@P6AXH@Z@@QAEP6AXH@Z$$QAV<lambda_a048d3beccc847880fc8490e18b82769>@@AAV<lambda_ec61778202f4f5fc7e7711acc23c3bca>@@$$QAV<lambda_f7496a158712204296dd6628a163878e>@@@Z 1005f2ff f i libucrt:signal.obj
 0001:0005e36f       ??$__acrt_lock_and_call@V<lambda_ec61778202f4f5fc7e7711acc23c3bca>@@@@YAP6AXH@ZW4__acrt_lock_id@@$$QAV<lambda_ec61778202f4f5fc7e7711acc23c3bca>@@@Z 1005f36f f i libucrt:signal.obj
 0001:0005e3a1       ??$__crt_fast_decode_pointer@P6AXH@Z@@YAP6AXH@ZQ6AXH@Z@Z 1005f3a1 f i libucrt:signal.obj
 0001:0005e3bc       ??$__crt_fast_encode_pointer@P6AXH@Z@@YAP6AXH@ZQ6AXH@Z@Z 1005f3bc f i libucrt:signal.obj
 0001:0005e566       ?initialize@?$dual_state_global@P6AXH@Z@__crt_state_management@@QAEXQ6AXH@Z@Z 1005f566 f i libucrt:signal.obj
 0001:0005e612       ?value@?$dual_state_global@P6AXH@Z@__crt_state_management@@QAEAAP6AXH@ZXZ 1005f612 f i libucrt:signal.obj
 0001:0005e615       ___acrt_get_sigabrt_handler 1005f615 f   libucrt:signal.obj
 0001:0005e631       ___acrt_initialize_signal_handlers 1005f631 f   libucrt:signal.obj
 0001:0005e67a       ___fpecode                 1005f67a f   libucrt:signal.obj
 0001:0005e685       ___pxcptinfoptrs           1005f685 f   libucrt:signal.obj
 0001:0005e690       _raise                     1005f690 f   libucrt:signal.obj
 0001:0005e91a       _signal                    1005f91a f   libucrt:signal.obj
 0001:0005eb38       __realloc_base             1005fb38 f   libucrt:realloc_base.obj
 0001:0005ebbb       ___acrt_initialize_locks   1005fbbb f   libucrt:locks.obj
 0001:0005ec0c       ___acrt_lock               1005fc0c f   libucrt:locks.obj
 0001:0005ec28       ___acrt_uninitialize_locks 1005fc28 f   libucrt:locks.obj
 0001:0005ec65       ___acrt_unlock             1005fc65 f   libucrt:locks.obj
 0001:0005ec81       __lock_locales             1005fc81 f   libucrt:locks.obj
 0001:0005ec8c       __unlock_locales           1005fc8c f   libucrt:locks.obj
 0001:0005ec97       ??$?RV<lambda_123407a5e2ac06da108355a851863b7a>@@AAV<lambda_2fe9b910cf3cbf4a0ab98a02ba45b3ec>@@V<lambda_ae55bdf541ad94d75914d381c370e64d>@@@?$__crt_seh_guarded_call@H@@QAEH$$QAV<lambda_123407a5e2ac06da108355a851863b7a>@@AAV<lambda_2fe9b910cf3cbf4a0ab98a02ba45b3ec>@@$$QAV<lambda_ae55bdf541ad94d75914d381c370e64d>@@@Z 1005fc97 f i libucrt:close.obj
 0001:0005ed39       ??$__acrt_lowio_lock_fh_and_call@V<lambda_2fe9b910cf3cbf4a0ab98a02ba45b3ec>@@@@YAHH$$QAV<lambda_2fe9b910cf3cbf4a0ab98a02ba45b3ec>@@@Z 1005fd39 f i libucrt:close.obj
 0001:0005ee8c       __close                    1005fe8c f   libucrt:close.obj
 0001:0005ef2a       __close_nolock             1005ff2a f   libucrt:close.obj
 0001:0005efed       ??$?RU__crt_stdio_stream_data@@@__crt_internal_free_policy@@QBEXQBU__crt_stdio_stream_data@@@Z 1005ffed f i libucrt:stream.obj
 0001:0005f003       ??0?$__crt_unique_heap_ptr@U__crt_stdio_stream_data@@U__crt_internal_free_policy@@@@QAE@QAU__crt_stdio_stream_data@@@Z 10060003 f i libucrt:stream.obj
 0001:0005f017       ??0__crt_stdio_stream@@QAE@XZ 10060017 f i libucrt:stream.obj
 0001:0005f01d       ??1?$__crt_unique_heap_ptr@U__crt_stdio_stream_data@@U__crt_internal_free_policy@@@@QAE@XZ 1006001d f i libucrt:stream.obj
 0001:0005f033       ?__acrt_stdio_allocate_stream@@YA?AV__crt_stdio_stream@@XZ 10060033 f   libucrt:stream.obj
 0001:0005f0a9       ?__acrt_stdio_free_stream@@YAXV__crt_stdio_stream@@@Z 100600a9 f   libucrt:stream.obj
 0001:0005f0f2       ?deallocate@__crt_stdio_stream@@QAEXXZ 100600f2 f i libucrt:stream.obj
 0001:0005f0fe       ?detach@?$__crt_unique_heap_ptr@U__crt_stdio_stream_data@@U__crt_internal_free_policy@@@@QAEPAU__crt_stdio_stream_data@@XZ 100600fe f i libucrt:stream.obj
 0001:0005f1f7       ?lock@__crt_stdio_stream@@QBEXXZ 100601f7 f i libucrt:stream.obj
 0001:0005f202       ?release@?$__crt_unique_heap_ptr@U__crt_stdio_stream_data@@U__crt_internal_free_policy@@@@QAEXXZ 10060202 f i libucrt:stream.obj
 0001:0005f218       ?try_allocate@__crt_stdio_stream@@QAE_NXZ 10060218 f i libucrt:stream.obj
 0001:0005f241       ??$__acrt_stdio_parse_mode@D@@YA?AU__acrt_stdio_stream_mode@@QBD@Z 10060241 f i libucrt:openfile.obj
 0001:0005f4ff       ??$__acrt_stdio_parse_mode@_W@@YA?AU__acrt_stdio_stream_mode@@QB_W@Z 100604ff f i libucrt:openfile.obj
 0001:0005f920       ??$tcsncmp@AAPBDAAY02$$CBDI@?$__crt_char_traits@D@@SAHAAPBDAAY02$$CBD$$QAI@Z 10060920 f i libucrt:openfile.obj
 0001:0005f943       ??$tcsncmp@AAPB_WAAY02$$CB_WI@?$__crt_char_traits@_W@@SAHAAPB_WAAY02$$CB_W$$QAI@Z 10060943 f i libucrt:openfile.obj
 0001:0005f966       ??$tcsnicmp@AAPBDAAY04$$CBDI@?$__crt_char_traits@D@@SAHAAPBDAAY04$$CBD$$QAI@Z 10060966 f i libucrt:openfile.obj
 0001:0005f989       ??$tcsnicmp@AAPBDAAY06$$CBDI@?$__crt_char_traits@D@@SAHAAPBDAAY06$$CBD$$QAI@Z 10060989 f i libucrt:openfile.obj
 0001:0005f9ac       ??$tcsnicmp@AAPBDAAY07$$CBDI@?$__crt_char_traits@D@@SAHAAPBDAAY07$$CBD$$QAI@Z 100609ac f i libucrt:openfile.obj
 0001:0005f9cf       ??$tcsnicmp@AAPB_WAAY04$$CB_WI@?$__crt_char_traits@_W@@SAHAAPB_WAAY04$$CB_W$$QAI@Z 100609cf f i libucrt:openfile.obj
 0001:0005f9f2       ??$tcsnicmp@AAPB_WAAY06$$CB_WI@?$__crt_char_traits@_W@@SAHAAPB_WAAY06$$CB_W$$QAI@Z 100609f2 f i libucrt:openfile.obj
 0001:0005fa15       ??$tcsnicmp@AAPB_WAAY07$$CB_WI@?$__crt_char_traits@_W@@SAHAAPB_WAAY07$$CB_W$$QAI@Z 10060a15 f i libucrt:openfile.obj
 0001:0005fa38       ??$tsopen_s@PAHABQBDABHABHH@?$__crt_char_traits@D@@SAH$$QAPAHABQBDABH2$$QAH@Z 10060a38 f i libucrt:openfile.obj
 0001:0005fa6a       ??$tsopen_s@PAHABQB_WABHABHH@?$__crt_char_traits@_W@@SAH$$QAPAHABQB_WABH2$$QAH@Z 10060a6a f i libucrt:openfile.obj
 0001:0005fa9c       ?__acrt_stdio_parse_mode_D@@YA_NAAU__acrt_stdio_stream_mode@@@Z 10060a9c f i libucrt:openfile.obj
 0001:0005fabd       ?__acrt_stdio_parse_mode_N@@YA_NAAU__acrt_stdio_stream_mode@@@Z 10060abd f i libucrt:openfile.obj
 0001:0005fad3       ?__acrt_stdio_parse_mode_R@@YA_NAAU__acrt_stdio_stream_mode@@AA_N@Z 10060ad3 f i libucrt:openfile.obj
 0001:0005faf8       ?__acrt_stdio_parse_mode_S@@YA_NAAU__acrt_stdio_stream_mode@@AA_N@Z 10060af8 f i libucrt:openfile.obj
 0001:0005fb1d       ?__acrt_stdio_parse_mode_T@@YA_NAAU__acrt_stdio_stream_mode@@@Z 10060b1d f i libucrt:openfile.obj
 0001:0005fb43       ?__acrt_stdio_parse_mode_b@@YA_NAAU__acrt_stdio_stream_mode@@@Z 10060b43 f i libucrt:openfile.obj
 0001:0005fb6b       ?__acrt_stdio_parse_mode_c@@YA_NAAU__acrt_stdio_stream_mode@@AA_N@Z 10060b6b f i libucrt:openfile.obj
 0001:0005fb95       ?__acrt_stdio_parse_mode_n@@YA_NAAU__acrt_stdio_stream_mode@@AA_N@Z 10060b95 f i libucrt:openfile.obj
 0001:0005fbbf       ?__acrt_stdio_parse_mode_plus@@YA_NAAU__acrt_stdio_stream_mode@@AA_N@Z 10060bbf f i libucrt:openfile.obj
 0001:0005fc01       ?__acrt_stdio_parse_mode_t@@YA_NAAU__acrt_stdio_stream_mode@@@Z 10060c01 f i libucrt:openfile.obj
 0001:0005fc29       __openfile                 10060c29 f   libucrt:openfile.obj
 0001:0005fc36       __wopenfile                10060c36 f   libucrt:openfile.obj
 0001:000602db       __read                     100612db f   libucrt:read.obj
 0001:00060432       __read_nolock              10061432 f   libucrt:read.obj
 0001:00060dca       ___acrt_stdio_refill_and_read_narrow_nolock 10061dca f   libucrt:_filbuf.obj
 0001:00060dd7       ___acrt_stdio_refill_and_read_wide_nolock 10061dd7 f   libucrt:_filbuf.obj
 0001:00061536       __write                    10062536 f   libucrt:write.obj
 0001:0006165b       __write_nolock             1006265b f   libucrt:write.obj
 0001:00061da1       ___acrt_stdio_flush_and_write_narrow_nolock 10062da1 f   libucrt:_flsbuf.obj
 0001:00061dae       ___acrt_stdio_flush_and_write_wide_nolock 10062dae f   libucrt:_flsbuf.obj
 0001:00061dbb       ___acrt_copy_path_to_wide_string 10062dbb f   libucrt:string_utilities.obj
 0001:00061eb3       ___acrt_copy_to_char       10062eb3 f   libucrt:string_utilities.obj
 0001:00061f9e       __wremove                  10062f9e f   libucrt:wunlink.obj
 0001:00061fd0       __wunlink                  10062fd0 f   libucrt:wunlink.obj
 0001:00062444       __lseek                    10063444 f   libucrt:lseek.obj
 0001:00062451       __lseek_nolock             10063451 f   libucrt:lseek.obj
 0001:0006245e       __lseeki64                 1006345e f   libucrt:lseek.obj
 0001:0006247f       __lseeki64_nolock          1006347f f   libucrt:lseek.obj
 0001:000624a0       __chgsign                  100634a0 f   libucrt:ieeemisc.obj
 0001:000624da       __chgsignf                 100634da f   libucrt:ieeemisc.obj
 0001:00062505       __copysign                 10063505 f   libucrt:ieeemisc.obj
 0001:00062539       __copysignf                10063539 f   libucrt:ieeemisc.obj
 0001:0006255e       __finite                   1006355e f   libucrt:ieeemisc.obj
 0001:0006257e       __fpclass                  1006357e f   libucrt:ieeemisc.obj
 0001:0006264b       __isnan                    1006364b f   libucrt:ieeemisc.obj
 0001:0006268e       __logb                     1006368e f   libucrt:ieeemisc.obj
 0001:00062793       __nextafter                10063793 f   libucrt:ieeemisc.obj
 0001:000627b9       __scalb                    100637b9 f   libucrt:ieeemisc.obj
 0001:000627d9       __add_exp                  100637d9 f   libucrt:util.obj
 0001:00062813       __decomp                   10063813 f   libucrt:util.obj
 0001:0006291c       __get_exp                  1006391c f   libucrt:util.obj
 0001:0006293b       __set_bexp                 1006393b f   libucrt:util.obj
 0001:0006296e       __set_exp                  1006396e f   libucrt:util.obj
 0001:000629a8       __sptype                   100639a8 f   libucrt:util.obj
 0001:00062a1d       ___clrfp_sse2              10063a1d f   libucrt:fpctrl.obj
 0001:00062a46       ___ctrlfp_sse2             10063a46 f   libucrt:fpctrl.obj
 0001:00062a8f       ___fclrf_sse2              10063a8f f   libucrt:fpctrl.obj
 0001:00062ab5       ___get_fpsr_sse2           10063ab5 f   libucrt:fpctrl.obj
 0001:00062ada       ___set_fpsr_sse2           10063ada f   libucrt:fpctrl.obj
 0001:00062b6d       ___set_statfp_sse2         10063b6d f   libucrt:fpctrl.obj
 0001:00062b8e       ___statfp_sse2             10063b8e f   libucrt:fpctrl.obj
 0001:00062ba8       __clrfp                    10063ba8 f   libucrt:fpctrl.obj
 0001:00062bbf       __ctrlfp                   10063bbf f   libucrt:fpctrl.obj
 0001:00062bf6       __set_statfp               10063bf6 f   libucrt:fpctrl.obj
 0001:00062c67       __statfp                   10063c67 f   libucrt:fpctrl.obj
 0001:00062c7d       ??$__crt_fast_decode_pointer@P6AHPAU_exception@@@Z@@YAP6AHPAU_exception@@@ZQ6AH0@Z@Z 10063c7d f i libucrt:matherr.obj
 0001:00062c98       ??$__crt_fast_encode_pointer@P6AHPAU_exception@@@Z@@YAP6AHPAU_exception@@@ZQ6AH0@Z@Z 10063c98 f i libucrt:matherr.obj
 0001:00062cbe       ?initialize@?$dual_state_global@P6AHPAU_exception@@@Z@__crt_state_management@@QAEXQ6AHPAU_exception@@@Z@Z 10063cbe f i libucrt:matherr.obj
 0001:00062cfb       ?value@?$dual_state_global@P6AHPAU_exception@@@Z@__crt_state_management@@QAEAAP6AHPAU_exception@@@ZXZ 10063cfb f i libucrt:matherr.obj
 0001:00062cfe       ___acrt_has_user_matherr   10063cfe f   libucrt:matherr.obj
 0001:00062d1d       ___acrt_initialize_user_matherr 10063d1d f   libucrt:matherr.obj
 0001:00062d36       ___acrt_invoke_user_matherr 10063d36 f   libucrt:matherr.obj
 0001:00062d91       ___setusermatherr          10063d91 f   libucrt:matherr.obj
 0001:00062dab       ??$?RV<lambda_978dc153c237d78434369da87b74ff60>@@AAV<lambda_ad1ced32f4ac17aa236e5ef05d6b3b7c>@@V<lambda_4a8533e2866a575feecb8298ce776b0d>@@@?$__crt_seh_guarded_call@X@@QAEX$$QAV<lambda_978dc153c237d78434369da87b74ff60>@@AAV<lambda_ad1ced32f4ac17aa236e5ef05d6b3b7c>@@$$QAV<lambda_4a8533e2866a575feecb8298ce776b0d>@@@Z 10063dab f i libucrt:mbctype.obj
 0001:00062dfe       ??$__acrt_lock_and_call@V<lambda_ad1ced32f4ac17aa236e5ef05d6b3b7c>@@@@YAXW4__acrt_lock_id@@$$QAV<lambda_ad1ced32f4ac17aa236e5ef05d6b3b7c>@@@Z 10063dfe f i libucrt:mbctype.obj
 0001:0006340f       ___acrt_initialize_multibyte 1006440f f   libucrt:mbctype.obj
 0001:00063434       ___acrt_update_thread_multibyte_data 10064434 f   libucrt:mbctype.obj
 0001:000634fe       ___p__mbcasemap            100644fe f   libucrt:mbctype.obj
 0001:00063504       ___p__mbctype              10064504 f   libucrt:mbctype.obj
 0001:0006350a       __getmbcp                  1006450a f   libucrt:mbctype.obj
 0001:0006354d       __setmbcp                  1006454d f   libucrt:mbctype.obj
 0001:00063564       __setmbcp_nolock           10064564 f   libucrt:mbctype.obj
 0001:00063872       ??0?$__crt_unique_handle_t@Uenvironment_strings_traits@?A0x29f97c20@@@@QAE@QA_W@Z 10064872 f i libucrt:get_environment_from_os.obj
 0001:00063886       ??1?$__crt_unique_handle_t@Uenvironment_strings_traits@?A0x29f97c20@@@@QAE@XZ 10064886 f i libucrt:get_environment_from_os.obj
 0001:000638a2       ??B?$__crt_unique_handle_t@Uenvironment_strings_traits@?A0x29f97c20@@@@QBE_NXZ 100648a2 f i libucrt:get_environment_from_os.obj
 0001:000638ac       ?close@?$__crt_unique_handle_t@Uenvironment_strings_traits@?A0x29f97c20@@@@QAEXXZ 100648ac f i libucrt:get_environment_from_os.obj
 0001:000638c8       ?close@environment_strings_traits@?A0x29f97c20@@SA_NPA_W@Z 100648c8 f i libucrt:get_environment_from_os.obj
 0001:00063922       ?get@?$__crt_unique_handle_t@Uenvironment_strings_traits@?A0x29f97c20@@@@QBEPA_WXZ 10064922 f i libucrt:get_environment_from_os.obj
 0001:00063925       ?get_invalid_value@environment_strings_traits@?A0x29f97c20@@SAPA_WXZ 10064925 f i libucrt:get_environment_from_os.obj
 0001:00063928       ?is_valid@?$__crt_unique_handle_t@Uenvironment_strings_traits@?A0x29f97c20@@@@QBE_NXZ 10064928 f i libucrt:get_environment_from_os.obj
 0001:00063932       ___dcrt_get_narrow_environment_from_os 10064932 f   libucrt:get_environment_from_os.obj
 0001:000639d5       ___dcrt_get_wide_environment_from_os 100649d5 f   libucrt:get_environment_from_os.obj
 0001:0006426d       ??$get_or_create_environment_nolock@$$$V@?$__crt_char_traits@D@@SAPAPADXZ 1006526d f i libucrt:setenv.obj
 0001:00064272       ??$get_or_create_environment_nolock@$$$V@?$__crt_char_traits@_W@@SAPAPA_WXZ 10065272 f i libucrt:setenv.obj
 0001:00064277       ??$set_environment_variable@ABQADQAD@?$__crt_char_traits@D@@SAHABQAD$$QBQAD@Z 10065277 f i libucrt:setenv.obj
 0001:00064293       ??$set_environment_variable@ABQA_WQA_W@?$__crt_char_traits@_W@@SAHABQA_W$$QBQA_W@Z 10065293 f i libucrt:setenv.obj
 0001:000642af       ??$tcschr@ABQADD@?$__crt_char_traits@D@@SAPADABQAD$$QAD@Z 100652af f i libucrt:setenv.obj
 0001:000642cf       ??$tcschr@ABQA_WD@?$__crt_char_traits@_W@@SAPA_WABQA_W$$QAD@Z 100652cf f i libucrt:setenv.obj
 0001:000642f4       ??$tcscpy_s@AAPADABIAAPAD@?$__crt_char_traits@D@@SAHAAPADABI0@Z 100652f4 f i libucrt:setenv.obj
 0001:00064319       ??$tcscpy_s@AAPA_WABIAAPA_W@?$__crt_char_traits@_W@@SAHAAPA_WABI0@Z 10065319 f i libucrt:setenv.obj
 0001:0006433e       ??$tcscpy_s@ABQADABIABQAD@?$__crt_char_traits@D@@SAHABQADABI0@Z 1006533e f i libucrt:setenv.obj
 0001:00064363       ??$tcscpy_s@ABQA_WABIABQA_W@?$__crt_char_traits@_W@@SAHABQA_WABI0@Z 10065363 f i libucrt:setenv.obj
 0001:00064388       ??$tcsnicoll@ABQBDAAPADABI@?$__crt_char_traits@D@@SAHABQBDAAPADABI@Z 10065388 f i libucrt:setenv.obj
 0001:000643ad       ??$tcsnicoll@ABQB_WAAPA_WABI@?$__crt_char_traits@_W@@SAHABQB_WAAPA_WABI@Z 100653ad f i libucrt:setenv.obj
 0001:000643f6       ?strchr@@YAPADQADH@Z       100653f6 f i libucrt:setenv.obj
 0001:00064403       ?wcschr@@YAPA_WPA_W_W@Z    10065403 f i libucrt:setenv.obj
 0001:00064410       ___dcrt_set_variable_in_narrow_environment_nolock 10065410 f   libucrt:setenv.obj
 0001:0006441d       ___dcrt_set_variable_in_wide_environment_nolock 1006541d f   libucrt:setenv.obj
 0001:0006442a       __recalloc                 1006542a f   libucrt:recalloc.obj
 0001:00064437       __recalloc_base            10065437 f   libucrt:recalloc.obj
 0001:000644bf       ___acrt_getheap            100654bf f   libucrt:heap_handle.obj
 0001:000644c5       ___acrt_initialize_heap    100654c5 f   libucrt:heap_handle.obj
 0001:000644da       ___acrt_uninitialize_heap  100654da f   libucrt:heap_handle.obj
 0001:000644e6       __get_heap_handle          100654e6 f   libucrt:heap_handle.obj
 0001:000644ec       ___acrt_initialize_command_line 100654ec f   libucrt:argv_data.obj
 0001:0006450b       ___acrt_uninitialize_command_line 1006550b f   libucrt:argv_data.obj
 0001:0006450e       ___p___argc                1006550e f   libucrt:argv_data.obj
 0001:00064514       ___p___argv                10065514 f   libucrt:argv_data.obj
 0001:0006451a       ___p___wargv               1006551a f   libucrt:argv_data.obj
 0001:00064520       ___p__acmdln               10065520 f   libucrt:argv_data.obj
 0001:00064526       ___p__pgmptr               10065526 f   libucrt:argv_data.obj
 0001:0006452c       ___p__wcmdln               1006552c f   libucrt:argv_data.obj
 0001:00064532       ___p__wpgmptr              10065532 f   libucrt:argv_data.obj
 0001:00064538       __get_pgmptr               10065538 f   libucrt:argv_data.obj
 0001:00064575       __get_wpgmptr              10065575 f   libucrt:argv_data.obj
 0001:000645b2       ___acrt_execute_initializers 100655b2 f   libucrt:shared_initialization.obj
 0001:00064655       ___acrt_execute_uninitializers 10065655 f   libucrt:shared_initialization.obj
 0001:000646b5       ??$?B$$A6AHI@Z@__crt_fast_encoded_nullptr_t@@QBEP6AHI@ZXZ 100656b5 f i libucrt:new_handler.obj
 0001:000646d3       ??$__crt_fast_decode_pointer@P6AHI@Z@@YAP6AHI@ZQ6AHI@Z@Z 100656d3 f i libucrt:new_handler.obj
 0001:000646ee       ??$__crt_fast_encode_pointer@P6AHI@Z@@YAP6AHI@ZQ6AHI@Z@Z 100656ee f i libucrt:new_handler.obj
 0001:00064714       ?_set_new_handler@@YAP6AHI@ZH@Z 10065714 f   libucrt:new_handler.obj
 0001:0006473a       ?initialize@?$dual_state_global@P6AHI@Z@__crt_state_management@@QAEXQ6AHI@Z@Z 1006573a f i libucrt:new_handler.obj
 0001:00064777       ?value@?$dual_state_global@P6AHI@Z@__crt_state_management@@QAEAAP6AHI@ZXZ 10065777 f i libucrt:new_handler.obj
 0001:0006477a       ___acrt_initialize_new_handler 1006577a f   libucrt:new_handler.obj
 0001:00064793       __callnewh                 10065793 f   libucrt:new_handler.obj
 0001:000647e8       __query_new_handler        100657e8 f   libucrt:new_handler.obj
 0001:0006484e       __set_new_handler          1006584e f   libucrt:new_handler.obj
 0001:000648c6       ?value@?$dual_state_global@J@__crt_state_management@@QAEAAJXZ 100658c6 f i libucrt:new_mode.obj
 0001:000648c9       __query_new_mode           100658c9 f   libucrt:new_mode.obj
 0001:000648cf       __set_new_mode             100658cf f   libucrt:new_mode.obj
 0001:00064909       ___pctype_func             10065909 f   libucrt:ctype.obj
 0001:00064938       ___pwctype_func            10065938 f   libucrt:ctype.obj
 0001:0006493e       __iswctype_l               1006593e f   libucrt:iswctype.obj
 0001:00064957       _iswctype                  10065957 f   libucrt:iswctype.obj
 0001:000649cd       __isctype                  100659cd f   libucrt:isctype.obj
 0001:00064a0a       __isctype_l                10065a0a f   libucrt:isctype.obj
 0001:00064cd1       ___acrt_DownlevelLCIDToLocaleName 10065cd1 f   libucrt:lcidtoname_downlevel.obj
 0001:00064da5       ___acrt_DownlevelLocaleNameToLCID 10065da5 f   libucrt:lcidtoname_downlevel.obj
 0001:00064ddc       ??$?RV<lambda_61cee617f5178ae960314fd4d05640a0>@@AAV<lambda_6978c1fb23f02e42e1d9e99668cc68aa>@@V<lambda_9cd88cf8ad10232537feb2133f08c833>@@@?$__crt_seh_guarded_call@H@@QAEH$$QAV<lambda_61cee617f5178ae960314fd4d05640a0>@@AAV<lambda_6978c1fb23f02e42e1d9e99668cc68aa>@@$$QAV<lambda_9cd88cf8ad10232537feb2133f08c833>@@@Z 10065ddc f i libucrt:commit.obj
 0001:00064e9a       ??$__acrt_lowio_lock_fh_and_call@V<lambda_6978c1fb23f02e42e1d9e99668cc68aa>@@@@YAHH$$QAV<lambda_6978c1fb23f02e42e1d9e99668cc68aa>@@@Z 10065e9a f i libucrt:commit.obj
 0001:00064f8c       __commit                   10065f8c f   libucrt:commit.obj
 0001:00065016       ??$?RU__crt_lowio_handle_data@@@__crt_internal_free_policy@@QBEXQBU__crt_lowio_handle_data@@@Z 10066016 f i libucrt:osfinfo.obj
 0001:0006502c       ??0?$__crt_unique_heap_ptr@U__crt_lowio_handle_data@@U__crt_internal_free_policy@@@@QAE@QAU__crt_lowio_handle_data@@@Z 1006602c f i libucrt:osfinfo.obj
 0001:00065040       ??1?$__crt_unique_heap_ptr@U__crt_lowio_handle_data@@U__crt_internal_free_policy@@@@QAE@XZ 10066040 f i libucrt:osfinfo.obj
 0001:00065056       ??B?$__crt_unique_heap_ptr@U__crt_lowio_handle_data@@U__crt_internal_free_policy@@@@QBE_NXZ 10066056 f i libucrt:osfinfo.obj
 0001:00065060       ?detach@?$__crt_unique_heap_ptr@U__crt_lowio_handle_data@@U__crt_internal_free_policy@@@@QAEPAU__crt_lowio_handle_data@@XZ 10066060 f i libucrt:osfinfo.obj
 0001:00065066       ?get@?$__crt_unique_heap_ptr@U__crt_lowio_handle_data@@U__crt_internal_free_policy@@@@QBEPAU__crt_lowio_handle_data@@XZ 10066066 f i libucrt:osfinfo.obj
 0001:00065069       ?is_valid@?$__crt_unique_heap_ptr@U__crt_lowio_handle_data@@U__crt_internal_free_policy@@@@QBE_NXZ 10066069 f i libucrt:osfinfo.obj
 0001:00065073       ?release@?$__crt_unique_heap_ptr@U__crt_lowio_handle_data@@U__crt_internal_free_policy@@@@QAEXXZ 10066073 f i libucrt:osfinfo.obj
 0001:00065089       ___acrt_lowio_create_handle_array 10066089 f   libucrt:osfinfo.obj
 0001:00065121       ___acrt_lowio_destroy_handle_array 10066121 f   libucrt:osfinfo.obj
 0001:00065163       ___acrt_lowio_ensure_fh_exists 10066163 f   libucrt:osfinfo.obj
 0001:00065221       ___acrt_lowio_lock_fh      10066221 f   libucrt:osfinfo.obj
 0001:0006524c       ___acrt_lowio_set_os_handle 1006624c f   libucrt:osfinfo.obj
 0001:00065305       ___acrt_lowio_unlock_fh    10066305 f   libucrt:osfinfo.obj
 0001:00065330       __alloc_osfhnd             10066330 f   libucrt:osfinfo.obj
 0001:00065486       __free_osfhnd              10066486 f   libucrt:osfinfo.obj
 0001:0006553b       __get_osfhandle            1006653b f   libucrt:osfinfo.obj
 0001:000655bf       __open_osfhandle           100665bf f   libucrt:osfinfo.obj
 0001:00065710       ___iswcsym                 10066710 f i libucrt:_wctype.obj
 0001:0006573f       ___iswcsymf                1006673f f i libucrt:_wctype.obj
 0001:0006576e       __isleadbyte_l             1006676e f i libucrt:_wctype.obj
 0001:000657b5       __iswalnum_l               100667b5 f i libucrt:_wctype.obj
 0001:000657d0       __iswalpha_l               100667d0 f i libucrt:_wctype.obj
 0001:000657eb       __iswblank_l               100667eb f i libucrt:_wctype.obj
 0001:0006580f       __iswcntrl_l               1006680f f i libucrt:_wctype.obj
 0001:00065826       __iswcsym_l                10066826 f i libucrt:_wctype.obj
 0001:00065855       __iswcsymf_l               10066855 f i libucrt:_wctype.obj
 0001:00065884       __iswdigit_l               10066884 f i libucrt:_wctype.obj
 0001:0006589b       __iswgraph_l               1006689b f i libucrt:_wctype.obj
 0001:000658b6       __iswlower_l               100668b6 f i libucrt:_wctype.obj
 0001:000658cd       __iswprint_l               100668cd f i libucrt:_wctype.obj
 0001:000658e8       __iswpunct_l               100668e8 f i libucrt:_wctype.obj
 0001:000658ff       __iswspace_l               100668ff f i libucrt:_wctype.obj
 0001:00065916       __iswupper_l               10066916 f i libucrt:_wctype.obj
 0001:0006592d       __iswxdigit_l              1006692d f i libucrt:_wctype.obj
 0001:00065948       _isleadbyte                10066948 f i libucrt:_wctype.obj
 0001:0006595f       _iswalnum                  1006695f f i libucrt:_wctype.obj
 0001:0006597a       _iswalpha                  1006697a f i libucrt:_wctype.obj
 0001:00065995       _iswascii                  10066995 f i libucrt:_wctype.obj
 0001:000659ae       _iswblank                  100669ae f i libucrt:_wctype.obj
 0001:000659d2       _iswcntrl                  100669d2 f i libucrt:_wctype.obj
 0001:000659e9       _iswdigit                  100669e9 f i libucrt:_wctype.obj
 0001:00065a00       _iswgraph                  10066a00 f i libucrt:_wctype.obj
 0001:00065a1b       _iswlower                  10066a1b f i libucrt:_wctype.obj
 0001:00065a32       _iswprint                  10066a32 f i libucrt:_wctype.obj
 0001:00065a4d       _iswpunct                  10066a4d f i libucrt:_wctype.obj
 0001:00065a64       _iswspace                  10066a64 f i libucrt:_wctype.obj
 0001:00065a7b       _iswupper                  10066a7b f i libucrt:_wctype.obj
 0001:00065a92       _iswxdigit                 10066a92 f i libucrt:_wctype.obj
 0001:00065aad       ??0?$__crt_scoped_stack_ptr@_W@@QAE@U?$__crt_scoped_stack_ptr_tag@_W@@@Z 10066aad f i libucrt:lcmapstringa.obj
 0001:00065ac1       ??0?$__crt_scoped_stack_ptr_tag@_W@@QAE@QA_W@Z 10066ac1 f i libucrt:lcmapstringa.obj
 0001:00065ad5       ??1?$__crt_scoped_stack_ptr@_W@@QAE@XZ 10066ad5 f i libucrt:lcmapstringa.obj
 0001:00065ae0       ??B?$__crt_scoped_stack_ptr@_W@@QBE_NXZ 10066ae0 f i libucrt:lcmapstringa.obj
 0001:00065d8e       ?get@?$__crt_scoped_stack_ptr@_W@@QBEPA_WXZ 10066d8e f i libucrt:lcmapstringa.obj
 0001:00065d91       __MallocaComputeSize       10066d91 f i libucrt:lcmapstringa.obj
 0001:00065da8       __MarkAllocaS              10066da8 f i libucrt:lcmapstringa.obj
 0001:00065dc3       ___acrt_LCMapStringA       10066dc3 f   libucrt:lcmapstringa.obj
 0001:00065e20       __freea_crt                10066e20 f i libucrt:lcmapstringa.obj
 0001:00065e48       ??$?RE@__crt_internal_free_policy@@QBEXQBE@Z 10066e48 f i libucrt:initctype.obj
 0001:00065e5e       ??$?RG@__crt_internal_free_policy@@QBEXQBG@Z 10066e5e f i libucrt:initctype.obj
 0001:00065e74       ??$?RJ@__crt_internal_free_policy@@QBEXQBJ@Z 10066e74 f i libucrt:initctype.obj
 0001:00065e8a       ??0?$__crt_unique_heap_ptr@EU__crt_internal_free_policy@@@@QAE@QAE@Z 10066e8a f i libucrt:initctype.obj
 0001:00065e9e       ??0?$__crt_unique_heap_ptr@GU__crt_internal_free_policy@@@@QAE@QAG@Z 10066e9e f i libucrt:initctype.obj
 0001:00065eb2       ??0?$__crt_unique_heap_ptr@JU__crt_internal_free_policy@@@@QAE@QAJ@Z 10066eb2 f i libucrt:initctype.obj
 0001:00065ec6       ??1?$__crt_unique_heap_ptr@EU__crt_internal_free_policy@@@@QAE@XZ 10066ec6 f i libucrt:initctype.obj
 0001:00065edc       ??1?$__crt_unique_heap_ptr@GU__crt_internal_free_policy@@@@QAE@XZ 10066edc f i libucrt:initctype.obj
 0001:00065ef2       ??1?$__crt_unique_heap_ptr@JU__crt_internal_free_policy@@@@QAE@XZ 10066ef2 f i libucrt:initctype.obj
 0001:00065f08       ?detach@?$__crt_unique_heap_ptr@EU__crt_internal_free_policy@@@@QAEPAEXZ 10066f08 f i libucrt:initctype.obj
 0001:00065f0e       ?detach@?$__crt_unique_heap_ptr@GU__crt_internal_free_policy@@@@QAEPAGXZ 10066f0e f i libucrt:initctype.obj
 0001:00065f14       ?detach@?$__crt_unique_heap_ptr@JU__crt_internal_free_policy@@@@QAEPAJXZ 10066f14 f i libucrt:initctype.obj
 0001:00065f1a       ?release@?$__crt_unique_heap_ptr@EU__crt_internal_free_policy@@@@QAEXXZ 10066f1a f i libucrt:initctype.obj
 0001:00065f30       ?release@?$__crt_unique_heap_ptr@GU__crt_internal_free_policy@@@@QAEXXZ 10066f30 f i libucrt:initctype.obj
 0001:00065f46       ?release@?$__crt_unique_heap_ptr@JU__crt_internal_free_policy@@@@QAEXXZ 10066f46 f i libucrt:initctype.obj
 0001:00065f5c       ____lc_codepage_func       10066f5c f   libucrt:initctype.obj
 0001:00065f8c       ____lc_collate_cp_func     10066f8c f   libucrt:initctype.obj
 0001:00065fbc       ____lc_locale_name_func    10066fbc f   libucrt:initctype.obj
 0001:00065fef       ____mb_cur_max_func        10066fef f   libucrt:initctype.obj
 0001:0006601f       ____mb_cur_max_l_func      1006701f f   libucrt:initctype.obj
 0001:0006603e       ___acrt_locale_initialize_ctype 1006703e f   libucrt:initctype.obj
 0001:000664c3       ___acrt_add_locale_ref     100674c3 f   libucrt:locale_refcounting.obj
 0001:0006655f       ___acrt_free_locale        1006755f f   libucrt:locale_refcounting.obj
 0001:000666fb       ___acrt_locale_add_lc_time_reference 100676fb f   libucrt:locale_refcounting.obj
 0001:0006672e       ___acrt_locale_free_lc_time_if_unreferenced 1006772e f   libucrt:locale_refcounting.obj
 0001:0006676a       ___acrt_locale_release_lc_time_reference 1006776a f   libucrt:locale_refcounting.obj
 0001:0006679d       ___acrt_release_locale_ref 1006779d f   libucrt:locale_refcounting.obj
 0001:0006683e       ___acrt_update_thread_locale_data 1006783e f   libucrt:locale_refcounting.obj
 0001:000668d2       __updatetlocinfoEx_nolock  100678d2 f   libucrt:locale_refcounting.obj
 0001:00066936       ___acrt_fp_strflt_to_string 10067936 f   libucrt:_fptostr.obj
 0001:00068160       ??0big_integer@__crt_strtox@@QAE@ABU01@@Z 10069160 f i libucrt:cfout.obj
 0001:000681a0       ??0big_integer@__crt_strtox@@QAE@XZ 100691a0 f i libucrt:cfout.obj
 0001:000681ab       ??0scoped_fp_state_reset@?A0x3568b024@@QAE@XZ 100691ab f i libucrt:cfout.obj
 0001:000681df       ??1scoped_fp_state_reset@?A0x3568b024@@QAE@XZ 100691df f i libucrt:cfout.obj
 0001:000681f0       ??4big_integer@__crt_strtox@@QAEAAU01@ABU01@@Z 100691f0 f i libucrt:cfout.obj
 0001:00068230       ??8__crt_strtox@@YA_NABUbig_integer@0@0@Z 10069230 f i libucrt:cfout.obj
 0001:00068280       ??9__crt_strtox@@YA_NABUbig_integer@0@0@Z 10069280 f i libucrt:cfout.obj
 0001:000682e0       ?add_carry@__crt_strtox@@YAIAAIII@Z 100692e0 f i libucrt:cfout.obj
 0001:00068310       ?add_multiply_carry@__crt_strtox@@YAIAAIIII@Z 10069310 f i libucrt:cfout.obj
 0001:00068340       ?bit_scan_reverse@__crt_strtox@@YAII@Z 10069340 f i libucrt:cfout.obj
 0001:00068370       ?count_sequential_high_zeroes@__crt_strtox@@YAII@Z 10069370 f i libucrt:cfout.obj
 0001:000683a0       ?divide@__crt_strtox@@YA_KAAUbig_integer@1@ABU21@@Z 100693a0 f i libucrt:cfout.obj
 0001:00068980       ?is_zero@__crt_strtox@@YA_NABUbig_integer@1@@Z 10069980 f i libucrt:cfout.obj
 0001:000689a0       ?make_big_integer@__crt_strtox@@YA?AUbig_integer@1@_K@Z 100699a0 f i libucrt:cfout.obj
 0001:000689d0       ?make_big_integer_power_of_two@__crt_strtox@@YA?AUbig_integer@1@I@Z 100699d0 f i libucrt:cfout.obj
 0001:00068a30       ?multiply@__crt_strtox@@YA_NAAUbig_integer@1@ABU21@@Z 10069a30 f i libucrt:cfout.obj
 0001:00068ee0       ?multiply@__crt_strtox@@YA_NAAUbig_integer@1@I@Z 10069ee0 f i libucrt:cfout.obj
 0001:00068fe0       ?multiply_64_32@__crt_strtox@@YA_K_KI@Z 10069fe0 f i libucrt:cfout.obj
 0001:00069000       ?multiply_by_power_of_ten@__crt_strtox@@YA_NAAUbig_integer@1@I@Z 1006a000 f i libucrt:cfout.obj
 0001:00069700       ?multiply_core@__crt_strtox@@YAIQAIII@Z 1006a700 f i libucrt:cfout.obj
 0001:00069750       ?shift_left@__crt_strtox@@YA_NAAUbig_integer@1@I@Z 1006a750 f i libucrt:cfout.obj
 0001:000698f2       ___acrt_fltout             1006a8f2 f   libucrt:cfout.obj
 0001:0006b216       __isatty                   1006c216 f   libucrt:isatty.obj
 0001:0006b281       ??$?RUlconv@@@__crt_internal_free_policy@@QBEXQBUlconv@@@Z 1006c281 f i libucrt:initmon.obj
 0001:0006b297       ??0?$__crt_unique_heap_ptr@Ulconv@@U__crt_internal_free_policy@@@@QAE@QAUlconv@@@Z 1006c297 f i libucrt:initmon.obj
 0001:0006b2ab       ??1?$__crt_unique_heap_ptr@Ulconv@@U__crt_internal_free_policy@@@@QAE@XZ 1006c2ab f i libucrt:initmon.obj
 0001:0006b2c1       ?detach@?$__crt_unique_heap_ptr@Ulconv@@U__crt_internal_free_policy@@@@QAEPAUlconv@@XZ 1006c2c1 f i libucrt:initmon.obj
 0001:0006b2c7       ?release@?$__crt_unique_heap_ptr@Ulconv@@U__crt_internal_free_policy@@@@QAEXXZ 1006c2c7 f i libucrt:initmon.obj
 0001:0006b2dd       ___acrt_locale_free_monetary 1006c2dd f   libucrt:initmon.obj
 0001:0006b41a       ___acrt_locale_initialize_monetary 1006c41a f   libucrt:initmon.obj
 0001:0006b90d       ___acrt_locale_free_numeric 1006c90d f   libucrt:initnum.obj
 0001:0006b990       ___acrt_locale_initialize_numeric 1006c990 f   libucrt:initnum.obj
 0001:0006bc7b       ??$?RU__crt_lc_time_data@@@__crt_internal_free_policy@@QBEXQBU__crt_lc_time_data@@@Z 1006cc7b f i libucrt:inittime.obj
 0001:0006bd1b       ??0?$__crt_unique_heap_ptr@U__crt_lc_time_data@@U__crt_internal_free_policy@@@@QAE@QAU__crt_lc_time_data@@@Z 1006cd1b f i libucrt:inittime.obj
 0001:0006bd2f       ??1?$__crt_unique_heap_ptr@U__crt_lc_time_data@@U__crt_internal_free_policy@@@@QAE@XZ 1006cd2f f i libucrt:inittime.obj
 0001:0006bd45       ??B?$__crt_unique_heap_ptr@U__crt_lc_time_data@@U__crt_internal_free_policy@@@@QBE_NXZ 1006cd45 f i libucrt:inittime.obj
 0001:0006bd4f       ?detach@?$__crt_unique_heap_ptr@U__crt_lc_time_data@@U__crt_internal_free_policy@@@@QAEPAU__crt_lc_time_data@@XZ 1006cd4f f i libucrt:inittime.obj
 0001:0006bda0       ?get@?$__crt_unique_heap_ptr@U__crt_lc_time_data@@U__crt_internal_free_policy@@@@QBEPAU__crt_lc_time_data@@XZ 1006cda0 f i libucrt:inittime.obj
 0001:0006c138       ?is_valid@?$__crt_unique_heap_ptr@U__crt_lc_time_data@@U__crt_internal_free_policy@@@@QBE_NXZ 1006d138 f i libucrt:inittime.obj
 0001:0006c142       ?release@?$__crt_unique_heap_ptr@U__crt_lc_time_data@@U__crt_internal_free_policy@@@@QAEXXZ 1006d142 f i libucrt:inittime.obj
 0001:0006c158       ___acrt_locale_free_time   1006d158 f   libucrt:inittime.obj
 0001:0006c275       ___acrt_locale_initialize_time 1006d275 f   libucrt:inittime.obj
 0001:0006c413       _wcsncpy_s                 1006d413 f   libucrt:wcsncpy_s.obj
 0001:0006c420       _wcscspn                   1006d420 f   libucrt:wcscspn.obj
 0001:0006c484       _wcsncmp                   1006d484 f   libucrt:wcsncmp.obj
 0001:0006c4cc       _wcspbrk                   1006d4cc f   libucrt:wcspbrk.obj
 0001:0006c522       ___acrt_GetStringTypeA     1006d522 f   libucrt:getstringtypea.obj
 0001:0006cf96       ___acrt_get_qualified_locale 1006df96 f   libucrt:get_qualified_locale.obj
 0001:0006db3d       ___acrt_get_qualified_locale_downlevel 1006eb3d f   libucrt:getqloc_downlevel.obj
 0001:0006ddc5       _localeconv                1006edc5 f   libucrt:localeconv.obj
 0001:0006ddf9       __wcsnicmp                 1006edf9 f   libucrt:wcsnicmp.obj
 0001:0006dedf       __wcsnicmp_l               1006eedf f   libucrt:wcsnicmp.obj
 0001:0006e020       __strnicmp                 1006f020 f   libucrt:strnicmp.obj
 0001:0006e0a7       __strnicmp_l               1006f0a7 f   libucrt:strnicmp.obj
 0001:0006e18b       ??$__vcrt_va_start_verify_argument_type@$$CBH@@YAXXZ 1006f18b f i libucrt:open.obj
 0001:0006e542       ??$tsopen_nolock@PAHABQAHABQBDABHABHABHABH@?$__crt_char_traits@D@@SAH$$QAPAHABQAHABQBDABH333@Z 1006f542 f i libucrt:open.obj
 0001:0006e580       ??$tsopen_nolock@PAHABQAHABQB_WABHABHABHABH@?$__crt_char_traits@_W@@SAH$$QAPAHABQAHABQB_WABH333@Z 1006f580 f i libucrt:open.obj
 0001:0006e5be       ??$tsopen_nolock@PAHPAHABQBDABHHABHH@?$__crt_char_traits@D@@SAH$$QAPAH0ABQBDABH$$QAH23@Z 1006f5be f i libucrt:open.obj
 0001:0006e5fc       ??$tsopen_nolock@PAHPAHABQB_WABHHABHH@?$__crt_char_traits@_W@@SAH$$QAPAH0ABQB_WABH$$QAH23@Z 1006f5fc f i libucrt:open.obj
 0001:0006edca       __open                     1006fdca f   libucrt:open.obj
 0001:0006ede8       __sopen                    1006fde8 f   libucrt:open.obj
 0001:0006ee2a       __sopen_dispatch           1006fe2a f   libucrt:open.obj
 0001:0006ee37       __sopen_nolock             1006fe37 f   libucrt:open.obj
 0001:0006ee9c       __sopen_s                  1006fe9c f   libucrt:open.obj
 0001:0006eec4       __wopen                    1006fec4 f   libucrt:open.obj
 0001:0006eee2       __wsopen                   1006fee2 f   libucrt:open.obj
 0001:0006ef24       __wsopen_dispatch          1006ff24 f   libucrt:open.obj
 0001:0006ef31       __wsopen_nolock            1006ff31 f   libucrt:open.obj
 0001:0006f324       __wsopen_s                 10070324 f   libucrt:open.obj
 0001:0006f34c       ___p__commode              1007034c f   libucrt:ncommode.obj
 0001:0006f352       ___acrt_stdio_allocate_buffer_nolock 10070352 f   libucrt:_getbuf.obj
 0001:0006f3c6       ??$?RV<lambda_4980db0136e49a56f91ef52c46ca659a>@@AAV<lambda_6e3e78bb6855d1e4040e022c1b427e22>@@V<lambda_9c074eaf62197b4fd0274ed9e7824161>@@@?$__crt_seh_guarded_call@G@@QAEG$$QAV<lambda_4980db0136e49a56f91ef52c46ca659a>@@AAV<lambda_6e3e78bb6855d1e4040e022c1b427e22>@@$$QAV<lambda_9c074eaf62197b4fd0274ed9e7824161>@@@Z 100703c6 f i libucrt:putwch.obj
 0001:0006f43b       ??$__acrt_lock_and_call@V<lambda_6e3e78bb6855d1e4040e022c1b427e22>@@@@YAGW4__acrt_lock_id@@$$QAV<lambda_6e3e78bb6855d1e4040e022c1b427e22>@@@Z 1007043b f i libucrt:putwch.obj
 0001:0006f4d3       __putwch                   100704d3 f   libucrt:putwch.obj
 0001:0006f4f7       __putwch_nolock            100704f7 f   libucrt:putwch.obj
 0001:0006f54d       _nextafter                 1007054d f   libucrt:nextafter.obj
 0001:0006f585       __wcsnicoll                10070585 f   libucrt:wcsnicol.obj
 0001:0006f689       __wcsnicoll_l              10070689 f   libucrt:wcsnicol.obj
 0001:0006f801       __strnicoll                10070801 f   libucrt:strnicol.obj
 0001:0006f834       __strnicoll_l              10070834 f   libucrt:strnicol.obj
 0001:0006f96f       __msize                    1007096f f   libucrt:msize.obj
 0001:0006f9ae       ___strncnt                 100709ae f   libucrt:strncnt.obj
 0001:0006fb0a       ___acrt_GetLocaleInfoA     10070b0a f   libucrt:getlocaleinfoa.obj
 0001:0006fd28       _fegetenv                  10070d28 f   libucrt:fegetenv.obj
 0001:0006fd4c       _fesetenv                  10070d4c f   libucrt:fesetenv.obj
 0001:0006fda7       _feholdexcept              10070da7 f   libucrt:feholdexcept.obj
 0001:0006fe10       _log10                     10070e10 f   libucrt:log10.obj
 0001:0006fe50       __CIlog10                  10070e50 f   libucrt:log10.obj
 0001:0006fe8b       __CIlog10_default          10070e8b f   libucrt:log10.obj
 0001:0006fe9f       __log10_default            10070e9f     libucrt:log10.obj
 0001:0006ffc0       _ceil                      10070fc0 f   libucrt:ceil_pentium4.obj
 0001:00070000       __ceil_pentium4            10071000 f   libucrt:ceil_pentium4.obj
 0001:00070124       __wcsicmp                  10071124 f   libucrt:wcsicmp.obj
 0001:000701de       __wcsicmp_l                100711de f   libucrt:wcsicmp.obj
 0001:000702f6       __towlower_l               100712f6 f   libucrt:towlower.obj
 0001:000703f1       _towlower                  100713f1 f   libucrt:towlower.obj
 0001:00070410       ___ascii_strnicmp          10071410 f   libucrt:_strnicm.obj
 0001:00070489       ??$__crt_interlocked_read@H@@YAHPDH@Z 10071489 f i libucrt:setmode.obj
 0001:00070498       __get_fmode                10071498 f   libucrt:setmode.obj
 0001:000704cf       __set_fmode                100714cf f   libucrt:setmode.obj
 0001:0007051b       __setmode                  1007151b f   libucrt:setmode.obj
 0001:0007066c       __setmode_nolock           1007166c f   libucrt:setmode.obj
 0001:00070771       ??$?RV<lambda_4cfda81533ccf5a03113a1ca40a30445>@@AAV<lambda_1cffa78e445b1da5fba1a2e0e533226f>@@V<lambda_68c952aa1b860373b2109ef12d0bba9d>@@@?$__crt_seh_guarded_call@H@@QAEH$$QAV<lambda_4cfda81533ccf5a03113a1ca40a30445>@@AAV<lambda_1cffa78e445b1da5fba1a2e0e533226f>@@$$QAV<lambda_68c952aa1b860373b2109ef12d0bba9d>@@@Z 10071771 f i libucrt:chsize.obj
 0001:0007081b       ??$__acrt_lowio_lock_fh_and_call@V<lambda_1cffa78e445b1da5fba1a2e0e533226f>@@@@YAHH$$QAV<lambda_1cffa78e445b1da5fba1a2e0e533226f>@@@Z 1007181b f i libucrt:chsize.obj
 0001:000708fd       __chsize                   100718fd f   libucrt:chsize.obj
 0001:00070920       __chsize_nolock            10071920 f   libucrt:chsize.obj
 0001:00070b15       __chsize_s                 10071b15 f   libucrt:chsize.obj
 0001:00070bd6       __umask                    10071bd6 f   libucrt:umask.obj
 0001:00070c04       __umask_s                  10071c04 f   libucrt:umask.obj
 0001:00070c4d       ___dcrt_lowio_initialize_console_output 10071c4d f   libucrt:initcon.obj
 0001:00070c73       ___dcrt_terminate_console_output 10071c73 f   libucrt:initcon.obj
 0001:00070c8f       _nexttoward                10071c8f f   libucrt:nexttoward.obj
 0001:00070e40       ___acrt_CompareStringW     10071e40 f   libucrt:comparestringw.obj
 0001:00071214       ___acrt_CompareStringA     10072214 f   libucrt:comparestringa.obj
 0001:0007134b       _strncpy_s                 1007234b f   libucrt:strncpy_s.obj
 0001:00071358       ___acrt_fenv_get_fp_status_word_from_exception_mask 10072358 f   libucrt:_fenvutils.obj
 0001:0007179b       __getfpcontrolword         1007279b f   libucrt:_fenvutils.obj
 0001:000717ee       __getfpstatusword          100727ee f   libucrt:_fenvutils.obj
 0001:000718c0       __setfpcontrolword         100728c0 f   libucrt:_fenvutils.obj
 0001:00071960       __setfpstatusword          10072960 f   libucrt:_fenvutils.obj
 0001:00071b96       ___control87_2             10072b96 f   libucrt:ieee87.obj
 0001:0007216a       ___fpreset_sse2            1007316a f   libucrt:ieee87.obj
 0001:000723bd       __clearfp                  100733bd f   libucrt:ieee87.obj
 0001:000724d2       __control87                100734d2 f   libucrt:ieee87.obj
 0001:00072894       __controlfp                10073894 f   libucrt:ieee87.obj
 0001:000728b4       __fpreset                  100738b4 f   libucrt:ieee87.obj
 0001:000729b1       __set_controlfp            100739b1 f   libucrt:ieee87.obj
 0001:00072a47       __statusfp                 10073a47 f   libucrt:ieee87.obj
 0001:00072b0a       __statusfp2                10073b0a f   libucrt:ieee87.obj
 0001:00072b87       ___acrt_initialize_sse2    10073b87 f   libucrt:mathfcns.obj
 0001:00072b99       __set_SSE2_enable          10073b99 f   libucrt:mathfcns.obj
 0001:00072bd0       __CIlog10_pentium4         10073bd0 f   libucrt:log10_pentium4.obj
 0001:00072be8       __log10_pentium4           10073be8     libucrt:log10_pentium4.obj
 0001:00072f21       __fFEXP                    10073f21     libucrt:87tran.obj
 0001:00072f78       __rtinfpopse               10073f78     libucrt:87tran.obj
 0001:00072f7a       __rtinfnpopse              10073f7a     libucrt:87tran.obj
 0001:00072f8a       __fFLN                     10073f8a     libucrt:87tran.obj
 0001:0007303f       __rtinfpop                 1007403f     libucrt:87tran.obj
 0001:00073041       __rtinfnpop                10074041     libucrt:87tran.obj
 0001:0007305e       __ffexpm1                  1007405e     libucrt:87tran.obj
 0001:00073190       __trandisp1                10074190 f   libucrt:87disp.obj
 0001:000731f7       __trandisp2                100741f7 f   libucrt:87disp.obj
 0001:00073283       __rttospopde               10074283     libucrt:87disp.obj
 0001:00073288       __rttospop                 10074288     libucrt:87disp.obj
 0001:0007328a       __rtnospop                 1007428a     libucrt:87disp.obj
 0001:0007328c       __rttosnpop                1007428c     libucrt:87disp.obj
 0001:0007328d       __rtnospopde               1007428d     libucrt:87disp.obj
 0001:00073294       __rtzeropop                10074294     libucrt:87disp.obj
 0001:00073296       __rtzeronpop               10074296     libucrt:87disp.obj
 0001:0007329b       __rtzerospop               1007429b     libucrt:87disp.obj
 0001:000732a8       __rtonepop                 100742a8     libucrt:87disp.obj
 0001:000732aa       __rtonenpop                100742aa     libucrt:87disp.obj
 0001:000732af       __tosnan1                  100742af     libucrt:87disp.obj
 0001:000732da       __nosnan2                  100742da     libucrt:87disp.obj
 0001:000732dc       __tosnan2                  100742dc     libucrt:87disp.obj
 0001:00073304       __nan2                     10074304     libucrt:87disp.obj
 0001:00073343       __rtindfpop                10074343     libucrt:87disp.obj
 0001:00073345       __rtindfnpop               10074345     libucrt:87disp.obj
 0001:00073356       __rttosnpopde              10074356     libucrt:87disp.obj
 0001:00073360       __rtatan2inf               10074360     libucrt:87disp.obj
 0001:0007337d       __rtchsifneg               1007437d     libucrt:87disp.obj
 0001:00073401       ___setfflag                10074401 f   libucrt:fp_flags.obj
 0001:00073420       __twoToTOS                 10074420 f   libucrt:common.obj
 0001:00073435       __load_CW                  10074435 f   libucrt:common.obj
 0001:0007344c       __convertTOStoQNaN         1007444c f   libucrt:common.obj
 0001:00073465       __fload_withFB             10074465 f   libucrt:common.obj
 0001:000734a8       __checkTOS_withFB          100744a8 f   libucrt:common.obj
 0001:000734be       __fast_exit                100744be f   libucrt:common.obj
 0001:000734cb       __math_exit                100744cb f   libucrt:common.obj
 0001:000734f5       __check_overflow_exit      100744f5 f   libucrt:common.obj
 0001:00073509       __check_range_exit         10074509 f   libucrt:common.obj
 0001:00073610       __startTwoArgErrorHandling 10074610 f   libucrt:genexcep.obj
 0001:00073627       __startOneArgErrorHandling 10074627 f   libucrt:genexcep.obj
 0001:00073677       ___libm_error_support      10074677 f   libucrt:libm_error.obj
 0001:00073915       ___libm_setusermatherr     10074915 f   libucrt:libm_error.obj
 0001:0007394e       __ceil_default             1007494e f   libucrt:ceil.obj
 0001:00073a35       ___acrt_LCMapStringW       10074a35 f   libucrt:lcmapstringw.obj
 0001:00073a82       ___p__fmode                10074a82 f   libucrt:txtmode.obj
 0001:00073a88       __d_int                    10074a88 f   libucrt:_test.obj
 0001:00073bd0       __dtest                    10074bd0 f   libucrt:_test.obj
 0001:00073c4d       __fd_int                   10074c4d f   libucrt:_test.obj
 0001:00073d4f       __fdtest                   10074d4f f   libucrt:_test.obj
 0001:00073db0       __fperrraise               10074db0 f   libucrt:_test.obj
 0001:00073ddb       __ld_int                   10074ddb f   libucrt:_test.obj
 0001:00073de8       __ldtest                   10074de8 f   libucrt:_test.obj
 0001:00073e8d       __controlfp_s              10074e8d f   libucrt:contrlfp.obj
 0001:00073f03       __d_inttype                10074f03 f   libucrt:powhlp.obj
 0001:00073f87       __powhlp                   10074f87 f   libucrt:powhlp.obj
 0001:000740fc       __87except                 100750fc f   libucrt:87except.obj
 0001:00074249       __frnd                     10075249 f   libucrt:frnd.obj
 0001:00074264       _fegetexceptflag           10075264 f   libucrt:fegetexceptflag.obj
 0001:000742a1       _fesetexceptflag           100752a1 f   libucrt:fesetexceptflag.obj
 0001:00074302       _fetestexcept              10075302 f   libucrt:fetestexcept.obj
 0001:00074330       __FindPESection            10075330 f   LIBCMT:pesect.obj
 0001:00074390       __IsNonwritableInCurrentImage 10075390 f   LIBCMT:pesect.obj
 0001:00074480       __ValidateImageBase        10075480 f   LIBCMT:pesect.obj
 0001:000744c0       __aulldvrm                 100754c0 f   LIBCMT:ulldvrm.obj
 0001:0007457a       ??1type_info@@UAE@XZ       1007557a f   LIBCMT:std_type_info_static.obj
 0001:00074581       ??_Etype_info@@UAEPAXI@Z   10075581 f i LIBCMT:std_type_info_static.obj
 0001:00074581       ??_Gtype_info@@UAEPAXI@Z   10075581 f i LIBCMT:std_type_info_static.obj
 0001:000745b0       __SEH_prolog4_GS           100755b0 f   LIBCMT:_sehprolg4gs_.obj
 0001:000745f9       __SEH_epilog4_GS           100755f9 f   LIBCMT:_sehprolg4gs_.obj
 0001:00074620       __allmul                   10075620 f   LIBCMT:llmul.obj
 0001:00074670       __alldvrm                  10075670 f   LIBCMT:lldvrm.obj
 0001:00074790       __aullshr                  10075790 f   LIBCMT:ullshr.obj
 0001:000747c0       __chkstk                   100757c0 f   LIBCMT:chkstk.obj
 0001:000747c0       __alloca_probe             100757c0 f   LIBCMT:chkstk.obj
 0001:00074800       __alloca_probe_16          10075800 f   LIBCMT:alloca16.obj
 0001:00074816       __alloca_probe_8           10075816     LIBCMT:alloca16.obj
 0001:00074840       __allshl                   10075840 f   LIBCMT:llshl.obj
 0001:00074870       __ftol2_sse                10075870 f   LIBCMT:_ftol2_.obj
 0001:00074879       __ftol2_pentium4           10075879 f   LIBCMT:_ftol2_.obj
 0001:0007488c       __ftol2_sse_excpt          1007588c f   LIBCMT:_ftol2_.obj
 0001:000748b0       __ftol2                    100758b0 f   LIBCMT:_ftol2_.obj
 0001:00074952       __initialize_default_precision 10075952 f   LIBCMT:default_precision.obj
 0001:0007497b       ??3@YAXPAXI@Z              1007597b f   LIBCMT:delete_scalar_size.obj
 0001:0007498c       ??3@YAXPAX@Z               1007598c f   LIBCMT:delete_scalar.obj
 0001:00074992       _GetLastError@0            10075992 f   kernel32:KERNEL32.dll
 0001:00074998       _GetModuleFileNameW@12     10075998 f   kernel32:KERNEL32.dll
 0001:0007499e       _InterlockedPushEntrySList@8 1007599e f   kernel32:KERNEL32.dll
 0001:000749a4       _InterlockedFlushSList@4   100759a4 f   kernel32:KERNEL32.dll
 0001:000749aa       _InitializeCriticalSectionAndSpinCount@8 100759aa f   kernel32:KERNEL32.dll
 0001:000749b0       _TlsAlloc@0                100759b0 f   kernel32:KERNEL32.dll
 0001:000749b6       _TlsGetValue@4             100759b6 f   kernel32:KERNEL32.dll
 0001:000749bc       _TlsSetValue@8             100759bc f   kernel32:KERNEL32.dll
 0001:000749c2       _TlsFree@4                 100759c2 f   kernel32:KERNEL32.dll
 0001:000749c8       _FreeLibrary@4             100759c8 f   kernel32:KERNEL32.dll
 0001:000749ce       _LoadLibraryExW@12         100759ce f   kernel32:KERNEL32.dll
 0001:000749d4       _RtlUnwind@16              100759d4 f   kernel32:KERNEL32.dll
 0001:000749da       _SetLastError@4            100759da f   kernel32:KERNEL32.dll
 0001:000749e0       _EnterCriticalSection@4    100759e0 f   kernel32:KERNEL32.dll
 0001:000749e6       _LeaveCriticalSection@4    100759e6 f   kernel32:KERNEL32.dll
 0001:000749ec       _DeleteCriticalSection@4   100759ec f   kernel32:KERNEL32.dll
 0001:000749f2       _GetStdHandle@4            100759f2 f   kernel32:KERNEL32.dll
 0001:000749f8       _GetFileType@4             100759f8 f   kernel32:KERNEL32.dll
 0001:000749fe       _GetModuleFileNameA@12     100759fe f   kernel32:KERNEL32.dll
 0001:00074a04       _GetModuleHandleExW@12     10075a04 f   kernel32:KERNEL32.dll
 0001:00074a0a       _WriteConsoleW@20          10075a0a f   kernel32:KERNEL32.dll
 0001:00074a10       _ExitProcess@4             10075a10 f   kernel32:KERNEL32.dll
 0001:00074a16       _RaiseException@16         10075a16 f   kernel32:KERNEL32.dll
 0001:00074a1c       _MultiByteToWideChar@24    10075a1c f   kernel32:KERNEL32.dll
 0001:00074a22       _WideCharToMultiByte@32    10075a22 f   kernel32:KERNEL32.dll
 0001:00074a28       _HeapFree@12               10075a28 f   kernel32:KERNEL32.dll
 0001:00074a2e       _HeapAlloc@12              10075a2e f   kernel32:KERNEL32.dll
 0001:00074a34       _GetDateFormatW@24         10075a34 f   kernel32:KERNEL32.dll
 0001:00074a3a       _GetTimeFormatW@24         10075a3a f   kernel32:KERNEL32.dll
 0001:00074a40       _CompareStringW@24         10075a40 f   kernel32:KERNEL32.dll
 0001:00074a46       _LCMapStringW@24           10075a46 f   kernel32:KERNEL32.dll
 0001:00074a4c       _GetLocaleInfoW@16         10075a4c f   kernel32:KERNEL32.dll
 0001:00074a52       _IsValidLocale@8           10075a52 f   kernel32:KERNEL32.dll
 0001:00074a58       _GetUserDefaultLCID@0      10075a58 f   kernel32:KERNEL32.dll
 0001:00074a5e       _EnumSystemLocalesW@8      10075a5e f   kernel32:KERNEL32.dll
 0001:00074a64       _GetCurrentThread@0        10075a64 f   kernel32:KERNEL32.dll
 0001:00074a6a       _GetACP@0                  10075a6a f   kernel32:KERNEL32.dll
 0001:00074a70       _WriteFile@20              10075a70 f   kernel32:KERNEL32.dll
 0001:00074a76       _OutputDebugStringA@4      10075a76 f   kernel32:KERNEL32.dll
 0001:00074a7c       _OutputDebugStringW@4      10075a7c f   kernel32:KERNEL32.dll
 0001:00074a82       _CloseHandle@4             10075a82 f   kernel32:KERNEL32.dll
 0001:00074a88       _WaitForSingleObjectEx@12  10075a88 f   kernel32:KERNEL32.dll
 0001:00074a8e       _CreateThread@24           10075a8e f   kernel32:KERNEL32.dll
 0001:00074a94       _SetConsoleCtrlHandler@8   10075a94 f   kernel32:KERNEL32.dll
 0001:00074a9a       _HeapReAlloc@16            10075a9a f   kernel32:KERNEL32.dll
 0001:00074aa0       _ReadFile@20               10075aa0 f   kernel32:KERNEL32.dll
 0001:00074aa6       _GetConsoleMode@8          10075aa6 f   kernel32:KERNEL32.dll
 0001:00074aac       _ReadConsoleW@20           10075aac f   kernel32:KERNEL32.dll
 0001:00074ab2       _GetConsoleCP@0            10075ab2 f   kernel32:KERNEL32.dll
 0001:00074ab8       _DeleteFileW@4             10075ab8 f   kernel32:KERNEL32.dll
 0001:00074abe       _SetFilePointerEx@20       10075abe f   kernel32:KERNEL32.dll
 0001:00074ac4       _IsValidCodePage@4         10075ac4 f   kernel32:KERNEL32.dll
 0001:00074aca       _GetOEMCP@0                10075aca f   kernel32:KERNEL32.dll
 0001:00074ad0       _GetCPInfo@8               10075ad0 f   kernel32:KERNEL32.dll
 0001:00074ad6       _GetEnvironmentStringsW@0  10075ad6 f   kernel32:KERNEL32.dll
 0001:00074adc       _FreeEnvironmentStringsW@4 10075adc f   kernel32:KERNEL32.dll
 0001:00074ae2       _SetEnvironmentVariableA@8 10075ae2 f   kernel32:KERNEL32.dll
 0001:00074ae8       _SetEnvironmentVariableW@8 10075ae8 f   kernel32:KERNEL32.dll
 0001:00074aee       _GetProcessHeap@0          10075aee f   kernel32:KERNEL32.dll
 0001:00074af4       _GetCommandLineA@0         10075af4 f   kernel32:KERNEL32.dll
 0001:00074afa       _GetCommandLineW@0         10075afa f   kernel32:KERNEL32.dll
 0001:00074b00       _GetStringTypeW@16         10075b00 f   kernel32:KERNEL32.dll
 0001:00074b06       _FlushFileBuffers@4        10075b06 f   kernel32:KERNEL32.dll
 0001:00074b0c       _SetStdHandle@8            10075b0c f   kernel32:KERNEL32.dll
 0001:00074b12       _CreateFileW@28            10075b12 f   kernel32:KERNEL32.dll
 0001:00074b18       _HeapSize@12               10075b18 f   kernel32:KERNEL32.dll
 0001:00074b1e       _SetEndOfFile@4            10075b1e f   kernel32:KERNEL32.dll
 0001:00074b24       _EncodePointer@4           10075b24 f   kernel32:KERNEL32.dll
 0001:00074b2a       _DecodePointer@4           10075b2a f   kernel32:KERNEL32.dll
 0001:00074b30       _SystemFunction036@8       10075b30 f   advapi32:ADVAPI32.dll
 0001:00074b40       _strrchr                   10075b40 f   libvcruntime:strrchr.obj
 0001:00074e27       _memcmp                    10075e27 f   libvcruntime:_memcmp_.obj
 0001:0007890f       _wcschr                    1007990f f   libvcruntime:wcschr.obj
 0002:00000000       ___xc_a                    1007c000     LIBCMT:initializers.obj
 0002:00000104       ___xc_z                    1007c104     LIBCMT:initializers.obj
 0002:00000208       ___xi_a                    1007c208     LIBCMT:initializers.obj
 0002:0000030c       ___acrt_stdio_initializer  1007c30c     libucrt:stdio_initializer.obj
 0002:00000310       ___acrt_multibyte_initializer 1007c310     libucrt:multibyte_initializer.obj
 0002:00000314       ___acrt_tran_sse2_initializer 1007c314     libucrt:sse2_initializer.obj
 0002:0000041c       ___xi_z                    1007c41c     LIBCMT:initializers.obj
 0002:00000520       ___xp_a                    1007c520     LIBCMT:initializers.obj
 0002:00000624       ___acrt_locale_terminator  1007c624     libucrt:locale_initializer.obj
 0002:00000628       ___dcrt_console_output_terminator 1007c628     libucrt:console_output_initializer.obj
 0002:00000730       ___acrt_stdio_terminator   1007c730     libucrt:stdio_initializer.obj
 0002:00000834       ___xp_z                    1007c834     LIBCMT:initializers.obj
 0002:00000938       ___xt_a                    1007c938     LIBCMT:initializers.obj
 0002:00000a3c       ___xt_z                    1007ca3c     LIBCMT:initializers.obj
 0002:00000b40       _Control_software_v1_1_M   1007cb40     Control_software_v1_1.obj
 0002:00000b44       ??_C@_0BI@PBFPDHLE@Error?5creating?5scope?54?6?$AA@ 1007cb44     Control_software_v1_1.obj
 0002:00000b60       ??_C@_0CD@PABKEHBL@Logging?1Time_Scope_trigger?1Switc@ 1007cb60     Control_software_v1_1.obj
 0002:00000b8c       ??_C@_0N@JOPDLDLD@Var_Time?4dat?$AA@ 1007cb8c     Control_software_v1_1.obj
 0002:00000b9c       ??_C@_0BI@PHJEPFFP@Error?5creating?5scope?51?6?$AA@ 1007cb9c     Control_software_v1_1.obj
 0002:00000bb8       ??_C@_0N@JGBBFACG@Var_MVLK?4dat?$AA@ 1007cbb8     Control_software_v1_1.obj
 0002:00000bc8       ??_C@_0BI@PEBACBDB@Error?5creating?5scope?53?6?$AA@ 1007cbc8     Control_software_v1_1.obj
 0002:00000be4       ??_C@_0CM@PCIJLOAC@Logging?1Log_conditioning?1Rate?5Tr@ 1007cbe4     Control_software_v1_1.obj
 0002:00000c18       ??_C@_0CM@NJKEONMB@Logging?1Log_conditioning?1Rate?5Tr@ 1007cc18     Control_software_v1_1.obj
 0002:00000c4c       ??_C@_0CM@MALPNMIA@Logging?1Log_conditioning?1Rate?5Tr@ 1007cc4c     Control_software_v1_1.obj
 0002:00000c80       ??_C@_0CM@IPPOEKEH@Logging?1Log_conditioning?1Rate?5Tr@ 1007cc80     Control_software_v1_1.obj
 0002:00000cb4       ??_C@_0CM@JGOFHLAG@Logging?1Log_conditioning?1Rate?5Tr@ 1007ccb4     Control_software_v1_1.obj
 0002:00000ce8       ??_C@_0CM@LNMICIMF@Logging?1Log_conditioning?1Rate?5Tr@ 1007cce8     Control_software_v1_1.obj
 0002:00000d1c       ??_C@_0CM@KENDBJIE@Logging?1Log_conditioning?1Rate?5Tr@ 1007cd1c     Control_software_v1_1.obj
 0002:00000d50       ??_C@_0CM@CDELAFEL@Logging?1Log_conditioning?1Rate?5Tr@ 1007cd50     Control_software_v1_1.obj
 0002:00000d84       ??_C@_0CM@DKFADEAK@Logging?1Log_conditioning?1Rate?5Tr@ 1007cd84     Control_software_v1_1.obj
 0002:00000db8       ??_C@_0CN@DBLKNOGB@Logging?1Log_conditioning?1Rate?5Tr@ 1007cdb8     Control_software_v1_1.obj
 0002:00000df0       ??_C@_0CN@CIKBOPCA@Logging?1Log_conditioning?1Rate?5Tr@ 1007cdf0     Control_software_v1_1.obj
 0002:00000e28       ??_C@_0CN@DIMLMOD@Logging?1Log_conditioning?1Rate?5Tr@ 1007ce28     Control_software_v1_1.obj
 0002:00000e60       ??_C@_0CN@BKJHINKC@Logging?1Log_conditioning?1Rate?5Tr@ 1007ce60     Control_software_v1_1.obj
 0002:00000e98       ??_C@_0CN@FFNGBLGF@Logging?1Log_conditioning?1Rate?5Tr@ 1007ce98     Control_software_v1_1.obj
 0002:00000ed0       ??_C@_0CN@EMMNCKCE@Logging?1Log_conditioning?1Rate?5Tr@ 1007ced0     Control_software_v1_1.obj
 0002:00000f08       ??_C@_0CN@GHOAHJOH@Logging?1Log_conditioning?1Rate?5Tr@ 1007cf08     Control_software_v1_1.obj
 0002:00000f40       ??_C@_0CN@HOPLEIKG@Logging?1Log_conditioning?1Rate?5Tr@ 1007cf40     Control_software_v1_1.obj
 0002:00000f78       ??_C@_0CN@PJGDFEGJ@Logging?1Log_conditioning?1Rate?5Tr@ 1007cf78     Control_software_v1_1.obj
 0002:00000fb0       ??_C@_0CN@OAHIGFCI@Logging?1Log_conditioning?1Rate?5Tr@ 1007cfb0     Control_software_v1_1.obj
 0002:00000fe8       ??_C@_0CN@DDPMGADI@Logging?1Log_conditioning?1Rate?5Tr@ 1007cfe8     Control_software_v1_1.obj
 0002:00001020       ??_C@_0CN@CKOHFBHJ@Logging?1Log_conditioning?1Rate?5Tr@ 1007d020     Control_software_v1_1.obj
 0002:00001058       ??_C@_0CN@BMKACLK@Logging?1Log_conditioning?1Rate?5Tr@ 1007d058     Control_software_v1_1.obj
 0002:00001090       ??_C@_0CN@BINBDDPL@Logging?1Log_conditioning?1Rate?5Tr@ 1007d090     Control_software_v1_1.obj
 0002:000010c8       ??_C@_0CN@FHJAKFDM@Logging?1Log_conditioning?1Rate?5Tr@ 1007d0c8     Control_software_v1_1.obj
 0002:00001100       ??_C@_0CN@EOILJEHN@Logging?1Log_conditioning?1Rate?5Tr@ 1007d100     Control_software_v1_1.obj
 0002:00001138       ??_C@_0CN@GFKGMHLO@Logging?1Log_conditioning?1Rate?5Tr@ 1007d138     Control_software_v1_1.obj
 0002:00001170       ??_C@_0CN@HMLNPGPP@Logging?1Log_conditioning?1Rate?5Tr@ 1007d170     Control_software_v1_1.obj
 0002:000011a8       ??_C@_0CN@PLCFOKDA@Logging?1Log_conditioning?1Rate?5Tr@ 1007d1a8     Control_software_v1_1.obj
 0002:000011e0       ??_C@_0CN@OCDONLHB@Logging?1Log_conditioning?1Rate?5Tr@ 1007d1e0     Control_software_v1_1.obj
 0002:00001218       ??_C@_0CN@DCDOAKAP@Logging?1Log_conditioning?1Rate?5Tr@ 1007d218     Control_software_v1_1.obj
 0002:00001250       ??_C@_0CN@CLCFDLEO@Logging?1Log_conditioning?1Rate?5Tr@ 1007d250     Control_software_v1_1.obj
 0002:00001288       ??_C@_0CN@IGIIN@Logging?1Log_conditioning?1Rate?5Tr@ 1007d288     Control_software_v1_1.obj
 0002:000012c0       ??_C@_0CN@BJBDFJMM@Logging?1Log_conditioning?1Rate?5Tr@ 1007d2c0     Control_software_v1_1.obj
 0002:000012f8       ??_C@_0CN@FGFCMPAL@Logging?1Log_conditioning?1Rate?5Tr@ 1007d2f8     Control_software_v1_1.obj
 0002:00001330       ??_C@_0CN@EPEJPOEK@Logging?1Log_conditioning?1Rate?5Tr@ 1007d330     Control_software_v1_1.obj
 0002:00001368       ??_C@_0M@LEOMEJEO@Var_100?4dat?$AA@ 1007d368     Control_software_v1_1.obj
 0002:00001378       ??_C@_0BI@PFNCELAG@Error?5creating?5scope?52?6?$AA@ 1007d378     Control_software_v1_1.obj
 0002:00001394       ??_C@_0DH@CHJBJNOH@Inputs?1RS232_read?1GPS_read?1Embed@ 1007d394     Control_software_v1_1.obj
 0002:000013d8       ??_C@_0DH@MLMMOCE@Inputs?1RS232_read?1GPS_read?1Embed@ 1007d3d8     Control_software_v1_1.obj
 0002:0000141c       ??_C@_0DH@BFKHPPGF@Inputs?1RS232_read?1GPS_read?1Embed@ 1007d41c     Control_software_v1_1.obj
 0002:00001460       ??_C@_0DH@FKOGGJKC@Inputs?1RS232_read?1GPS_read?1Embed@ 1007d460     Control_software_v1_1.obj
 0002:000014a4       ??_C@_09NPFKMDAO@Var_1?4dat?$AA@ 1007d4a4     Control_software_v1_1.obj
 0002:000014b0       ??_C@_0BI@PAJNFNID@Error?5creating?5scope?55?6?$AA@ 1007d4b0     Control_software_v1_1.obj
 0002:000014cc       ??_C@_0BG@JLJLJKPB@Subsystem?1damper?1Sum1?$AA@ 1007d4cc     Control_software_v1_1.obj
 0002:000014e8       ??_C@_0BI@PCNLODNK@Error?5creating?5scope?56?6?$AA@ 1007d4e8     Control_software_v1_1.obj
 0002:00001504       ??_C@_0CL@JGOJNICA@Interrupting?5board?5at?5?$FL0?0?5?91?$FN?3?5N@ 1007d504     Control_software_v1_1.obj
 0002:00001538       ??_C@_0CG@MEGHGBEC@ISR?5reg?5failed?5for?5IRQ?5?$CFd?5at?5?$FL0?0@ 1007d538     Control_software_v1_1.obj
 0002:00001568       ??_C@_0BC@OJJPBDHH@FixedStepDiscrete?$AA@ 1007d568     Control_software_v1_1.obj
 0002:0000157d       ??_C@_00CNPNBAHC@?$AA@     1007d57d     Control_software_v1_1.obj
 0002:00001580       ??_C@_03HBFGMJOD@rt_?$AA@  1007d580     Control_software_v1_1.obj
 0002:00001584       ??_C@_0BB@CEKNGLLH@Read?5Int?5Status1?$AA@ 1007d584     Control_software_v1_1.obj
 0002:00001598       ??_C@_0GG@DNOMIEGA@Control_software_v1_1?1Inputs?1RS2@ 1007d598     Control_software_v1_1.obj
 0002:00001614       ??_C@_0BD@CMNGIDGM@Filter?5Int?5Reason5?$AA@ 1007d614     Control_software_v1_1.obj
 0002:00001630       ??_C@_0GI@NCBKDGBM@Control_software_v1_1?1Inputs?1RS2@ 1007d630     Control_software_v1_1.obj
 0002:000016ac       ??_C@_0M@FAEAPFJN@FIFO?5read?51?$AA@ 1007d6ac     Control_software_v1_1.obj
 0002:000016c0       ??_C@_0GB@KJLMIEOH@Control_software_v1_1?1Inputs?1RS2@ 1007d6c0     Control_software_v1_1.obj
 0002:00001734       ??_C@_0P@IMFDEIPE@Write?5HW?5FIFO1?$AA@ 1007d734     Control_software_v1_1.obj
 0002:00001748       ??_C@_0GE@FHBKFDAL@Control_software_v1_1?1Inputs?1RS2@ 1007d748     Control_software_v1_1.obj
 0002:000017c0       ??_C@_0BD@HPLNAKP@Filter?5Int?5Reason6?$AA@ 1007d7c0     Control_software_v1_1.obj
 0002:000017d8       ??_C@_0GI@PJDHGFNP@Control_software_v1_1?1Inputs?1RS2@ 1007d7d8     Control_software_v1_1.obj
 0002:00001854       ??_C@_0M@HLGNKGFO@FIFO?5read?52?$AA@ 1007d854     Control_software_v1_1.obj
 0002:00001868       ??_C@_0GB@ICJBNHCE@Control_software_v1_1?1Inputs?1RS2@ 1007d868     Control_software_v1_1.obj
 0002:000018dc       ??_C@_0P@KHHOBLDH@Write?5HW?5FIFO2?$AA@ 1007d8dc     Control_software_v1_1.obj
 0002:000018f0       ??_C@_0GE@HMDHAAMI@Control_software_v1_1?1Inputs?1RS2@ 1007d8f0     Control_software_v1_1.obj
 0002:00001968       ??_C@_0BD@BOOAOBOO@Filter?5Int?5Reason7?$AA@ 1007d968     Control_software_v1_1.obj
 0002:00001980       ??_C@_0GI@OACMFEJO@Control_software_v1_1?1Inputs?1RS2@ 1007d980     Control_software_v1_1.obj
 0002:000019fc       ??_C@_0M@GCHGJHBP@FIFO?5read?53?$AA@ 1007d9fc     Control_software_v1_1.obj
 0002:00001a10       ??_C@_0GB@JLIKOGGF@Control_software_v1_1?1Inputs?1RS2@ 1007da10     Control_software_v1_1.obj
 0002:00001a84       ??_C@_0P@LOGFCKHG@Write?5HW?5FIFO3?$AA@ 1007da84     Control_software_v1_1.obj
 0002:00001a98       ??_C@_0GE@GFCMDBIJ@Control_software_v1_1?1Inputs?1RS2@ 1007da98     Control_software_v1_1.obj
 0002:00001b10       ??_C@_0BD@JJHIPNCB@Filter?5Int?5Reason8?$AA@ 1007db10     Control_software_v1_1.obj
 0002:00001b28       ??_C@_0GI@GHLEEIFB@Control_software_v1_1?1Inputs?1RS2@ 1007db28     Control_software_v1_1.obj
 0002:00001ba4       ??_C@_0M@CNDHABNI@FIFO?5read?54?$AA@ 1007dba4     Control_software_v1_1.obj
 0002:00001bb8       ??_C@_0GB@NEMLHAKC@Control_software_v1_1?1Inputs?1RS2@ 1007dbb8     Control_software_v1_1.obj
 0002:00001c2c       ??_C@_0P@PBCELMLB@Write?5HW?5FIFO4?$AA@ 1007dc2c     Control_software_v1_1.obj
 0002:00001c40       ??_C@_0GE@CKGNKHEO@Control_software_v1_1?1Inputs?1RS2@ 1007dc40     Control_software_v1_1.obj
 0002:00001cb8       ??_C@_0BD@EILKEGGI@Filter?5Int?5Reason1?$AA@ 1007dcb8     Control_software_v1_1.obj
 0002:00001cd0       ??_C@_0GI@LGHGPDBI@Control_software_v1_1?1Inputs?1RS2@ 1007dcd0     Control_software_v1_1.obj
 0002:00001d4c       ??_C@_0O@JNEIFNPD@Read?5HW?5FIFO1?$AA@ 1007dd4c     Control_software_v1_1.obj
 0002:00001d60       ??_C@_0GD@GPJKHENJ@Control_software_v1_1?1Inputs?1RS2@ 1007dd60     Control_software_v1_1.obj
 0002:00001dd8       ??_C@_0N@JPLHHADN@FIFO?5write?51?$AA@ 1007ddd8     Control_software_v1_1.obj
 0002:00001de8       ??_C@_0GC@CPJOBEGO@Control_software_v1_1?1Inputs?1RS2@ 1007dde8     Control_software_v1_1.obj
 0002:00001e60       ??_C@_0BD@GDJHBFKL@Filter?5Int?5Reason2?$AA@ 1007de60     Control_software_v1_1.obj
 0002:00001e78       ??_C@_0GI@JNFLKANL@Control_software_v1_1?1Inputs?1RS2@ 1007de78     Control_software_v1_1.obj
 0002:00001ef4       ??_C@_0O@LGGFAODA@Read?5HW?5FIFO2?$AA@ 1007def4     Control_software_v1_1.obj
 0002:00001f08       ??_C@_0GD@EELHCHBK@Control_software_v1_1?1Inputs?1RS2@ 1007df08     Control_software_v1_1.obj
 0002:00001f80       ??_C@_0N@LEJKCDPO@FIFO?5write?52?$AA@ 1007df80     Control_software_v1_1.obj
 0002:00001f90       ??_C@_0GC@ELDEHKN@Control_software_v1_1?1Inputs?1RS2@ 1007df90     Control_software_v1_1.obj
 0002:00002008       ??_C@_0BD@HKIMCEOK@Filter?5Int?5Reason3?$AA@ 1007e008     Control_software_v1_1.obj
 0002:00002020       ??_C@_0GI@IEEAJBJK@Control_software_v1_1?1Inputs?1RS2@ 1007e020     Control_software_v1_1.obj
 0002:0000209c       ??_C@_0O@KPHODPHB@Read?5HW?5FIFO3?$AA@ 1007e09c     Control_software_v1_1.obj
 0002:000020b0       ??_C@_0GD@FNKMBGFL@Control_software_v1_1?1Inputs?1RS2@ 1007e0b0     Control_software_v1_1.obj
 0002:00002128       ??_C@_0N@KNIBBCLP@FIFO?5write?53?$AA@ 1007e128     Control_software_v1_1.obj
 0002:00002138       ??_C@_0GC@BNKIHGOM@Control_software_v1_1?1Inputs?1RS2@ 1007e138     Control_software_v1_1.obj
 0002:000021b0       ??_C@_0BD@DFMNLCCN@Filter?5Int?5Reason4?$AA@ 1007e1b0     Control_software_v1_1.obj
 0002:000021c8       ??_C@_0GI@MLABAHFN@Control_software_v1_1?1Inputs?1RS2@ 1007e1c8     Control_software_v1_1.obj
 0002:00002244       ??_C@_0O@OADPKJLG@Read?5HW?5FIFO4?$AA@ 1007e244     Control_software_v1_1.obj
 0002:00002258       ??_C@_0GD@BCONIAJM@Control_software_v1_1?1Inputs?1RS2@ 1007e258     Control_software_v1_1.obj
 0002:000022d0       ??_C@_0N@OCMAIEHI@FIFO?5write?54?$AA@ 1007e2d0     Control_software_v1_1.obj
 0002:000022e0       ??_C@_0GC@FCOJOACL@Control_software_v1_1?1Inputs?1RS2@ 1007e2e0     Control_software_v1_1.obj
 0002:00002358       ??_C@_0M@KDIEODF@PCI?96221?5AD?$AA@ 1007e358     Control_software_v1_1.obj
 0002:00002368       ??_C@_0DH@HFEHINBN@Control_software_v1_1?1Inputs?1Ana@ 1007e368     Control_software_v1_1.obj
 0002:000023ac       ??_C@_0M@LJFNPCJD@PCI?96221?5DI?$AA@ 1007e3ac     Control_software_v1_1.obj
 0002:000023bc       ??_C@_0DI@LOEOMHAA@Control_software_v1_1?1Inputs?1Dig@ 1007e3bc     Control_software_v1_1.obj
 0002:00002400       ??_C@_0BB@EFMGDNLK@PCI?56221?5PFI?5DI?5?$AA@ 1007e400     Control_software_v1_1.obj
 0002:00002414       ??_C@_0DN@EFLEODAH@Control_software_v1_1?1Inputs?1Dig@ 1007e414     Control_software_v1_1.obj
 0002:00002460       ??_C@_0BC@HOGJCGBE@FIFO?5ASCII?5read?51?$AA@ 1007e460     Control_software_v1_1.obj
 0002:00002478       ??_C@_0EH@EEPFHKIA@Control_software_v1_1?1Inputs?1RS2@ 1007e478     Control_software_v1_1.obj
 0002:000024d0       ??_C@_0ED@BMDLEKDD@Control_software_v1_1?1Inputs?1RS2@ 1007e4d0     Control_software_v1_1.obj
 0002:00002520       ??_C@_0BB@IJIEKJDH@FIFO?5ASCII?5read?5?$AA@ 1007e520     Control_software_v1_1.obj
 0002:00002538       ??_C@_0EC@PGBFJNBK@Control_software_v1_1?1Inputs?1RS2@ 1007e538     Control_software_v1_1.obj
 0002:00002588       ??_C@_0DP@POEBMNMG@Control_software_v1_1?1Inputs?1RS2@ 1007e588     Control_software_v1_1.obj
 0002:000025d4       ??_C@_0M@GKEFOLG@Enable?5TX?51?$AA@ 1007e5d4     Control_software_v1_1.obj
 0002:000025e4       ??_C@_0DO@JLOGHGGI@Control_software_v1_1?1Inputs?1RS2@ 1007e5e4     Control_software_v1_1.obj
 0002:00002630       ??_C@_0DP@NFGMJOAF@Control_software_v1_1?1Inputs?1RS2@ 1007e630     Control_software_v1_1.obj
 0002:0000267c       ??_C@_0M@CNIJANHF@Enable?5TX?52?$AA@ 1007e67c     Control_software_v1_1.obj
 0002:0000268c       ??_C@_0DO@LAMLCFKL@Control_software_v1_1?1Inputs?1RS2@ 1007e68c     Control_software_v1_1.obj
 0002:000026d8       ??_C@_0DP@MMHHKPEE@Control_software_v1_1?1Inputs?1RS2@ 1007e6d8     Control_software_v1_1.obj
 0002:00002724       ??_C@_0M@DEJCDMDE@Enable?5TX?53?$AA@ 1007e724     Control_software_v1_1.obj
 0002:00002734       ??_C@_0DO@KJNABEOK@Control_software_v1_1?1Inputs?1RS2@ 1007e734     Control_software_v1_1.obj
 0002:00002780       ??_C@_0DP@IDDGDJID@Control_software_v1_1?1Inputs?1RS2@ 1007e780     Control_software_v1_1.obj
 0002:000027cc       ??_C@_0M@HLNDKKPD@Enable?5TX?54?$AA@ 1007e7cc     Control_software_v1_1.obj
 0002:000027dc       ??_C@_0DO@OGJBICCN@Control_software_v1_1?1Inputs?1RS2@ 1007e7dc     Control_software_v1_1.obj
 0002:00002828       ??_C@_06OKIIDEAB@Setup1?$AA@ 1007e828     Control_software_v1_1.obj
 0002:00002830       ??_C@_0DJ@ELEJPCMB@Control_software_v1_1?1Inputs?1RS2@ 1007e830     Control_software_v1_1.obj
 0002:00002874       ??_C@_06MBKFGHMC@Setup2?$AA@ 1007e874     Control_software_v1_1.obj
 0002:0000287c       ??_C@_0DJ@GAGEKBAC@Control_software_v1_1?1Inputs?1RS2@ 1007e87c     Control_software_v1_1.obj
 0002:000028c0       ??_C@_06NILOFGID@Setup3?$AA@ 1007e8c0     Control_software_v1_1.obj
 0002:000028c8       ??_C@_0DJ@HJHPJAED@Control_software_v1_1?1Inputs?1RS2@ 1007e8c8     Control_software_v1_1.obj
 0002:0000290c       ??_C@_06JHPPMAEE@Setup4?$AA@ 1007e90c     Control_software_v1_1.obj
 0002:00002914       ??_C@_0DJ@DGDOAGIE@Control_software_v1_1?1Inputs?1RS2@ 1007e914     Control_software_v1_1.obj
 0002:00002958       ??_C@_0BB@EBELEBAI@PCI?56221?5PFI?5DO?5?$AA@ 1007e958     Control_software_v1_1.obj
 0002:0000296c       ??_C@_0CP@CPMMPKJG@Control_software_v1_1?1Outputs?1PC@ 1007e96c     Control_software_v1_1.obj
 0002:000029a4       ??_C@_0M@HBIEHIJL@PCI?96221?5DA?$AA@ 1007e9a4     Control_software_v1_1.obj
 0002:000029b4       ??_C@_0CK@DFDDCBBK@Control_software_v1_1?1Outputs?1PC@ 1007e9b4     Control_software_v1_1.obj
 0002:000029e8       ??_C@_0M@OPAHFFBF@PCI?96221?5DO?$AA@ 1007e9e8     Control_software_v1_1.obj
 0002:000029f8       ??_C@_0CK@KLLAAMJE@Control_software_v1_1?1Outputs?1PC@ 1007e9f8     Control_software_v1_1.obj
 0002:00002a30       __real@0000000000000000    1007ea30     Control_software_v1_1.obj
 0002:00002a40       __real@0010000000000000    1007ea40     Control_software_v1_1.obj
 0002:00002a50       __real@3f1a36e2eb1c432d    1007ea50     Control_software_v1_1.obj
 0002:00002a60       __real@3f50624dd2f1a9fc    1007ea60     Control_software_v1_1.obj
 0002:00002a70       __real@3f76c16c16c16c17    1007ea70     Control_software_v1_1.obj
 0002:00002a80       __real@3f816872b020c49c    1007ea80     Control_software_v1_1.obj
 0002:00002a90       __real@3f847ae147ae147b    1007ea90     Control_software_v1_1.obj
 0002:00002aa0       __real@3f855714b9cb6849    1007eaa0     Control_software_v1_1.obj
 0002:00002ab0       __real@3f91111111111111    1007eab0     Control_software_v1_1.obj
 0002:00002ac0       __real@3f947ae147ae147b    1007eac0     Control_software_v1_1.obj
 0002:00002ad0       __real@3fb999999999999a    1007ead0     Control_software_v1_1.obj
 0002:00002ae0       __real@3fd5555555555555    1007eae0     Control_software_v1_1.obj
 0002:00002af0       __real@3fe0000000000000    1007eaf0     Control_software_v1_1.obj
 0002:00002b00       __real@3fef5c28f5c28f5c    1007eb00     Control_software_v1_1.obj
 0002:00002b10       __real@3fefae147ae147ae    1007eb10     Control_software_v1_1.obj
 0002:00002b20       __real@3ff0000000000000    1007eb20     Control_software_v1_1.obj
 0002:00002b30       __real@3ff199999999999a    1007eb30     Control_software_v1_1.obj
 0002:00002b40       __real@4000000000000000    1007eb40     Control_software_v1_1.obj
 0002:00002b50       __real@4008000000000000    1007eb50     Control_software_v1_1.obj
 0002:00002b60       __real@400921fb54442d18    1007eb60     Control_software_v1_1.obj
 0002:00002b70       __real@4010000000000000    1007eb70     Control_software_v1_1.obj
 0002:00002b80       __real@4014000000000000    1007eb80     Control_software_v1_1.obj
 0002:00002b90       __real@4018000000000000    1007eb90     Control_software_v1_1.obj
 0002:00002ba0       __real@401c000000000000    1007eba0     Control_software_v1_1.obj
 0002:00002bb0       __real@4020000000000000    1007ebb0     Control_software_v1_1.obj
 0002:00002bc0       __real@4022000000000000    1007ebc0     Control_software_v1_1.obj
 0002:00002bd0       __real@4024000000000000    1007ebd0     Control_software_v1_1.obj
 0002:00002be0       __real@4026000000000000    1007ebe0     Control_software_v1_1.obj
 0002:00002bf0       __real@4028000000000000    1007ebf0     Control_software_v1_1.obj
 0002:00002c00       __real@4030000000000000    1007ec00     Control_software_v1_1.obj
 0002:00002c10       __real@403f000000000000    1007ec10     Control_software_v1_1.obj
 0002:00002c20       __real@4040000000000000    1007ec20     Control_software_v1_1.obj
 0002:00002c30       __real@4048000000000000    1007ec30     Control_software_v1_1.obj
 0002:00002c40       __real@4059000000000000    1007ec40     Control_software_v1_1.obj
 0002:00002c50       __real@405fc00000000000    1007ec50     Control_software_v1_1.obj
 0002:00002c60       __real@406f400000000000    1007ec60     Control_software_v1_1.obj
 0002:00002c70       __real@408f400000000000    1007ec70     Control_software_v1_1.obj
 0002:00002c80       __real@408ff80000000000    1007ec80     Control_software_v1_1.obj
 0002:00002c90       __real@4090000000000000    1007ec90     Control_software_v1_1.obj
 0002:00002ca0       __real@41e0000000000000    1007eca0     Control_software_v1_1.obj
 0002:00002cb0       __real@41f0000000000000    1007ecb0     Control_software_v1_1.obj
 0002:00002cc0       __real@4330000000000000    1007ecc0     Control_software_v1_1.obj
 0002:00002cd0       __real@8000000000000000    1007ecd0     Control_software_v1_1.obj
 0002:00002ce0       __real@bfd5555555555555    1007ece0     Control_software_v1_1.obj
 0002:00002cf0       __real@bff0000000000000    1007ecf0     Control_software_v1_1.obj
 0002:00002d00       __real@c000000000000000    1007ed00     Control_software_v1_1.obj
 0002:00002d10       __real@c008000000000000    1007ed10     Control_software_v1_1.obj
 0002:00002d20       __real@c010000000000000    1007ed20     Control_software_v1_1.obj
 0002:00002d30       __real@c024000000000000    1007ed30     Control_software_v1_1.obj
 0002:00002d40       __real@c08ff80000000000    1007ed40     Control_software_v1_1.obj
 0002:00002d50       __xmm@00000003000000020000000100000000 1007ed50     Control_software_v1_1.obj
 0002:00002d70       __xmm@000004e60000010f0000019400000004 1007ed70     Control_software_v1_1.obj
 0002:00002d90       __xmm@01010101010101010101010101010101 1007ed90     Control_software_v1_1.obj
 0002:00002db0       __xmm@2c2c2c2c2c2c2c2c2c2c2c2c2c2c2c2c 1007edb0     Control_software_v1_1.obj
 0002:00002dd0       __xmm@3f847ae147ae147b3f50624dd2f1a9fc 1007edd0     Control_software_v1_1.obj
 0002:00002df0       __xmm@3ff00000000000003f947ae147ae147b 1007edf0     Control_software_v1_1.obj
 0002:00002e10       __xmm@41f00000000000000000000000000000 1007ee10     Control_software_v1_1.obj
 0002:00002e30       __xmm@7fffffffffffffff7fffffffffffffff 1007ee30     Control_software_v1_1.obj
 0002:00002e50       __xmm@80000000000000008000000000000000 1007ee50     Control_software_v1_1.obj
 0002:00002e68       __real@3cb0000000000000    1007ee68     rt_matrx.obj
 0002:00007e6c       ??_C@_0BI@DDEJKAKC@Auxiliary?5variables?1Sum?$AA@ 10083e6c     Control_software_v1_1_capi.obj
 0002:00007e88       ??_C@_0BP@PAOGGCCM@Auxiliary?5variables?1Unit?5Delay?$AA@ 10083e88     Control_software_v1_1_capi.obj
 0002:00007eb0       ??_C@_0CG@BHNPIAPH@High?9level?5control?1MATLAB?5Functi@ 10083eb0     Control_software_v1_1_capi.obj
 0002:00007ee0       ??_C@_07KGPCIPJI@C_State?$AA@ 10083ee0     Control_software_v1_1_capi.obj
 0002:00007eec       ??_C@_0CG@DMPCNDDE@High?9level?5control?1MATLAB?5Functi@ 10083eec     Control_software_v1_1_capi.obj
 0002:00007f1c       ??_C@_0BA@POCCOMC@HLC_SlidePosRef?$AA@ 10083f1c     Control_software_v1_1_capi.obj
 0002:00007f30       ??_C@_0CG@CFOJOCHF@High?9level?5control?1MATLAB?5Functi@ 10083f30     Control_software_v1_1_capi.obj
 0002:00007f60       ??_C@_0BA@HBKDDLNP@HLC_WinchSpdRef?$AA@ 10083f60     Control_software_v1_1_capi.obj
 0002:00007f74       ??_C@_0CG@GKKIHELC@High?9level?5control?1MATLAB?5Functi@ 10083f74     Control_software_v1_1_capi.obj
 0002:00007fa4       ??_C@_0O@NGHOKFHP@PotZoneFlight?$AA@ 10083fa4     Control_software_v1_1_capi.obj
 0002:00007fb4       ??_C@_0CG@HDLDEFPD@High?9level?5control?1MATLAB?5Functi@ 10083fb4     Control_software_v1_1_capi.obj
 0002:00007fe4       ??_C@_0P@OJGPJJML@PotZoneLanding?$AA@ 10083fe4     Control_software_v1_1_capi.obj
 0002:00007ff8       ??_C@_0CG@FIJOBGDA@High?9level?5control?1MATLAB?5Functi@ 10083ff8     Control_software_v1_1_capi.obj
 0002:00008028       ??_C@_0O@HDMKEPPG@HLC_WinchMode?$AA@ 10084028     Control_software_v1_1_capi.obj
 0002:00008038       ??_C@_0CG@EBIFCHHB@High?9level?5control?1MATLAB?5Functi@ 10084038     Control_software_v1_1_capi.obj
 0002:00008068       ??_C@_0CG@MGBNDLLO@High?9level?5control?1MATLAB?5Functi@ 10084068     Control_software_v1_1_capi.obj
 0002:00008098       ??_C@_05NHFJDMOA@Timer?$AA@ 10084098     Control_software_v1_1_capi.obj
 0002:000080a0       ??_C@_0CG@NPAGAKPP@High?9level?5control?1MATLAB?5Functi@ 100840a0     Control_software_v1_1_capi.obj
 0002:000080d0       ??_C@_09PKBJOPOF@ReelTimer?$AA@ 100840d0     Control_software_v1_1_capi.obj
 0002:000080dc       ??_C@_0BO@NOBLPPCM@High?9level?5control?1Unit?5Delay?$AA@ 100840dc     Control_software_v1_1_capi.obj
 0002:00008100       ??_C@_0BP@PEFLHAKO@High?9level?5control?1Unit?5Delay1?$AA@ 10084100     Control_software_v1_1_capi.obj
 0002:00008128       ??_C@_0BP@NPHGCDGN@High?9level?5control?1Unit?5Delay2?$AA@ 10084128     Control_software_v1_1_capi.obj
 0002:00008150       ??_C@_0BP@MGGNBCCM@High?9level?5control?1Unit?5Delay3?$AA@ 10084150     Control_software_v1_1_capi.obj
 0002:00008178       ??_C@_0BP@IJCMIEOL@High?9level?5control?1Unit?5Delay4?$AA@ 10084178     Control_software_v1_1_capi.obj
 0002:000081a0       ??_C@_0BP@JADHLFKK@High?9level?5control?1Unit?5Delay5?$AA@ 100841a0     Control_software_v1_1_capi.obj
 0002:000081c8       ??_C@_0BP@LLBKOGGJ@High?9level?5control?1Unit?5Delay6?$AA@ 100841c8     Control_software_v1_1_capi.obj
 0002:000081f0       ??_C@_0BP@KCABNHCI@High?9level?5control?1Unit?5Delay7?$AA@ 100841f0     Control_software_v1_1_capi.obj
 0002:00008218       ??_C@_0BP@CFJJMLOH@High?9level?5control?1Unit?5Delay8?$AA@ 10084218     Control_software_v1_1_capi.obj
 0002:00008240       ??_C@_0BC@IPDNNMJF@Outputs?1Constant1?$AA@ 10084240     Control_software_v1_1_capi.obj
 0002:00008258       ??_C@_0BC@LNALLOBH@Outputs?1Constant3?$AA@ 10084258     Control_software_v1_1_capi.obj
 0002:00008270       ??_C@_0N@CEIGJPC@Outputs?1Gain?$AA@ 10084270     Control_software_v1_1_capi.obj
 0002:00008280       ??_C@_0BD@LJPLBPMP@Outputs?1Saturation?$AA@ 10084280     Control_software_v1_1_capi.obj
 0002:00008298       ??_C@_0P@NHICNBDP@AO_WinchDriver?$AA@ 10084298     Control_software_v1_1_capi.obj
 0002:000082ac       ??_C@_0BE@MNDPCDIM@Outputs?1Saturation1?$AA@ 100842ac     Control_software_v1_1_capi.obj
 0002:000082c4       ??_C@_0P@LIGLCFGD@AO_SlideDriver?$AA@ 100842c4     Control_software_v1_1_capi.obj
 0002:000082d8       ??_C@_0P@IMOLCCPN@Outputs?1Switch?$AA@ 100842d8     Control_software_v1_1_capi.obj
 0002:000082ec       ??_C@_0BA@FNNGCDB@Outputs?1Switch1?$AA@ 100842ec     Control_software_v1_1_capi.obj
 0002:00008300       ??_C@_0O@OPJAHHKK@Subsystem?1Sum?$AA@ 10084300     Control_software_v1_1_capi.obj
 0002:00008310       ??_C@_0P@PALBNNDD@Subsystem?1Sum1?$AA@ 10084310     Control_software_v1_1_capi.obj
 0002:00008324       ??_C@_0BB@PPDOAAPK@Subsystem?1Switch?$AA@ 10084324     Control_software_v1_1_capi.obj
 0002:00008338       ??_C@_0BC@JLMKCCLA@Subsystem?1Switch1?$AA@ 10084338     Control_software_v1_1_capi.obj
 0002:00008350       ??_C@_0BD@BELMEPFN@Subsystem?1Switch10?$AA@ 10084350     Control_software_v1_1_capi.obj
 0002:00008368       ??_C@_0BD@NKHHOBM@Subsystem?1Switch11?$AA@ 10084368     Control_software_v1_1_capi.obj
 0002:00008380       ??_C@_0BC@EKAIJJPJ@Subsystem?1Switch8?$AA@ 10084380     Control_software_v1_1_capi.obj
 0002:00008398       ??_C@_0BC@FDBDKILI@Subsystem?1Switch9?$AA@ 10084398     Control_software_v1_1_capi.obj
 0002:000083b0       ??_C@_0BA@OLOOPOAA@Subsystem?1Delay?$AA@ 100843b0     Control_software_v1_1_capi.obj
 0002:000083c4       ??_C@_0DB@OMDCEFGE@Input?5conditioning?5and?5estimator@ 100843c4     Control_software_v1_1_capi.obj
 0002:00008400       ??_C@_0DC@IMGOJALG@Input?5conditioning?5and?5estimator@ 10084400     Control_software_v1_1_capi.obj
 0002:0000843c       ??_C@_0DH@NBALJFMG@Input?5conditioning?5and?5estimator@ 1008443c     Control_software_v1_1_capi.obj
 0002:00008480       ??_C@_07KKDEJFOF@CI_JoyS?$AA@ 10084480     Control_software_v1_1_capi.obj
 0002:0000848c       ??_C@_0DI@LEILGLKC@Input?5conditioning?5and?5estimator@ 1008448c     Control_software_v1_1_capi.obj
 0002:000084d0       ??_C@_07MOFIFAOB@CI_JoyW?$AA@ 100844d0     Control_software_v1_1_capi.obj
 0002:000084dc       ??_C@_0DA@FLIFAAPO@Input?5conditioning?5and?5estimator@ 100844dc     Control_software_v1_1_capi.obj
 0002:00008518       ??_C@_0DB@JMADFNKJ@Input?5conditioning?5and?5estimator@ 10084518     Control_software_v1_1_capi.obj
 0002:00008558       ??_C@_0EC@KEBGAAFI@Input?5conditioning?5and?5estimator@ 10084558     Control_software_v1_1_capi.obj
 0002:000085a8       ??_C@_0ED@KDEJMIHE@Input?5conditioning?5and?5estimator@ 100845a8     Control_software_v1_1_capi.obj
 0002:000085f8       ??_C@_0EE@BNGPPKMJ@Input?5conditioning?5and?5estimator@ 100845f8     Control_software_v1_1_capi.obj
 0002:0000864c       ??_C@_0M@LKFLHLLF@CI_SlidePos?$AA@ 1008464c     Control_software_v1_1_capi.obj
 0002:0000865c       ??_C@_0DC@NNJJEFNK@Input?5conditioning?5and?5estimator@ 1008465c     Control_software_v1_1_capi.obj
 0002:00008698       ??_C@_0DD@KAIGKFDN@Input?5conditioning?5and?5estimator@ 10084698     Control_software_v1_1_capi.obj
 0002:000086d8       ??_C@_09MNDCALJE@CI_PotSpd?$AA@ 100846d8     Control_software_v1_1_capi.obj
 0002:000086e4       ??_C@_0DI@EOAIPGGA@Input?5conditioning?5and?5estimator@ 100846e4     Control_software_v1_1_capi.obj
 0002:00008728       ??_C@_09MNHOMEKB@CI_PotPos?$AA@ 10084728     Control_software_v1_1_capi.obj
 0002:00008734       ??_C@_0DB@JOALFBFA@Input?5conditioning?5and?5estimator@ 10084734     Control_software_v1_1_capi.obj
 0002:00008770       ??_C@_0DC@KNKIFNBH@Input?5conditioning?5and?5estimator@ 10084770     Control_software_v1_1_capi.obj
 0002:000087ac       ??_C@_0DD@NHLAADFB@Input?5conditioning?5and?5estimator@ 100847ac     Control_software_v1_1_capi.obj
 0002:000087f0       ??_C@_0EE@DKPBPFJ@Input?5conditioning?5and?5estimator@ 100847f0     Control_software_v1_1_capi.obj
 0002:00008844       ??_C@_0CE@OGFLLIKO@Inputs?1Analog?5Inputs?1PCI?96221?5AD@ 10084844     Control_software_v1_1_capi.obj
 0002:00008870       ??_C@_08CNMDIBD@AI_Joy_W?$AA@ 10084870     Control_software_v1_1_capi.obj
 0002:0000887c       ??_C@_0CE@MNHGOLGN@Inputs?1Analog?5Inputs?1PCI?96221?5AD@ 1008487c     Control_software_v1_1_capi.obj
 0002:000088a8       ??_C@_08GGLAPNBH@AI_Joy_S?$AA@ 100848a8     Control_software_v1_1_capi.obj
 0002:000088b4       ??_C@_0CE@NEGNNKCM@Inputs?1Analog?5Inputs?1PCI?96221?5AD@ 100848b4     Control_software_v1_1_capi.obj
 0002:000088e0       ??_C@_0BB@MCOCEDAE@AI_mot_slide_pos?$AA@ 100848e0     Control_software_v1_1_capi.obj
 0002:000088f4       ??_C@_0CE@JLCMEMOL@Inputs?1Analog?5Inputs?1PCI?96221?5AD@ 100848f4     Control_software_v1_1_capi.obj
 0002:00008920       ??_C@_0BB@PCGCICHI@AI_mot_winch_pos?$AA@ 10084920     Control_software_v1_1_capi.obj
 0002:00008934       ??_C@_0CE@ICDHHNKK@Inputs?1Analog?5Inputs?1PCI?96221?5AD@ 10084934     Control_software_v1_1_capi.obj
 0002:00008960       ??_C@_0L@JLACJGBE@AI_pot_pos?$AA@ 10084960     Control_software_v1_1_capi.obj
 0002:00008970       ??_C@_0CH@EKKGEFJM@Inputs?1Digital?5Inputs?1PCI?56221?5P@ 10084970     Control_software_v1_1_capi.obj
 0002:000089a0       ??_C@_0P@BGIIHCNM@DI_SlideLimitB?$AA@ 100849a0     Control_software_v1_1_capi.obj
 0002:000089b4       ??_C@_0CF@JHGEOEHD@Inputs?1Digital?5Inputs?1PCI?96221?5D@ 100849b4     Control_software_v1_1_capi.obj
 0002:000089e0       ??_C@_09DNOEJMEC@DI_Enable?$AA@ 100849e0     Control_software_v1_1_capi.obj
 0002:000089ec       ??_C@_0CF@LMEJLHLA@Inputs?1Digital?5Inputs?1PCI?96221?5D@ 100849ec     Control_software_v1_1_capi.obj
 0002:00008a18       ??_C@_0N@GPNBKCHI@DI_WinchMode?$AA@ 10084a18     Control_software_v1_1_capi.obj
 0002:00008a28       ??_C@_0CF@KFFCIGPB@Inputs?1Digital?5Inputs?1PCI?96221?5D@ 10084a28     Control_software_v1_1_capi.obj
 0002:00008a54       ??_C@_0L@OOFJKHJM@DI_Takeoff?$AA@ 10084a54     Control_software_v1_1_capi.obj
 0002:00008a64       ??_C@_0CF@OKBDBADG@Inputs?1Digital?5Inputs?1PCI?96221?5D@ 10084a64     Control_software_v1_1_capi.obj
 0002:00008a90       ??_C@_0L@BOMJAKCE@DI_Landing?$AA@ 10084a90     Control_software_v1_1_capi.obj
 0002:00008aa0       ??_C@_0CF@PDAICBHH@Inputs?1Digital?5Inputs?1PCI?96221?5D@ 10084aa0     Control_software_v1_1_capi.obj
 0002:00008acc       ??_C@_0M@HOMHCDCB@DI_Operator?$AA@ 10084acc     Control_software_v1_1_capi.obj
 0002:00008adc       ??_C@_0CF@NICFHCLE@Inputs?1Digital?5Inputs?1PCI?96221?5D@ 10084adc     Control_software_v1_1_capi.obj
 0002:00008b08       ??_C@_0O@LOCAJKGK@DI_GliderPres?$AA@ 10084b08     Control_software_v1_1_capi.obj
 0002:00008b18       ??_C@_0CF@MBDOEDPF@Inputs?1Digital?5Inputs?1PCI?96221?5D@ 10084b18     Control_software_v1_1_capi.obj
 0002:00008b44       ??_C@_0P@HCOELHNI@DI_SlideLimitF?$AA@ 10084b44     Control_software_v1_1_capi.obj
 0002:00008b58       ??_C@_0BL@EAFAIOGN@Inputs?1RS232_read?1Constant?$AA@ 10084b58     Control_software_v1_1_capi.obj
 0002:00008b78       ??_C@_0BM@PFBOEKNJ@Inputs?1RS232_read?1Constant1?$AA@ 10084b78     Control_software_v1_1_capi.obj
 0002:00008b9c       ??_C@_0BM@NODDBJBK@Inputs?1RS232_read?1Constant2?$AA@ 10084b9c     Control_software_v1_1_capi.obj
 0002:00008bc0       ??_C@_0BM@MHCICIFL@Inputs?1RS232_read?1Constant3?$AA@ 10084bc0     Control_software_v1_1_capi.obj
 0002:00008be4       ??_C@_0CJ@BCFOLFA@Logging?1Log_conditioning?1Rate?5Tr@ 10084be4     Control_software_v1_1_capi.obj
 0002:00008c18       ??_C@_0CC@EEAKFPKK@Logging?1Time_Scope_trigger?1Switc@ 10084c18     Control_software_v1_1_capi.obj
 0002:00008c40       ??_C@_0N@NNLEEMMA@Trigger_time?$AA@ 10084c40     Control_software_v1_1_capi.obj
 0002:00008c50       ??_C@_0BJ@OIPMJNHM@Subsystem?1Emergency?1Gain?$AA@ 10084c50     Control_software_v1_1_capi.obj
 0002:00008c70       ??_C@_0CI@EEMCGKPD@Subsystem?1Emergency?1Relational?5O@ 10084c70     Control_software_v1_1_capi.obj
 0002:00008ca0       ??_C@_0CJ@OCKNGGHO@Subsystem?1Emergency?1Relational?5O@ 10084ca0     Control_software_v1_1_capi.obj
 0002:00008cd4       ??_C@_0BI@EOHLANHI@Subsystem?1Emergency?1Sum?$AA@ 10084cd4     Control_software_v1_1_capi.obj
 0002:00008cf0       ??_C@_0BJ@JIMNIFLB@Subsystem?1Emergency?1Sum1?$AA@ 10084cf0     Control_software_v1_1_capi.obj
 0002:00008d10       ??_C@_0BL@JDDLELIJ@Subsystem?1Emergency?1Switch?$AA@ 10084d10     Control_software_v1_1_capi.obj
 0002:00008d30       ??_C@_0BM@FCKKAHHN@Subsystem?1Emergency?1Switch1?$AA@ 10084d30     Control_software_v1_1_capi.obj
 0002:00008d54       ??_C@_0CF@NNLJNFN@Subsystem?1Subsystem?1Logical?5Oper@ 10084d54     Control_software_v1_1_capi.obj
 0002:00008d80       ??_C@_0CG@NDIKPBGG@Subsystem?1Subsystem?1Logical?5Oper@ 10084d80     Control_software_v1_1_capi.obj
 0002:00008db0       ??_C@_0CG@PIKHKCKF@Subsystem?1Subsystem?1Logical?5Oper@ 10084db0     Control_software_v1_1_capi.obj
 0002:00008de0       ??_C@_0CG@OBLMJDOE@Subsystem?1Subsystem?1Logical?5Oper@ 10084de0     Control_software_v1_1_capi.obj
 0002:00008e10       ??_C@_0CG@KOPNAFCD@Subsystem?1Subsystem?1Logical?5Oper@ 10084e10     Control_software_v1_1_capi.obj
 0002:00008e40       ??_C@_0CG@LHOGDEGC@Subsystem?1Subsystem?1Logical?5Oper@ 10084e40     Control_software_v1_1_capi.obj
 0002:00008e70       ??_C@_0CG@JMMLGHKB@Subsystem?1Subsystem?1Logical?5Oper@ 10084e70     Control_software_v1_1_capi.obj
 0002:00008ea0       ??_C@_0CG@IFNAFGOA@Subsystem?1Subsystem?1Logical?5Oper@ 10084ea0     Control_software_v1_1_capi.obj
 0002:00008ed0       ??_C@_0BL@KNMLDHEC@Subsystem?1Subsystem?1Switch?$AA@ 10084ed0     Control_software_v1_1_capi.obj
 0002:00008ef0       ??_C@_0BM@FOCCOMDJ@Subsystem?1Subsystem?1Switch1?$AA@ 10084ef0     Control_software_v1_1_capi.obj
 0002:00008f14       ??_C@_0BM@HFAPLPPK@Subsystem?1Subsystem?1Switch2?$AA@ 10084f14     Control_software_v1_1_capi.obj
 0002:00008f38       ??_C@_0BM@GMBEIOLL@Subsystem?1Subsystem?1Switch3?$AA@ 10084f38     Control_software_v1_1_capi.obj
 0002:00008f5c       ??_C@_0BM@CDFFBIHM@Subsystem?1Subsystem?1Switch4?$AA@ 10084f5c     Control_software_v1_1_capi.obj
 0002:00008f80       ??_C@_0BM@DKEOCJDN@Subsystem?1Subsystem?1Switch5?$AA@ 10084f80     Control_software_v1_1_capi.obj
 0002:00008fa4       ??_C@_0BM@BBGDHKPO@Subsystem?1Subsystem?1Switch6?$AA@ 10084fa4     Control_software_v1_1_capi.obj
 0002:00008fc8       ??_C@_0BM@IHIELLP@Subsystem?1Subsystem?1Switch7?$AA@ 10084fc8     Control_software_v1_1_capi.obj
 0002:00008fec       ??_C@_0BL@JEEDNOPE@Subsystem?1Subsystem?1Delay1?$AA@ 10084fec     Control_software_v1_1_capi.obj
 0002:0000900c       ??_C@_0BL@LPGOINDH@Subsystem?1Subsystem?1Delay2?$AA@ 1008500c     Control_software_v1_1_capi.obj
 0002:0000902c       ??_C@_0BL@KGHFLMHG@Subsystem?1Subsystem?1Delay3?$AA@ 1008502c     Control_software_v1_1_capi.obj
 0002:0000904c       ??_C@_0BL@OJDECKLB@Subsystem?1Subsystem?1Delay4?$AA@ 1008504c     Control_software_v1_1_capi.obj
 0002:0000906c       ??_C@_0BL@PACPBLPA@Subsystem?1Subsystem?1Delay5?$AA@ 1008506c     Control_software_v1_1_capi.obj
 0002:0000908c       ??_C@_0BI@MPKHDND@Subsystem?1Takeoff?1Delay?$AA@ 1008508c     Control_software_v1_1_capi.obj
 0002:000090a8       ??_C@_0BJ@CABEBOFD@Subsystem?1Takeoff1?1Delay?$AA@ 100850a8     Control_software_v1_1_capi.obj
 0002:000090c8       ??_C@_0BG@OLKKICDM@Subsystem?1damper?1Gain?$AA@ 100850c8     Control_software_v1_1_capi.obj
 0002:000090e4       ??_C@_0BF@KOIGEBPK@Subsystem?1damper?1Sum?$AA@ 100850e4     Control_software_v1_1_capi.obj
 0002:00009100       ??_C@_0BI@OOEKAKCP@Subsystem?1damper?1Switch?$AA@ 10085100     Control_software_v1_1_capi.obj
 0002:0000911c       ??_C@_0BJ@GNGCHAOB@Subsystem?1damper?1Switch1?$AA@ 1008511c     Control_software_v1_1_capi.obj
 0002:0000913c       ??_C@_0BH@JOOPHHNL@Subsystem?1damper?1Delay?$AA@ 1008513c     Control_software_v1_1_capi.obj
 0002:00009158       ??_C@_0BI@NHMCODJJ@Subsystem?1damper?1Delay1?$AA@ 10085158     Control_software_v1_1_capi.obj
 0002:00009174       ??_C@_0DM@NFPGIDGN@Input?5conditioning?5and?5estimator@ 10085174     Control_software_v1_1_capi.obj
 0002:000091bc       ??_C@_0DL@JMPAMLBN@Input?5conditioning?5and?5estimator@ 100851bc     Control_software_v1_1_capi.obj
 0002:00009204       ??_C@_0DM@KFMHJLKA@Input?5conditioning?5and?5estimator@ 10085204     Control_software_v1_1_capi.obj
 0002:00009250       ??_C@_0EO@HNDCILK@Input?5conditioning?5and?5estimator@ 10085250     Control_software_v1_1_capi.obj
 0002:000092b0       ??_C@_0M@IPGFOOFK@CI_WinchPos?$AA@ 100852b0     Control_software_v1_1_capi.obj
 0002:000092c0       ??_C@_0EN@LMCEHMKK@Input?5conditioning?5and?5estimator@ 100852c0     Control_software_v1_1_capi.obj
 0002:0000931c       ??_C@_0DN@JFJECDCF@Input?5conditioning?5and?5estimator@ 1008531c     Control_software_v1_1_capi.obj
 0002:00009368       ??_C@_0DO@INMMEHNG@Input?5conditioning?5and?5estimator@ 10085368     Control_software_v1_1_capi.obj
 0002:000093b4       ??_C@_0DO@KGOBBEBF@Input?5conditioning?5and?5estimator@ 100853b4     Control_software_v1_1_capi.obj
 0002:00009400       ??_C@_0M@IAKOOEEP@SlMotPosEst?$AA@ 10085400     Control_software_v1_1_capi.obj
 0002:00009410       ??_C@_0DO@LPPKCFFE@Input?5conditioning?5and?5estimator@ 10085410     Control_software_v1_1_capi.obj
 0002:0000945c       ??_C@_0DO@PALLLDJD@Input?5conditioning?5and?5estimator@ 1008545c     Control_software_v1_1_capi.obj
 0002:000094a8       ??_C@_0ED@DAFNNLOE@Input?5conditioning?5and?5estimator@ 100854a8     Control_software_v1_1_capi.obj
 0002:000094f8       ??_C@_0DM@CBFLOFPH@Input?5conditioning?5and?5estimator@ 100854f8     Control_software_v1_1_capi.obj
 0002:00009540       ??_C@_0DN@OFKFDLOI@Input?5conditioning?5and?5estimator@ 10085540     Control_software_v1_1_capi.obj
 0002:0000958c       ??_C@_0DN@MOIIGICL@Input?5conditioning?5and?5estimator@ 1008558c     Control_software_v1_1_capi.obj
 0002:000095d8       ??_C@_0DP@NEJLEOHH@Input?5conditioning?5and?5estimator@ 100855d8     Control_software_v1_1_capi.obj
 0002:00009624       ??_C@_0BC@OGHHBMDJ@SlideMotTorqueEst?$AA@ 10085624     Control_software_v1_1_capi.obj
 0002:00009640       ??_C@_0EP@EKDKNMFN@Input?5conditioning?5and?5estimator@ 10085640     Control_software_v1_1_capi.obj
 0002:000096a0       ??_C@_0O@MIIBPICI@SlMotSpeedEst?$AA@ 100856a0     Control_software_v1_1_capi.obj
 0002:000096b0       ??_C@_0EN@MKMBEFJH@Input?5conditioning?5and?5estimator@ 100856b0     Control_software_v1_1_capi.obj
 0002:0000970c       ??_C@_0DN@KEHMDJLI@Input?5conditioning?5and?5estimator@ 1008570c     Control_software_v1_1_capi.obj
 0002:00009758       ??_C@_0DO@DEDEADF@Input?5conditioning?5and?5estimator@ 10085758     Control_software_v1_1_capi.obj
 0002:000097a8       ??_C@_0ED@INJHLHCK@Input?5conditioning?5and?5estimator@ 100857a8     Control_software_v1_1_capi.obj
 0002:000097f8       ??_C@_0EE@BNGLFJND@Input?5conditioning?5and?5estimator@ 100857f8     Control_software_v1_1_capi.obj
 0002:0000984c       ??_C@_0DM@KHMPJHFJ@Input?5conditioning?5and?5estimator@ 1008584c     Control_software_v1_1_capi.obj
 0002:00009894       ??_C@_0DN@NEENCBHF@Input?5conditioning?5and?5estimator@ 10085894     Control_software_v1_1_capi.obj
 0002:000098e0       ??_C@_0DN@PPGAHCLG@Input?5conditioning?5and?5estimator@ 100858e0     Control_software_v1_1_capi.obj
 0002:0000992c       ??_C@_0DP@ONBGHCLC@Input?5conditioning?5and?5estimator@ 1008592c     Control_software_v1_1_capi.obj
 0002:00009978       ??_C@_0BC@MIHDKAIH@WinchMotTorqueEst?$AA@ 10085978     Control_software_v1_1_capi.obj
 0002:00009990       ??_C@_0EO@OMLJLFHG@Input?5conditioning?5and?5estimator@ 10085990     Control_software_v1_1_capi.obj
 0002:000099f0       ??_C@_0BB@JKEIAAHN@WinchMotSpeedEst?$AA@ 100859f0     Control_software_v1_1_capi.obj
 0002:00009a04       ??_C@_0DI@ONINGOLH@Inputs?1RS232_read?1Compass_read?1E@ 10085a04     Control_software_v1_1_capi.obj
 0002:00009a48       ??_C@_06JKFBKECG@GU_Yaw?$AA@ 10085a48     Control_software_v1_1_capi.obj
 0002:00009a50       ??_C@_0DA@JFDLLEMA@Inputs?1RS232_read?1Compass_read?1R@ 10085a50     Control_software_v1_1_capi.obj
 0002:00009a8c       ??_C@_0DB@CCNGLEEH@Inputs?1RS232_read?1Compass_read?1F@ 10085a8c     Control_software_v1_1_capi.obj
 0002:00009ac8       ??_C@_06NGLLFAEI@GU_Lat?$AA@ 10085ac8     Control_software_v1_1_capi.obj
 0002:00009ad0       ??_C@_06GMAIIHJJ@GU_Lon?$AA@ 10085ad0     Control_software_v1_1_capi.obj
 0002:00009ad8       ??_C@_04OFBJPLAJ@GU_h?$AA@ 10085ad8     Control_software_v1_1_capi.obj
 0002:00009ae0       ??_C@_08MHNOPBLL@Geo_Gu_h?$AA@ 10085ae0     Control_software_v1_1_capi.obj
 0002:00009aec       ??_C@_0CM@EAFOCACO@Inputs?1RS232_read?1GPS_read?1Rate?5@ 10085aec     Control_software_v1_1_capi.obj
 0002:00009b20       ??_C@_0CN@GFLBBOKM@Inputs?1RS232_read?1GPS_read?1FIFO?5@ 10085b20     Control_software_v1_1_capi.obj
 0002:00009b58       ??_C@_0CM@LALOOMFP@Inputs?1RS232_read?1IMU_read?1Rate?5@ 10085b58     Control_software_v1_1_capi.obj
 0002:00009b8c       ??_C@_0CM@KAPJKGBD@Inputs?1RS232_read?1IMU_read?1FIFO?5@ 10085b8c     Control_software_v1_1_capi.obj
 0002:00009bc0       ??_C@_0CM@BMOBFDD@Inputs?1RS232_read?1QSC?9100?5F?1Rate@ 10085bc0     Control_software_v1_1_capi.obj
 0002:00009bf4       ??_C@_0CN@HJIMKILB@Inputs?1RS232_read?1QSC?9100?5F?1Rate@ 10085bf4     Control_software_v1_1_capi.obj
 0002:00009c2c       ??_C@_0CN@FCKBPLHC@Inputs?1RS232_read?1QSC?9100?5F?1Rate@ 10085c2c     Control_software_v1_1_capi.obj
 0002:00009c64       ??_C@_0CN@ELLKMKDD@Inputs?1RS232_read?1QSC?9100?5F?1Rate@ 10085c64     Control_software_v1_1_capi.obj
 0002:00009c9c       ??_C@_0CN@EPLFMPE@Inputs?1RS232_read?1QSC?9100?5F?1Rate@ 10085c9c     Control_software_v1_1_capi.obj
 0002:00009cd4       ??_C@_0CN@BNOAGNLF@Inputs?1RS232_read?1QSC?9100?5F?1Rate@ 10085cd4     Control_software_v1_1_capi.obj
 0002:00009d0c       ??_C@_0CN@DGMNDOHG@Inputs?1RS232_read?1QSC?9100?5F?1Rate@ 10085d0c     Control_software_v1_1_capi.obj
 0002:00009d44       ??_C@_0CN@CPNGAPDH@Inputs?1RS232_read?1QSC?9100?5F?1Rate@ 10085d44     Control_software_v1_1_capi.obj
 0002:00009d7c       ??_C@_0CM@NGLMNJIK@Inputs?1RS232_read?1QSC?9100?5F?1FIFO@ 10085d7c     Control_software_v1_1_capi.obj
 0002:00009db0       ??_C@_0CM@PNJBIKEJ@Inputs?1RS232_read?1QSC?9100?5F?1FIFO@ 10085db0     Control_software_v1_1_capi.obj
 0002:00009de4       ??_C@_0CM@JBBMKDFK@Inputs?1RS232_read?1QSC?9100?5F?1FIFO@ 10085de4     Control_software_v1_1_capi.obj
 0002:00009e18       ??_C@_0CM@LKDBPAJJ@Inputs?1RS232_read?1QSC?9100?5F?1FIFO@ 10085e18     Control_software_v1_1_capi.obj
 0002:00009e4c       ??_C@_0CM@KMHMIKOK@Inputs?1RS232_read?1QSC?9100?5F?1FIFO@ 10085e4c     Control_software_v1_1_capi.obj
 0002:00009e80       ??_C@_0CM@IHFBNJCJ@Inputs?1RS232_read?1QSC?9100?5F?1FIFO@ 10085e80     Control_software_v1_1_capi.obj
 0002:00009eb4       ??_C@_0CM@BOFMFGPK@Inputs?1RS232_read?1QSC?9100?5F?1FIFO@ 10085eb4     Control_software_v1_1_capi.obj
 0002:00009ee8       ??_C@_0CM@DFHBAFDJ@Inputs?1RS232_read?1QSC?9100?5F?1FIFO@ 10085ee8     Control_software_v1_1_capi.obj
 0002:00009f1c       ??_C@_0CK@MDBKOAHH@Subsystem?1Takeoff?1Joystick?9Steue@ 10085f1c     Control_software_v1_1_capi.obj
 0002:00009f50       ??_C@_0DJ@KAHMFAHB@Subsystem?1Takeoff?1Joystick?9Steue@ 10085f50     Control_software_v1_1_capi.obj
 0002:00009f94       ??_C@_0DK@OBPPDKEI@Subsystem?1Takeoff?1Joystick?9Steue@ 10085f94     Control_software_v1_1_capi.obj
 0002:00009fdc       ??_C@_0CJ@BMFMJEMC@Subsystem?1Takeoff?1Joystick?9Steue@ 10085fdc     Control_software_v1_1_capi.obj
 0002:0000a010       ??_C@_0CK@LDCLPILK@Subsystem?1Takeoff?1Joystick?9Steue@ 10086010     Control_software_v1_1_capi.obj
 0002:0000a044       ??_C@_0CM@FOHLLECF@Subsystem?1Takeoff?1Joystick?9Steue@ 10086044     Control_software_v1_1_capi.obj
 0002:0000a078       ??_C@_0CN@INAHKIEB@Subsystem?1Takeoff?1Joystick?9Steue@ 10086078     Control_software_v1_1_capi.obj
 0002:0000a0b0       ??_C@_0BO@EFKAJOHD@Subsystem?1Takeoff?1damper?1Gain?$AA@ 100860b0     Control_software_v1_1_capi.obj
 0002:0000a0d4       ??_C@_0BN@HFPAEEBC@Subsystem?1Takeoff?1damper?1Sum?$AA@ 100860d4     Control_software_v1_1_capi.obj
 0002:0000a0f8       ??_C@_0BO@DFJBIGLO@Subsystem?1Takeoff?1damper?1Sum1?$AA@ 100860f8     Control_software_v1_1_capi.obj
 0002:0000a11c       ??_C@_0CA@INKKKLKA@Subsystem?1Takeoff?1damper?1Switch?$AA@ 1008611c     Control_software_v1_1_capi.obj
 0002:0000a144       ??_C@_0CB@BAAGAOPB@Subsystem?1Takeoff?1damper?1Switch1@ 10086144     Control_software_v1_1_capi.obj
 0002:0000a16c       ??_C@_0BP@HICCCBMG@Subsystem?1Takeoff?1damper?1Delay?$AA@ 1008616c     Control_software_v1_1_capi.obj
 0002:0000a194       ??_C@_0CA@LECCECBG@Subsystem?1Takeoff?1damper?1Delay1?$AA@ 10086194     Control_software_v1_1_capi.obj
 0002:0000a1bc       ??_C@_0CL@IECEPDEI@Subsystem?1Takeoff1?1Joystick?9Steu@ 100861bc     Control_software_v1_1_capi.obj
 0002:0000a1f0       ??_C@_0DK@JLOEJEGK@Subsystem?1Takeoff1?1Joystick?9Steu@ 100861f0     Control_software_v1_1_capi.obj
 0002:0000a238       ??_C@_0DL@GLKBGLGA@Subsystem?1Takeoff1?1Joystick?9Steu@ 10086238     Control_software_v1_1_capi.obj
 0002:0000a280       ??_C@_0CK@JAIANECM@Subsystem?1Takeoff1?1Joystick?9Steu@ 10086280     Control_software_v1_1_capi.obj
 0002:0000a2b4       ??_C@_0CL@PEBFOLIF@Subsystem?1Takeoff1?1Joystick?9Steu@ 100862b4     Control_software_v1_1_capi.obj
 0002:0000a2e8       ??_C@_0CN@ICBLJIPJ@Subsystem?1Takeoff1?1Joystick?9Steu@ 100862e8     Control_software_v1_1_capi.obj
 0002:0000a320       ??_C@_0CO@CLOFGJC@Subsystem?1Takeoff1?1Joystick?9Steu@ 10086320     Control_software_v1_1_capi.obj
 0002:0000a358       ??_C@_0BP@DNEFLANI@Subsystem?1Takeoff1?1damper?1Gain?$AA@ 10086358     Control_software_v1_1_capi.obj
 0002:0000a380       ??_C@_0BO@JHBHENFK@Subsystem?1Takeoff1?1damper?1Sum?$AA@ 10086380     Control_software_v1_1_capi.obj
 0002:0000a3a4       ??_C@_0BP@ENHEKIBF@Subsystem?1Takeoff1?1damper?1Sum1?$AA@ 100863a4     Control_software_v1_1_capi.obj
 0002:0000a3cc       ??_C@_0CB@BMIPLLKI@Subsystem?1Takeoff1?1damper?1Switch@ 100863cc     Control_software_v1_1_capi.obj
 0002:0000a3f4       ??_C@_0CC@BOEMKDND@Subsystem?1Takeoff1?1damper?1Switch@ 100863f4     Control_software_v1_1_capi.obj
 0002:0000a41c       ??_C@_0CA@DJFOLOII@Subsystem?1Takeoff1?1damper?1Delay?$AA@ 1008641c     Control_software_v1_1_capi.obj
 0002:0000a444       ??_C@_0CB@CFAHFCBO@Subsystem?1Takeoff1?1damper?1Delay1@ 10086444     Control_software_v1_1_capi.obj
 0002:0000a46c       ??_C@_0CJ@IOFBHDE@Subsystem?1damper?1Compare?5To?5Zero@ 1008646c     Control_software_v1_1_capi.obj
 0002:0000a4a0       ??_C@_0CK@DKENMJGI@Subsystem?1damper?1Compare?5To?5Zero@ 100864a0     Control_software_v1_1_capi.obj
 0002:0000a4d8       ??_C@_0ED@PNHKNHIN@Inputs?1RS232_read?1IMU_read?1Data_@ 100864d8     Control_software_v1_1_capi.obj
 0002:0000a528       ??_C@_0DE@EHBIOHBP@Inputs?1RS232_read?1IMU_read?1Data_@ 10086528     Control_software_v1_1_capi.obj
 0002:0000a568       ??_C@_0DB@GNEEPHLL@Subsystem?1Takeoff?1damper?1Compare@ 10086568     Control_software_v1_1_capi.obj
 0002:0000a5a4       ??_C@_0DC@EHCPPGDJ@Subsystem?1Takeoff?1damper?1Compare@ 100865a4     Control_software_v1_1_capi.obj
 0002:0000a5e0       ??_C@_0DC@KOPPDEFG@Subsystem?1Takeoff1?1damper?1Compar@ 100865e0     Control_software_v1_1_capi.obj
 0002:0000a61c       ??_C@_0DD@JJFHNDDP@Subsystem?1Takeoff1?1damper?1Compar@ 1008661c     Control_software_v1_1_capi.obj
 0002:0000a660       ??_C@_0FA@IMFEHGGE@Inputs?1RS232_read?1IMU_read?1IMU_d@ 10086660     Control_software_v1_1_capi.obj
 0002:0000a6c0       ??_C@_04CLCEDBPF@time?$AA@ 100866c0     Control_software_v1_1_capi.obj
 0002:0000a6c8       ??_C@_0FB@IMAOPGIF@Inputs?1RS232_read?1IMU_read?1IMU_d@ 100866c8     Control_software_v1_1_capi.obj
 0002:0000a72c       ??_C@_08KLMNJBLI@GPSFlags?$AA@ 1008672c     Control_software_v1_1_capi.obj
 0002:0000a738       ??_C@_0FB@KHCDKFEG@Inputs?1RS232_read?1IMU_read?1IMU_d@ 10086738     Control_software_v1_1_capi.obj
 0002:0000a79c       ??_C@_05EDGDKMME@NbSat?$AA@ 1008679c     Control_software_v1_1_capi.obj
 0002:0000a7a8       ??_C@_0FB@BMFHCCOJ@Inputs?1RS232_read?1IMU_read?1IMU_d@ 100867a8     Control_software_v1_1_capi.obj
 0002:0000a80c       ??_C@_02JPBKMLIA@Mx?$AA@   1008680c     Control_software_v1_1_capi.obj
 0002:0000a810       ??_C@_0FC@BPJHAKEM@Inputs?1RS232_read?1IMU_read?1IMU_d@ 10086810     Control_software_v1_1_capi.obj
 0002:0000a874       ??_C@_02IGABPKMB@My?$AA@   10086874     Control_software_v1_1_capi.obj
 0002:0000a878       ??_C@_0FC@CNKBGIMO@Inputs?1RS232_read?1IMU_read?1IMU_d@ 10086878     Control_software_v1_1_capi.obj
 0002:0000a8dc       ??_C@_02KNCMKJAC@Mz?$AA@   100868dc     Control_software_v1_1_capi.obj
 0002:0000a8e0       ??_C@_0FB@MBEPBEGL@Inputs?1RS232_read?1IMU_read?1IMU_d@ 100868e0     Control_software_v1_1_capi.obj
 0002:0000a944       ??_C@_04JFPLDHAO@year?$AA@ 10086944     Control_software_v1_1_capi.obj
 0002:0000a950       ??_C@_0FC@BMPMPAHG@Inputs?1RS232_read?1IMU_read?1IMU_d@ 10086950     Control_software_v1_1_capi.obj
 0002:0000a9b4       ??_C@_0M@GGIBBEGI@nanoseconds?$AA@ 100869b4     Control_software_v1_1_capi.obj
 0002:0000a9c8       ??_C@_0FC@DHNBKDLF@Inputs?1RS232_read?1IMU_read?1IMU_d@ 100869c8     Control_software_v1_1_capi.obj
 0002:0000aa2c       ??_C@_05MEBAADFH@month?$AA@ 10086a2c     Control_software_v1_1_capi.obj
 0002:0000aa38       ??_C@_0FC@COMKJCPE@Inputs?1RS232_read?1IMU_read?1IMU_d@ 10086a38     Control_software_v1_1_capi.obj
 0002:0000aa9c       ??_C@_03NNBHCDBP@day?$AA@  10086a9c     Control_software_v1_1_capi.obj
 0002:0000aaa0       ??_C@_0FC@GBILAEDD@Inputs?1RS232_read?1IMU_read?1IMU_d@ 10086aa0     Control_software_v1_1_capi.obj
 0002:0000ab04       ??_C@_04LMOJGCPE@hour?$AA@ 10086b04     Control_software_v1_1_capi.obj
 0002:0000ab10       ??_C@_0FC@HIJADFHC@Inputs?1RS232_read?1IMU_read?1IMU_d@ 10086b10     Control_software_v1_1_capi.obj
 0002:0000ab74       ??_C@_03KLIPLJLL@min?$AA@  10086b74     Control_software_v1_1_capi.obj
 0002:0000ab78       ??_C@_0FC@FDLNGGLB@Inputs?1RS232_read?1IMU_read?1IMU_d@ 10086b78     Control_software_v1_1_capi.obj
 0002:0000abdc       ??_C@_03KHPNBODO@sec?$AA@  10086bdc     Control_software_v1_1_capi.obj
 0002:0000abe0       ??_C@_0FB@HNBGEJKM@Inputs?1RS232_read?1IMU_read?1IMU_d@ 10086be0     Control_software_v1_1_capi.obj
 0002:0000ac44       ??_C@_07GIPHOCKM@Time_sr?$AA@ 10086c44     Control_software_v1_1_capi.obj
 0002:0000ac50       ??_C@_0FC@BIPFADCF@Inputs?1RS232_read?1IMU_read?1IMU_d@ 10086c50     Control_software_v1_1_capi.obj
 0002:0000acb4       ??_C@_09PHBIEJMN@longitude?$AA@ 10086cb4     Control_software_v1_1_capi.obj
 0002:0000acc0       ??_C@_0FC@DDNIFAOG@Inputs?1RS232_read?1IMU_read?1IMU_d@ 10086cc0     Control_software_v1_1_capi.obj
 0002:0000ad24       ??_C@_06LNLHEAAG@height?$AA@ 10086d24     Control_software_v1_1_capi.obj
 0002:0000ad30       ??_C@_0FC@CKMDGBKH@Inputs?1RS232_read?1IMU_read?1IMU_d@ 10086d30     Control_software_v1_1_capi.obj
 0002:0000ad94       ??_C@_08IPNLHJNB@latitude?$AA@ 10086d94     Control_software_v1_1_capi.obj
 0002:0000ada0       ??_C@_0FC@BKCLAEAC@Inputs?1RS232_read?1IMU_read?1IMU_d@ 10086da0     Control_software_v1_1_capi.obj
 0002:0000ae04       ??_C@_06NPFPHNBC@v_east?$AA@ 10086e04     Control_software_v1_1_capi.obj
 0002:0000ae10       ??_C@_0FC@DBAGFHMB@Inputs?1RS232_read?1IMU_read?1IMU_d@ 10086e10     Control_software_v1_1_capi.obj
 0002:0000ae74       ??_C@_07DDAJOGFN@v_north?$AA@ 10086e74     Control_software_v1_1_capi.obj
 0002:0000ae80       ??_C@_0FC@CIBNGGIA@Inputs?1RS232_read?1IMU_read?1IMU_d@ 10086e80     Control_software_v1_1_capi.obj
 0002:0000aee4       ??_C@_06LFMEHBJG@v_down?$AA@ 10086ee4     Control_software_v1_1_capi.obj
 0002:0000aef0       ??_C@_0FC@GHFMPAEH@Inputs?1RS232_read?1IMU_read?1IMU_d@ 10086ef0     Control_software_v1_1_capi.obj
 0002:0000af54       ??_C@_07MBJMFGGL@heading?$AA@ 10086f54     Control_software_v1_1_capi.obj
 0002:0000af60       ??_C@_0FC@DALDKKNM@Inputs?1RS232_read?1IMU_read?1IMU_d@ 10086f60     Control_software_v1_1_capi.obj
 0002:0000afc4       ??_C@_08GHGAAJPE@Altitude?$AA@ 10086fc4     Control_software_v1_1_capi.obj
 0002:0000afd0       ??_C@_0FB@NONFPEGD@Inputs?1RS232_read?1IMU_read?1IMU_d@ 10086fd0     Control_software_v1_1_capi.obj
 0002:0000b034       ??_C@_08NNMDAM@lat_filt?$AA@ 10087034     Control_software_v1_1_capi.obj
 0002:0000b040       ??_C@_0FC@BCDIOCKE@Inputs?1RS232_read?1IMU_read?1IMU_d@ 10087040     Control_software_v1_1_capi.obj
 0002:0000b0a4       ??_C@_09HIBOPDBA@long_filt?$AA@ 100870a4     Control_software_v1_1_capi.obj
 0002:0000b0b0       ??_C@_0FC@DJBFLBGH@Inputs?1RS232_read?1IMU_read?1IMU_d@ 100870b0     Control_software_v1_1_capi.obj
 0002:0000b114       ??_C@_0M@CCDEJLAN@height_filt?$AA@ 10087114     Control_software_v1_1_capi.obj
 0002:0000b128       ??_C@_0FB@LAFJOPCC@Inputs?1RS232_read?1IMU_read?1IMU_d@ 10087128     Control_software_v1_1_capi.obj
 0002:0000b18c       ??_C@_02IPGJIHBB@Vx?$AA@   1008718c     Control_software_v1_1_capi.obj
 0002:0000b190       ??_C@_0FC@BDINBPLJ@Inputs?1RS232_read?1IMU_read?1IMU_d@ 10087190     Control_software_v1_1_capi.obj
 0002:0000b1f4       ??_C@_02JGHCLGFA@Vy?$AA@   100871f4     Control_software_v1_1_capi.obj
 0002:0000b1f8       ??_C@_0FC@CBLLHNDL@Inputs?1RS232_read?1IMU_read?1IMU_d@ 100871f8     Control_software_v1_1_capi.obj
 0002:0000b25c       ??_C@_02LNFPOFJD@Vz?$AA@   1008725c     Control_software_v1_1_capi.obj
 0002:0000b260       ??_C@_0FA@FOIBDAOC@Inputs?1RS232_read?1IMU_read?1IMU_d@ 10087260     Control_software_v1_1_capi.obj
 0002:0000b2c0       ??_C@_02JDNACDDI@q1?$AA@   100872c0     Control_software_v1_1_capi.obj
 0002:0000b2c8       ??_C@_0FB@IIAHAFNG@Inputs?1RS232_read?1IMU_read?1IMU_d@ 100872c8     Control_software_v1_1_capi.obj
 0002:0000b32c       ??_C@_02LIPNHAPL@q2?$AA@   1008732c     Control_software_v1_1_capi.obj
 0002:0000b330       ??_C@_0FB@LKDBGHFE@Inputs?1RS232_read?1IMU_read?1IMU_d@ 10087330     Control_software_v1_1_capi.obj
 0002:0000b394       ??_C@_02KBOGEBLK@q3?$AA@   10087394     Control_software_v1_1_capi.obj
 0002:0000b398       ??_C@_0FB@PFHAPBJD@Inputs?1RS232_read?1IMU_read?1IMU_d@ 10087398     Control_software_v1_1_capi.obj
 0002:0000b3fc       ??_C@_02OOKHNHHN@q4?$AA@   100873fc     Control_software_v1_1_capi.obj
 0002:0000b400       ??_C@_0FA@CAFKLLKP@Inputs?1RS232_read?1IMU_read?1IMU_d@ 10087400     Control_software_v1_1_capi.obj
 0002:0000b460       ??_C@_02JCINEOFG@Gx?$AA@   10087460     Control_software_v1_1_capi.obj
 0002:0000b468       ??_C@_0FB@IABEODHA@Inputs?1RS232_read?1IMU_read?1IMU_d@ 10087468     Control_software_v1_1_capi.obj
 0002:0000b4cc       ??_C@_02ILJGHPBH@Gy?$AA@   100874cc     Control_software_v1_1_capi.obj
 0002:0000b4d0       ??_C@_0FB@LCCCIBPC@Inputs?1RS232_read?1IMU_read?1IMU_d@ 100874d0     Control_software_v1_1_capi.obj
 0002:0000b534       ??_C@_02KALLCMNE@Gz?$AA@   10087534     Control_software_v1_1_capi.obj
 0002:0000b538       ??_C@_0FA@EONGKAOO@Inputs?1RS232_read?1IMU_read?1IMU_d@ 10087538     Control_software_v1_1_capi.obj
 0002:0000b598       ??_C@_02JGAADCOE@Ax?$AA@   10087598     Control_software_v1_1_capi.obj
 0002:0000b5a0       ??_C@_0FB@IBKBBOGN@Inputs?1RS232_read?1IMU_read?1IMU_d@ 100875a0     Control_software_v1_1_capi.obj
 0002:0000b604       ??_C@_02IPBLADKF@Ay?$AA@   10087604     Control_software_v1_1_capi.obj
 0002:0000b608       ??_C@_0FB@LDJHHMOP@Inputs?1RS232_read?1IMU_read?1IMU_d@ 10087608     Control_software_v1_1_capi.obj
 0002:0000b66c       ??_C@_02KEDGFAGG@Az?$AA@   1008766c     Control_software_v1_1_capi.obj
 0002:0000b670       ??_C@_0EJ@GEJENCKB@Inputs?1RS232_read?1QSC?9100?5F?1RS23@ 10087670     Control_software_v1_1_capi.obj
 0002:0000b6c8       ??_C@_0EJ@EPLJIBGC@Inputs?1RS232_read?1QSC?9100?5F?1RS23@ 100876c8     Control_software_v1_1_capi.obj
 0002:0000b720       ??_C@_0EJ@FGKCLACD@Inputs?1RS232_read?1QSC?9100?5F?1RS23@ 10087720     Control_software_v1_1_capi.obj
 0002:0000b778       ??_C@_0EJ@BJODCGOE@Inputs?1RS232_read?1QSC?9100?5F?1RS23@ 10087778     Control_software_v1_1_capi.obj
 0002:0000b7d0       ??_C@_0FA@BOKCMBEG@Inputs?1RS232_read?1QSC?9100?5F?1RS23@ 100877d0     Control_software_v1_1_capi.obj
 0002:0000b830       ??_C@_0FD@EPPBOPDM@Inputs?1RS232_read?1QSC?9100?5F?1RS23@ 10087830     Control_software_v1_1_capi.obj
 0002:0000b898       ??_C@_0FI@JPPDGNKP@Inputs?1RS232_read?1QSC?9100?5F?1RS23@ 10087898     Control_software_v1_1_capi.obj
 0002:0000b908       ??_C@_0EO@PGODKAAG@Inputs?1RS232_read?1QSC?9100?5F?1RS23@ 10087908     Control_software_v1_1_capi.obj
 0002:0000b968       ??_C@_0EO@NNMOPDMF@Inputs?1RS232_read?1QSC?9100?5F?1RS23@ 10087968     Control_software_v1_1_capi.obj
 0002:0000b9c8       ??_C@_0EO@LBEDNKNG@Inputs?1RS232_read?1QSC?9100?5F?1RS23@ 100879c8     Control_software_v1_1_capi.obj
 0002:0000ba28       ??_C@_0EO@JKGOIJBF@Inputs?1RS232_read?1QSC?9100?5F?1RS23@ 10087a28     Control_software_v1_1_capi.obj
 0002:0000ba88       ??_C@_0EO@IMCDPDGG@Inputs?1RS232_read?1QSC?9100?5F?1RS23@ 10087a88     Control_software_v1_1_capi.obj
 0002:0000bae8       ??_C@_0EO@KHAOKAKF@Inputs?1RS232_read?1QSC?9100?5F?1RS23@ 10087ae8     Control_software_v1_1_capi.obj
 0002:0000bb48       ??_C@_0EO@DOADCPHG@Inputs?1RS232_read?1QSC?9100?5F?1RS23@ 10087b48     Control_software_v1_1_capi.obj
 0002:0000bba8       ??_C@_0EO@BFCOHMLF@Inputs?1RS232_read?1QSC?9100?5F?1RS23@ 10087ba8     Control_software_v1_1_capi.obj
 0002:0000bc08       ??_C@_0EM@NAMCFIKP@Inputs?1RS232_read?1QSC?9100?5F?1RS23@ 10087c08     Control_software_v1_1_capi.obj
 0002:0000bc68       ??_C@_0EM@PLOPALGM@Inputs?1RS232_read?1QSC?9100?5F?1RS23@ 10087c68     Control_software_v1_1_capi.obj
 0002:0000bcc8       ??_C@_0EM@OCPEDKCN@Inputs?1RS232_read?1QSC?9100?5F?1RS23@ 10087cc8     Control_software_v1_1_capi.obj
 0002:0000bd28       ??_C@_0EM@KNLFKMOK@Inputs?1RS232_read?1QSC?9100?5F?1RS23@ 10087d28     Control_software_v1_1_capi.obj
 0002:0000bd88       ??_C@_0FC@MOICAPLG@Inputs?1RS232_read?1QSC?9100?5F?1RS23@ 10087d88     Control_software_v1_1_capi.obj
 0002:0000bdf0       ??_C@_0FC@OFKPFMHF@Inputs?1RS232_read?1QSC?9100?5F?1RS23@ 10087df0     Control_software_v1_1_capi.obj
 0002:0000be58       ??_C@_0FC@PMLEGNDE@Inputs?1RS232_read?1QSC?9100?5F?1RS23@ 10087e58     Control_software_v1_1_capi.obj
 0002:0000bec0       ??_C@_0FC@LDPFPLPD@Inputs?1RS232_read?1QSC?9100?5F?1RS23@ 10087ec0     Control_software_v1_1_capi.obj
 0002:0000bf28       ??_C@_0FC@KKOOMKLC@Inputs?1RS232_read?1QSC?9100?5F?1RS23@ 10087f28     Control_software_v1_1_capi.obj
 0002:0000bf90       ??_C@_0FC@IBMDJJHB@Inputs?1RS232_read?1QSC?9100?5F?1RS23@ 10087f90     Control_software_v1_1_capi.obj
 0002:0000bff8       ??_C@_0FC@JINIKIDA@Inputs?1RS232_read?1QSC?9100?5F?1RS23@ 10087ff8     Control_software_v1_1_capi.obj
 0002:0000c060       ??_C@_0FC@BPEALEPP@Inputs?1RS232_read?1QSC?9100?5F?1RS23@ 10088060     Control_software_v1_1_capi.obj
 0002:0000c0c8       ??_C@_0EN@IDAGNKLD@Inputs?1RS232_read?1QSC?9100?5F?1RS23@ 100880c8     Control_software_v1_1_capi.obj
 0002:0000c128       ??_C@_0EN@KICLIJHA@Inputs?1RS232_read?1QSC?9100?5F?1RS23@ 10088128     Control_software_v1_1_capi.obj
 0002:0000c188       ??_C@_0EN@LBDALIDB@Inputs?1RS232_read?1QSC?9100?5F?1RS23@ 10088188     Control_software_v1_1_capi.obj
 0002:0000c1e8       ??_C@_0EN@POHBCOPG@Inputs?1RS232_read?1QSC?9100?5F?1RS23@ 100881e8     Control_software_v1_1_capi.obj
 0002:0000c248       ??_C@_0FA@LBJBIEHC@Inputs?1RS232_read?1QSC?9100?5F?1RS23@ 10088248     Control_software_v1_1_capi.obj
 0002:0000c2a8       ??_C@_0BB@CFEOEMDC@InitialCondition?$AA@ 100882a8     Control_software_v1_1_capi.obj
 0002:0000c2bc       ??_C@_0BM@EOFNLALL@High?9level?5control?1Constant?$AA@ 100882bc     Control_software_v1_1_capi.obj
 0002:0000c2e0       ??_C@_05LPIJGKJ@Value?$AA@ 100882e0     Control_software_v1_1_capi.obj
 0002:0000c2e8       ??_C@_0BN@JKKADAAG@High?9level?5control?1Constant1?$AA@ 100882e8     Control_software_v1_1_capi.obj
 0002:0000c30c       ??_C@_0BN@KIJGFCIE@High?9level?5control?1Constant3?$AA@ 1008830c     Control_software_v1_1_capi.obj
 0002:0000c330       ??_C@_0BB@JJMGKOG@Outputs?1Constant?$AA@ 10088330     Control_software_v1_1_capi.obj
 0002:0000c344       ??_C@_0BC@KEBAIPFG@Outputs?1Constant2?$AA@ 10088344     Control_software_v1_1_capi.obj
 0002:0000c35c       ??_C@_0BJ@MOBIHFCC@Outputs?1PCI?56221?5PFI?5DO?5?$AA@ 1008835c     Control_software_v1_1_capi.obj
 0002:0000c37c       ??_C@_02KKFPAPOP@P1?$AA@   1008837c     Control_software_v1_1_capi.obj
 0002:0000c380       ??_C@_02IBHCFMCM@P2?$AA@   10088380     Control_software_v1_1_capi.obj
 0002:0000c384       ??_C@_02JIGJGNGN@P3?$AA@   10088384     Control_software_v1_1_capi.obj
 0002:0000c388       ??_C@_02NHCIPLKK@P4?$AA@   10088388     Control_software_v1_1_capi.obj
 0002:0000c38c       ??_C@_02MODDMKOL@P5?$AA@   1008838c     Control_software_v1_1_capi.obj
 0002:0000c390       ??_C@_02OFBOJJCI@P6?$AA@   10088390     Control_software_v1_1_capi.obj
 0002:0000c394       ??_C@_02PMAFKIGJ@P7?$AA@   10088394     Control_software_v1_1_capi.obj
 0002:0000c398       ??_C@_0BE@IHMMINGB@Outputs?1PCI?96221?5DA?$AA@ 10088398     Control_software_v1_1_capi.obj
 0002:0000c3b0       ??_C@_0BE@BJEPKAOP@Outputs?1PCI?96221?5DO?$AA@ 100883b0     Control_software_v1_1_capi.obj
 0002:0000c3c8       ??_C@_09HLCHFPPJ@Threshold?$AA@ 100883c8     Control_software_v1_1_capi.obj
 0002:0000c3d4       ??_C@_0BD@JDLNMOBA@Subsystem?1Constant?$AA@ 100883d4     Control_software_v1_1_capi.obj
 0002:0000c3ec       ??_C@_0BE@NLHJKKBI@Subsystem?1Constant1?$AA@ 100883ec     Control_software_v1_1_capi.obj
 0002:0000c404       ??_C@_0BE@PAFEPJNL@Subsystem?1Constant2?$AA@ 10088404     Control_software_v1_1_capi.obj
 0002:0000c41c       ??_C@_0BE@OJEPMIJK@Subsystem?1Constant3?$AA@ 1008841c     Control_software_v1_1_capi.obj
 0002:0000c434       ??_C@_0CD@CBANBCJM@Subsystem?1konstante?5Ausrollgesch@ 10088434     Control_software_v1_1_capi.obj
 0002:0000c460       ??_C@_0CD@BEBNBMBK@Subsystem?1konstante?5Einrollgesch@ 10088460     Control_software_v1_1_capi.obj
 0002:0000c48c       ??_C@_0M@KNNCJG@DelayLength?$AA@ 1008848c     Control_software_v1_1_capi.obj
 0002:0000c49c       ??_C@_0L@FBCGKKEN@UpperLimit?$AA@ 1008849c     Control_software_v1_1_capi.obj
 0002:0000c4ac       ??_C@_0L@DGFJOHKP@LowerLimit?$AA@ 100884ac     Control_software_v1_1_capi.obj
 0002:0000c4bc       ??_C@_0O@KHJPNGBD@InitialStates?$AA@ 100884bc     Control_software_v1_1_capi.obj
 0002:0000c4cc       ??_C@_0CB@MFLOHPAN@Inputs?1Analog?5Inputs?1PCI?96221?5AD@ 100884cc     Control_software_v1_1_capi.obj
 0002:0000c4f4       ??_C@_0CC@KDEJCOJG@Inputs?1Digital?5Inputs?1PCI?96221?5D@ 100884f4     Control_software_v1_1_capi.obj
 0002:0000c51c       ??_C@_0CE@NCNCGEBF@Logging?1Time_Scope_trigger?1Const@ 1008851c     Control_software_v1_1_capi.obj
 0002:0000c548       ??_C@_0CF@KLFCDBDN@Logging?1Time_Scope_trigger?1Const@ 10088548     Control_software_v1_1_capi.obj
 0002:0000c574       ??_C@_0CF@IAHPGCPO@Logging?1Time_Scope_trigger?1Const@ 10088574     Control_software_v1_1_capi.obj
 0002:0000c5a0       ??_C@_0CD@ENAEJIIH@Subsystem?1Emergency?1Beschleunigu@ 100885a0     Control_software_v1_1_capi.obj
 0002:0000c5cc       ??_C@_0CN@JLPNBLAI@Subsystem?1Emergency?1obere?5Krafts@ 100885cc     Control_software_v1_1_capi.obj
 0002:0000c604       ??_C@_0CO@LPIHPDFO@Subsystem?1Emergency?1untere?5Kraft@ 10088604     Control_software_v1_1_capi.obj
 0002:0000c63c       ??_C@_04OMOMKKFL@Gain?$AA@ 1008863c     Control_software_v1_1_capi.obj
 0002:0000c644       ??_C@_0BO@GGMJPAIG@Subsystem?1Subsystem?1Constant2?$AA@ 10088644     Control_software_v1_1_capi.obj
 0002:0000c668       ??_C@_0BO@HPNCMBMH@Subsystem?1Subsystem?1Constant3?$AA@ 10088668     Control_software_v1_1_capi.obj
 0002:0000c68c       ??_C@_0CA@CGGPCFL@Subsystem?1damper?1Beschleunigung?$AA@ 1008868c     Control_software_v1_1_capi.obj
 0002:0000c6b4       ??_C@_0BL@PNLMAAHN@Subsystem?1damper?1Constant1?$AA@ 100886b4     Control_software_v1_1_capi.obj
 0002:0000c6d8       ??_C@_0EC@PKNCBHAM@Input?5conditioning?5and?5estimator@ 100886d8     Control_software_v1_1_capi.obj
 0002:0000c728       ??_C@_0EC@NBPPEEMP@Input?5conditioning?5and?5estimator@ 10088728     Control_software_v1_1_capi.obj
 0002:0000c778       ??_C@_0EC@KGGBJGDP@Input?5conditioning?5and?5estimator@ 10088778     Control_software_v1_1_capi.obj
 0002:0000c7c8       ??_C@_02HLJNLEKG@P8?$AA@   100887c8     Control_software_v1_1_capi.obj
 0002:0000c7cc       ??_C@_0CI@PMDECOAC@Inputs?1RS232_read?1QSC?9100?5F?1Enab@ 100887cc     Control_software_v1_1_capi.obj
 0002:0000c7fc       ??_C@_0CI@NHBJHNMB@Inputs?1RS232_read?1QSC?9100?5F?1Enab@ 100887fc     Control_software_v1_1_capi.obj
 0002:0000c82c       ??_C@_0CI@MOACEMIA@Inputs?1RS232_read?1QSC?9100?5F?1Enab@ 1008882c     Control_software_v1_1_capi.obj
 0002:0000c85c       ??_C@_0CI@IBEDNKEH@Inputs?1RS232_read?1QSC?9100?5F?1Enab@ 1008885c     Control_software_v1_1_capi.obj
 0002:0000c88c       ??_C@_0CJ@FDEBJHNI@Inputs?1RS232_read?1QSC?9100?5F?1FIFO@ 1008888c     Control_software_v1_1_capi.obj
 0002:0000c8c0       ??_C@_0CJ@HIGMMEBL@Inputs?1RS232_read?1QSC?9100?5F?1FIFO@ 100888c0     Control_software_v1_1_capi.obj
 0002:0000c8f4       ??_C@_0CJ@GBHHPFFK@Inputs?1RS232_read?1QSC?9100?5F?1FIFO@ 100888f4     Control_software_v1_1_capi.obj
 0002:0000c928       ??_C@_0CJ@CODGGDJN@Inputs?1RS232_read?1QSC?9100?5F?1FIFO@ 10088928     Control_software_v1_1_capi.obj
 0002:0000c95c       ??_C@_0CD@FCDIMDFJ@Inputs?1RS232_read?1QSC?9100?5F?1Setu@ 1008895c     Control_software_v1_1_capi.obj
 0002:0000c988       ??_C@_02GCIGIFOH@P9?$AA@   10088988     Control_software_v1_1_capi.obj
 0002:0000c98c       ??_C@_03OPFJJGBF@P10?$AA@  1008898c     Control_software_v1_1_capi.obj
 0002:0000c990       ??_C@_0CD@HJBFJAJK@Inputs?1RS232_read?1QSC?9100?5F?1Setu@ 10088990     Control_software_v1_1_capi.obj
 0002:0000c9bc       ??_C@_0CD@GAAOKBNL@Inputs?1RS232_read?1QSC?9100?5F?1Setu@ 100889bc     Control_software_v1_1_capi.obj
 0002:0000c9e8       ??_C@_0CD@CPEPDHBM@Inputs?1RS232_read?1QSC?9100?5F?1Setu@ 100889e8     Control_software_v1_1_capi.obj
 0002:0000ca14       ??_C@_0DE@DMANAGHC@Subsystem?1Takeoff?1Joystick?9Steue@ 10088a14     Control_software_v1_1_capi.obj
 0002:0000ca54       ??_C@_0DO@DKJPAFMN@Subsystem?1Takeoff?1Joystick?9Steue@ 10088a54     Control_software_v1_1_capi.obj
 0002:0000caa0       ??_C@_0DP@FECIKHHP@Subsystem?1Takeoff?1Joystick?9Steue@ 10088aa0     Control_software_v1_1_capi.obj
 0002:0000caec       ??_C@_0CI@KBHHKLOI@Subsystem?1Takeoff?1damper?1Beschle@ 10088aec     Control_software_v1_1_capi.obj
 0002:0000cb1c       ??_C@_0CD@MDDDHD@Subsystem?1Takeoff?1damper?1Constan@ 10088b1c     Control_software_v1_1_capi.obj
 0002:0000cb48       ??_C@_0DF@CBFDKLML@Subsystem?1Takeoff1?1Joystick?9Steu@ 10088b48     Control_software_v1_1_capi.obj
 0002:0000cb88       ??_C@_0DP@BLDCNMHP@Subsystem?1Takeoff1?1Joystick?9Steu@ 10088b88     Control_software_v1_1_capi.obj
 0002:0000cbd8       ??_C@_0EA@HBGGNIAG@Subsystem?1Takeoff1?1Joystick?9Steu@ 10088bd8     Control_software_v1_1_capi.obj
 0002:0000cc24       ??_C@_0CJ@KOELLGLG@Subsystem?1Takeoff1?1damper?1Beschl@ 10088c24     Control_software_v1_1_capi.obj
 0002:0000cc58       ??_C@_0CE@PBGKEEM@Subsystem?1Takeoff1?1damper?1Consta@ 10088c58     Control_software_v1_1_capi.obj
 0002:0000cc84       ??_C@_0CK@DLGKMKAB@Subsystem?1damper?1Compare?5To?5Zero@ 10088c84     Control_software_v1_1_capi.obj
 0002:0000ccb8       ??_C@_0CL@FJIFHPAA@Subsystem?1damper?1Compare?5To?5Zero@ 10088cb8     Control_software_v1_1_capi.obj
 0002:0000ccec       ??_C@_0DK@BDNPHAHM@Inputs?1RS232_read?1IMU_read?1Data_@ 10088cec     Control_software_v1_1_capi.obj
 0002:0000cd34       ??_C@_0O@LILIEJBO@InitialOutput?$AA@ 10088d34     Control_software_v1_1_capi.obj
 0002:0000cd44       ??_C@_0DC@EGAIPFFA@Subsystem?1Takeoff?1damper?1Compare@ 10088d44     Control_software_v1_1_capi.obj
 0002:0000cd80       ??_C@_0DD@EFJEHMFN@Subsystem?1Takeoff?1damper?1Compare@ 10088d80     Control_software_v1_1_capi.obj
 0002:0000cdc0       ??_C@_0DD@JIHANAFG@Subsystem?1Takeoff1?1damper?1Compar@ 10088dc0     Control_software_v1_1_capi.obj
 0002:0000ce00       ??_C@_0DE@KMCJKBEN@Subsystem?1Takeoff1?1damper?1Compar@ 10088e00     Control_software_v1_1_capi.obj
 0002:0000ce40       ??_C@_0EJ@KMENFIKJ@Inputs?1RS232_read?1QSC?9100?5F?1RS23@ 10088e40     Control_software_v1_1_capi.obj
 0002:0000ce98       ??_C@_07IMLPMLBM@BitMask?$AA@ 10088e98     Control_software_v1_1_capi.obj
 0002:0000cea8       ??_C@_0EL@PKJKDFDO@Inputs?1RS232_read?1QSC?9100?5F?1RS23@ 10088ea8     Control_software_v1_1_capi.obj
 0002:0000cf08       ??_C@_0EL@NBLHGGPN@Inputs?1RS232_read?1QSC?9100?5F?1RS23@ 10088f08     Control_software_v1_1_capi.obj
 0002:0000cf68       ??_C@_0EL@MIKMFHLM@Inputs?1RS232_read?1QSC?9100?5F?1RS23@ 10088f68     Control_software_v1_1_capi.obj
 0002:0000cfc8       ??_C@_0EL@IHONMBHL@Inputs?1RS232_read?1QSC?9100?5F?1RS23@ 10088fc8     Control_software_v1_1_capi.obj
 0002:0000d028       ??_C@_0EO@PKJBEHOD@Inputs?1RS232_read?1QSC?9100?5F?1RS23@ 10089028     Control_software_v1_1_capi.obj
 0002:0000d088       ??_C@_0EO@NBLMBECA@Inputs?1RS232_read?1QSC?9100?5F?1RS23@ 10089088     Control_software_v1_1_capi.obj
 0002:0000d0e8       ??_C@_0EO@MIKHCFGB@Inputs?1RS232_read?1QSC?9100?5F?1RS23@ 100890e8     Control_software_v1_1_capi.obj
 0002:0000d148       ??_C@_0EO@IHOGLDKG@Inputs?1RS232_read?1QSC?9100?5F?1RS23@ 10089148     Control_software_v1_1_capi.obj
 0002:0000d1a8       ??_C@_09CLJNPGHO@HLC_Param?$AA@ 100891a8     Control_software_v1_1_capi.obj
 0002:0000d1b4       ??_C@_05CLFGFKJK@AOsat?$AA@ 100891b4     Control_software_v1_1_capi.obj
 0002:0000d1bc       ??_C@_08JPANHOIH@Afilt_Sl?$AA@ 100891bc     Control_software_v1_1_capi.obj
 0002:0000d1c8       ??_C@_0M@EEEKPMNP@Afilt_Winch?$AA@ 100891c8     Control_software_v1_1_capi.obj
 0002:0000d1d8       ??_C@_08KGIAECEC@Bfilt_Sl?$AA@ 100891d8     Control_software_v1_1_capi.obj
 0002:0000d1e4       ??_C@_0M@DDNECOCP@Bfilt_Winch?$AA@ 100891e4     Control_software_v1_1_capi.obj
 0002:0000d1f4       ??_C@_08LBPLFGAB@Cfilt_Sl?$AA@ 100891f4     Control_software_v1_1_capi.obj
 0002:0000d200       ??_C@_0M@KIHBGCEA@Cfilt_Winch?$AA@ 10089200     Control_software_v1_1_capi.obj
 0002:0000d210       ??_C@_08NFJKDLMI@Dfilt_Sl?$AA@ 10089210     Control_software_v1_1_capi.obj
 0002:0000d21c       ??_C@_0M@NMOJILMP@Dfilt_Winch?$AA@ 1008921c     Control_software_v1_1_capi.obj
 0002:0000d22c       ??_C@_0L@PPNPOOPB@JoyFiltDen?$AA@ 1008922c     Control_software_v1_1_capi.obj
 0002:0000d23c       ??_C@_0L@KHGJPOCG@JoyFiltNum?$AA@ 1008923c     Control_software_v1_1_capi.obj
 0002:0000d24c       ??_C@_09FODNAAJL@JoyS_gain?$AA@ 1008924c     Control_software_v1_1_capi.obj
 0002:0000d258       ??_C@_09FCAGKPJO@JoyS_ofst?$AA@ 10089258     Control_software_v1_1_capi.obj
 0002:0000d264       ??_C@_08GJOEHFPD@JoyS_sat?$AA@ 10089264     Control_software_v1_1_capi.obj
 0002:0000d270       ??_C@_09KKHCCEII@JoyW_gain?$AA@ 10089270     Control_software_v1_1_capi.obj
 0002:0000d27c       ??_C@_09KGEJILIN@JoyW_ofst?$AA@ 1008927c     Control_software_v1_1_capi.obj
 0002:0000d288       ??_C@_04DKFIGHAO@Kpos?$AA@ 10089288     Control_software_v1_1_capi.obj
 0002:0000d290       ??_C@_04DKBEKIDL@Kspd?$AA@ 10089290     Control_software_v1_1_capi.obj
 0002:0000d298       ??_C@_09NJENFEDN@KspdWinch?$AA@ 10089298     Control_software_v1_1_capi.obj
 0002:0000d2a4       ??_C@_0L@MGBBMGDP@NPotSpdEst?$AA@ 100892a4     Control_software_v1_1_capi.obj
 0002:0000d2b4       ??_C@_0O@LFFAEOHG@PotPosFiltDen?$AA@ 100892b4     Control_software_v1_1_capi.obj
 0002:0000d2c4       ??_C@_0O@ONOGFOKB@PotPosFiltNum?$AA@ 100892c4     Control_software_v1_1_capi.obj
 0002:0000d2d4       ??_C@_08JDGANLJH@Pot_gain?$AA@ 100892d4     Control_software_v1_1_capi.obj
 0002:0000d2e0       ??_C@_07PPEKIFKG@Pot_max?$AA@ 100892e0     Control_software_v1_1_capi.obj
 0002:0000d2ec       ??_C@_07ONMBGBMJ@Pot_min?$AA@ 100892ec     Control_software_v1_1_capi.obj
 0002:0000d2f8       ??_C@_08JPFLHEJC@Pot_ofst?$AA@ 100892f8     Control_software_v1_1_capi.obj
 0002:0000d304       ??_C@_0P@DJLGLJBA@SlMotPosAIgain?$AA@ 10089304     Control_software_v1_1_capi.obj
 0002:0000d318       ??_C@_0BC@JANEAMME@SlideMotTorqueMax?$AA@ 10089318     Control_software_v1_1_capi.obj
 0002:0000d330       ??_C@_0BA@BLPOEJLB@SlidePosFiltDen?$AA@ 10089330     Control_software_v1_1_capi.obj
 0002:0000d344       ??_C@_0BA@EDEIFJGG@SlidePosFiltNum?$AA@ 10089344     Control_software_v1_1_capi.obj
 0002:0000d358       ??_C@_0BD@FDALCIFK@SlideSpdEstFiltDen?$AA@ 10089358     Control_software_v1_1_capi.obj
 0002:0000d370       ??_C@_0BD@LLNDIIN@SlideSpdEstFiltNum?$AA@ 10089370     Control_software_v1_1_capi.obj
 0002:0000d388       ??_C@_06IOHGCHNC@Ts_1ms?$AA@ 10089388     Control_software_v1_1_capi.obj
 0002:0000d390       ??_C@_05NFIFDEME@Ts_1s?$AA@ 10089390     Control_software_v1_1_capi.obj
 0002:0000d398       ??_C@_0N@CLKNBFDK@WinchDrumRad?$AA@ 10089398     Control_software_v1_1_capi.obj
 0002:0000d3a8       ??_C@_0BC@CCOFNFJD@WinchMotPosAIgain?$AA@ 100893a8     Control_software_v1_1_capi.obj
 0002:0000d3c0       ??_C@_0BC@LONALAHK@WinchMotTorqueMax?$AA@ 100893c0     Control_software_v1_1_capi.obj
 0002:0000d3d8       ??_C@_0BA@HKFJBGML@WinchPosFiltDen?$AA@ 100893d8     Control_software_v1_1_capi.obj
 0002:0000d3ec       ??_C@_0BA@CCOPAGBM@WinchPosFiltNum?$AA@ 100893ec     Control_software_v1_1_capi.obj
 0002:0000d400       ??_C@_0P@DCHABPPH@WinchRefSpdSup?$AA@ 10089400     Control_software_v1_1_capi.obj
 0002:0000d414       ??_C@_0BD@HPPMLCGN@WinchSpdEstFiltDen?$AA@ 10089414     Control_software_v1_1_capi.obj
 0002:0000d42c       ??_C@_0BD@CHEKKCLK@WinchSpdEstFiltNum?$AA@ 1008942c     Control_software_v1_1_capi.obj
 0002:0000d444       ??_C@_0BB@ILCNEEJ@WinchTravelMin_m?$AA@ 10089444     Control_software_v1_1_capi.obj
 0002:0000d458       ??_C@_0N@LEBOGCFG@WinchVoltMax?$AA@ 10089458     Control_software_v1_1_capi.obj
 0002:0000d468       ??_C@_05DMLBMCMA@x0_Sl?$AA@ 10089468     Control_software_v1_1_capi.obj
 0002:0000d470       ??_C@_08LLDIHJCK@x0_Winch?$AA@ 10089470     Control_software_v1_1_capi.obj
 0002:0000d47c       ??_C@_06BNJCAIGJ@double?$AA@ 1008947c     Control_software_v1_1_capi.obj
 0002:0000d484       ??_C@_06CNMIJIPB@real_T?$AA@ 10089484     Control_software_v1_1_capi.obj
 0002:0000d48c       ??_C@_0O@PPAIJIHF@unsigned?5char?$AA@ 1008948c     Control_software_v1_1_capi.obj
 0002:0000d49c       ??_C@_07NCEHLPOC@uint8_T?$AA@ 1008949c     Control_software_v1_1_capi.obj
 0002:0000d4a8       ??_C@_09JBMFCIMO@boolean_T?$AA@ 100894a8     Control_software_v1_1_capi.obj
 0002:0000d4b4       ??_C@_07MMLECJPG@numeric?$AA@ 100894b4     Control_software_v1_1_capi.obj
 0002:0000d4c0       ??_C@_0O@CEKHAEHG@serialfifoptr?$AA@ 100894c0     Control_software_v1_1_capi.obj
 0002:0000d4d0       ??_C@_0N@OFHMGPAL@unsigned?5int?$AA@ 100894d0     Control_software_v1_1_capi.obj
 0002:0000d4e0       ??_C@_08CCMIKNJF@uint32_T?$AA@ 100894e0     Control_software_v1_1_capi.obj
 0002:0000d4ec       ??_C@_06PBJBIPGK@struct?$AA@ 100894ec     Control_software_v1_1_capi.obj
 0002:0000d4f4       ??_C@_0BO@LEFPDHAD@struct_g4JHc2H3XRyVVgBupIhckB?$AA@ 100894f4     Control_software_v1_1_capi.obj
 0002:0000d518       ??_C@_0BO@MPDEEAKL@struct_nekeCBaUBwhMGZJyyesMPB?$AA@ 10089518     Control_software_v1_1_capi.obj
 0002:0000d53c       ??_C@_0BO@KPPNDCKC@struct_H3iKTmzQIZmmrWuxBo9E9D?$AA@ 1008953c     Control_software_v1_1_capi.obj
 0002:0000d560       ??_C@_0BA@IANMKEDN@TakeoffTravel_V?$AA@ 10089560     Control_software_v1_1_capi.obj
 0002:0000d574       ??_C@_0BB@MBLDEHIO@SlideTravelMax_V?$AA@ 10089574     Control_software_v1_1_capi.obj
 0002:0000d588       ??_C@_0BD@CKGMJHJI@SlideTravelMax_rad?$AA@ 10089588     Control_software_v1_1_capi.obj
 0002:0000d5a0       ??_C@_08CFCNJIHL@JogSpeed?$AA@ 100895a0     Control_software_v1_1_capi.obj
 0002:0000d5ac       ??_C@_0N@BAADMEP@TakeOffSpeed?$AA@ 100895ac     Control_software_v1_1_capi.obj
 0002:0000d5bc       ??_C@_06HPPEFFHJ@ErrTol?$AA@ 100895bc     Control_software_v1_1_capi.obj
 0002:0000d5c4       ??_C@_08EOCBDHDJ@WaitTime?$AA@ 100895c4     Control_software_v1_1_capi.obj
 0002:0000d5d0       ??_C@_0BC@PLGECMAH@LandingLength_rad?$AA@ 100895d0     Control_software_v1_1_capi.obj
 0002:0000d5e8       ??_C@_0BA@BLACJHOK@WinchSpdRefGain?$AA@ 100895e8     Control_software_v1_1_capi.obj
 0002:0000d5fc       ??_C@_0P@GANECGML@WinchTravelMax?$AA@ 100895fc     Control_software_v1_1_capi.obj
 0002:0000d610       ??_C@_0P@HCFPMCKE@WinchTravelMin?$AA@ 10089610     Control_software_v1_1_capi.obj
 0002:0000d624       ??_C@_0BC@ECPENPHJ@WinchSpdMaxFlight?$AA@ 10089624     Control_software_v1_1_capi.obj
 0002:0000d63c       ??_C@_0BC@EDPIEFMN@WinchSpdMinFlight?$AA@ 1008963c     Control_software_v1_1_capi.obj
 0002:0000d654       ??_C@_0BG@FGNDJAIF@WinchSpeedTakeOffMult?$AA@ 10089654     Control_software_v1_1_capi.obj
 0002:0000d670       ??_C@_0BD@JILGIE@WinchSpdMaxLanding?$AA@ 10089670     Control_software_v1_1_capi.obj
 0002:0000d688       ??_C@_0BD@MMJFMNIL@WinchSpdMinLanding?$AA@ 10089688     Control_software_v1_1_capi.obj
 0002:0000d6a0       ??_C@_0M@PMLOONGN@WinchSpdMax?$AA@ 100896a0     Control_software_v1_1_capi.obj
 0002:0000d6b0       ??_C@_0M@OODFAJAC@WinchSpdMin?$AA@ 100896b0     Control_software_v1_1_capi.obj
 0002:0000d6c0       ??_C@_0BE@EPJIBAEO@PotPosKeepMinFlight?$AA@ 100896c0     Control_software_v1_1_capi.obj
 0002:0000d6d8       ??_C@_0BE@EOJEIKPK@PotPosKeepMaxFlight?$AA@ 100896d8     Control_software_v1_1_capi.obj
 0002:0000d6f0       ??_C@_0BF@LICIHPEE@PotPosKeepMinLanding?$AA@ 100896f0     Control_software_v1_1_capi.obj
 0002:0000d70c       ??_C@_0BF@HECFAEEL@PotPosKeepMaxLanding?$AA@ 1008970c     Control_software_v1_1_capi.obj
 0002:0000d728       ??_C@_0BA@LJGMNFBM@PotPivot2Flight?$AA@ 10089728     Control_software_v1_1_capi.obj
 0002:0000d73c       ??_C@_0BA@PLEJNCGB@PotPivot0Flight?$AA@ 1008973c     Control_software_v1_1_capi.obj
 0002:0000d750       ??_C@_0BB@DNLLLLFJ@PotPivot2Landing?$AA@ 10089750     Control_software_v1_1_capi.obj
 0002:0000d764       ??_C@_0BB@BDENJDNP@PotPivot0Landing?$AA@ 10089764     Control_software_v1_1_capi.obj
 0002:0000d778       ??_C@_0BG@OCJPDOMH@WinchSpdNormFlightOut?$AA@ 10089778     Control_software_v1_1_capi.obj
 0002:0000d794       ??_C@_0BG@CGAJGHKF@WinchSpdNormLandingIn?$AA@ 10089794     Control_software_v1_1_capi.obj
 0002:0000d7b0       ??_C@_0BH@NINBPBLP@WinchSpdNormLandingOut?$AA@ 100897b0     Control_software_v1_1_capi.obj
 0002:0000d7cc       ??_C@_0BM@JJLCIIAA@WinchSpeedSlopeReelInFlight?$AA@ 100897cc     Control_software_v1_1_capi.obj
 0002:0000d7f0       ??_C@_0BN@GGMGPFND@WinchSpeedSlopeReelOutFlight?$AA@ 100897f0     Control_software_v1_1_capi.obj
 0002:0000d814       ??_C@_0BN@CJJKDJEL@WinchSpeedSlopeReelInLanding?$AA@ 10089814     Control_software_v1_1_capi.obj
 0002:0000d838       ??_C@_0BO@DGLPMOFI@WinchSpeedSlopeReelOutLanding?$AA@ 10089838     Control_software_v1_1_capi.obj
 0002:0000d85c       ??_C@_0N@FFIGBLEK@PotPosSpdMin?$AA@ 1008985c     Control_software_v1_1_capi.obj
 0002:0000d86c       ??_C@_09GFMBCHAG@DerivGain?$AA@ 1008986c     Control_software_v1_1_capi.obj
 0002:0000d878       ??_C@_0BB@IDCEDKLJ@TakeOffLatchTime?$AA@ 10089878     Control_software_v1_1_capi.obj
 0002:0000d88c       ??_C@_0P@KKGJNCMP@ReelTimer_wait?$AA@ 1008988c     Control_software_v1_1_capi.obj
 0002:0000d8a0       ??_C@_0BH@OECJOAAN@WinchSpdMinFlight_wait?$AA@ 100898a0     Control_software_v1_1_capi.obj
 0002:0000d8bc       ??_C@_0CB@HHFBNPDP@WinchSpeedSlopeReelInFlight_wait@ 100898bc     Control_software_v1_1_capi.obj
 0002:0000d8e4       ??_C@_05IJJPPKNO@Slide?$AA@ 100898e4     Control_software_v1_1_capi.obj
 0002:0000d8ec       ??_C@_05PHNIGHMJ@Winch?$AA@ 100898ec     Control_software_v1_1_capi.obj
 0002:0000d8f4       ??_C@_05KNFBNCOH@float?$AA@ 100898f4     Control_software_v1_1_capi.obj
 0002:0000d8fc       _serialfifoground          100898fc     xpc_datatype_ground.obj
 0002:0000d908       _bcmsg1553ground           10089908     xpc_datatype_ground.obj
 0002:0000d918       _bcstatground              10089918     xpc_datatype_ground.obj
 0002:0000d930       _bmmsg1553ground           10089930     xpc_datatype_ground.obj
 0002:0000d96c       ??_C@_0BI@INNPNFJN@Memory?5Allocation?5Error?$AA@ 1008996c     rtw_modelmap_utils.obj
 0002:0000d988       ??_C@_1HC@IFMGIDHA@?$AAC?$AA?3?$AA?2?$AAP?$AAR?$AAO?$AAG?$AAR?$AAA?$AA?$HO?$AA1?$AA?2?$AAM?$AAA?$AAT?$AAL?$AAA?$AAB?$AA?2?$AAR?$AA2?$AA0?$AA1?$AA7?$AAa?$AA?2?$AAr?$AAt?$AAw?$AA?2?$AAc?$AA?2@ 10089988     rtw_modelmap_utils.obj
 0002:0000da10       ??_C@_1CI@OEAJCJND@?$AAj?$AA?5?$AA?$DN?$AA?$DN?$AA?5?$AAe?$AAn?$AAc?$AAo?$AAd?$AAe?$AAd?$AAP?$AAa?$AAt?$AAh?$AAL?$AAe?$AAn?$AA?$AA@ 10089a10     rtw_modelmap_utils.obj
 0002:0000da40       ??_C@_1DC@NFAOIFKB@?$AAe?$AAn?$AAc?$AAo?$AAd?$AAe?$AAd?$AAP?$AAa?$AAt?$AAh?$AA?$FL?$AAj?$AA?9?$AA1?$AA?$FN?$AA?5?$AA?$DN?$AA?$DN?$AA?5?$AA?8?$AA?2?$AA0?$AA?8?$AA?$AA@ 10089a40     rtw_modelmap_utils.obj
 0002:0000da7c       ??_C@_1DI@FLNJGPEE@?$AAs?$AAi?$AAg?$AAC?$AAo?$AAm?$AAp?$AAl?$AAe?$AAx?$AAi?$AAt?$AAy?$AA?$FL?$AA?$CK?$AAs?$AAi?$AAg?$AAI?$AAd?$AAx?$AA?$FN?$AA?5?$AA?$CB?$AA?$DN?$AA?5?$AA1?$AA?$AA@ 10089a7c     rtw_modelmap_utils.obj
 0002:0000dac0       ??_C@_1KI@OFELMGBG@?$AA?$CI?$AA?$CI?$AA?$CI?$AAd?$AAa?$AAt?$AAa?$AAT?$AAy?$AAp?$AAe?$AAM?$AAa?$AAp?$AA?$CJ?$AA?$FL?$AA?$CI?$AA?$CI?$AA?$CI?$AAs?$AAt?$AAa?$AAt?$AAe?$AAs?$AA?$CJ?$AA?$FL?$AA?$CI?$AAi?$AA?$CJ?$AA?$FN?$AA?4@ 10089ac0     rtw_modelmap_utils.obj
 0002:0000db8c       ??_C@_1DA@ILCMPHNE@?$AAf?$AAu?$AAl?$AAl?$AAP?$AAa?$AAt?$AAh?$AA?5?$AA?$CB?$AA?$DN?$AA?5?$AA?$CI?$AA?$CI?$AAv?$AAo?$AAi?$AAd?$AA?5?$AA?$CK?$AA?$CJ?$AA0?$AA?$CJ?$AA?$AA@ 10089b8c     rtw_modelmap_utils.obj
 0002:0000dbc8       ??_C@_1CI@OEPPFCCA@?$AAp?$AAa?$AAt?$AAh?$AA?5?$AA?$CB?$AA?$DN?$AA?5?$AA?$CI?$AA?$CI?$AAv?$AAo?$AAi?$AAd?$AA?5?$AA?$CK?$AA?$CJ?$AA0?$AA?$CJ?$AA?$AA@ 10089bc8     rtw_modelmap_utils.obj
 0002:0000dbf8       ??_C@_1FK@GLJIMFHB@?$AA?$CI?$AA?$CI?$AAm?$AAm?$AAi?$AA?$CJ?$AA?9?$AA?$DO?$AAI?$AAn?$AAs?$AAt?$AAa?$AAn?$AAc?$AAe?$AAM?$AAa?$AAp?$AA?4?$AAf?$AAu?$AAl?$AAl?$AAP?$AAa?$AAt?$AAh?$AA?$CJ?$AA?5?$AA?$DN?$AA?$DN@ 10089bf8     rtw_modelmap_utils.obj
 0002:0000dc64       ??_C@_1DG@HPCJGNCE@?$AAm?$AAm?$AAi?$AAP?$AAa?$AAt?$AAh?$AA?$FL?$AAp?$AAa?$AAt?$AAh?$AAL?$AAe?$AAn?$AA?9?$AA1?$AA?$FN?$AA?5?$AA?$DN?$AA?$DN?$AA?5?$AA?8?$AA?2?$AA0?$AA?8?$AA?$AA@ 10089c64     rtw_modelmap_utils.obj
 0002:0000dca4       ??_C@_1DM@DBAOGGOO@?$AAm?$AAm?$AAi?$AAP?$AAa?$AAt?$AAh?$AA?$FL?$AAm?$AAm?$AAi?$AAP?$AAa?$AAt?$AAh?$AAL?$AAe?$AAn?$AA?9?$AA1?$AA?$FN?$AA?5?$AA?$DN?$AA?$DN?$AA?5?$AA?8?$AA?2?$AA0?$AA?8?$AA?$AA@ 10089ca4     rtw_modelmap_utils.obj
 0002:0000dcec       ??_C@_1DC@LHIAKAFE@?$AAb?$AAl?$AAo?$AAc?$AAk?$AAP?$AAa?$AAt?$AAh?$AA?5?$AA?$CB?$AA?$DN?$AA?5?$AA?$CI?$AA?$CI?$AAv?$AAo?$AAi?$AAd?$AA?5?$AA?$CK?$AA?$CJ?$AA0?$AA?$CJ?$AA?$AA@ 10089cec     rtw_modelmap_utils.obj
 0002:0000dd28       ??_C@_1GI@KIEJKPGC@?$AAf?$AAu?$AAl?$AAl?$AAS?$AAt?$AAa?$AAt?$AAe?$AAB?$AAl?$AAo?$AAc?$AAk?$AAP?$AAa?$AAt?$AAh?$AA?$FL?$AAf?$AAu?$AAl?$AAl?$AAS?$AAt?$AAa?$AAt?$AAe?$AAB?$AAl?$AAo?$AAc@ 10089d28     rtw_modelmap_utils.obj
 0002:0000dda8       ??_C@_1EE@DNPIBJHC@?$AA?$CI?$AA?$CI?$AAd?$AAi?$AAm?$AAM?$AAa?$AAp?$AA?$CJ?$AA?$FL?$AA?$CI?$AAm?$AAa?$AAp?$AAI?$AAd?$AAx?$AA?$CJ?$AA?$FN?$AA?4?$AAn?$AAu?$AAm?$AAD?$AAi?$AAm?$AAs?$AA?$CJ?$AA?5?$AA?$DN?$AA?$DN?$AA?5@ 10089da8     rtw_modelmap_utils.obj
 0002:0000ddfc       ??_C@_06JFOKFOED@CSTATE?$AA@ 10089dfc     rtw_modelmap_utils.obj
 0002:0000de04       ??_C@_06FAENGAMN@DSTATE?$AA@ 10089e04     rtw_modelmap_utils.obj
 0002:0000de0c       ??_C@_1BI@LEBJNOGG@?$AAc?$AAs?$AAv?$AAI?$AAd?$AAx?$AA?5?$AA?$DO?$AA?$DN?$AA?5?$AA0?$AA?$AA@ 10089e0c     rtw_modelmap_utils.obj
 0002:0000de28       ??_C@_1BA@KDMGHCHP@?$AAT?$AAI?$AAD?$AA?$DN?$AA?$DN?$AA?9?$AA1?$AA?$AA@ 10089e28     rtw_modelmap_utils.obj
 0002:0000de3c       ??_C@_1DM@DHGKBPCE@?$AAs?$AAi?$AAg?$AAP?$AAa?$AAt?$AAh?$AA?$FL?$AAs?$AAi?$AAg?$AAP?$AAa?$AAt?$AAh?$AAL?$AAe?$AAn?$AA?9?$AA1?$AA?$FN?$AA?5?$AA?$DN?$AA?$DN?$AA?5?$AA?8?$AA?2?$AA0?$AA?8?$AA?$AA@ 10089e3c     rtw_modelmap_utils.obj
 0002:0000e6e8       ??_C@_0DJ@FHKINPLE@Unexpected?5itemKind?5?$DN?5DATA_ITEM?5@ 1008a6e8     rt_logging.obj
 0002:0000e72c       ??_C@_0DA@IEHFPFCJ@Unexpected?5itemKind?$DN?$CFd?5in?5rt_Pro@ 1008a72c     rt_logging.obj
 0002:0000e768       ??_C@_0DA@IFLHJPBO@Unexpected?5itemKind?$DN?$CFd?5in?5rt_Pro@ 1008a768     rt_logging.obj
 0002:0000e7a4       ??_C@_0DA@IAPIIJJL@Unexpected?5itemKind?$DN?$CFd?5in?5rt_Pro@ 1008a7a4     rt_logging.obj
 0002:0000e7e0       ??_C@_0BE@LCIGPJIG@MATLAB?55?40?5MAT?9file?$AA@ 1008a7e0     rt_logging.obj
 0002:0000e7f8       ??_C@_0FB@PCJEAJIB@?$CK?$CK?$CK?5Log?5variable?5?$CFs?5has?5wrapped?5@ 1008a7f8     rt_logging.obj
 0002:0000e860       ??_C@_0MG@NKMLMOGF@?$CK?$CK?$CK?5To?5avoid?5wrapping?0?5explicitl@ 1008a860     rt_logging.obj
 0002:0000e950       ??_C@_0N@IPAEOLLP@_rtw_tmw?4tmw?$AA@ 1008a950     rt_logging.obj
 0002:0000e960       ??_C@_04HDOCAJNK@?$CFs?$CFs?$AA@ 1008a960     rt_logging.obj
 0002:0000e968       ??_C@_03ELIABIOC@w?$CLb?$AA@ 1008a968     rt_logging.obj
 0002:0000e96c       ??_C@_0BF@JPILDDFA@?$CK?$CK?$CK?5Error?5opening?5?$CFs?$AA@ 1008a96c     rt_logging.obj
 0002:0000e988       ??_C@_0BK@EEMDELA@unable?5to?5open?5data?5file?6?$AA@ 1008a988     rt_logging.obj
 0002:0000e9a8       ??_C@_04CGFJFPFD@none?$AA@ 1008a9a8     rt_logging.obj
 0002:0000e9b0       ??_C@_0EE@LCGFPNON@?$CK?$CK?$CK?5Error?5creating?5signals?5struc@ 1008a9b0     rt_logging.obj
 0002:0000ea04       ??_C@_0CE@NHECEDMK@?$CK?$CK?$CK?5Error?5creating?5log?5variable?5@ 1008aa04     rt_logging.obj
 0002:0000ea30       ??_C@_0DB@IOCGKAGH@?$CK?$CK?$CK?5Errors?5occurred?5when?5startin@ 1008aa30     rt_logging.obj
 0002:0000ea6c       ??_C@_0BO@BBLOGEBK@?$CK?$CK?$CK?5Memory?5allocation?5error?4?6?$AA@ 1008aa6c     rt_logging.obj
 0002:0000ea90       ??_C@_0N@LGFBAGEL@?5?$CIreal?5part?$CJ?$AA@ 1008aa90     rt_logging.obj
 0002:0000eaa0       ??_C@_0KH@CGNMHNFE@?5?5?5?5varName?5?5?5?5?5?5?5?5?5?5?$DN?5?$CFs?$CFs?6?5?5?5?5@ 1008aaa0     rt_logging.obj
 0002:0000eb68       ??_C@_0LE@OALKKEFM@?5?5?5?5varName?5?5?5?5?5?5?5?5?5?5?$DN?5?$CFs?5?$CIcompl@ 1008ab68     rt_logging.obj
 0002:0000ec40       ??_C@_0KF@JDDLEOKO@?5?5?5?5varName?5?5?5?5?5?5?5?5?5?5?$DN?5?$CFs?6?5?5?5?5nR@ 1008ac40     rt_logging.obj
 0002:0000ed08       ??_C@_0DP@HPDMIOFM@?$CK?$CK?$CK?5Using?5a?5default?5buffer?5of?5si@ 1008ad08     rt_logging.obj
 0002:0000ed58       ??_C@_0KE@JEFOLKNF@?6?$CK?$CK?$CK?5Memory?5required?5to?5log?5vari@ 1008ad58     rt_logging.obj
 0002:0000ee20       ??_C@_0JP@DKLMHCBI@?$CK?$CK?$CK?5Details?3?6?5?5?5?5?5?5?5varName?5?5?5?5?5@ 1008ae20     rt_logging.obj
 0002:0000eee0       ??_C@_0CM@CAMILBED@?$CK?$CK?$CK?5Error?5allocating?5memory?5for?5@ 1008aee0     rt_logging.obj
 0002:0000ef14       ??_C@_0DF@BBCNMOPM@?$CK?$CK?$CK?5Error?5allocating?5memory?5for?5@ 1008af14     rt_logging.obj
 0002:0000ef58       ??_C@_0JP@DBCLPCCI@?$CK?$CK?$CK?5Details?3?6?5?5?5?5?5?5?5varName?5?5?5?5?5@ 1008af58     rt_logging.obj
 0002:0000f018       ??_C@_0FK@DPGAOBGA@?$CK?$CK?$CK?5Error?5allocating?5memory?5for?5@ 1008b018     rt_logging.obj
 0002:0000f084       ??_C@_0BI@GGDNPHLJ@?$CK?$CK?$CK?5Error?5writing?5to?5?$CFs?$AA@ 1008b084     rt_logging.obj
 0002:0000f0a0       ??_C@_0CB@IBGJGELG@?$CK?$CK?$CK?5Error?5writing?5?$CFs?5due?5to?3?5?$CFs?6@ 1008b0a0     rt_logging.obj
 0002:0000f0c8       ??_C@_0CN@FLMCHCPB@?$CK?$CK?$CK?5Error?5writing?5log?5variable?5?$CF@ 1008b0c8     rt_logging.obj
 0002:0000f100       ??_C@_0DH@GAJCNOJP@?$CK?$CK?$CK?5Error?5writing?5structure?5log?5@ 1008b100     rt_logging.obj
 0002:0000f144       ??_C@_0BD@POEALECL@?$CK?$CK?5created?5?$CFs?5?$CK?$CK?6?6?$AA@ 1008b144     rt_logging.obj
 0002:0000f160       __real@41dfffffffc00000    1008b160     rt_logging.obj
 0002:0000f170       __real@41efffffffe00000    1008b170     rt_logging.obj
 0002:0000f180       __real@bfbf9add3afd2773    1008b180     rt_logging.obj
 0002:0000f190       __xmm@20202020202020202020202020202020 1008b190     rt_logging.obj
 0002:0000f1a4       _ptsetfilename             1008b1a4     xpctarget.obj
 0002:0000f1a8       _xmlfile                   1008b1a8     xpctarget.obj
 0002:0000f1b0       ??_C@_0BG@CNCAADLC@Control_software_v1_1?$AA@ 1008b1b0     xpctarget.obj
 0002:0000f1cc       ??_C@_0L@CHBJKKFC@xpceSetVar?$AA@ 1008b1cc     xpctarget.obj
 0002:0000f1dc       ??_C@_03LADEHNAB@6?46?$AA@ 1008b1dc     xpctarget.obj
 0002:0000f1e0       _Control_software_v1_1_BIOMAP 1008b1e0     appmappingData.obj
 0002:0000fe80       _Control_software_v1_1_LBLMAP 1008be80     appmappingData.obj
 0002:00010b20       _Control_software_v1_1_SIDMAP 1008cb20     appmappingData.obj
 0002:000117c0       _Control_software_v1_1_SBIO 1008d7c0     appmappingData.obj
 0002:00011bf8       _Control_software_v1_1_SLBL 1008dbf8     appmappingData.obj
 0002:00012030       _Control_software_v1_1_PTIDSMAP 1008e030     appmappingData.obj
 0002:00012d18       _Control_software_v1_1_PTNAMESMAP 1008ed18     appmappingData.obj
 0002:00013a00       _Control_software_v1_1_SPTMAP 1008fa00     appmappingData.obj
 0002:00014078       _Control_software_v1_1_dtmap 10090078     appmappingData.obj
 0002:000140d8       _appInfo                   100900d8     appmappingData.obj
 0002:00015100       ??_C@_0ED@LKHIFFLC@Wrong?5number?5of?5input?5arguments?5@ 10091100     adnipcim.obj
 0002:00015150       ??_C@_0CI@FOFDKLAN@NI?5?$CFs?3?5Can?8t?5allocate?5temporary?5@ 10091150     adnipcim.obj
 0002:00015180       ??_C@_0CK@DCEGNCAL@NI?5M?5series?3?5Channel?5?$CFd?5out?5of?5r@ 10091180     adnipcim.obj
 0002:000151b4       ??_C@_0CF@LKNEFAOG@NI?5M?5series?3?5Timeout?5waiting?5for@ 100911b4     adnipcim.obj
 0002:000151e0       __real@417312d000000000    100911e0     adnipcim.obj
 0002:000151ec       ??_C@_0DB@HFHLNKLE@Channel?5?$CFd?5exceeds?5the?5max?5DA?5ch@ 100911ec     danipcim.obj
 0002:00015228       ??_C@_0CL@GCJHHCMG@Output?5range?5?$CFd?5is?5not?5supported@ 10091228     danipcim.obj
 0002:00015260       ??_C@_0EL@INKCMHEI@Number?5of?5header?5lengths?5is?5not?5@ 10091260     fiforeadhdr.obj
 0002:000152bc       ??_C@_0BL@KDJMFPJE@Malloc?5error?3?5fstr?5?$DN?50x?$CFx?6?$AA@ 100912bc     fiforeadhdr.obj
 0002:000152dc       ??_C@_0CJ@JOABIDGM@String?5is?5too?5large?5for?5output?5v@ 100912dc     fiforeadhdr.obj
 0002:00015310       ??_C@_0BG@IFAFGHNA@Header?5?$CFd?0?5length?5?$CFd?6?$AA@ 10091310     fiforeadhdr.obj
 0002:0001532c       ??_C@_02HAOIJKIC@?$CFc?$AA@ 1009132c     fiforeadhdr.obj
 0002:00015330       ??_C@_0BP@DPILOFE@Can?8t?5allocate?5memory?5for?5fifo?$AA@ 10091330     fifowrite.obj
 0002:00015358       ??_C@_0BC@LNAFOLHA@FIFO?5overflow?3?5?$CFs?$AA@ 10091358     fifowrite.obj
 0002:00015370       ??_C@_0DM@NHDMCGKF@Input?5port?5width?5is?5less?5than?5th@ 10091370     fifowrite.obj
 0002:000153b8       ??_C@_0CF@PLHDIPPP@Port?5number?5exceeds?5input?5port?5c@ 100913b8     filterqua.obj
 0002:000153e4       ??_C@_0CD@JOLOIMLC@Iqueryqua?3?5Unknown?5board?5type?3?5?$CF@ 100913e4     iqueryqua.obj
 0002:00015410       ??_C@_0BN@JIEFLHEB@?$CFs?3?5Too?5many?5M?5series?5boards?$AA@ 10091410     pfidonipcim.obj
 0002:00015434       ??_C@_0DC@CECGIJCE@Attempted?5write?5to?5hardware?5fifo@ 10091434     serwritequa.obj
 0002:00015470       ??_C@_0CN@GIADDCOF@Quatech?5modemcontrol?3?5Unknown?5bo@ 10091470     setupqua.obj
 0002:000154a8       ??_C@_0M@IMCLKBPP@NI?5PCI?96220?$AA@ 100914a8     xpcionim.obj
 0002:000154b8       ??_C@_0M@JFDAJALO@NI?5PCI?96221?$AA@ 100914b8     xpcionim.obj
 0002:000154c8       ??_C@_0P@NGCDCNKM@NI?5PCI?96221?137?$AA@ 100914c8     xpcionim.obj
 0002:000154dc       ??_C@_0M@OIEHGEPL@NI?5PCI?96224?$AA@ 100914dc     xpcionim.obj
 0002:000154ec       ??_C@_0M@PBFMFFLK@NI?5PCI?96225?$AA@ 100914ec     xpcionim.obj
 0002:000154fc       ??_C@_0M@FNOJBKLG@NI?5PCI?96229?$AA@ 100914fc     xpcionim.obj
 0002:0001550c       ??_C@_0M@INOJMLMI@NI?5PCI?96230?$AA@ 1009150c     xpcionim.obj
 0002:0001551c       ??_C@_0M@LPNPKJEK@NI?5PCI?96232?$AA@ 1009151c     xpcionim.obj
 0002:0001552c       ??_C@_0M@KGMEJIAL@NI?5PCI?96233?$AA@ 1009152c     xpcionim.obj
 0002:0001553c       ??_C@_0M@NLLDGMEO@NI?5PCI?96236?$AA@ 1009153c     xpcionim.obj
 0002:0001554c       ??_C@_0M@EFDAEBMA@NI?5PCI?96238?$AA@ 1009154c     xpcionim.obj
 0002:0001555c       ??_C@_0M@FMCLHAIB@NI?5PCI?96239?$AA@ 1009155c     xpcionim.obj
 0002:0001556c       ??_C@_0M@IJGELHHK@NI?5PCI?96250?$AA@ 1009156c     xpcionim.obj
 0002:0001557c       ??_C@_0M@JAHPIGDL@NI?5PCI?96251?$AA@ 1009157c     xpcionim.obj
 0002:0001558c       ??_C@_0M@ONAIHCHO@NI?5PCI?96254?$AA@ 1009158c     xpcionim.obj
 0002:0001559c       ??_C@_0M@PEBDEDDP@NI?5PCI?96255?$AA@ 1009159c     xpcionim.obj
 0002:000155ac       ??_C@_0M@FIKGAMDD@NI?5PCI?96259?$AA@ 100915ac     xpcionim.obj
 0002:000155bc       ??_C@_0M@IBLMCECJ@NI?5PCI?96280?$AA@ 100915bc     xpcionim.obj
 0002:000155cc       ??_C@_0M@JIKHBFGI@NI?5PCI?96281?$AA@ 100915cc     xpcionim.obj
 0002:000155dc       ??_C@_0M@OFNAOBCN@NI?5PCI?96284?$AA@ 100915dc     xpcionim.obj
 0002:000155ec       ??_C@_0M@FAHOJPGA@NI?5PCI?96289?$AA@ 100915ec     xpcionim.obj
 0002:000155fc       ??_C@_0CI@NFFNBHJA@?$CFs?5?$CIbus?5?$CFd?0?5slot?5?$CFd?$CJ?3?5board?5not?5@ 100915fc     xpcionim.obj
 0002:0001562c       ??_C@_0CD@MBDNCLAI@NI?5M?5series?3?5Unknown?5board?5type?5@ 1009162c     xpcionim.obj
 0002:00015658       ??_C@_0BA@JKKBADJB@Quatech?5QSC?9100?$AA@ 10091658     quatechinit.obj
 0002:0001566c       ??_C@_0BA@GCFADMEA@Quatech?5ESC?9100?$AA@ 1009166c     quatechinit.obj
 0002:00015680       ??_C@_0BE@HENBPEHA@Quatech?5QSC?9200?1300?$AA@ 10091680     quatechinit.obj
 0002:00015698       ??_C@_0BF@FBNBGCCE@Quatech?5DSCP?9200?1300?$AA@ 10091698     quatechinit.obj
 0002:000156b4       ??_C@_0CH@MBGHNPGI@?$CFs?5?$CIbus?5?$CFd?0slot?5?$CFd?$CJ?3?5board?5not?5p@ 100916b4     quatechinit.obj
 0002:000156e4       ??_C@_0CC@DMFKNLL@VendorId?5?$DN?50x?$CFx?0?5DeviceId?5?$DN?50x?$CFx@ 100916e4     xpcruntime:xpcimports.obj
 0002:0001570c       ??_C@_0DH@OHCBLNMG@Subsystem?5Device?5ID?5?$DN?50x?$CFx?6Subsy@ 1009170c     xpcruntime:xpcimports.obj
 0002:00015750       ??_C@_0BD@MMMMEFCM@Class?5Code?5?$DN?50x?$CFx?6?$AA@ 10091750     xpcruntime:xpcimports.obj
 0002:00015768       ??_C@_0BE@OLDDDNHM@InterruptLine?5?$DN?5?$CFd?6?$AA@ 10091768     xpcruntime:xpcimports.obj
 0002:00015780       ??_C@_0BF@OLKLEKBD@bus?5?$DN?5?$CFd?0?5slot?5?$DN?5?$CFd?6?$AA@ 10091780     xpcruntime:xpcimports.obj
 0002:0001579c       ??_C@_0CE@DGLLGDFH@?5?5?5?5Phys?5?5?5Virtual?5?5?5Length?5IO?1M@ 1009179c     xpcruntime:xpcimports.obj
 0002:000157c8       ??_C@_0BI@FEOPLEMG@?$CF08x?5?$CF08x?5?$CF08x?5?5?5?5?5?5?$CFc?6?$AA@ 100917c8     xpcruntime:xpcimports.obj
 0002:000157e4       ??_C@_0BB@BNNCEDPC@rl32eScopeExists?$AA@ 100917e4     xpcruntime:xpcimports.obj
 0002:000157f8       ??_C@_0BM@FJBFEGFG@rl32eScopeExists?5not?5found?6?$AA@ 100917f8     xpcruntime:xpcimports.obj
 0002:0001581c       ??_C@_0O@BNNGKJEA@rl32eDefScope?$AA@ 1009181c     xpcruntime:xpcimports.obj
 0002:0001582c       ??_C@_0BJ@CDNOENKA@rl32eDefScope?5not?5found?6?$AA@ 1009182c     xpcruntime:xpcimports.obj
 0002:0001584c       ??_C@_0P@CKNKILDP@rl32eAddSignal?$AA@ 1009184c     xpcruntime:xpcimports.obj
 0002:00015860       ??_C@_0BK@GMJAJBAI@rl32eAddSignal?5not?5found?6?$AA@ 10091860     xpcruntime:xpcimports.obj
 0002:00015880       ??_C@_0BB@LDMIHGCE@rl32eGetSignalNo?$AA@ 10091880     xpcruntime:xpcimports.obj
 0002:00015894       ??_C@_0BM@LGAMBAID@rl32eGetSignalNo?5not?5found?6?$AA@ 10091894     xpcruntime:xpcimports.obj
 0002:000158b8       ??_C@_0O@CFDGALBP@rl32eSetScope?$AA@ 100918b8     xpcruntime:xpcimports.obj
 0002:000158c8       ??_C@_0BJ@JCLHHIN@rl32eSetScope?5not?5found?6?$AA@ 100918c8     xpcruntime:xpcimports.obj
 0002:000158e8       ??_C@_0P@IKMCBMHH@xpceFSScopeSet?$AA@ 100918e8     xpcruntime:xpcimports.obj
 0002:000158fc       ??_C@_0BK@JODJPNNH@xpceFSScopeSet?5not?5found?6?$AA@ 100918fc     xpcruntime:xpcimports.obj
 0002:0001591c       ??_C@_0BE@DLACEEJM@rl32eSetTargetScope?$AA@ 1009191c     xpcruntime:xpcimports.obj
 0002:00015934       ??_C@_0BP@JCHFMKPJ@rl32eSetTargetScope?5not?5found?6?$AA@ 10091934     xpcruntime:xpcimports.obj
 0002:0001595c       ??_C@_0BJ@LIDLNDHC@rl32eSetTargetScopeSigFt?$AA@ 1009195c     xpcruntime:xpcimports.obj
 0002:0001597c       ??_C@_0CE@JLGHCFHI@rl32eSetTargetScopeSigFt?5not?5fou@ 1009197c     xpcruntime:xpcimports.obj
 0002:000159a8       ??_C@_0BI@JAPOIDNG@rl32eRestartAcquisition?$AA@ 100919a8     xpcruntime:xpcimports.obj
 0002:000159c4       ??_C@_0CD@LLBEFFBO@rl32eRestartAcquisition?5not?5foun@ 100919c4     xpcruntime:xpcimports.obj
 0002:000159f0       ??_C@_0P@IEIIADJB@xpceScopeAcqOK?$AA@ 100919f0     xpcruntime:xpcimports.obj
 0002:00015a04       ??_C@_0BK@NJCKNFPN@xpceScopeAcqOK?5not?5found?6?$AA@ 10091a04     xpcruntime:xpcimports.obj
 0002:00015a24       ??_C@_0BA@IJINKAHF@xpceRegisterISR?$AA@ 10091a24     xpcruntime:xpcimports.obj
 0002:00015a38       ??_C@_0BL@NNDLOEJE@xpceRegisterISR?5not?5found?6?$AA@ 10091a38     xpcruntime:xpcimports.obj
 0002:00015a58       ??_C@_0BC@NLBADGKF@xpceDeRegisterISR?$AA@ 10091a58     xpcruntime:xpcimports.obj
 0002:00015a70       ??_C@_0BN@DCAIKFFD@xpceDeRegisterISR?5not?5found?6?$AA@ 10091a70     xpcruntime:xpcimports.obj
 0002:00015a94       ??_C@_07JPMEPILD@xpcInpB?$AA@ 10091a94     xpcruntime:xpcimports.obj
 0002:00015aa0       ??_C@_0BD@PGABEJOL@xpcInpB?5not?5found?6?$AA@ 10091aa0     xpcruntime:xpcimports.obj
 0002:00015ab8       ??_C@_07KIHBBOKH@xpcInpW?$AA@ 10091ab8     xpcruntime:xpcimports.obj
 0002:00015ac4       ??_C@_0BD@FPCJFMCC@xpcInpW?5not?5found?6?$AA@ 10091ac4     xpcruntime:xpcimports.obj
 0002:00015adc       ??_C@_08KDIAJBOP@xpcInpDW?$AA@ 10091adc     xpcruntime:xpcimports.obj
 0002:00015ae8       ??_C@_0BE@PIELDNIL@xpcInpDW?5not?5found?6?$AA@ 10091ae8     xpcruntime:xpcimports.obj
 0002:00015b00       ??_C@_08PJFMOIGO@xpcOutpB?$AA@ 10091b00     xpcruntime:xpcimports.obj
 0002:00015b0c       ??_C@_0BE@HCKNCEKF@xpcOutpB?5not?5found?6?$AA@ 10091b0c     xpcruntime:xpcimports.obj
 0002:00015b24       ??_C@_08MOOJAOHK@xpcOutpW?$AA@ 10091b24     xpcruntime:xpcimports.obj
 0002:00015b30       ??_C@_0BE@NLIFDBGM@xpcOutpW?5not?5found?6?$AA@ 10091b30     xpcruntime:xpcimports.obj
 0002:00015b48       ??_C@_09FLIEKHJG@xpcOutpDW?$AA@ 10091b48     xpcruntime:xpcimports.obj
 0002:00015b54       ??_C@_0BF@GJKLPNHB@xpcOutpDW?5not?5found?6?$AA@ 10091b54     xpcruntime:xpcimports.obj
 0002:00015b70       ??_C@_0BH@EHOLELHH@xpcReserveMemoryRegion?$AA@ 10091b70     xpcruntime:xpcimports.obj
 0002:00015b8c       ??_C@_0CC@KAAAGPI@xpcReserveMemoryRegion?5not?5found@ 10091b8c     xpcruntime:xpcimports.obj
 0002:00015bb4       ??_C@_0BA@JGPMHGAF@rl32eShowPCIDev?$AA@ 10091bb4     xpcruntime:xpcimports.obj
 0002:00015bc8       ??_C@_0BL@DDFFLNHI@rl32eShowPCIDev?5not?5found?6?$AA@ 10091bc8     xpcruntime:xpcimports.obj
 0002:00015be8       ??_C@_0BB@KBCOJPFB@rl32eShowPCIInfo?$AA@ 10091be8     xpcruntime:xpcimports.obj
 0002:00015bfc       ??_C@_0BM@IFDMAGLO@rl32eShowPCIInfo?5not?5found?6?$AA@ 10091bfc     xpcruntime:xpcimports.obj
 0002:00015c20       ??_C@_0BA@BGPAADB@rl32eGetPCIInfo?$AA@ 10091c20     xpcruntime:xpcimports.obj
 0002:00015c34       ??_C@_0BL@IGOMLDCK@rl32eGetPCIInfo?5not?5found?6?$AA@ 10091c34     xpcruntime:xpcimports.obj
 0002:00015c54       ??_C@_0BG@NJPFKFDP@rl32eGetPCIInfoAtSlot?$AA@ 10091c54     xpcruntime:xpcimports.obj
 0002:00015c70       ??_C@_0CB@BBKIPMLA@rl32eGetPCIInfoAtSlot?5not?5found?6@ 10091c70     xpcruntime:xpcimports.obj
 0002:00015c98       ??_C@_0BH@OKBOPNFG@xpceAssignPCIInterrupt?$AA@ 10091c98     xpcruntime:xpcimports.obj
 0002:00015cb4       ??_C@_0CC@CDNDNJBJ@xpceAssignPCIInterrupt?5not?5found@ 10091cb4     xpcruntime:xpcimports.obj
 0002:00015cdc       ??_C@_0BD@PCKOKHO@xpceGetSignalValue?$AA@ 10091cdc     xpcruntime:xpcimports.obj
 0002:00015cf4       ??_C@_0BO@GCBDJHMB@xpceGetSignalValue?5not?5found?6?$AA@ 10091cf4     xpcruntime:xpcimports.obj
 0002:00015d18       ??_C@_0BB@BJONJAGA@xpceSetParameter?$AA@ 10091d18     xpcruntime:xpcimports.obj
 0002:00015d2c       ??_C@_0BM@BJIKDLHA@xpceSetParameter?5not?5found?6?$AA@ 10091d2c     xpcruntime:xpcimports.obj
 0002:00015d50       ??_C@_0BB@GNFDFMCM@xpceGetParameter?$AA@ 10091d50     xpcruntime:xpcimports.obj
 0002:00015d64       ??_C@_0BM@POHNKBC@xpceGetParameter?5not?5found?6?$AA@ 10091d64     xpcruntime:xpcimports.obj
 0002:00015d88       ??_C@_0BB@CEIJLFCD@xpceGetParamDims?$AA@ 10091d88     xpcruntime:xpcimports.obj
 0002:00015d9c       ??_C@_0BM@OABDBKAO@xpceGetParamDims?5not?5found?6?$AA@ 10091d9c     xpcruntime:xpcimports.obj
 0002:00015dc0       ??_C@_0L@OCBLLHBM@xpceGetTET?$AA@ 10091dc0     xpcruntime:xpcimports.obj
 0002:00015dd0       ??_C@_0BG@HNOFBOB@xpceGetTET?5not?5found?6?$AA@ 10091dd0     xpcruntime:xpcimports.obj
 0002:00015dec       ??_C@_0P@OKGNGAGH@xpcIsModelInit?$AA@ 10091dec     xpcruntime:xpcimports.obj
 0002:00015e00       ??_C@_0BK@DHEMLBIM@xpcIsModelInit?5not?5found?6?$AA@ 10091e00     xpcruntime:xpcimports.obj
 0002:00015e20       ??_C@_0BH@KJJLCAOJ@xpcAllocPhysicalMemory?$AA@ 10091e20     xpcruntime:xpcimports.obj
 0002:00015e3c       ??_C@_0CC@MOJPNHKL@xpcAllocPhysicalMemory?5not?5found@ 10091e3c     xpcruntime:xpcimports.obj
 0002:00015e64       ??_C@_0BG@CBNPGAEL@xpcFreePhysicalMemory?$AA@ 10091e64     xpcruntime:xpcimports.obj
 0002:00015e80       ??_C@_0CB@PKJEBPOG@xpcFreePhysicalMemory?5not?5found?6@ 10091e80     xpcruntime:xpcimports.obj
 0002:00015ea8       ??_C@_0BC@JGKNLICL@xpcGetElapsedTime?$AA@ 10091ea8     xpcruntime:xpcimports.obj
 0002:00015ec0       ??_C@_0BN@OEOAHCIO@xpcGetElapsedTime?5not?5found?6?$AA@ 10091ec0     xpcruntime:xpcimports.obj
 0002:00015ee4       ??_C@_0M@ICBLMODA@xpcBusyWait?$AA@ 10091ee4     xpcruntime:xpcimports.obj
 0002:00015ef4       ??_C@_0BH@FBOPECBI@xpcBusyWait?5not?5found?6?$AA@ 10091ef4     xpcruntime:xpcimports.obj
 0002:00015f10       ??_C@_0N@LKKJEKKA@TBCreateSpin?$AA@ 10091f10     xpcruntime:xpcimports.obj
 0002:00015f20       ??_C@_0BI@FHKMLKOE@TBCreateSpin?5not?5found?6?$AA@ 10091f20     xpcruntime:xpcimports.obj
 0002:00015f3c       ??_C@_0N@HOAJHNBD@TBDeleteSpin?$AA@ 10091f3c     xpcruntime:xpcimports.obj
 0002:00015f4c       ??_C@_0BI@BKCPAAG@TBDeleteSpin?5not?5found?6?$AA@ 10091f4c     xpcruntime:xpcimports.obj
 0002:00015f68       ??_C@_0P@DAHDDBJG@TBTakeSpinFast?$AA@ 10091f68     xpcruntime:xpcimports.obj
 0002:00015f7c       ??_C@_0BK@NKAIBHGB@TBTakeSpinFast?5not?5found?6?$AA@ 10091f7c     xpcruntime:xpcimports.obj
 0002:00015f9c       ??_C@_0P@FKNAAELA@TBGiveSpinFast?$AA@ 10091f9c     xpcruntime:xpcimports.obj
 0002:00015fb0       ??_C@_0BK@KGPJBJND@TBGiveSpinFast?5not?5found?6?$AA@ 10091fb0     xpcruntime:xpcimports.obj
 0002:00015fd0       ??_C@_0BE@IIGBFDHK@xpceCreateSemaphore?$AA@ 10091fd0     xpcruntime:xpcimports.obj
 0002:00015fe8       ??_C@_0BP@KFBAFFKJ@xpceCreateSemaphore?5not?5found?6?$AA@ 10091fe8     xpcruntime:xpcimports.obj
 0002:00016010       ??_C@_0BC@IFNIONKJ@xpceWaitSemaphore?$AA@ 10092010     xpcruntime:xpcimports.obj
 0002:00016028       ??_C@_0BN@NMFAADIO@xpceWaitSemaphore?5not?5found?6?$AA@ 10092028     xpcruntime:xpcimports.obj
 0002:0001604c       ??_C@_0BE@NNDIOBKE@xpceSignalSemaphore?$AA@ 1009204c     xpcruntime:xpcimports.obj
 0002:00016064       ??_C@_0BP@LBANMHJP@xpceSignalSemaphore?5not?5found?6?$AA@ 10092064     xpcruntime:xpcimports.obj
 0002:0001608c       ??_C@_0BE@MEBEKOIM@xpceDeleteSemaphore?$AA@ 1009208c     xpcruntime:xpcimports.obj
 0002:000160a4       ??_C@_0BP@OFNCKOJH@xpceDeleteSemaphore?5not?5found?6?$AA@ 100920a4     xpcruntime:xpcimports.obj
 0002:000160cc       ??_C@_0BD@MFNDMBOF@FindUsbVideoDevice?$AA@ 100920cc     xpcruntime:xpcimports.obj
 0002:000160e4       ??_C@_0BO@POKLDHMI@FindUsbVideoDevice?5not?5found?6?$AA@ 100920e4     xpcruntime:xpcimports.obj
 0002:00016108       ??_C@_0BA@PLPAPNAB@GetVideoConfigs?$AA@ 10092108     xpcruntime:xpcimports.obj
 0002:0001611c       ??_C@_0BL@DALDHKHC@GetVideoConfigs?5not?5found?6?$AA@ 1009211c     xpcruntime:xpcimports.obj
 0002:0001613c       ??_C@_0L@GBAEMHMH@StartVideo?$AA@ 1009213c     xpcruntime:xpcimports.obj
 0002:0001614c       ??_C@_0BG@HDCELEBP@StartVideo?5not?5found?6?$AA@ 1009214c     xpcruntime:xpcimports.obj
 0002:00016168       ??_C@_0BA@FDNPOCLN@ReadFrameBuffer?$AA@ 10092168     xpcruntime:xpcimports.obj
 0002:0001617c       ??_C@_0BL@JHGHPNBI@ReadFrameBuffer?5not?5found?6?$AA@ 1009217c     xpcruntime:xpcimports.obj
 0002:0001619c       ??_C@_09FAHCLKAG@StopVideo?$AA@ 1009219c     xpcruntime:xpcimports.obj
 0002:000161a8       ??_C@_0BF@NKGKKADL@StopVideo?5not?5found?6?$AA@ 100921a8     xpcruntime:xpcimports.obj
 0002:000161c4       ??_C@_0O@MCPKDLLL@ConvertUImage?$AA@ 100921c4     xpcruntime:xpcimports.obj
 0002:000161d4       ??_C@_0BJ@PHJKOAFL@ConvertUImage?5not?5found?6?$AA@ 100921d4     xpcruntime:xpcimports.obj
 0002:000161f4       ??_C@_0BD@NKCBPBJJ@CreateVideoDisplay?$AA@ 100921f4     xpcruntime:xpcimports.obj
 0002:0001620c       ??_C@_0BO@HPPLLNFP@CreateVideoDisplay?5not?5found?6?$AA@ 1009220c     xpcruntime:xpcimports.obj
 0002:00016230       ??_C@_0BE@KJCKGPHA@DestroyVideoDisplay?$AA@ 10092230     xpcruntime:xpcimports.obj
 0002:00016248       ??_C@_0BP@FMGLJAIJ@DestroyVideoDisplay?5not?5found?6?$AA@ 10092248     xpcruntime:xpcimports.obj
 0002:00016270       ??_C@_0BC@HCMIMIDN@StartVideoDisplay?$AA@ 10092270     xpcruntime:xpcimports.obj
 0002:00016288       ??_C@_0BN@EFIEBGOO@StartVideoDisplay?5not?5found?6?$AA@ 10092288     xpcruntime:xpcimports.obj
 0002:000162ac       ??_C@_0BB@JBBLMILG@StopVideoDisplay?$AA@ 100922ac     xpcruntime:xpcimports.obj
 0002:000162c0       ??_C@_0BM@DBJBPLEL@StopVideoDisplay?5not?5found?6?$AA@ 100922c0     xpcruntime:xpcimports.obj
 0002:000162e4       ??_C@_0M@MFJEGMHC@StreamVideo?$AA@ 100922e4     xpcruntime:xpcimports.obj
 0002:000162f4       ??_C@_0BH@OINCDMLA@StreamVideo?5not?5found?6?$AA@ 100922f4     xpcruntime:xpcimports.obj
 0002:00016310       ??_C@_0N@IGGLCIGE@xpceaddEvent?$AA@ 10092310     xpcruntime:xpcimports.obj
 0002:00016320       ??_C@_0BI@NHJNFMKH@xpceaddEvent?5not?5found?6?$AA@ 10092320     xpcruntime:xpcimports.obj
 0002:0001633c       ??_C@_0BB@HDPOIJAB@xpceDAQPostEvent?$AA@ 1009233c     xpcruntime:xpcimports.obj
 0002:00016350       ??_C@_0BM@IHANBKGN@xpceDAQPostEvent?5not?5found?6?$AA@ 10092350     xpcruntime:xpcimports.obj
 0002:00016374       ??_C@_0BH@MBACMOD@xpceDAQUpdateTimeStamp?$AA@ 10092374     xpcruntime:xpcimports.obj
 0002:00016390       ??_C@_0CC@DAKBBINL@xpceDAQUpdateTimeStamp?5not?5found@ 10092390     xpcruntime:xpcimports.obj
 0002:000163b8       ??_C@_0BN@HJOHIFOM@xpceGetIntTimerGranularityNS?$AA@ 100923b8     xpcruntime:xpcimports.obj
 0002:000163dc       ??_C@_0CI@OADDPMKB@xpceGetIntTimerGranularityNS?5not@ 100923dc     xpcruntime:xpcimports.obj
 0002:0001640c       ??_C@_0BG@CCHICKPN@slrteSetStepSizeDelta?$AA@ 1009240c     xpcruntime:xpcimports.obj
 0002:00016428       ??_C@_0CB@MKHINEIJ@slrteSetStepSizeDelta?5not?5found?6@ 10092428     xpcruntime:xpcimports.obj
 0002:00016450       ??_C@_0BI@CLNBLDKJ@slrteGetCurrentStepSize?$AA@ 10092450     xpcruntime:xpcimports.obj
 0002:0001646c       ??_C@_0CD@GIOJPGJA@slrteGetCurrentStepSize?5not?5foun@ 1009246c     xpcruntime:xpcimports.obj
 0002:00016498       ??_C@_0BE@FCLCBOC@registerPTPTimeRead?$AA@ 10092498     xpcruntime:xpcimports.obj
 0002:000164b0       ??_C@_0BP@LHPKAJIP@registerPTPTimeRead?5not?5found?6?$AA@ 100924b0     xpcruntime:xpcimports.obj
 0002:000164d8       ??_C@_0BG@KIGCDDJI@unRegisterPTPTimeRead?$AA@ 100924d8     xpcruntime:xpcimports.obj
 0002:000164f4       ??_C@_0CB@MLFFBFCM@unRegisterPTPTimeRead?5not?5found?6@ 100924f4     xpcruntime:xpcimports.obj
 0002:0001651c       ??_C@_0BB@IPMDDBHK@slTestInitialize?$AA@ 1009251c     xpcruntime:xpcimports.obj
 0002:00016530       ??_C@_0BM@LAJFCCJH@slTestInitialize?5not?5found?6?$AA@ 10092530     xpcruntime:xpcimports.obj
 0002:00016554       ??_C@_0BF@OOMPMEBC@slTestLogAssessments?$AA@ 10092554     xpcruntime:xpcimports.obj
 0002:00016570       ??_C@_0CA@FGJCEBAG@slTestLogAssessments?5not?5found?6?$AA@ 10092570     xpcruntime:xpcimports.obj
 0002:00016598       ??_C@_0BB@HJHKONHO@slTestEvalOnFail?$AA@ 10092598     xpcruntime:xpcimports.obj
 0002:000165ac       ??_C@_0BM@JIKCFFNJ@slTestEvalOnFail?5not?5found?6?$AA@ 100925ac     xpcruntime:xpcimports.obj
 0002:000165d0       ??_C@_0BA@LBHLABFP@slTestTerminate?$AA@ 100925d0     xpcruntime:xpcimports.obj
 0002:000165e4       ??_C@_0BL@EMFGKAPA@slTestTerminate?5not?5found?6?$AA@ 100925e4     xpcruntime:xpcimports.obj
 0002:00016604       ??_C@_0BE@JPNPBBEO@slTestRegAssessment?$AA@ 10092604     xpcruntime:xpcimports.obj
 0002:0001661c       ??_C@_0BP@FBDEJJJH@slTestRegAssessment?5not?5found?6?$AA@ 1009261c     xpcruntime:xpcimports.obj
 0002:00016644       ??_C@_0O@NCLGDNIB@slrteSetupMSI?$AA@ 10092644     xpcruntime:xpcimports.obj
 0002:00016654       ??_C@_0BJ@HEFMECLM@slrteSetupMSI?5not?5found?6?$AA@ 10092654     xpcruntime:xpcimports.obj
 0002:00016674       ??_C@_0BH@BPOLALHD@slrtGetCRBScratchSpace?$AA@ 10092674     xpcruntime:xpcimports.obj
 0002:00016690       ??_C@_0CC@KCKAJKKJ@slrtGetCRBScratchSpace?5not?5found@ 10092690     xpcruntime:xpcimports.obj
 0002:000166b8       ??_C@_0BC@MKFDAKOL@slrtGetSgCRBSpace?$AA@ 100926b8     xpcruntime:xpcimports.obj
 0002:000166d0       ??_C@_0BN@JDPHPLHL@slrtGetSgCRBSpace?5not?5found?6?$AA@ 100926d0     xpcruntime:xpcimports.obj
 0002:000166f4       ??_C@_0P@EPAPKLIF@slrtfsOpenFile?$AA@ 100926f4     xpcruntime:xpcimports.obj
 0002:00016708       ??_C@_0BK@FIHCBOHG@slrtfsOpenFile?5not?5found?6?$AA@ 10092708     xpcruntime:xpcimports.obj
 0002:00016728       ??_C@_0BA@LILAFDDL@slrtfsCloseFile?$AA@ 10092728     xpcruntime:xpcimports.obj
 0002:0001673c       ??_C@_0BL@DEGHJFIB@slrtfsCloseFile?5not?5found?6?$AA@ 1009273c     xpcruntime:xpcimports.obj
 0002:0001675c       ??_C@_0BC@OKMJDIEH@slrtfsWriteToFile?$AA@ 1009275c     xpcruntime:xpcimports.obj
 0002:00016774       ??_C@_0BN@KCFLCLAH@slrtfsWriteToFile?5not?5found?6?$AA@ 10092774     xpcruntime:xpcimports.obj
 0002:00016798       ??_C@_0BK@GIPNFFFF@slrtfsGetFileErrorMessage?$AA@ 10092798     xpcruntime:xpcimports.obj
 0002:000167b8       ??_C@_0CF@BCBLMKLE@slrtfsGetFileErrorMessage?5not?5fo@ 100927b8     xpcruntime:xpcimports.obj
 0002:000167e4       ??_C@_0BD@ICBOKMK@slrtfsGetFileError?$AA@ 100927e4     xpcruntime:xpcimports.obj
 0002:000167fc       ??_C@_0BO@FNBANAE@slrtfsGetFileError?5not?5found?6?$AA@ 100927fc     xpcruntime:xpcimports.obj
 0002:00016820       ??_C@_0BE@PPAJMHJP@slrtfsOpenFileAsync?$AA@ 10092820     xpcruntime:xpcimports.obj
 0002:00016838       ??_C@_0BP@HKBMMJOK@slrtfsOpenFileAsync?5not?5found?6?$AA@ 10092838     xpcruntime:xpcimports.obj
 0002:00016860       ??_C@_0BF@IGNDIBPF@slrtfsCloseFileAsync?$AA@ 10092860     xpcruntime:xpcimports.obj
 0002:0001687c       ??_C@_0CA@GJPFDBKN@slrtfsCloseFileAsync?5not?5found?6?$AA@ 1009287c     xpcruntime:xpcimports.obj
 0002:000168a4       ??_C@_0BE@IOLEBNB@slrtfsGetFileStatus?$AA@ 100928a4     xpcruntime:xpcimports.obj
 0002:000168bc       ??_C@_0BP@PEFHDGHL@slrtfsGetFileStatus?5not?5found?6?$AA@ 100928bc     xpcruntime:xpcimports.obj
 0002:000168e4       ??_C@_0M@HKIJIMG@slrtfsFread?$AA@ 100928e4     xpcruntime:xpcimports.obj
 0002:000168f4       ??_C@_0BH@OOKBGONO@slrtfsFread?5not?5found?6?$AA@ 100928f4     xpcruntime:xpcimports.obj
 0002:00016910       ??_C@_0BE@OGCMPLAP@slrtGetDefaultDrive?$AA@ 10092910     xpcruntime:xpcimports.obj
 0002:00016928       ??_C@_0BP@HKFGLHOE@slrtGetDefaultDrive?5not?5found?6?$AA@ 10092928     xpcruntime:xpcimports.obj
 0002:00016950       ??_C@_0N@NAJIKFFI@slrtLogEvent?$AA@ 10092950     xpcruntime:xpcimports.obj
 0002:00016960       ??_C@_0BI@NKCEACND@slrtLogEvent?5not?5found?6?$AA@ 10092960     xpcruntime:xpcimports.obj
 0002:0001697c       ??_C@_0N@IDKFJOHI@getlasterror?$AA@ 1009297c     xpcruntime:xpcimports.obj
 0002:0001698c       ??_C@_0BI@MIHMCHGL@getlasterror?5not?5found?6?$AA@ 1009298c     xpcruntime:xpcimports.obj
 0002:000169a8       ??_C@_0P@OKHGKJKN@geterrorstring?$AA@ 100929a8     xpcruntime:xpcimports.obj
 0002:000169bc       ??_C@_0BK@NOHFDMLP@geterrorstring?5not?5found?6?$AA@ 100929bc     xpcruntime:xpcimports.obj
 0002:000169dc       ??_C@_0BD@HNFFKMGJ@slrtGetCPUTCelsius?$AA@ 100929dc     xpcruntime:xpcimports.obj
 0002:000169f4       ??_C@_0BO@LHBFKLIH@slrtGetCPUTCelsius?5not?5found?6?$AA@ 100929f4     xpcruntime:xpcimports.obj
 0002:00016a18       ??_C@_0M@OONCNCLM@slrtWarning?$AA@ 10092a18     xpcruntime:xpcimports.obj
 0002:00016a28       ??_C@_0BH@ICKGIEMB@slrtWarning?5not?5found?6?$AA@ 10092a28     xpcruntime:xpcimports.obj
 0002:00016a44       ??_C@_0N@EAAOMIIE@isUsedByRTIP?$AA@ 10092a44     xpcruntime:xpcimports.obj
 0002:00016a54       ??_C@_0BI@GNHHHICK@isUsedByRTIP?5not?5found?6?$AA@ 10092a54     xpcruntime:xpcimports.obj
 0002:00016a70       ??_C@_0BC@HLDKJAG@SetIPTASKPriority?$AA@ 10092a70     xpcruntime:xpcimports.obj
 0002:00016a88       ??_C@_0BN@OGKMHHAE@SetIPTASKPriority?5not?5found?6?$AA@ 10092a88     xpcruntime:xpcimports.obj
 0002:00016aac       ??_C@_0O@LHENMBDD@OpenInterface?$AA@ 10092aac     xpcruntime:xpcimports.obj
 0002:00016abc       ??_C@_0BJ@PFGDBKHB@OpenInterface?5not?5found?6?$AA@ 10092abc     xpcruntime:xpcimports.obj
 0002:00016adc       ??_C@_0P@IINFELKD@CloseInterface?$AA@ 10092adc     xpcruntime:xpcimports.obj
 0002:00016af0       ??_C@_0BK@PAPDNDBK@CloseInterface?5not?5found?6?$AA@ 10092af0     xpcruntime:xpcimports.obj
 0002:00016b10       ??_C@_05LEFIAAOI@SetIP?$AA@ 10092b10     xpcruntime:xpcimports.obj
 0002:00016b18       ??_C@_0BB@CGLIBAMM@SetIP?5not?5found?6?$AA@ 10092b18     xpcruntime:xpcimports.obj
 0002:00016b2c       ??_C@_0BA@HIJJHHMD@AddGatewayRoute?$AA@ 10092b2c     xpcruntime:xpcimports.obj
 0002:00016b40       ??_C@_0BL@BFCFMDMN@AddGatewayRoute?5not?5found?6?$AA@ 10092b40     xpcruntime:xpcimports.obj
 0002:00016b60       ??_C@_0M@PHMABFPI@DeleteRoute?$AA@ 10092b60     xpcruntime:xpcimports.obj
 0002:00016b70       ??_C@_0BH@JPJGLLID@DeleteRoute?5not?5found?6?$AA@ 10092b70     xpcruntime:xpcimports.obj
 0002:00016b8c       ??_C@_0BA@FCDIMKIJ@GetHostTarIPAdd?$AA@ 10092b8c     xpcruntime:xpcimports.obj
 0002:00016ba0       ??_C@_0BL@MBKDGKBO@GetHostTarIPAdd?5not?5found?6?$AA@ 10092ba0     xpcruntime:xpcimports.obj
 0002:00016bc0       ??_C@_0M@HPMIPIBI@GetDCUUsage?$AA@ 10092bc0     xpcruntime:xpcimports.obj
 0002:00016bd0       ??_C@_0BH@EBLJKCJC@GetDCUUsage?5not?5found?6?$AA@ 10092bd0     xpcruntime:xpcimports.obj
 0002:00016bec       ??_C@_06MPKMECK@accept?$AA@ 10092bec     xpcruntime:xpcimports.obj
 0002:00016bf4       ??_C@_0BC@GBGIEMNO@accept?5not?5found?6?$AA@ 10092bf4     xpcruntime:xpcimports.obj
 0002:00016c0c       ??_C@_04NPNJNMMP@bind?$AA@ 10092c0c     xpcruntime:xpcimports.obj
 0002:00016c14       ??_C@_0BA@DAJNENLO@bind?5not?5found?6?$AA@ 10092c14     xpcruntime:xpcimports.obj
 0002:00016c28       ??_C@_0L@CKHNIFCM@setsockopt?$AA@ 10092c28     xpcruntime:xpcimports.obj
 0002:00016c38       ??_C@_0BG@MFIIOMFE@setsockopt?5not?5found?6?$AA@ 10092c38     xpcruntime:xpcimports.obj
 0002:00016c54       ??_C@_0M@ODDJDCDK@closesocket?$AA@ 10092c54     xpcruntime:xpcimports.obj
 0002:00016c64       ??_C@_0BH@JHGHMIL@closesocket?5not?5found?6?$AA@ 10092c64     xpcruntime:xpcimports.obj
 0002:00016c80       ??_C@_07KAIBNCHO@connect?$AA@ 10092c80     xpcruntime:xpcimports.obj
 0002:00016c8c       ??_C@_0BD@MKLLMBM@connect?5not?5found?6?$AA@ 10092c8c     xpcruntime:xpcimports.obj
 0002:00016ca4       ??_C@_0M@PBPOCKDG@ioctlsocket?$AA@ 10092ca4     xpcruntime:xpcimports.obj
 0002:00016cb4       ??_C@_0BH@NFCNHHIH@ioctlsocket?5not?5found?6?$AA@ 10092cb4     xpcruntime:xpcimports.obj
 0002:00016cd0       ??_C@_06OODDLKLE@listen?$AA@ 10092cd0     xpcruntime:xpcimports.obj
 0002:00016cd8       ??_C@_0BC@NHBILEKI@listen?5not?5found?6?$AA@ 10092cd8     xpcruntime:xpcimports.obj
 0002:00016cf0       ??_C@_08HMBBGFHE@recvfrom?$AA@ 10092cf0     xpcruntime:xpcimports.obj
 0002:00016cfc       ??_C@_0BE@BJAJFFLF@recvfrom?5not?5found?6?$AA@ 10092cfc     xpcruntime:xpcimports.obj
 0002:00016d14       ??_C@_06MEPBGKEC@sendto?$AA@ 10092d14     xpcruntime:xpcimports.obj
 0002:00016d1c       ??_C@_0BC@BHPIMDJO@sendto?5not?5found?6?$AA@ 10092d1c     xpcruntime:xpcimports.obj
 0002:00016d34       ??_C@_09JKBDEEOB@inet_addr?$AA@ 10092d34     xpcruntime:xpcimports.obj
 0002:00016d40       ??_C@_0BF@HKJPGECN@inet_addr?5not?5found?6?$AA@ 10092d40     xpcruntime:xpcimports.obj
 0002:00016d5c       ??_C@_06HBELJPBO@socket?$AA@ 10092d5c     xpcruntime:xpcimports.obj
 0002:00016d64       ??_C@_0BC@NAGFFJGA@socket?5not?5found?6?$AA@ 10092d64     xpcruntime:xpcimports.obj
 0002:00016d7c       ??_C@_09ICJIFGNC@GetSocket?$AA@ 10092d7c     xpcruntime:xpcimports.obj
 0002:00016d88       ??_C@_0BF@KDBCKMOJ@GetSocket?5not?5found?6?$AA@ 10092d88     xpcruntime:xpcimports.obj
 0002:00016da4       ??_C@_0P@KJEGJMJI@GetSocketState?$AA@ 10092da4     xpcruntime:xpcimports.obj
 0002:00016db8       ??_C@_0BK@IALBJHEB@GetSocketState?5not?5found?6?$AA@ 10092db8     xpcruntime:xpcimports.obj
 0002:00016dd8       ??_C@_0L@MEAJHNHB@SocketSend?$AA@ 10092dd8     xpcruntime:xpcimports.obj
 0002:00016de8       ??_C@_0BG@EOCMBFJA@SocketSend?5not?5found?6?$AA@ 10092de8     xpcruntime:xpcimports.obj
 0002:00016e04       ??_C@_0O@PFPCLEMF@SocketReceive?$AA@ 10092e04     xpcruntime:xpcimports.obj
 0002:00016e14       ??_C@_0BJ@HIBADDFO@SocketReceive?5not?5found?6?$AA@ 10092e14     xpcruntime:xpcimports.obj
 0002:00016e34       ??_C@_0BD@OOGFNAIK@CreateServerSocket?$AA@ 10092e34     xpcruntime:xpcimports.obj
 0002:00016e4c       ??_C@_0BO@GKIJHIPH@CreateServerSocket?5not?5found?6?$AA@ 10092e4c     xpcruntime:xpcimports.obj
 0002:00016e70       ??_C@_0BB@KGHJGFFO@OpenServerListen?$AA@ 10092e70     xpcruntime:xpcimports.obj
 0002:00016e84       ??_C@_0BM@NFMMLIO@OpenServerListen?5not?5found?6?$AA@ 10092e84     xpcruntime:xpcimports.obj
 0002:00016ea8       ??_C@_0BE@BAJLDJAH@ConnectServerSocket?$AA@ 10092ea8     xpcruntime:xpcimports.obj
 0002:00016ec0       ??_C@_0BP@KJNODIKE@ConnectServerSocket?5not?5found?6?$AA@ 10092ec0     xpcruntime:xpcimports.obj
 0002:00016ee8       ??_C@_0BC@PLKKJDIM@CloseServerSocket?$AA@ 10092ee8     xpcruntime:xpcimports.obj
 0002:00016f00       ??_C@_0BN@KEJEPNMB@CloseServerSocket?5not?5found?6?$AA@ 10092f00     xpcruntime:xpcimports.obj
 0002:00016f24       ??_C@_0BD@MCLPKCPP@CreateClientSocket?$AA@ 10092f24     xpcruntime:xpcimports.obj
 0002:00016f3c       ??_C@_0BO@DILAGPFN@CreateClientSocket?5not?5found?6?$AA@ 10092f3c     xpcruntime:xpcimports.obj
 0002:00016f60       ??_C@_0BB@DAPKNNLG@BindClientSocket?$AA@ 10092f60     xpcruntime:xpcimports.obj
 0002:00016f74       ??_C@_0BM@LLLMMDFN@BindClientSocket?5not?5found?6?$AA@ 10092f74     xpcruntime:xpcimports.obj
 0002:00016f98       ??_C@_0BE@DMEBELHC@ConnectClientSocket?$AA@ 10092f98     xpcruntime:xpcimports.obj
 0002:00016fb0       ??_C@_0BP@PLOHCPAO@ConnectClientSocket?5not?5found?6?$AA@ 10092fb0     xpcruntime:xpcimports.obj
 0002:00016fd8       ??_C@_0BC@NHHAOBPJ@CloseClientSocket?$AA@ 10092fd8     xpcruntime:xpcimports.obj
 0002:00016ff0       ??_C@_0BN@PGKNOKGL@CloseClientSocket?5not?5found?6?$AA@ 10092ff0     xpcruntime:xpcimports.obj
 0002:000170bc       __pDefaultRawDllMain       100930bc     LIBCMT:dll_dllmain.obj
 0002:000170bc       __pRawDllMain              100930bc     LIBCMT:dll_dllmain.obj
 0002:000170c0       __Microsoft_CRTProvider    100930c0     libvcruntime:telemetry.obj
 0002:000170c4       ??_C@_11LOCGONAA@?$AA?$AA@ 100930c4     libvcruntime:telemetry.obj
 0002:000170c8       ??_C@_0O@JEOPJOMI@Main?5Invoked?4?$AA@ 100930c8     libvcruntime:telemetry.obj
 0002:000170d8       ??_C@_0P@NEAEIBDO@Main?5Returned?4?$AA@ 100930d8     libvcruntime:telemetry.obj
 0002:00017100       ??_C@_1BC@DNHGCMLG@?$AAa?$AAd?$AAv?$AAa?$AAp?$AAi?$AA3?$AA2?$AA?$AA@ 10093100     libvcruntime:winapi_downlevel.obj
 0002:00017118       ??_C@_1DM@KHCHBNEB@?$AAa?$AAp?$AAi?$AA?9?$AAm?$AAs?$AA?9?$AAw?$AAi?$AAn?$AA?9?$AAc?$AAo?$AAr?$AAe?$AA?9?$AAf?$AAi?$AAb?$AAe?$AAr?$AAs?$AA?9?$AAl?$AA1?$AA?9?$AA1?$AA?9?$AA1?$AA?$AA@ 10093118     libvcruntime:winapi_downlevel.obj
 0002:00017160       ??_C@_1DK@LPPGFMPP@?$AAa?$AAp?$AAi?$AA?9?$AAm?$AAs?$AA?9?$AAw?$AAi?$AAn?$AA?9?$AAc?$AAo?$AAr?$AAe?$AA?9?$AAs?$AAy?$AAn?$AAc?$AAh?$AA?9?$AAl?$AA1?$AA?9?$AA2?$AA?9?$AA0?$AA?$AA@ 10093160     libvcruntime:winapi_downlevel.obj
 0002:000171a8       ??_C@_1BC@GDMECMAK@?$AAk?$AAe?$AAr?$AAn?$AAe?$AAl?$AA3?$AA2?$AA?$AA@ 100931a8     libvcruntime:winapi_downlevel.obj
 0002:000171c4       ??_C@_0O@BAMBGLIE@EventRegister?$AA@ 100931c4     libvcruntime:winapi_downlevel.obj
 0002:000171d8       ??_C@_0BE@BJEEGHGK@EventSetInformation?$AA@ 100931d8     libvcruntime:winapi_downlevel.obj
 0002:000171f4       ??_C@_0BA@FAKLIPIC@EventUnregister?$AA@ 100931f4     libvcruntime:winapi_downlevel.obj
 0002:0001720c       ??_C@_0BD@PKLHJPHD@EventWriteTransfer?$AA@ 1009320c     libvcruntime:winapi_downlevel.obj
 0002:00017230       ??_C@_08KNHFBNJ@FlsAlloc?$AA@ 10093230     libvcruntime:winapi_downlevel.obj
 0002:00017248       ??_C@_07PEJMOBNF@FlsFree?$AA@ 10093248     libvcruntime:winapi_downlevel.obj
 0002:00017260       ??_C@_0M@GDNOONDI@FlsGetValue?$AA@ 10093260     libvcruntime:winapi_downlevel.obj
 0002:0001727c       ??_C@_0M@JCPCPOEF@FlsSetValue?$AA@ 1009327c     libvcruntime:winapi_downlevel.obj
 0002:00017298       ??_C@_0BM@HCFOFFN@InitializeCriticalSectionEx?$AA@ 10093298     libvcruntime:winapi_downlevel.obj
 0002:000174a0       ??_C@_08EHJDFFNH@__based?$CI?$AA@ 100934a0     libvcruntime:undname.obj
 0002:000174ac       ??_C@_07KOLFKCDI@__cdecl?$AA@ 100934ac     libvcruntime:undname.obj
 0002:000174b8       ??_C@_08GHMPAG@__pascal?$AA@ 100934b8     libvcruntime:undname.obj
 0002:000174c4       ??_C@_09IFJBGAPI@__stdcall?$AA@ 100934c4     libvcruntime:undname.obj
 0002:000174d0       ??_C@_0L@NPHFGOKO@__thiscall?$AA@ 100934d0     libvcruntime:undname.obj
 0002:000174e0       ??_C@_0L@JMKHOMEK@__fastcall?$AA@ 100934e0     libvcruntime:undname.obj
 0002:000174f0       ??_C@_0N@BCKKPABJ@__vectorcall?$AA@ 100934f0     libvcruntime:undname.obj
 0002:00017500       ??_C@_09HIJEGCPM@__clrcall?$AA@ 10093500     libvcruntime:undname.obj
 0002:0001750c       ??_C@_06GHPCKEAG@__eabi?$AA@ 1009350c     libvcruntime:undname.obj
 0002:00017514       ??_C@_07JOMMBBKO@__ptr64?$AA@ 10093514     libvcruntime:undname.obj
 0002:00017520       ??_C@_0L@PILCLIHE@__restrict?$AA@ 10093520     libvcruntime:undname.obj
 0002:00017530       ??_C@_0M@GFIIJFMG@__unaligned?$AA@ 10093530     libvcruntime:undname.obj
 0002:00017540       ??_C@_09DHDLOLLB@restrict?$CI?$AA@ 10093540     libvcruntime:undname.obj
 0002:0001754c       ??_C@_04NIHEBCM@?5new?$AA@ 1009354c     libvcruntime:undname.obj
 0002:00017554       ??_C@_07FPCDHGMM@?5delete?$AA@ 10093554     libvcruntime:undname.obj
 0002:00017560       ??_C@_01NEMOKFLO@?$DN?$AA@ 10093560     libvcruntime:undname.obj
 0002:00017564       ??_C@_02GPIOPFAK@?$DO?$DO?$AA@ 10093564     libvcruntime:undname.obj
 0002:00017568       ??_C@_02FODMEDOG@?$DM?$DM?$AA@ 10093568     libvcruntime:undname.obj
 0002:0001756c       ??_C@_01DCLJPIOD@?$CB?$AA@ 1009356c     libvcruntime:undname.obj
 0002:00017570       ??_C@_02EGOFBIJA@?$DN?$DN?$AA@ 10093570     libvcruntime:undname.obj
 0002:00017574       ??_C@_02FDNJECIE@?$CB?$DN?$AA@ 10093574     libvcruntime:undname.obj
 0002:00017578       ??_C@_02GPECMEKF@?$FL?$FN?$AA@ 10093578     libvcruntime:undname.obj
 0002:0001757c       ??_C@_08LHJFAFGD@operator?$AA@ 1009357c     libvcruntime:undname.obj
 0002:00017588       ??_C@_02HBOOOICD@?9?$DO?$AA@ 10093588     libvcruntime:undname.obj
 0002:0001758c       ??_C@_01NBENCBCI@?$CK?$AA@ 1009358c     libvcruntime:undname.obj
 0002:00017590       ??_C@_02ECNGHCIF@?$CL?$CL?$AA@ 10093590     libvcruntime:undname.obj
 0002:00017594       ??_C@_02BAABKJLB@?9?9?$AA@ 10093594     libvcruntime:undname.obj
 0002:00017598       ??_C@_01JOAMLHOP@?9?$AA@   10093598     libvcruntime:undname.obj
 0002:0001759c       ??_C@_01MIFGBAGJ@?$CL?$AA@ 1009359c     libvcruntime:undname.obj
 0002:000175a0       ??_C@_01HNPIGOCE@?$CG?$AA@ 100935a0     libvcruntime:undname.obj
 0002:000175a4       ??_C@_03MNHNFDLC@?9?$DO?$CK?$AA@ 100935a4     libvcruntime:undname.obj
 0002:000175a8       ??_C@_01KMDKNFGN@?1?$AA@   100935a8     libvcruntime:undname.obj
 0002:000175ac       ??_C@_01FGNFDNOH@?$CF?$AA@ 100935ac     libvcruntime:undname.obj
 0002:000175b0       ??_C@_01MNNFJEPP@?$DM?$AA@ 100935b0     libvcruntime:undname.obj
 0002:000175b4       ??_C@_02EHCHHCKH@?$DM?$DN?$AA@ 100935b4     libvcruntime:undname.obj
 0002:000175b8       ??_C@_01PPODPGHN@?$DO?$AA@ 100935b8     libvcruntime:undname.obj
 0002:000175bc       ??_C@_02EEKDKGMJ@?$DO?$DN?$AA@ 100935bc     libvcruntime:undname.obj
 0002:000175c0       ??_C@_01IHBHIGKO@?0?$AA@   100935c0     libvcruntime:undname.obj
 0002:000175c4       ??_C@_02HCKGKOFO@?$CI?$CJ?$AA@ 100935c4     libvcruntime:undname.obj
 0002:000175c8       ??_C@_01PJKLJHI@?$HO?$AA@  100935c8     libvcruntime:undname.obj
 0002:000175cc       ??_C@_01JKBOJNNK@?$FO?$AA@ 100935cc     libvcruntime:undname.obj
 0002:000175d0       ??_C@_01DNKMNLPK@?$HM?$AA@ 100935d0     libvcruntime:undname.obj
 0002:000175d4       ??_C@_02PPKAJPJL@?$CG?$CG?$AA@ 100935d4     libvcruntime:undname.obj
