 Control_software_v1_1_xpc

 Timestamp is 58cf8426 (Mon Mar 20 08:26:30 2017)

 Preferred load address is 10000000

 Start         Length     Name                   Class
 0001:00000000 00006150H .text                   CODE
 0001:00006150 00072ea1H .text$mn                CODE
 0002:00000000 00000104H .CRT$XCA                DATA
 0002:00000104 00000104H .CRT$XCZ                DATA
 0002:00000208 00000104H .CRT$XIA                DATA
 0002:0000030c 0000010eH .CRT$XIC                DATA
 0002:0000041c 00000104H .CRT$XIZ                DATA
 0002:00000520 00000104H .CRT$XPA                DATA
 0002:00000624 00000109H .CRT$XPX                DATA
 0002:00000730 00000104H .CRT$XPXA               DATA
 0002:00000834 00000104H .CRT$XPZ                DATA
 0002:00000938 00000104H .CRT$XTA                DATA
 0002:00000a3c 00000104H .CRT$XTZ                DATA
 0002:00000b40 0001f818H .rdata                  DATA
 0002:00020358 0000038aH .rdata$r                DATA
 0002:000206f0 0000010eH .rdata$sxdata           DATA
 0002:00020800 00000113H .rdata$zETW0            DATA
 0002:00020913 0000018eH .rdata$zETW1            DATA
 0002:00020aa1 00000134H .rdata$zETW2            DATA
 0002:00020bd5 00000101H .rdata$zETW9            DATA
 0002:00020cd8 000001c0H .rdata$zzzdbg           DATA
 0002:00020e98 00000104H .rtc$IAA                DATA
 0002:00020f9c 00000104H .rtc$IZZ                DATA
 0002:000210a0 00000104H .rtc$TAA                DATA
 0002:000211a4 00000104H .rtc$TZZ                DATA
 0002:000212a8 00000ac0H .xdata$x                DATA
 0002:00021d70 00000224H .edata                  DATA
 0003:00000000 00004b11H .data                   DATA
 0003:00004b14 000001d4H .data$r                 DATA
 0003:00004d00 0002552cH .bss                    DATA
 0004:00000000 000001ecH .idata$5                DATA
 0004:000001ec 00000028H .idata$2                DATA
 0004:00000214 00000014H .idata$3                DATA
 0004:00000228 000001ecH .idata$4                DATA
 0004:00000414 0000080cH .idata$6                DATA
 0005:00000000 00000104H .00cfg                  DATA

  Address         Publics by Value              Rva+Base       Lib:Object

 0000:00000000       __except_list              00000000     <absolute>
 0000:00000000       ___guard_fids_count        00000000     <absolute>
 0000:00000000       ___guard_fids_table        00000000     <absolute>
 0000:00000003       ___safe_se_handler_count   00000003     <absolute>
 0000:00000100       ___guard_flags             00000100     <absolute>
 0000:00000000       ___ImageBase               10000000     <linker-defined>
 0001:00005e5b       ?TraceLoggingRegister@__vcrt_trace_logging_provider@@YAJPBU_TlgProvider_t@1@PBU_GUID@@P6GX1KE_K2PAU_EVENT_FILTER_DESCRIPTOR@@PAX@Z4@Z 10006e5b f i libvcruntime:telemetry.obj
 0001:00005ecf       ?TraceLoggingSetInformation@__vcrt_trace_logging_provider@@YAJPBU_TlgProvider_t@1@W4_EVENT_INFO_CLASS@@PAXK@Z 10006ecf f i libvcruntime:telemetry.obj
 0001:00005f04       ?TraceLoggingUnregister@__vcrt_trace_logging_provider@@YAXPBU_TlgProvider_t@1@@Z 10006f04 f i libvcruntime:telemetry.obj
 0001:00005f2a       ?_TlgCreateSz@__vcrt_trace_logging_provider@@YAXPAU_EVENT_DATA_DESCRIPTOR@@PBD@Z 10006f2a f i libvcruntime:telemetry.obj
 0001:00005f70       ?_TlgCreateWsz@__vcrt_trace_logging_provider@@YAXPAU_EVENT_DATA_DESCRIPTOR@@PB_W@Z 10006f70 f i libvcruntime:telemetry.obj
 0001:00005fc5       ?_TlgEnableCallback@__vcrt_trace_logging_provider@@YGXPBU_GUID@@KE_K1PAU_EVENT_FILTER_DESCRIPTOR@@PAX@Z 10006fc5 f i libvcruntime:telemetry.obj
 0001:0000605b       ?_TlgKeywordOn@__vcrt_trace_logging_provider@@YAEPBU_TlgProvider_t@1@_K@Z 1000705b f i libvcruntime:telemetry.obj
 0001:000060a6       ?_TlgWrite@__vcrt_trace_logging_provider@@YAJPBU_TlgProvider_t@1@PBXPBU_GUID@@2IPAU_EVENT_DATA_DESCRIPTOR@@@Z 100070a6 f i libvcruntime:telemetry.obj
 0001:00006150       _C_EmbeddedMATLABFunction1_g 10007150 f   Control_software_v1_1.obj
 0001:000064e0       _Co_EmbeddedMATLABFunction_b 100074e0 f   Control_software_v1_1.obj
 0001:00006b50       _Co_EmbeddedMATLABFunction_k 10007b50 f   Control_software_v1_1.obj
 0001:000073e0       _Con_EmbeddedMATLABFunction1 100083e0 f   Control_software_v1_1.obj
 0001:00007520       _Cont_EmbeddedMATLABFunction 10008520 f   Control_software_v1_1.obj
 0001:000078a0       _Control_soft_RS232ISR_Start 100088a0 f   Control_software_v1_1.obj
 0001:00007dd0       _Control_softw_RS232ISR_Term 10008dd0 f   Control_software_v1_1.obj
 0001:00008330       _Control_software_v1_1     10009330 f   Control_software_v1_1.obj
 0001:000175d0       _Control_software_v_RS232ISR 100185d0 f   Control_software_v1_1.obj
 0001:00017a90       _MdlInitialize             10018a90 f   Control_software_v1_1.obj
 0001:00017aa0       _MdlInitializeSampleTimes  10018aa0 f   Control_software_v1_1.obj
 0001:00017ab0       _MdlInitializeSizes        10018ab0 f   Control_software_v1_1.obj
 0001:00017ac0       _MdlOutputs                10018ac0 f   Control_software_v1_1.obj
 0001:00017b10       _MdlStart                  10018b10 f   Control_software_v1_1.obj
 0001:00017b20       _MdlTerminate              10018b20 f   Control_software_v1_1.obj
 0001:00017b30       _MdlUpdate                 10018b30 f   Control_software_v1_1.obj
 0001:00017b80       ___local_stdio_printf_options 10018b80 f i Control_software_v1_1.obj
 0001:00017b90       __vfprintf_l               10018b90 f i Control_software_v1_1.obj
 0001:00017bc0       __vsnprintf_l              10018bc0 f i Control_software_v1_1.obj
 0001:00017c00       __vsprintf_l               10018c00 f i Control_software_v1_1.obj
 0001:00017c40       _printf                    10018c40 f i Control_software_v1_1.obj
 0001:00017d60       _rt_SimUpdateDiscreteEvents 10018d60 f   Control_software_v1_1.obj
 0001:00017db0       _rt_powd_snf               10018db0 f   Control_software_v1_1.obj
 0001:00018030       _sprintf                   10019030 f i Control_software_v1_1.obj
 0001:00018070       _xPCISR1                   10019070 f   Control_software_v1_1.obj
 0001:00018140       _Control_software_v1_1_GetCAPIStaticMap 10019140 f   Control_software_v1_1_capi.obj
 0001:00018150       _Control_software_v1_1_InitializeDataMapInfo 10019150 f   Control_software_v1_1_capi.obj
 0001:000181e0       _TgtConnBackgroundTask     100191e0 f   Control_software_v1_1_tgtconn.obj
 0001:000181f0       _TgtConnInit               100191f0 f   Control_software_v1_1_tgtconn.obj
 0001:00018210       _TgtConnPostStep           10019210 f   Control_software_v1_1_tgtconn.obj
 0001:00018220       _TgtConnPreStep            10019220 f   Control_software_v1_1_tgtconn.obj
 0001:00018230       _TgtConnTerm               10019230 f   Control_software_v1_1_tgtconn.obj
 0001:00018240       _rtGetInf                  10019240 f   rtGetInf.obj
 0001:00018270       _rtGetInfF                 10019270 f   rtGetInf.obj
 0001:00018290       _rtGetMinusInf             10019290 f   rtGetInf.obj
 0001:000182c0       _rtGetMinusInfF            100192c0 f   rtGetInf.obj
 0001:000182e0       _rtGetNaN                  100192e0 f   rtGetNaN.obj
 0001:00018310       _rtGetNaNF                 10019310 f   rtGetNaN.obj
 0001:00018330       _fprintf                   10019330 f i rt_logging.obj
 0001:00018c40       _rt_CreateLogVar           10019c40 f   rt_logging.obj
 0001:00018cd0       _rt_CreateLogVarWithConvert 10019cd0 f   rt_logging.obj
 0001:00019650       _rt_CreateStructLogVar     1001a650 f   rt_logging.obj
 0001:0001a3b0       _rt_GetMxIdFromDTypeId     1001b3b0 f   rt_logging.obj
 0001:0001a3e0       _rt_GetMxIdFromDTypeIdForRSim 1001b3e0 f   rt_logging.obj
 0001:0001ccb0       _rt_StartDataLogging       1001dcb0 f   rt_logging.obj
 0001:0001d170       _rt_StartDataLoggingWithStartTime 1001e170 f   rt_logging.obj
 0001:0001dad0       _rt_StopDataLogging        1001ead0 f   rt_logging.obj
 0001:0001daf0       _rt_StopDataLoggingImpl    1001eaf0 f   rt_logging.obj
 0001:0001de20       _rt_UpdateLogVar           1001ee20 f   rt_logging.obj
 0001:0001ef40       _rt_UpdateStructLogVar     1001ff40 f   rt_logging.obj
 0001:0001efd0       _rt_UpdateTXXFYLogVars     1001ffd0 f   rt_logging.obj
 0001:0001f300       _rt_UpdateTXYLogVars       10020300 f   rt_logging.obj
 0001:0001f550       _rt_CleanUpForStateLogWithMMI 10020550 f   rt_logging_mmi.obj
 0001:0001f660       _rt_FillStateSigInfoFromMMI 10020660 f   rt_logging_mmi.obj
 0001:0001fa00       _rt_mxCreateCharMatrixFromStrings 10020a00 f   rt_matrx.obj
 0001:0001fb60       _rt_mxCreateDoubleMatrix   10020b60 f   rt_matrx.obj
 0001:0001fbc0       _rt_mxCreateNumericArray   10020bc0 f   rt_matrx.obj
 0001:0001fc40       _rt_mxCreateString         10020c40 f   rt_matrx.obj
 0001:0001fcd0       _rt_mxDuplicateArray       10020cd0 f   rt_matrx.obj
 0001:0001fd30       _rt_mxGetDimensions        10020d30 f   rt_matrx.obj
 0001:0001fd70       _rt_mxGetEps               10020d70 f   rt_matrx.obj
 0001:0001fd80       _rt_mxGetString            10020d80 f   rt_matrx.obj
 0001:0001fe00       _rtIsInf                   10020e00 f   rt_nonfinite.obj
 0001:0001fe40       _rtIsInfF                  10020e40 f   rt_nonfinite.obj
 0001:0001fe80       _rtIsNaN                   10020e80 f   rt_nonfinite.obj
 0001:0001fea0       _rtIsNaNF                  10020ea0 f   rt_nonfinite.obj
 0001:0001fec0       _rt_InitInfAndNaN          10020ec0 f   rt_nonfinite.obj
 0001:0001ff20       _rtPrintfNoOp              10020f20 f   rt_printf.obj
 0001:0001ff30       _rtwCAPI_CountSysRan       10020f30 f   rtw_modelmap_utils.obj
 0001:0001ffd0       _rtwCAPI_EncodePath        10020fd0 f   rtw_modelmap_utils.obj
 0001:000200d0       _rtwCAPI_FillSysRan        100210d0 f   rtw_modelmap_utils.obj
 0001:000201c0       _rtwCAPI_FreeFullPaths     100211c0 f   rtw_modelmap_utils.obj
 0001:00020250       _rtwCAPI_GetFullStateBlockPath 10021250 f   rtw_modelmap_utils.obj
 0001:00020400       _rtwCAPI_GetNumContStateRecords 10021400 f   rtw_modelmap_utils.obj
 0001:000204c0       _rtwCAPI_GetNumSigLogRecords 100214c0 f   rtw_modelmap_utils.obj
 0001:00020510       _rtwCAPI_GetNumSigLogRecordsForRTWLogging 10021510 f   rtw_modelmap_utils.obj
 0001:000205b0       _rtwCAPI_GetNumStateRecords 100215b0 f   rtw_modelmap_utils.obj
 0001:00020600       _rtwCAPI_GetNumStateRecordsForRTWLogging 10021600 f   rtw_modelmap_utils.obj
 0001:000206a0       _rtwCAPI_GetSigAddrFromMap 100216a0 f   rtw_modelmap_utils.obj
 0001:00020760       _rtwCAPI_GetSigLogRecordInfo 10021760 f   rtw_modelmap_utils.obj
 0001:00020b90       _rtwCAPI_GetStateRecordInfo 10021b90 f   rtw_modelmap_utils.obj
 0001:00021040       _rtwCAPI_GetStateWidth     10022040 f   rtw_modelmap_utils.obj
 0001:000210a0       _rtwCAPI_HasStates         100220a0 f   rtw_modelmap_utils.obj
 0001:00021110       _rtwCAPI_UpdateFullPaths   10022110 f   rtw_modelmap_utils.obj
 0001:000212f0       _Control_software_v1_1_ChangeStepSize 100222f0 f   xpctarget.obj
 0001:00021390       _DllMain@12                10022390 f   xpctarget.obj
 0001:000213a0       _SLRTSetErrorStatus        100223a0 f   xpctarget.obj
 0001:000213c0       _changeStepSize            100223c0 f   xpctarget.obj
 0001:00021460       _getDLMVersion             10022460 f   xpctarget.obj
 0001:00021470       _getRefMdlPath             10022470 f   xpctarget.obj
 0001:000214f0       _getRefMdlSignalNumber     100224f0 f   xpctarget.obj
 0001:000215a0       _getrlmdlinfo              100225a0 f   xpctarget.obj
 0001:00021780       _updateDiscreteEvents      10022780 f   xpctarget.obj
 0001:000217e0       _getNumRef                 100227e0 f   appmappingData.obj
 0001:000217f0       _iqueryqua                 100227f0 f   iqueryqua.obj
 0001:00021bd0       _filterqua                 10022bd0 f   filterqua.obj
 0001:00021ee0       _fiforead                  10022ee0 f   fiforead.obj
 0001:00022a10       _serwritequa               10023a10 f   serwritequa.obj
 0001:00022d70       _serreadqua                10023d70 f   serreadqua.obj
 0001:00022dc0       _fifowrite                 10023dc0 f   fifowrite.obj
 0001:000234d0       _adnipcim                  100244d0 f   adnipcim.obj
 0001:00023e80       _dinipcim                  10024e80 f   dinipcim.obj
 0001:00024550       _pfidinipcim               10025550 f   pfidinipcim.obj
 0001:000245a0       _fiforeadhdr               100255a0 f   fiforeadhdr.obj
 0001:00025350       _sertxenable               10026350 f   sertxenable.obj
 0001:00025990       _setupqua                  10026990 f   setupqua.obj
 0001:00025f90       _pfidonipcim               10026f90 f   pfidonipcim.obj
 0001:00025fe0       _danipcim                  10026fe0 f   danipcim.obj
 0001:00026770       _donipcim                  10027770 f   donipcim.obj
 0001:00026c60       _quatechinit               10027c60 f   quatechinit.obj
 0001:00026f10       _niMIdentify               10027f10 f   xpcionim.obj
 0001:00027090       _niM_AISetup               10028090 f   xpcionim.obj
 0001:00027490       _niM_AO_Setup              10028490 f   xpcionim.obj
 0001:00027620       _niM_Cont_Pulse_Train_Generation 10028620 f   xpcionim.obj
 0001:00027760       _niM_Counter_Reset_All     10028760 f   xpcionim.obj
 0001:00027810       _niM_CtrArm                10028810 f   xpcionim.obj
 0001:00027830       _niM_CtrDisarm             10028830 f   xpcionim.obj
 0001:00027850       _niM_CtrReadArm            10028850 f   xpcionim.obj
 0001:00027870       _niM_CtrReadDisarm         10028870 f   xpcionim.obj
 0001:00027890       _niM_PeriodConfigure       10028890 f   xpcionim.obj
 0001:00027a10       _niM_Private_Data          10028a10 f   xpcionim.obj
 0001:00027ff0       _niM_SetPFIFilter          10028ff0 f   xpcionim.obj
 0001:00028070       _niM_SetPFI_DO             10029070 f   xpcionim.obj
 0001:000280b0       _niM_SetPFI_Select         100290b0 f   xpcionim.obj
 0001:00028130       _niM_aiConfigureChannel    10029130 f   xpcionim.obj
 0001:000281a0       _niM_aiGetScalingCoefficients 100291a0 f   xpcionim.obj
 0001:00028380       _niM_aiPolynomialScaler    10029380 f   xpcionim.obj
 0001:000284c0       _niM_analogTriggerReset    100294c0 f   xpcionim.obj
 0001:00028510       _niM_aoConfigureDAC        10029510 f   xpcionim.obj
 0001:00028560       _niM_aoGetScalingCoefficients 10029560 f   xpcionim.obj
 0001:00028610       _niM_aoLinearScaler        10029610 f   xpcionim.obj
 0001:00028640       _niM_configureTimebase     10029640 f   xpcionim.obj
 0001:00028660       _niM_eepromReadMSeries     10029660 f   xpcionim.obj
 0001:00028730       _niM_pllReset              10029730 f   xpcionim.obj
 0001:00028760       _niM_resetCtr              10029760 f   xpcionim.obj
 0001:00028780       _niM_whichBank             10029780 f   xpcionim.obj
 0001:000287c0       _niMconfig                 100297c0 f   xpcionim.obj
 0001:00028860       _GetPCIDeviceFull          10029860 f   xpcruntime:xpcimports.obj
 0001:000288a0       _ShowPCIDevice             100298a0 f   xpcruntime:xpcimports.obj
 0001:00029060       _xpcGetPciConfigAtSlot     1002a060 f   xpcruntime:xpcimports.obj
 0001:00029370       _xpcInitProcs              1002a370 f   xpcruntime:xpcimports.obj
 0001:0002a1a0       _xpceuploadevent           1002b1a0 f   xpcruntime:xpcimports.obj
 0001:0002a1a1       ___raise_securityfailure   1002b1a1 f   LIBCMT:gs_report.obj
 0001:0002a1d3       ___report_gsfailure        1002b1d3 f   LIBCMT:gs_report.obj
 0001:0002a30c       ___report_rangecheckfailure 1002b30c f   LIBCMT:gs_report.obj
 0001:0002a31b       ___report_securityfailure  1002b31b f   LIBCMT:gs_report.obj
 0001:0002a41f       ___report_securityfailureEx 1002b41f f   LIBCMT:gs_report.obj
 0001:0002a57a       @__security_check_cookie@4 1002b57a f   LIBCMT:_secchk_.obj
 0001:0002a590       __ftoui3                   1002b590 f   LIBCMT:_ftol3_.obj
 0001:0002a59f       __ftoul3                   1002b59f f   LIBCMT:_ftol3_.obj
 0001:0002a5ae       __ftol3                    1002b5ae f   LIBCMT:_ftol3_.obj
 0001:0002a5bb       __ftol3_NaN                1002b5bb f   LIBCMT:_ftol3_.obj
 0001:0002a5d3       __ftol3_work               1002b5d3 f   LIBCMT:_ftol3_.obj
 0001:0002a659       __ftol3_common             1002b659 f   LIBCMT:_ftol3_.obj
 0001:0002a71b       __ftol3_arg_error          1002b71b f   LIBCMT:_ftol3_.obj
 0001:0002a72d       __ftol3_except             1002b72d f   LIBCMT:_ftol3_.obj
 0001:0002a771       __dtoui3                   1002b771 f   LIBCMT:_ftol3_.obj
 0001:0002a780       __dtoul3                   1002b780 f   LIBCMT:_ftol3_.obj
 0001:0002a78f       __dtol3                    1002b78f f   LIBCMT:_ftol3_.obj
 0001:0002a79c       __dtol3_NaN                1002b79c f   LIBCMT:_ftol3_.obj
 0001:0002a7b9       __dtol3_work               1002b7b9 f   LIBCMT:_ftol3_.obj
 0001:0002a8a0       __ultod3                   1002b8a0 f   LIBCMT:_ftol3_.obj
 0001:0002a8e0       __ltod3                    1002b8e0 f   LIBCMT:_ftol3_.obj
 0001:0002a9e4       ___isa_available_init      1002b9e4 f   LIBCMT:_cpu_disp_.obj
 0001:0002afc5       __CRT_INIT@12              1002bfc5 f   LIBCMT:dll_dllmain.obj
 0001:0002afd0       __DllMainCRTStartup@12     1002bfd0 f   LIBCMT:dll_dllmain.obj
 0001:0002affb       ??$__crt_fast_decode_pointer@PAP6AXXZ@@YAPAP6AXXZQAP6AXXZ@Z 1002bffb f i LIBCMT:utility.obj
 0001:0002b014       ??$__crt_fast_encode_pointer@PAP6AXXZ@@YAPAP6AXXZQAP6AXXZ@Z 1002c014 f i LIBCMT:utility.obj
 0001:0002b038       ?__crt_rotate_pointer_value@@YAIIH@Z 1002c038 f i LIBCMT:utility.obj
 0001:0002b0dc       _NtCurrentTeb              1002c0dc f i LIBCMT:utility.obj
 0001:0002b0e3       ___scrt_acquire_startup_lock 1002c0e3 f   LIBCMT:utility.obj
 0001:0002b125       ___scrt_dllmain_after_initialize_c 1002c125 f   LIBCMT:utility.obj
 0001:0002b143       ___scrt_dllmain_before_initialize_c 1002c143 f   LIBCMT:utility.obj
 0001:0002b154       ___scrt_dllmain_crt_thread_attach 1002c154 f   LIBCMT:utility.obj
 0001:0002b17a       ___scrt_dllmain_crt_thread_detach 1002c17a f   LIBCMT:utility.obj
 0001:0002b18a       ___scrt_dllmain_exception_filter 1002c18a f   LIBCMT:utility.obj
 0001:0002b1c9       ___scrt_dllmain_uninitialize_c 1002c1c9 f   LIBCMT:utility.obj
 0001:0002b1f4       ___scrt_dllmain_uninitialize_critical 1002c1f4 f   LIBCMT:utility.obj
 0001:0002b204       ___scrt_initialize_crt     1002c204 f   LIBCMT:utility.obj
 0001:0002b24b       ___scrt_initialize_onexit_tables 1002c24b f   LIBCMT:utility.obj
 0001:0002b307       ___scrt_is_nonwritable_in_current_image 1002c307 f   LIBCMT:utility.obj
 0001:0002b3b7       ___scrt_release_startup_lock 1002c3b7 f   LIBCMT:utility.obj
 0001:0002b3db       ___scrt_uninitialize_crt   1002c3db f   LIBCMT:utility.obj
 0001:0002b40d       __onexit                   1002c40d f   LIBCMT:utility.obj
 0001:0002b456       _at_quick_exit             1002c456 f   LIBCMT:utility.obj
 0001:0002b493       _atexit                    1002c493 f   LIBCMT:utility.obj
 0001:0002b4ad       ___security_init_cookie    1002c4ad f   LIBCMT:gs_support.obj
 0001:0002b570       ?__scrt_initialize_type_info@@YAXXZ 1002c570 f   LIBCMT:tncleanup.obj
 0001:0002b57f       ?__scrt_uninitialize_type_info@@YAXXZ 1002c57f f   LIBCMT:tncleanup.obj
 0001:0002b58e       ___local_stdio_scanf_options 1002c58e f i LIBCMT:default_local_stdio_options.obj
 0001:0002b594       ___scrt_initialize_default_local_stdio_options 1002c594 f   LIBCMT:default_local_stdio_options.obj
 0001:0002b5b8       ___scrt_get_dyn_tls_init_callback 1002c5b8 f   LIBCMT:dyn_tls_init.obj
 0001:0002b5be       ___scrt_fastfail           1002c5be f   LIBCMT:utility_desktop.obj
 0001:0002b71f       ___scrt_get_show_window_mode 1002c71f f   LIBCMT:utility_desktop.obj
 0001:0002b75e       ___scrt_initialize_winrt   1002c75e f   LIBCMT:utility_desktop.obj
 0001:0002b761       ___scrt_is_managed_app     1002c761 f   LIBCMT:utility_desktop.obj
 0001:0002b7b6       ___scrt_set_unhandled_exception_filter 1002c7b6 f   LIBCMT:utility_desktop.obj
 0001:0002b7c5       ___scrt_unhandled_exception_filter@4 1002c7c5 f   LIBCMT:utility_desktop.obj
 0001:0002b816       __crt_debugger_hook        1002c816 f   LIBCMT:utility_desktop.obj
 0001:0002b820       __RTC_Initialize           1002c820 f   LIBCMT:_initsect_.obj
 0001:0002b855       __RTC_Terminate            1002c855 f   LIBCMT:_initsect_.obj
 0001:0002b88a       @_guard_check_icall@4      1002c88a f i LIBCMT:checkcfg.obj
 0001:0002b890       __SEH_prolog4              1002c890 f   LIBCMT:_sehprolg4_.obj
 0001:0002b8d6       __SEH_epilog4              1002c8d6 f   LIBCMT:_sehprolg4_.obj
 0001:0002b901       ___scrt_is_ucrt_dll_in_use 1002c901 f   LIBCMT:ucrt_detection.obj
 0001:0002b910       @_guard_check_icall_nop@4  1002c910 f i LIBCMT:guard_support.obj
 0001:0002b911       __guard_icall_checks_enforced 1002c911 f i LIBCMT:guard_support.obj
 0001:0002b928       _GetModuleHandleA@4        1002c928 f   kernel32:KERNEL32.dll
 0001:0002b92e       _GetProcAddress@8          1002c92e f   kernel32:KERNEL32.dll
 0001:0002b934       _UnhandledExceptionFilter@4 1002c934 f   kernel32:KERNEL32.dll
 0001:0002b93a       _SetUnhandledExceptionFilter@4 1002c93a f   kernel32:KERNEL32.dll
 0001:0002b940       _GetCurrentProcess@0       1002c940 f   kernel32:KERNEL32.dll
 0001:0002b946       _TerminateProcess@8        1002c946 f   kernel32:KERNEL32.dll
 0001:0002b94c       _IsProcessorFeaturePresent@4 1002c94c f   kernel32:KERNEL32.dll
 0001:0002b952       _QueryPerformanceCounter@4 1002c952 f   kernel32:KERNEL32.dll
 0001:0002b958       _GetCurrentProcessId@0     1002c958 f   kernel32:KERNEL32.dll
 0001:0002b95e       _GetCurrentThreadId@0      1002c95e f   kernel32:KERNEL32.dll
 0001:0002b964       _GetSystemTimeAsFileTime@4 1002c964 f   kernel32:KERNEL32.dll
 0001:0002b96a       _InitializeSListHead@4     1002c96a f   kernel32:KERNEL32.dll
 0001:0002b970       _IsDebuggerPresent@0       1002c970 f   kernel32:KERNEL32.dll
 0001:0002b976       _GetStartupInfoW@4         1002c976 f   kernel32:KERNEL32.dll
 0001:0002b97c       _GetModuleHandleW@4        1002c97c f   kernel32:KERNEL32.dll
 0001:0002b990       _memcpy                    1002c990 f   libvcruntime:memcpy.obj
 0001:0002c070       _memset                    1002d070 f   libvcruntime:memset.obj
 0001:0002c220       _memmove                   1002d220 f   libvcruntime:memmove.obj
 0001:0002c900       _strchr                    1002d900 f   libvcruntime:strchr.obj
 0001:0002c96e       ___from_strstr_to_strchr   1002d96e     libvcruntime:strchr.obj
 0001:0002cabe       _EventDataDescCreate       1002dabe f i libvcruntime:telemetry.obj
 0001:0002cadf       _HRESULT_FROM_WIN32        1002dadf f i libvcruntime:telemetry.obj
 0001:0002caf8       ___telemetry_main_invoke_trigger 1002daf8 f   libvcruntime:telemetry.obj
 0001:0002cbbb       ___telemetry_main_return_trigger 1002dbbb f   libvcruntime:telemetry.obj
 0001:0002cc7e       ___vcrt_initialize_telemetry_provider 1002dc7e f   libvcruntime:telemetry.obj
 0001:0002cc95       ___vcrt_uninitialize_telemetry_provider 1002dc95 f   libvcruntime:telemetry.obj
 0001:0002ccf0       __except_handler4          1002dcf0 f   libvcruntime:_chandler4_.obj
 0001:0002cea0       ___vcrt_initialize         1002dea0 f   libvcruntime:initialization.obj
 0001:0002ced9       ___vcrt_thread_attach      1002ded9 f   libvcruntime:initialization.obj
 0001:0002cee6       ___vcrt_thread_detach      1002dee6 f   libvcruntime:initialization.obj
 0001:0002cef3       ___vcrt_uninitialize       1002def3 f   libvcruntime:initialization.obj
 0001:0002cf20       ___vcrt_uninitialize_critical 1002df20 f   libvcruntime:initialization.obj
 0001:0002cf3b       ??$?RD@__crt_internal_free_policy@@QBEXQBD@Z 1002df3b f i libvcruntime:std_type_info.obj
 0001:0002cf4f       ??$?RX@__crt_internal_free_policy@@QBEXQBX@Z 1002df4f f i libvcruntime:std_type_info.obj
 0001:0002cf63       ??$__crt_interlocked_compare_exchange_pointer@$$CBD$$T$$T@@YAPBDPDSBD$$T1@Z 1002df63 f i libvcruntime:std_type_info.obj
 0001:0002cf79       ??$__crt_interlocked_compare_exchange_pointer@$$CBDPAD$$T@@YAPBDPDSBDQAD$$T@Z 1002df79 f i libvcruntime:std_type_info.obj
 0001:0002cf8f       ??$__crt_interlocked_read_pointer@$$CBD@@YAPBDPDSBD@Z 1002df8f f i libvcruntime:std_type_info.obj
 0001:0002cfa3       ??0?$__crt_unique_heap_ptr@DU__crt_internal_free_policy@@@@QAE@QAD@Z 1002dfa3 f i libvcruntime:std_type_info.obj
 0001:0002cfb4       ??0?$__crt_unique_heap_ptr@XU__crt_internal_free_policy@@@@QAE@QAX@Z 1002dfb4 f i libvcruntime:std_type_info.obj
 0001:0002cfc5       ??1?$__crt_unique_heap_ptr@DU__crt_internal_free_policy@@@@QAE@XZ 1002dfc5 f i libvcruntime:std_type_info.obj
 0001:0002cfd9       ??1?$__crt_unique_heap_ptr@XU__crt_internal_free_policy@@@@QAE@XZ 1002dfd9 f i libvcruntime:std_type_info.obj
 0001:0002cff9       ??B?$__crt_unique_heap_ptr@DU__crt_internal_free_policy@@@@QBE_NXZ 1002dff9 f i libvcruntime:std_type_info.obj
 0001:0002d003       ??B?$__crt_unique_heap_ptr@XU__crt_internal_free_policy@@@@QBE_NXZ 1002e003 f i libvcruntime:std_type_info.obj
 0001:0002d035       ?detach@?$__crt_unique_heap_ptr@XU__crt_internal_free_policy@@@@QAEPAXXZ 1002e035 f i libvcruntime:std_type_info.obj
 0001:0002d03b       ?get@?$__crt_unique_heap_ptr@DU__crt_internal_free_policy@@@@QBEPADXZ 1002e03b f i libvcruntime:std_type_info.obj
 0001:0002d03e       ?get@?$__crt_unique_heap_ptr@XU__crt_internal_free_policy@@@@QBEPAXXZ 1002e03e f i libvcruntime:std_type_info.obj
 0001:0002d041       ?is_valid@?$__crt_unique_heap_ptr@DU__crt_internal_free_policy@@@@QBE_NXZ 1002e041 f i libvcruntime:std_type_info.obj
 0001:0002d04b       ?is_valid@?$__crt_unique_heap_ptr@XU__crt_internal_free_policy@@@@QBE_NXZ 1002e04b f i libvcruntime:std_type_info.obj
 0001:0002d055       ?release@?$__crt_unique_heap_ptr@DU__crt_internal_free_policy@@@@QAEXXZ 1002e055 f i libvcruntime:std_type_info.obj
 0001:0002d069       ?release@?$__crt_unique_heap_ptr@XU__crt_internal_free_policy@@@@QAEXXZ 1002e069 f i libvcruntime:std_type_info.obj
 0001:0002d07d       ___std_type_info_compare   1002e07d f   libvcruntime:std_type_info.obj
 0001:0002d0c8       ___std_type_info_destroy_list 1002e0c8 f   libvcruntime:std_type_info.obj
 0001:0002d0f3       ___std_type_info_hash      1002e0f3 f   libvcruntime:std_type_info.obj
 0001:0002d122       ___std_type_info_name      1002e122 f   libvcruntime:std_type_info.obj
 0001:0002d21f       ??$?BX@__crt_fast_encoded_nullptr_t@@QBEPAXXZ 1002e21f f i libvcruntime:winapi_downlevel.obj
 0001:0002d23d       ??$__crt_fast_decode_pointer@PAX@@YAPAXQAX@Z 1002e23d f i libvcruntime:winapi_downlevel.obj
 0001:0002d256       ??$__crt_fast_encode_pointer@PAX@@YAPAXQAX@Z 1002e256 f i libvcruntime:winapi_downlevel.obj
 0001:0002d27a       ??$__crt_interlocked_compare_exchange_pointer@UHINSTANCE__@@$$T$$T@@YAPAUHINSTANCE__@@PDSAU0@$$T1@Z 1002e27a f i libvcruntime:winapi_downlevel.obj
 0001:0002d290       ??$__crt_interlocked_compare_exchange_pointer@X$$T$$T@@YAPAXPDSAX$$T1@Z 1002e290 f i libvcruntime:winapi_downlevel.obj
 0001:0002d2a6       ??$__crt_interlocked_exchange_pointer@UHINSTANCE__@@PAU1@@@YAPAUHINSTANCE__@@PDSAU0@QAU0@@Z 1002e2a6 f i libvcruntime:winapi_downlevel.obj
 0001:0002d2b6       ??$__crt_interlocked_exchange_pointer@UHINSTANCE__@@PAX@@YAPAUHINSTANCE__@@PDSAU0@QAX@Z 1002e2b6 f i libvcruntime:winapi_downlevel.obj
 0001:0002d2c6       ??$__crt_interlocked_exchange_pointer@XPAX@@YAPAXPDSAXQAX@Z 1002e2c6 f i libvcruntime:winapi_downlevel.obj
 0001:0002d2d6       ??$__crt_interlocked_read_pointer@UHINSTANCE__@@@@YAPAUHINSTANCE__@@PDSAU0@@Z 1002e2d6 f i libvcruntime:winapi_downlevel.obj
 0001:0002d2ea       ??$__crt_interlocked_read_pointer@X@@YAPAXPDSAX@Z 1002e2ea f i libvcruntime:winapi_downlevel.obj
 0001:0002d2fe       ?__crt_fast_encode_pointer@@YA?AU__crt_fast_encoded_nullptr_t@@$$T@Z 1002e2fe f i libvcruntime:winapi_downlevel.obj
 0001:0002d642       ___vcrt_EventRegister      1002e642 f   libvcruntime:winapi_downlevel.obj
 0001:0002d692       ___vcrt_EventSetInformation 1002e692 f   libvcruntime:winapi_downlevel.obj
 0001:0002d6e5       ___vcrt_EventUnregister    1002e6e5 f   libvcruntime:winapi_downlevel.obj
 0001:0002d72d       ___vcrt_EventWriteTransfer 1002e72d f   libvcruntime:winapi_downlevel.obj
 0001:0002d788       ___vcrt_FlsAlloc           1002e788 f   libvcruntime:winapi_downlevel.obj
 0001:0002d7d0       ___vcrt_FlsFree            1002e7d0 f   libvcruntime:winapi_downlevel.obj
 0001:0002d818       ___vcrt_FlsGetValue        1002e818 f   libvcruntime:winapi_downlevel.obj
 0001:0002d860       ___vcrt_FlsSetValue        1002e860 f   libvcruntime:winapi_downlevel.obj
 0001:0002d8ac       ___vcrt_InitializeCriticalSectionEx 1002e8ac f   libvcruntime:winapi_downlevel.obj
 0001:0002d903       ___vcrt_initialize_winapi_thunks 1002e903 f   libvcruntime:winapi_downlevel.obj
 0001:0002d930       ___vcrt_uninitialize_winapi_thunks 1002e930 f   libvcruntime:winapi_downlevel.obj
 0001:0002d970       __local_unwind4            1002e970 f   libvcruntime:_exsup4_.obj
 0001:0002da46       __seh_longjmp_unwind4@4    1002ea46 f   libvcruntime:_exsup4_.obj
 0001:0002da6e       @_EH4_CallFilterFunc@8     1002ea6e f   libvcruntime:_exsup4_.obj
 0001:0002da85       @_EH4_TransferToHandler@8  1002ea85 f   libvcruntime:_exsup4_.obj
 0001:0002da9e       @_EH4_GlobalUnwind2@8      1002ea9e f   libvcruntime:_exsup4_.obj
 0001:0002dab7       @_EH4_LocalUnwind@16       1002eab7 f   libvcruntime:_exsup4_.obj
 0001:0002db25       ___except_validate_context_record 1002eb25 f   libvcruntime:jbcxrval.obj
 0001:0002db26       ___except_validate_jump_buffer 1002eb26 f   libvcruntime:jbcxrval.obj
 0001:0002db27       ??$?RU__vcrt_ptd@@@__crt_internal_free_policy@@QBEXQBU__vcrt_ptd@@@Z 1002eb27 f i libvcruntime:per_thread_data.obj
 0001:0002db3b       ??0?$__crt_unique_heap_ptr@U__vcrt_ptd@@U__crt_internal_free_policy@@@@QAE@QAU__vcrt_ptd@@@Z 1002eb3b f i libvcruntime:per_thread_data.obj
 0001:0002db4c       ??1?$__crt_unique_heap_ptr@U__vcrt_ptd@@U__crt_internal_free_policy@@@@QAE@XZ 1002eb4c f i libvcruntime:per_thread_data.obj
 0001:0002db60       ??B?$__crt_unique_heap_ptr@U__vcrt_ptd@@U__crt_internal_free_policy@@@@QBE_NXZ 1002eb60 f i libvcruntime:per_thread_data.obj
 0001:0002db6a       ?detach@?$__crt_unique_heap_ptr@U__vcrt_ptd@@U__crt_internal_free_policy@@@@QAEPAU__vcrt_ptd@@XZ 1002eb6a f i libvcruntime:per_thread_data.obj
 0001:0002db70       ?get@?$__crt_unique_heap_ptr@U__vcrt_ptd@@U__crt_internal_free_policy@@@@QBEPAU__vcrt_ptd@@XZ 1002eb70 f i libvcruntime:per_thread_data.obj
 0001:0002db73       ?is_valid@?$__crt_unique_heap_ptr@U__vcrt_ptd@@U__crt_internal_free_policy@@@@QBE_NXZ 1002eb73 f i libvcruntime:per_thread_data.obj
 0001:0002db7d       ?release@?$__crt_unique_heap_ptr@U__vcrt_ptd@@U__crt_internal_free_policy@@@@QAEXXZ 1002eb7d f i libvcruntime:per_thread_data.obj
 0001:0002dbb1       ___vcrt_freefls@4          1002ebb1 f   libvcruntime:per_thread_data.obj
 0001:0002dbd4       ___vcrt_freeptd            1002ebd4 f   libvcruntime:per_thread_data.obj
 0001:0002dc17       ___vcrt_getptd             1002ec17 f   libvcruntime:per_thread_data.obj
 0001:0002dc28       ___vcrt_getptd_noexit      1002ec28 f   libvcruntime:per_thread_data.obj
 0001:0002dcbe       ___vcrt_initialize_ptd     1002ecbe f   libvcruntime:per_thread_data.obj
 0001:0002dcfd       ___vcrt_uninitialize_ptd   1002ecfd f   libvcruntime:per_thread_data.obj
 0001:0002dd1e       ___vcrt_initialize_locks   1002ed1e f   libvcruntime:locks.obj
 0001:0002dd69       ___vcrt_lock               1002ed69 f   libvcruntime:locks.obj
 0001:0002dd83       ___vcrt_uninitialize_locks 1002ed83 f   libvcruntime:locks.obj
 0001:0002ddbd       ___vcrt_unlock             1002edbd f   libvcruntime:locks.obj
 0001:0002ddd7       ??$?B$$A6AXXZ@__crt_fast_encoded_nullptr_t@@QBEP6AXXZXZ 1002edd7 f i libvcruntime:purevirt_data.obj
 0001:0002ddf5       ??$__crt_fast_encode_pointer@P6AXXZ@@YAP6AXXZQ6AXXZ@Z 1002edf5 f i libvcruntime:purevirt_data.obj
 0001:0002de19       ___vcrt_initialize_pure_virtual_call_handler 1002ee19 f   libvcruntime:purevirt_data.obj
 0001:0002de3d       ??$__vcrt_va_start_verify_argument_type@QBD@@YAXXZ 1002ee3d f i libvcruntime:undname.obj
 0001:0002de3e       ??0Block@_HeapManager@@QAE@XZ 1002ee3e f i libvcruntime:undname.obj
 0001:0002de44       ??0DName@@QAE@AAPBDD@Z     1002ee44 f   libvcruntime:undname.obj
 0001:0002df2b       ??0DName@@QAE@ABV0@@Z      1002ef2b f i libvcruntime:undname.obj
 0001:0002df46       ??0DName@@QAE@D@Z          1002ef46 f   libvcruntime:undname.obj
 0001:0002df7d       ??0DName@@QAE@PAV0@@Z      1002ef7d f   libvcruntime:undname.obj
 0001:0002dfdd       ??0DName@@QAE@PBD@Z        1002efdd f   libvcruntime:undname.obj
 0001:0002e025       ??0DName@@QAE@W4DNameStatus@@@Z 1002f025 f   libvcruntime:undname.obj
 0001:0002e078       ??0DName@@QAE@XZ           1002f078 f i libvcruntime:undname.obj
 0001:0002e08d       ??0DName@@QAE@_J@Z         1002f08d f   libvcruntime:undname.obj
 0001:0002e147       ??0DName@@QAE@_K@Z         1002f147 f   libvcruntime:undname.obj
 0001:0002e1d1       ??0DNameNode@@IAE@XZ       1002f1d1 f   libvcruntime:undname.obj
 0001:0002e1dc       ??0DNameStatusNode@@AAE@W4DNameStatus@@@Z 1002f1dc f   libvcruntime:undname.obj
 0001:0002e207       ??0Replicator@@QAE@XZ      1002f207 f i libvcruntime:undname.obj
 0001:0002e20d       ??0UnDecorator@@QAE@PADPBDHP6APADJ@ZK@Z 1002f20d f i libvcruntime:undname.obj
 0001:0002e290       ??0charNode@@QAE@D@Z       1002f290 f   libvcruntime:undname.obj
 0001:0002e2aa       ??0pDNameNode@@QAE@PAVDName@@@Z 1002f2aa f   libvcruntime:undname.obj
 0001:0002e2dc       ??0pairNode@@QAE@PAVDNameNode@@0@Z 1002f2dc f   libvcruntime:undname.obj
 0001:0002e302       ??0pcharNode@@QAE@PBDH@Z   1002f302 f   libvcruntime:undname.obj
 0001:0002e371       ??2@YAPAXIAAV_HeapManager@@H@Z 1002f371 f i libvcruntime:undname.obj
 0001:0002e38b       ??4DName@@QAEAAV0@ABV0@@Z  1002f38b f   libvcruntime:undname.obj
 0001:0002e3a6       ??4DName@@QAEAAV0@D@Z      1002f3a6 f i libvcruntime:undname.obj
 0001:0002e3dd       ??4DName@@QAEAAV0@PAV0@@Z  1002f3dd f   libvcruntime:undname.obj
 0001:0002e438       ??4DName@@QAEAAV0@PBD@Z    1002f438 f   libvcruntime:undname.obj
 0001:0002e476       ??4DName@@QAEAAV0@W4DNameStatus@@@Z 1002f476 f   libvcruntime:undname.obj
 0001:0002e4b8       ??AReplicator@@QBE?AVDName@@H@Z 1002f4b8 f   libvcruntime:undname.obj
 0001:0002e503       ??BUnDecorator@@QAEPADXZ   1002f503 f i libvcruntime:undname.obj
 0001:0002e6dc       ??H@YA?AVDName@@DABV0@@Z   1002f6dc f i libvcruntime:undname.obj
 0001:0002e709       ??H@YA?AVDName@@PBDABV0@@Z 1002f709 f i libvcruntime:undname.obj
 0001:0002e736       ??H@YA?AVDName@@W4DNameStatus@@ABV0@@Z 1002f736 f i libvcruntime:undname.obj
 0001:0002e763       ??HDName@@QBE?AV0@ABV0@@Z  1002f763 f   libvcruntime:undname.obj
 0001:0002e78d       ??HDName@@QBE?AV0@D@Z      1002f78d f   libvcruntime:undname.obj
 0001:0002e7b7       ??HDName@@QBE?AV0@PAV0@@Z  1002f7b7 f   libvcruntime:undname.obj
 0001:0002e7e1       ??HDName@@QBE?AV0@PBD@Z    1002f7e1 f   libvcruntime:undname.obj
 0001:0002e80b       ??HDName@@QBE?AV0@W4DNameStatus@@@Z 1002f80b f   libvcruntime:undname.obj
 0001:0002e835       ??YDName@@QAEAAV0@ABV0@@Z  1002f835 f   libvcruntime:undname.obj
 0001:0002e888       ??YDName@@QAEAAV0@D@Z      1002f888 f   libvcruntime:undname.obj
 0001:0002e8ec       ??YDName@@QAEAAV0@PAV0@@Z  1002f8ec f   libvcruntime:undname.obj
 0001:0002e96a       ??YDName@@QAEAAV0@PBD@Z    1002f96a f   libvcruntime:undname.obj
 0001:0002e9e3       ??YDName@@QAEAAV0@W4DNameStatus@@@Z 1002f9e3 f   libvcruntime:undname.obj
 0001:0002ea33       ??YReplicator@@QAEAAV0@ABVDName@@@Z 1002fa33 f   libvcruntime:undname.obj
 0001:0002ea8f       ??_5DName@@QAEAAV0@ABV0@@Z 1002fa8f f   libvcruntime:undname.obj
 0001:0002eab2       ?Constructor@_HeapManager@@QAEXP6APAXI@ZP6AXPAX@Z@Z 1002fab2 f i libvcruntime:undname.obj
 0001:0002ead6       ?Destructor@_HeapManager@@QAEXXZ 1002fad6 f i libvcruntime:undname.obj
 0001:0002eb1d       ?UScore@UnDecorator@@SAPBDW4Tokens@@@Z 1002fb1d f   libvcruntime:undname.obj
 0001:0002eb41       ?append@DName@@AAEXPAVDNameNode@@@Z 1002fb41 f   libvcruntime:undname.obj
 0001:0002eb98       ?composeDeclaration@UnDecorator@@CA?AVDName@@ABV2@@Z 1002fb98 f i libvcruntime:undname.obj
 0001:0002fc02       ?doAccessSpecifiers@UnDecorator@@SAHXZ 10030c02 f i libvcruntime:undname.obj
 0001:0002fc13       ?doAllocationLanguage@UnDecorator@@SAHXZ 10030c13 f i libvcruntime:undname.obj
 0001:0002fc24       ?doAllocationModel@UnDecorator@@SAHXZ 10030c24 f i libvcruntime:undname.obj
 0001:0002fc35       ?doEcsu@UnDecorator@@SAHXZ 10030c35 f i libvcruntime:undname.obj
 0001:0002fc46       ?doEllipsis@UnDecorator@@SAHXZ 10030c46 f i libvcruntime:undname.obj
 0001:0002fc57       ?doFunctionReturns@UnDecorator@@SAHXZ 10030c57 f i libvcruntime:undname.obj
 0001:0002fc68       ?doMSKeywords@UnDecorator@@SAHXZ 10030c68 f i libvcruntime:undname.obj
 0001:0002fc78       ?doMemberTypes@UnDecorator@@SAHXZ 10030c78 f i libvcruntime:undname.obj
 0001:0002fc89       ?doNameOnly@UnDecorator@@SAHXZ 10030c89 f i libvcruntime:undname.obj
 0001:0002fc96       ?doNoIdentCharCheck@UnDecorator@@SAHXZ 10030c96 f i libvcruntime:undname.obj
 0001:0002fca3       ?doPchar@DName@@AAEXPBDH@Z 10030ca3 f   libvcruntime:undname.obj
 0001:0002fd4f       ?doPtr64@UnDecorator@@SAHXZ 10030d4f f i libvcruntime:undname.obj
 0001:0002fd60       ?doRestrictionSpec@UnDecorator@@SAHXZ 10030d60 f i libvcruntime:undname.obj
 0001:0002fd71       ?doThisTypes@UnDecorator@@SAHXZ 10030d71 f i libvcruntime:undname.obj
 0001:0002fd87       ?doThrowTypes@UnDecorator@@SAHXZ 10030d87 f i libvcruntime:undname.obj
 0001:0002fd98       ?doTypeOnly@UnDecorator@@SAHXZ 10030d98 f i libvcruntime:undname.obj
 0001:0002fda5       ?doUnderScore@UnDecorator@@SAHXZ 10030da5 f i libvcruntime:undname.obj
 0001:0002fdb2       ?getArgumentList@UnDecorator@@CA?AVDName@@XZ 10030db2 f   libvcruntime:undname.obj
 0001:0002ff01       ?getArgumentTypes@UnDecorator@@CA?AVDName@@XZ 10030f01 f   libvcruntime:undname.obj
 0001:00030019       ?getArrayType@UnDecorator@@CA?AVDName@@ABV2@@Z 10031019 f i libvcruntime:undname.obj
 0001:0003029b       ?getBasedType@UnDecorator@@CA?AVDName@@XZ 1003129b f   libvcruntime:undname.obj
 0001:0003035a       ?getBasicDataType@UnDecorator@@CA?AVDName@@ABV2@@Z 1003135a f   libvcruntime:undname.obj
 0001:0003083f       ?getCallIndex@UnDecorator@@CA?AVDName@@XZ 1003183f f i libvcruntime:undname.obj
 0001:00030858       ?getCallingConvention@UnDecorator@@CA?AVDName@@XZ 10031858 f   libvcruntime:undname.obj
 0001:00030946       ?getDataIndirectType@UnDecorator@@CA?AVDName@@ABV2@PBD0H@Z 10031946 f   libvcruntime:undname.obj
 0001:000310f0       ?getDataIndirectType@UnDecorator@@CA?AVDName@@XZ 100320f0 f i libvcruntime:undname.obj
 0001:00031137       ?getDataType@UnDecorator@@CA?AVDName@@PAV2@@Z 10032137 f   libvcruntime:undname.obj
 0001:0003123d       ?getDecoratedName@UnDecorator@@CA?AVDName@@XZ 1003223d f   libvcruntime:undname.obj
 0001:0003151c       ?getDimension@UnDecorator@@CA?AVDName@@_N@Z 1003251c f   libvcruntime:undname.obj
 0001:000316a0       ?getDispatchTarget@UnDecorator@@CA?AVDName@@XZ 100326a0 f   libvcruntime:undname.obj
 0001:00031711       ?getDisplacement@UnDecorator@@CA?AVDName@@XZ 10032711 f i libvcruntime:undname.obj
 0001:0003172a       ?getECSUDataType@UnDecorator@@CA?AVDName@@XZ 1003272a f   libvcruntime:undname.obj
 0001:0003188e       ?getECSUName@UnDecorator@@CA?AVDName@@XZ 1003288e f i libvcruntime:undname.obj
 0001:000318a3       ?getEnumType@UnDecorator@@CA?AVDName@@XZ 100328a3 f i libvcruntime:undname.obj
 0001:000319ca       ?getExtendedDataIndirectType@UnDecorator@@CA?AVDName@@AAPBDAA_NH@Z 100329ca f   libvcruntime:undname.obj
 0001:00031bdd       ?getExternalDataType@UnDecorator@@CA?AVDName@@ABV2@@Z 10032bdd f i libvcruntime:undname.obj
 0001:00031c74       ?getFunctionIndirectType@UnDecorator@@CA?AVDName@@ABV2@@Z 10032c74 f   libvcruntime:undname.obj
 0001:0003217f       ?getGuardNumber@UnDecorator@@CA?AVDName@@XZ 1003317f f i libvcruntime:undname.obj
 0001:00032198       ?getLastChar@DName@@QBEDXZ 10033198 f i libvcruntime:undname.obj
 0001:000321be       ?getLastChar@DNameStatusNode@@UBEDXZ 100331be f i libvcruntime:undname.obj
 0001:000321cd       ?getLastChar@charNode@@UBEDXZ 100331cd f i libvcruntime:undname.obj
 0001:000321d1       ?getLastChar@pDNameNode@@UBEDXZ 100331d1 f i libvcruntime:undname.obj
 0001:000321e2       ?getLastChar@pairNode@@UBEDXZ 100331e2 f i libvcruntime:undname.obj
 0001:00032221       ?getLastChar@pcharNode@@UBEDXZ 10033221 f i libvcruntime:undname.obj
 0001:00032237       ?getLexicalFrame@UnDecorator@@CA?AVDName@@XZ 10033237 f i libvcruntime:undname.obj
 0001:00032283       ?getMemory@_HeapManager@@QAEPAXIH@Z 10033283 f   libvcruntime:undname.obj
 0001:00032334       ?getNumberOfDimensions@UnDecorator@@CAHXZ 10033334 f   libvcruntime:undname.obj
 0001:000323ad       ?getOperatorName@UnDecorator@@CA?AVDName@@_NPA_N@Z 100333ad f i libvcruntime:undname.obj
 0001:00032b5c       ?getPointerType@UnDecorator@@CA?AVDName@@ABV2@0@Z 10033b5c f i libvcruntime:undname.obj
 0001:00032b81       ?getPointerTypeArray@UnDecorator@@CA?AVDName@@ABV2@0@Z 10033b81 f i libvcruntime:undname.obj
 0001:00032ba6       ?getPrimaryDataType@UnDecorator@@CA?AVDName@@ABV2@@Z 10033ba6 f   libvcruntime:undname.obj
 0001:00032df7       ?getPtrRefDataType@UnDecorator@@CA?AVDName@@ABV2@H@Z 10033df7 f   libvcruntime:undname.obj
 0001:00032f39       ?getPtrRefType@UnDecorator@@CA?AVDName@@ABV2@0PBD@Z 10033f39 f   libvcruntime:undname.obj
 0001:00033074       ?getReferenceType@UnDecorator@@CA?AVDName@@ABV2@0PBD@Z 10034074 f i libvcruntime:undname.obj
 0001:00033097       ?getRestrictionSpec@UnDecorator@@CA?AVDName@@XZ 10034097 f   libvcruntime:undname.obj
 0001:000331c5       ?getReturnType@UnDecorator@@CA?AVDName@@PAV2@@Z 100341c5 f   libvcruntime:undname.obj
 0001:000331ff       ?getScope@UnDecorator@@CA?AVDName@@XZ 100341ff f   libvcruntime:undname.obj
 0001:000336d4       ?getScopedName@UnDecorator@@CA?AVDName@@XZ 100346d4 f   libvcruntime:undname.obj
 0001:0003380d       ?getSignedDimension@UnDecorator@@CA?AVDName@@XZ 1003480d f   libvcruntime:undname.obj
 0001:00033874       ?getStorageConvention@UnDecorator@@CA?AVDName@@XZ 10034874 f i libvcruntime:undname.obj
 0001:00033889       ?getString@DName@@QBEPADPAD0@Z 10034889 f i libvcruntime:undname.obj
 0001:000338c0       ?getString@DName@@QBEPADPADH@Z 100348c0 f i libvcruntime:undname.obj
 0001:0003392b       ?getString@DNameStatusNode@@UBEPADPAD0@Z 1003492b f i libvcruntime:undname.obj
 0001:0003395b       ?getString@charNode@@UBEPADPAD0@Z 1003495b f i libvcruntime:undname.obj
 0001:00033975       ?getString@pDNameNode@@UBEPADPAD0@Z 10034975 f i libvcruntime:undname.obj
 0001:00033991       ?getString@pairNode@@UBEPADPAD0@Z 10034991 f i libvcruntime:undname.obj
 0001:000339e6       ?getString@pcharNode@@UBEPADPAD0@Z 100349e6 f i libvcruntime:undname.obj
 0001:00033a07       ?getStringEncoding@UnDecorator@@CA?AVDName@@PADH@Z 10034a07 f   libvcruntime:undname.obj
 0001:00033ad2       ?getStringHelper@@YAPADPAD00H@Z 10034ad2 f i libvcruntime:undname.obj
 0001:00033b16       ?getSymbolName@UnDecorator@@CA?AVDName@@XZ 10034b16 f i libvcruntime:undname.obj
 0001:00033b70       ?getTemplateArgumentList@UnDecorator@@CA?AVDName@@XZ 10034b70 f   libvcruntime:undname.obj
 0001:00033ec8       ?getTemplateConstant@UnDecorator@@CA?AVDName@@XZ 10034ec8 f   libvcruntime:undname.obj
 0001:000342dd       ?getTemplateName@UnDecorator@@CA?AVDName@@_N@Z 100352dd f   libvcruntime:undname.obj
 0001:00034488       ?getThisType@UnDecorator@@CA?AVDName@@XZ 10035488 f i libvcruntime:undname.obj
 0001:000344d0       ?getThrowTypes@UnDecorator@@CA?AVDName@@XZ 100354d0 f   libvcruntime:undname.obj
 0001:0003457c       ?getTypeEncoding@UnDecorator@@CAHXZ 1003557c f i libvcruntime:undname.obj
 0001:00034bbc       ?getVCallThunkType@UnDecorator@@CA?AVDName@@XZ 10035bbc f i libvcruntime:undname.obj
 0001:00034c05       ?getVbTableType@UnDecorator@@CA?AVDName@@ABV2@@Z 10035c05 f i libvcruntime:undname.obj
 0001:00034c1f       ?getVdispMapType@UnDecorator@@CA?AVDName@@ABV2@@Z 10035c1f f i libvcruntime:undname.obj
 0001:00034c8a       ?getVfTableType@UnDecorator@@CA?AVDName@@ABV2@@Z 10035c8a f i libvcruntime:undname.obj
 0001:00034e48       ?getZName@UnDecorator@@CA?AVDName@@_N0@Z 10035e48 f   libvcruntime:undname.obj
 0001:00035118       ?haveTemplateParameters@UnDecorator@@SAHXZ 10036118 f i libvcruntime:undname.obj
 0001:00035125       ?isArray@DName@@QBEHXZ     10036125 f i libvcruntime:undname.obj
 0001:00035131       ?isComArray@DName@@QBEHXZ  10036131 f i libvcruntime:undname.obj
 0001:0003513d       ?isEmpty@DName@@QBEHXZ     1003613d f i libvcruntime:undname.obj
 0001:00035147       ?isFull@Replicator@@QBEHXZ 10036147 f i libvcruntime:undname.obj
 0001:00035152       ?isNoTE@DName@@QBEHXZ      10036152 f i libvcruntime:undname.obj
 0001:0003515e       ?isPinPtr@DName@@QBEHXZ    1003615e f i libvcruntime:undname.obj
 0001:0003516a       ?isPtrRef@DName@@QBEHXZ    1003616a f i libvcruntime:undname.obj
 0001:00035176       ?isUDC@DName@@QBEHXZ       10036176 f i libvcruntime:undname.obj
 0001:0003518b       ?isUDTThunk@DName@@QBEHXZ  1003618b f i libvcruntime:undname.obj
 0001:000351a0       ?isVCallThunk@DName@@QBEHXZ 100361a0 f i libvcruntime:undname.obj
 0001:000351ac       ?isValid@DName@@QBEHXZ     100361ac f i libvcruntime:undname.obj
 0001:000351b8       ?length@DName@@QBEHXZ      100361b8 f i libvcruntime:undname.obj
 0001:000351dd       ?length@DNameStatusNode@@UBEHXZ 100361dd f i libvcruntime:undname.obj
 0001:000351e1       ?length@charNode@@UBEHXZ   100361e1 f i libvcruntime:undname.obj
 0001:000351e5       ?length@pDNameNode@@UBEHXZ 100361e5 f i libvcruntime:undname.obj
 0001:000351f6       ?length@pairNode@@UBEHXZ   100361f6 f i libvcruntime:undname.obj
 0001:00035252       ?length@pcharNode@@UBEHXZ  10036252 f i libvcruntime:undname.obj
 0001:00035256       ?make@DNameStatusNode@@SAPAV1@W4DNameStatus@@@Z 10036256 f i libvcruntime:undname.obj
 0001:000352fd       ?setIsArray@DName@@QAEXXZ  100362fd f i libvcruntime:undname.obj
 0001:00035307       ?setIsComArray@DName@@QAEXXZ 10036307 f i libvcruntime:undname.obj
 0001:00035311       ?setIsNoTE@DName@@QAEXXZ   10036311 f i libvcruntime:undname.obj
 0001:0003531b       ?setIsPinPtr@DName@@QAEXXZ 1003631b f i libvcruntime:undname.obj
 0001:00035325       ?setIsUDC@DName@@QAEXXZ    10036325 f i libvcruntime:undname.obj
 0001:00035335       ?setIsVCallThunk@DName@@QAEXXZ 10036335 f i libvcruntime:undname.obj
 0001:0003533f       ?setPtrRef@DName@@QAEAAV1@XZ 1003633f f i libvcruntime:undname.obj
 0001:0003534b       ?status@DName@@QBE?AW4DNameStatus@@XZ 1003634b f i libvcruntime:undname.obj
 0001:000353d0       ___unDName                 100363d0 f   libvcruntime:undname.obj
 0001:0003548a       ___unDNameEx               1003648a f   libvcruntime:undname.obj
 0001:00035544       __vsprintf_s_l             10036544 f i libvcruntime:undname.obj
 0001:0003557c       _sprintf_s                 1003657c f i libvcruntime:undname.obj
 0001:000355a0       __global_unwind2           100365a0 f   libvcruntime:_exsup_.obj
 0001:00035605       __local_unwind2            10036605 f   libvcruntime:_exsup_.obj
 0001:00035689       __abnormal_termination     10036689 f   libvcruntime:_exsup_.obj
 0001:000356ac       __NLG_Notify1              100366ac f   libvcruntime:_exsup_.obj
 0001:000356b5       __NLG_Notify               100366b5 f   libvcruntime:_exsup_.obj
 0001:000356cc       __NLG_Dispatch2            100366cc     libvcruntime:_exsup_.obj
 0001:000356cc       __NLG_Dispatch             100366cc     libvcruntime:_exsup_.obj
 0001:000356d4       __NLG_Call                 100366d4 f   libvcruntime:_exsup_.obj
 0001:000356d6       __NLG_Return2              100366d6     libvcruntime:_exsup_.obj
 0001:00035724       ??$__crt_fast_decode_pointer@P6AXXZ@@YAP6AXXZQ6AXXZ@Z 10036724 f i libvcruntime:purevirt.obj
 0001:0003573d       ??$__crt_interlocked_compare_exchange_pointer@$$A6AXXZ$$T$$T@@YAP6AXXZPDS6AXXZ$$T1@Z 1003673d f i libvcruntime:purevirt.obj
 0001:00035753       ??$__crt_interlocked_exchange_pointer@$$A6AXXZP6AXXZ@@YAP6AXXZPDS6AXXZQ6AXXZ@Z 10036753 f i libvcruntime:purevirt.obj
 0001:00035763       ??$__crt_interlocked_read_pointer@$$A6AXXZ@@YAP6AXXZPDS6AXXZ@Z 10036763 f i libvcruntime:purevirt.obj
 0001:00035777       __get_purecall_handler     10036777 f   libvcruntime:purevirt.obj
 0001:0003579d       __purecall                 1003679d f   libvcruntime:purevirt.obj
 0001:000357be       __set_purecall_handler     100367be f   libvcruntime:purevirt.obj
 0001:000357ec       _malloc                    100367ec f   libucrt:malloc.obj
 0001:000357f9       ??$?RPAU__crt_stdio_stream_data@@@__crt_internal_free_policy@@QBEXQBQAU__crt_stdio_stream_data@@@Z 100367f9 f i libucrt:_file.obj
 0001:0003580f       ??0?$__crt_unique_heap_ptr@PAU__crt_stdio_stream_data@@U__crt_internal_free_policy@@@@QAE@QAPAU__crt_stdio_stream_data@@@Z 1003680f f i libucrt:_file.obj
 0001:00035823       ??0__crt_stdio_stream@@QAE@QAU_iobuf@@@Z 10036823 f i libucrt:_file.obj
 0001:00035837       ??1?$__crt_unique_heap_ptr@PAU__crt_stdio_stream_data@@U__crt_internal_free_policy@@@@QAE@XZ 10036837 f i libucrt:_file.obj
 0001:0003584d       ??C__crt_stdio_stream@@QBEPAU__crt_stdio_stream_data@@XZ 1003684d f i libucrt:_file.obj
 0001:00035850       ?detach@?$__crt_unique_heap_ptr@PAU__crt_stdio_stream_data@@U__crt_internal_free_policy@@@@QAEPAPAU__crt_stdio_stream_data@@XZ 10036850 f i libucrt:_file.obj
 0001:00035856       ?release@?$__crt_unique_heap_ptr@PAU__crt_stdio_stream_data@@U__crt_internal_free_policy@@@@QAEXXZ 10036856 f i libucrt:_file.obj
 0001:0003586c       ___acrt_initialize_stdio   1003686c f   libucrt:_file.obj
 0001:00035966       ___acrt_iob_func           10036966 f   libucrt:_file.obj
 0001:0003597a       ___acrt_uninitialize_stdio 1003697a f   libucrt:_file.obj
 0001:000359d9       __get_stream_buffer_pointers 100369d9 f   libucrt:_file.obj
 0001:00035a30       __lock_file                10036a30 f   libucrt:_file.obj
 0001:00035a49       __unlock_file              10036a49 f   libucrt:_file.obj
 0001:00035a62       ??$?0ABV?$stream_output_adapter@D@__crt_stdio_output@@AB_KABQBDABQAU__crt_locale_pointers@@ABQAD@?$format_validation_base@DV?$stream_output_adapter@D@__crt_stdio_output@@@__crt_stdio_output@@IAE@ABV?$stream_output_adapter@D@1@AB_KABQBDABQAU__crt_locale_pointers@@ABQAD@Z 10036a62 f i libucrt:output.obj
 0001:00035a8d       ??$?0ABV?$stream_output_adapter@D@__crt_stdio_output@@AB_KABQBDABQAU__crt_locale_pointers@@ABQAD@?$positional_parameter_base@DV?$stream_output_adapter@D@__crt_stdio_output@@@__crt_stdio_output@@IAE@ABV?$stream_output_adapter@D@1@AB_KABQBDABQAU__crt_locale_pointers@@ABQAD@Z 10036a8d f i libucrt:output.obj
 0001:00035ae7       ??$?0ABV?$stream_output_adapter@D@__crt_stdio_output@@AB_KABQBDABQAU__crt_locale_pointers@@ABQAD@?$standard_base@DV?$stream_output_adapter@D@__crt_stdio_output@@@__crt_stdio_output@@IAE@ABV?$stream_output_adapter@D@1@AB_KABQBDABQAU__crt_locale_pointers@@ABQAD@Z 10036ae7 f i libucrt:output.obj
 0001:00035b29       ??$?0ABV?$stream_output_adapter@_W@__crt_stdio_output@@AB_KABQB_WABQAU__crt_locale_pointers@@ABQAD@?$format_validation_base@_WV?$stream_output_adapter@_W@__crt_stdio_output@@@__crt_stdio_output@@IAE@ABV?$stream_output_adapter@_W@1@AB_KABQB_WABQAU__crt_locale_pointers@@ABQAD@Z 10036b29 f i libucrt:output.obj
 0001:00035b54       ??$?0ABV?$stream_output_adapter@_W@__crt_stdio_output@@AB_KABQB_WABQAU__crt_locale_pointers@@ABQAD@?$positional_parameter_base@_WV?$stream_output_adapter@_W@__crt_stdio_output@@@__crt_stdio_output@@IAE@ABV?$stream_output_adapter@_W@1@AB_KABQB_WABQAU__crt_locale_pointers@@ABQAD@Z 10036b54 f i libucrt:output.obj
 0001:00035bae       ??$?0ABV?$stream_output_adapter@_W@__crt_stdio_output@@AB_KABQB_WABQAU__crt_locale_pointers@@ABQAD@?$standard_base@_WV?$stream_output_adapter@_W@__crt_stdio_output@@@__crt_stdio_output@@IAE@ABV?$stream_output_adapter@_W@1@AB_KABQB_WABQAU__crt_locale_pointers@@ABQAD@Z 10036bae f i libucrt:output.obj
 0001:00035bf0       ??$?0ABV?$string_output_adapter@D@__crt_stdio_output@@AB_KABQBDABQAU__crt_locale_pointers@@ABQAD@?$format_validation_base@DV?$string_output_adapter@D@__crt_stdio_output@@@__crt_stdio_output@@IAE@ABV?$string_output_adapter@D@1@AB_KABQBDABQAU__crt_locale_pointers@@ABQAD@Z 10036bf0 f i libucrt:output.obj
 0001:00035c1b       ??$?0ABV?$string_output_adapter@D@__crt_stdio_output@@AB_KABQBDABQAU__crt_locale_pointers@@ABQAD@?$positional_parameter_base@DV?$string_output_adapter@D@__crt_stdio_output@@@__crt_stdio_output@@IAE@ABV?$string_output_adapter@D@1@AB_KABQBDABQAU__crt_locale_pointers@@ABQAD@Z 10036c1b f i libucrt:output.obj
 0001:00035c75       ??$?0ABV?$string_output_adapter@D@__crt_stdio_output@@AB_KABQBDABQAU__crt_locale_pointers@@ABQAD@?$standard_base@DV?$string_output_adapter@D@__crt_stdio_output@@@__crt_stdio_output@@IAE@ABV?$string_output_adapter@D@1@AB_KABQBDABQAU__crt_locale_pointers@@ABQAD@Z 10036c75 f i libucrt:output.obj
 0001:00035cb7       ??$?0ABV?$string_output_adapter@_W@__crt_stdio_output@@AB_KABQB_WABQAU__crt_locale_pointers@@ABQAD@?$format_validation_base@_WV?$string_output_adapter@_W@__crt_stdio_output@@@__crt_stdio_output@@IAE@ABV?$string_output_adapter@_W@1@AB_KABQB_WABQAU__crt_locale_pointers@@ABQAD@Z 10036cb7 f i libucrt:output.obj
 0001:00035ce2       ??$?0ABV?$string_output_adapter@_W@__crt_stdio_output@@AB_KABQB_WABQAU__crt_locale_pointers@@ABQAD@?$positional_parameter_base@_WV?$string_output_adapter@_W@__crt_stdio_output@@@__crt_stdio_output@@IAE@ABV?$string_output_adapter@_W@1@AB_KABQB_WABQAU__crt_locale_pointers@@ABQAD@Z 10036ce2 f i libucrt:output.obj
 0001:00035d3c       ??$?0ABV?$string_output_adapter@_W@__crt_stdio_output@@AB_KABQB_WABQAU__crt_locale_pointers@@ABQAD@?$standard_base@_WV?$string_output_adapter@_W@__crt_stdio_output@@@__crt_stdio_output@@IAE@ABV?$string_output_adapter@_W@1@AB_KABQB_WABQAU__crt_locale_pointers@@ABQAD@Z 10036d3c f i libucrt:output.obj
 0001:00035d7e       ??$?RV<lambda_2293f24e3ce1ad6fe22ccfb9dec07671>@@AAV<lambda_2565fc715a641e539f44ad02d6823606>@@V<lambda_d3217f279b832965d9ca670dc2993570>@@@?$__crt_seh_guarded_call@H@@QAEH$$QAV<lambda_2293f24e3ce1ad6fe22ccfb9dec07671>@@AAV<lambda_2565fc715a641e539f44ad02d6823606>@@$$QAV<lambda_d3217f279b832965d9ca670dc2993570>@@@Z 10036d7e f i libucrt:output.obj
 0001:00035de3       ??$?RV<lambda_4d4ac866be0fa3c441830420fabdd2cb>@@AAV<lambda_63a10c2dc8dbb9e4dd1890be52af7c93>@@V<lambda_002af9fa0f8fe472b648c51882d4fc32>@@@?$__crt_seh_guarded_call@H@@QAEH$$QAV<lambda_4d4ac866be0fa3c441830420fabdd2cb>@@AAV<lambda_63a10c2dc8dbb9e4dd1890be52af7c93>@@$$QAV<lambda_002af9fa0f8fe472b648c51882d4fc32>@@@Z 10036de3 f i libucrt:output.obj
 0001:00035e48       ??$?RV<lambda_5be909dfbae0a631386585770cd7b676>@@AAV<lambda_e516058a9c289d98c8ca9fea99247804>@@V<lambda_afe2e0cdc5e0ecf6f0d6f5e2f8985e38>@@@?$__crt_seh_guarded_call@H@@QAEH$$QAV<lambda_5be909dfbae0a631386585770cd7b676>@@AAV<lambda_e516058a9c289d98c8ca9fea99247804>@@$$QAV<lambda_afe2e0cdc5e0ecf6f0d6f5e2f8985e38>@@@Z 10036e48 f i libucrt:output.obj
 0001:00035ead       ??$?RV<lambda_823d65812123d985753d53e2a8c25d20>@@AAV<lambda_0a97c9e57da7be065955385c79108ff2>@@V<lambda_4d2973f3ad2d226f00468307185dca1b>@@@?$__crt_seh_guarded_call@H@@QAEH$$QAV<lambda_823d65812123d985753d53e2a8c25d20>@@AAV<lambda_0a97c9e57da7be065955385c79108ff2>@@$$QAV<lambda_4d2973f3ad2d226f00468307185dca1b>@@@Z 10036ead f i libucrt:output.obj
 0001:00035f12       ??$?RV<lambda_ab9923ffb5d694ec0d78876dd103e44f>@@AAV<lambda_481dd5778c961fbcd3b60b650e9b9dc4>@@V<lambda_7923d86c9e3f319b415918ec4b39749c>@@@?$__crt_seh_guarded_call@H@@QAEH$$QAV<lambda_ab9923ffb5d694ec0d78876dd103e44f>@@AAV<lambda_481dd5778c961fbcd3b60b650e9b9dc4>@@$$QAV<lambda_7923d86c9e3f319b415918ec4b39749c>@@@Z 10036f12 f i libucrt:output.obj
 0001:00035f77       ??$?RV<lambda_db08b09ef7aa9d4f8620ce68402612bc>@@AAV<lambda_4f2c1eaeead2a5fc776db5b62ea0fb9b>@@V<lambda_3ae262bc35d4ba6a3825c4f6bcaaf95c>@@@?$__crt_seh_guarded_call@H@@QAEH$$QAV<lambda_db08b09ef7aa9d4f8620ce68402612bc>@@AAV<lambda_4f2c1eaeead2a5fc776db5b62ea0fb9b>@@$$QAV<lambda_3ae262bc35d4ba6a3825c4f6bcaaf95c>@@@Z 10036f77 f i libucrt:output.obj
 0001:00035fdc       ??$__acrt_lock_stream_and_call@V<lambda_0a97c9e57da7be065955385c79108ff2>@@@@YAHQAU_iobuf@@$$QAV<lambda_0a97c9e57da7be065955385c79108ff2>@@@Z 10036fdc f i libucrt:output.obj
 0001:0003600e       ??$__acrt_lock_stream_and_call@V<lambda_2565fc715a641e539f44ad02d6823606>@@@@YAHQAU_iobuf@@$$QAV<lambda_2565fc715a641e539f44ad02d6823606>@@@Z 1003700e f i libucrt:output.obj
 0001:00036040       ??$__acrt_lock_stream_and_call@V<lambda_481dd5778c961fbcd3b60b650e9b9dc4>@@@@YAHQAU_iobuf@@$$QAV<lambda_481dd5778c961fbcd3b60b650e9b9dc4>@@@Z 10037040 f i libucrt:output.obj
 0001:00036072       ??$__acrt_lock_stream_and_call@V<lambda_4f2c1eaeead2a5fc776db5b62ea0fb9b>@@@@YAHQAU_iobuf@@$$QAV<lambda_4f2c1eaeead2a5fc776db5b62ea0fb9b>@@@Z 10037072 f i libucrt:output.obj
 0001:000360a4       ??$__acrt_lock_stream_and_call@V<lambda_63a10c2dc8dbb9e4dd1890be52af7c93>@@@@YAHQAU_iobuf@@$$QAV<lambda_63a10c2dc8dbb9e4dd1890be52af7c93>@@@Z 100370a4 f i libucrt:output.obj
 0001:000360d6       ??$__acrt_lock_stream_and_call@V<lambda_e516058a9c289d98c8ca9fea99247804>@@@@YAHQAU_iobuf@@$$QAV<lambda_e516058a9c289d98c8ca9fea99247804>@@@Z 100370d6 f i libucrt:output.obj
 0001:00036108       ??$__crt_interlocked_read@J@@YAJPDJ@Z 10037108 f i libucrt:output.obj
 0001:00037353       ??$count@D@formatting_buffer@__crt_stdio_output@@QBEIXZ 10038353 f i libucrt:output.obj
 0001:00037371       ??$data@D@formatting_buffer@__crt_stdio_output@@QAEPADXZ 10038371 f i libucrt:output.obj
 0001:00037381       ??$data@_W@formatting_buffer@__crt_stdio_output@@QAEPA_WXZ 10038381 f i libucrt:output.obj
 0001:00037391       ??$ensure_buffer_is_big_enough@D@formatting_buffer@__crt_stdio_output@@QAE_NI@Z 10038391 f i libucrt:output.obj
 0001:00037438       ??$extract_argument_from_va_list@C_J@?$positional_parameter_base@DV?$stream_output_adapter@D@__crt_stdio_output@@@__crt_stdio_output@@IAE_NAA_J@Z 10038438 f i libucrt:output.obj
 0001:000374d6       ??$extract_argument_from_va_list@C_J@?$positional_parameter_base@DV?$string_output_adapter@D@__crt_stdio_output@@@__crt_stdio_output@@IAE_NAA_J@Z 100384d6 f i libucrt:output.obj
 0001:00037574       ??$extract_argument_from_va_list@C_J@?$positional_parameter_base@_WV?$stream_output_adapter@_W@__crt_stdio_output@@@__crt_stdio_output@@IAE_NAA_J@Z 10038574 f i libucrt:output.obj
 0001:00037612       ??$extract_argument_from_va_list@C_J@?$positional_parameter_base@_WV?$string_output_adapter@_W@__crt_stdio_output@@@__crt_stdio_output@@IAE_NAA_J@Z 10038612 f i libucrt:output.obj
 0001:000376b0       ??$extract_argument_from_va_list@C_J@?$standard_base@DV?$stream_output_adapter@D@__crt_stdio_output@@@__crt_stdio_output@@IAE_NAA_J@Z 100386b0 f i libucrt:output.obj
 0001:000376d6       ??$extract_argument_from_va_list@C_J@?$standard_base@DV?$string_output_adapter@D@__crt_stdio_output@@@__crt_stdio_output@@IAE_NAA_J@Z 100386d6 f i libucrt:output.obj
 0001:000376fc       ??$extract_argument_from_va_list@C_J@?$standard_base@_WV?$stream_output_adapter@_W@__crt_stdio_output@@@__crt_stdio_output@@IAE_NAA_J@Z 100386fc f i libucrt:output.obj
 0001:00037722       ??$extract_argument_from_va_list@C_J@?$standard_base@_WV?$string_output_adapter@_W@__crt_stdio_output@@@__crt_stdio_output@@IAE_NAA_J@Z 10038722 f i libucrt:output.obj
 0001:00037748       ??$extract_argument_from_va_list@E_J@?$positional_parameter_base@DV?$stream_output_adapter@D@__crt_stdio_output@@@__crt_stdio_output@@IAE_NAA_J@Z 10038748 f i libucrt:output.obj
 0001:000377e6       ??$extract_argument_from_va_list@E_J@?$positional_parameter_base@DV?$string_output_adapter@D@__crt_stdio_output@@@__crt_stdio_output@@IAE_NAA_J@Z 100387e6 f i libucrt:output.obj
 0001:00037884       ??$extract_argument_from_va_list@E_J@?$positional_parameter_base@_WV?$stream_output_adapter@_W@__crt_stdio_output@@@__crt_stdio_output@@IAE_NAA_J@Z 10038884 f i libucrt:output.obj
 0001:00037922       ??$extract_argument_from_va_list@E_J@?$positional_parameter_base@_WV?$string_output_adapter@_W@__crt_stdio_output@@@__crt_stdio_output@@IAE_NAA_J@Z 10038922 f i libucrt:output.obj
 0001:000379c0       ??$extract_argument_from_va_list@E_J@?$standard_base@DV?$stream_output_adapter@D@__crt_stdio_output@@@__crt_stdio_output@@IAE_NAA_J@Z 100389c0 f i libucrt:output.obj
 0001:000379e6       ??$extract_argument_from_va_list@E_J@?$standard_base@DV?$string_output_adapter@D@__crt_stdio_output@@@__crt_stdio_output@@IAE_NAA_J@Z 100389e6 f i libucrt:output.obj
 0001:00037a0c       ??$extract_argument_from_va_list@E_J@?$standard_base@_WV?$stream_output_adapter@_W@__crt_stdio_output@@@__crt_stdio_output@@IAE_NAA_J@Z 10038a0c f i libucrt:output.obj
 0001:00037a32       ??$extract_argument_from_va_list@E_J@?$standard_base@_WV?$string_output_adapter@_W@__crt_stdio_output@@@__crt_stdio_output@@IAE_NAA_J@Z 10038a32 f i libucrt:output.obj
 0001:00037a58       ??$extract_argument_from_va_list@F_J@?$positional_parameter_base@DV?$stream_output_adapter@D@__crt_stdio_output@@@__crt_stdio_output@@IAE_NAA_J@Z 10038a58 f i libucrt:output.obj
 0001:00037af6       ??$extract_argument_from_va_list@F_J@?$positional_parameter_base@DV?$string_output_adapter@D@__crt_stdio_output@@@__crt_stdio_output@@IAE_NAA_J@Z 10038af6 f i libucrt:output.obj
 0001:00037b94       ??$extract_argument_from_va_list@F_J@?$positional_parameter_base@_WV?$stream_output_adapter@_W@__crt_stdio_output@@@__crt_stdio_output@@IAE_NAA_J@Z 10038b94 f i libucrt:output.obj
 0001:00037c32       ??$extract_argument_from_va_list@F_J@?$positional_parameter_base@_WV?$string_output_adapter@_W@__crt_stdio_output@@@__crt_stdio_output@@IAE_NAA_J@Z 10038c32 f i libucrt:output.obj
 0001:00037cd0       ??$extract_argument_from_va_list@F_J@?$standard_base@DV?$stream_output_adapter@D@__crt_stdio_output@@@__crt_stdio_output@@IAE_NAA_J@Z 10038cd0 f i libucrt:output.obj
 0001:00037cf6       ??$extract_argument_from_va_list@F_J@?$standard_base@DV?$string_output_adapter@D@__crt_stdio_output@@@__crt_stdio_output@@IAE_NAA_J@Z 10038cf6 f i libucrt:output.obj
 0001:00037d1c       ??$extract_argument_from_va_list@F_J@?$standard_base@_WV?$stream_output_adapter@_W@__crt_stdio_output@@@__crt_stdio_output@@IAE_NAA_J@Z 10038d1c f i libucrt:output.obj
 0001:00037d42       ??$extract_argument_from_va_list@F_J@?$standard_base@_WV?$string_output_adapter@_W@__crt_stdio_output@@@__crt_stdio_output@@IAE_NAA_J@Z 10038d42 f i libucrt:output.obj
 0001:00037d68       ??$extract_argument_from_va_list@GD@?$positional_parameter_base@DV?$stream_output_adapter@D@__crt_stdio_output@@@__crt_stdio_output@@IAE_NAAD@Z 10038d68 f i libucrt:output.obj
 0001:00037e05       ??$extract_argument_from_va_list@GD@?$positional_parameter_base@DV?$string_output_adapter@D@__crt_stdio_output@@@__crt_stdio_output@@IAE_NAAD@Z 10038e05 f i libucrt:output.obj
 0001:00037ea2       ??$extract_argument_from_va_list@GD@?$standard_base@DV?$stream_output_adapter@D@__crt_stdio_output@@@__crt_stdio_output@@IAE_NAAD@Z 10038ea2 f i libucrt:output.obj
 0001:00037ec2       ??$extract_argument_from_va_list@GD@?$standard_base@DV?$string_output_adapter@D@__crt_stdio_output@@@__crt_stdio_output@@IAE_NAAD@Z 10038ec2 f i libucrt:output.obj
 0001:00037ee2       ??$extract_argument_from_va_list@G_J@?$positional_parameter_base@DV?$stream_output_adapter@D@__crt_stdio_output@@@__crt_stdio_output@@IAE_NAA_J@Z 10038ee2 f i libucrt:output.obj
 0001:00037f80       ??$extract_argument_from_va_list@G_J@?$positional_parameter_base@DV?$string_output_adapter@D@__crt_stdio_output@@@__crt_stdio_output@@IAE_NAA_J@Z 10038f80 f i libucrt:output.obj
 0001:0003801e       ??$extract_argument_from_va_list@G_J@?$positional_parameter_base@_WV?$stream_output_adapter@_W@__crt_stdio_output@@@__crt_stdio_output@@IAE_NAA_J@Z 1003901e f i libucrt:output.obj
 0001:000380bc       ??$extract_argument_from_va_list@G_J@?$positional_parameter_base@_WV?$string_output_adapter@_W@__crt_stdio_output@@@__crt_stdio_output@@IAE_NAA_J@Z 100390bc f i libucrt:output.obj
 0001:0003815a       ??$extract_argument_from_va_list@G_J@?$standard_base@DV?$stream_output_adapter@D@__crt_stdio_output@@@__crt_stdio_output@@IAE_NAA_J@Z 1003915a f i libucrt:output.obj
 0001:00038180       ??$extract_argument_from_va_list@G_J@?$standard_base@DV?$string_output_adapter@D@__crt_stdio_output@@@__crt_stdio_output@@IAE_NAA_J@Z 10039180 f i libucrt:output.obj
 0001:000381a6       ??$extract_argument_from_va_list@G_J@?$standard_base@_WV?$stream_output_adapter@_W@__crt_stdio_output@@@__crt_stdio_output@@IAE_NAA_J@Z 100391a6 f i libucrt:output.obj
 0001:000381cc       ??$extract_argument_from_va_list@G_J@?$standard_base@_WV?$string_output_adapter@_W@__crt_stdio_output@@@__crt_stdio_output@@IAE_NAA_J@Z 100391cc f i libucrt:output.obj
 0001:000381f2       ??$extract_argument_from_va_list@H_J@?$positional_parameter_base@DV?$stream_output_adapter@D@__crt_stdio_output@@@__crt_stdio_output@@IAE_NAA_J@Z 100391f2 f i libucrt:output.obj
 0001:0003828e       ??$extract_argument_from_va_list@H_J@?$positional_parameter_base@DV?$string_output_adapter@D@__crt_stdio_output@@@__crt_stdio_output@@IAE_NAA_J@Z 1003928e f i libucrt:output.obj
 0001:0003832a       ??$extract_argument_from_va_list@H_J@?$positional_parameter_base@_WV?$stream_output_adapter@_W@__crt_stdio_output@@@__crt_stdio_output@@IAE_NAA_J@Z 1003932a f i libucrt:output.obj
 0001:000383c6       ??$extract_argument_from_va_list@H_J@?$positional_parameter_base@_WV?$string_output_adapter@_W@__crt_stdio_output@@@__crt_stdio_output@@IAE_NAA_J@Z 100393c6 f i libucrt:output.obj
 0001:00038462       ??$extract_argument_from_va_list@H_J@?$standard_base@DV?$stream_output_adapter@D@__crt_stdio_output@@@__crt_stdio_output@@IAE_NAA_J@Z 10039462 f i libucrt:output.obj
 0001:00038487       ??$extract_argument_from_va_list@H_J@?$standard_base@DV?$string_output_adapter@D@__crt_stdio_output@@@__crt_stdio_output@@IAE_NAA_J@Z 10039487 f i libucrt:output.obj
 0001:000384ac       ??$extract_argument_from_va_list@H_J@?$standard_base@_WV?$stream_output_adapter@_W@__crt_stdio_output@@@__crt_stdio_output@@IAE_NAA_J@Z 100394ac f i libucrt:output.obj
 0001:000384d1       ??$extract_argument_from_va_list@H_J@?$standard_base@_WV?$string_output_adapter@_W@__crt_stdio_output@@@__crt_stdio_output@@IAE_NAA_J@Z 100394d1 f i libucrt:output.obj
 0001:000384f6       ??$extract_argument_from_va_list@I_J@?$positional_parameter_base@DV?$stream_output_adapter@D@__crt_stdio_output@@@__crt_stdio_output@@IAE_NAA_J@Z 100394f6 f i libucrt:output.obj
 0001:0003859d       ??$extract_argument_from_va_list@I_J@?$positional_parameter_base@DV?$string_output_adapter@D@__crt_stdio_output@@@__crt_stdio_output@@IAE_NAA_J@Z 1003959d f i libucrt:output.obj
 0001:00038644       ??$extract_argument_from_va_list@I_J@?$positional_parameter_base@_WV?$stream_output_adapter@_W@__crt_stdio_output@@@__crt_stdio_output@@IAE_NAA_J@Z 10039644 f i libucrt:output.obj
 0001:000386eb       ??$extract_argument_from_va_list@I_J@?$positional_parameter_base@_WV?$string_output_adapter@_W@__crt_stdio_output@@@__crt_stdio_output@@IAE_NAA_J@Z 100396eb f i libucrt:output.obj
 0001:00038792       ??$extract_argument_from_va_list@I_J@?$standard_base@DV?$stream_output_adapter@D@__crt_stdio_output@@@__crt_stdio_output@@IAE_NAA_J@Z 10039792 f i libucrt:output.obj
 0001:000387b7       ??$extract_argument_from_va_list@I_J@?$standard_base@DV?$string_output_adapter@D@__crt_stdio_output@@@__crt_stdio_output@@IAE_NAA_J@Z 100397b7 f i libucrt:output.obj
 0001:000387dc       ??$extract_argument_from_va_list@I_J@?$standard_base@_WV?$stream_output_adapter@_W@__crt_stdio_output@@@__crt_stdio_output@@IAE_NAA_J@Z 100397dc f i libucrt:output.obj
 0001:00038801       ??$extract_argument_from_va_list@I_J@?$standard_base@_WV?$string_output_adapter@_W@__crt_stdio_output@@@__crt_stdio_output@@IAE_NAA_J@Z 10039801 f i libucrt:output.obj
 0001:00038826       ??$extract_argument_from_va_list@PADPAD@?$positional_parameter_base@DV?$stream_output_adapter@D@__crt_stdio_output@@@__crt_stdio_output@@IAE_NAAPAD@Z 10039826 f i libucrt:output.obj
 0001:000388c3       ??$extract_argument_from_va_list@PADPAD@?$positional_parameter_base@DV?$string_output_adapter@D@__crt_stdio_output@@@__crt_stdio_output@@IAE_NAAPAD@Z 100398c3 f i libucrt:output.obj
 0001:00038960       ??$extract_argument_from_va_list@PADPAD@?$positional_parameter_base@_WV?$stream_output_adapter@_W@__crt_stdio_output@@@__crt_stdio_output@@IAE_NAAPAD@Z 10039960 f i libucrt:output.obj
 0001:000389fd       ??$extract_argument_from_va_list@PADPAD@?$positional_parameter_base@_WV?$string_output_adapter@_W@__crt_stdio_output@@@__crt_stdio_output@@IAE_NAAPAD@Z 100399fd f i libucrt:output.obj
 0001:00038a9a       ??$extract_argument_from_va_list@PADPAD@?$standard_base@DV?$stream_output_adapter@D@__crt_stdio_output@@@__crt_stdio_output@@IAE_NAAPAD@Z 10039a9a f i libucrt:output.obj
 0001:00038aba       ??$extract_argument_from_va_list@PADPAD@?$standard_base@DV?$string_output_adapter@D@__crt_stdio_output@@@__crt_stdio_output@@IAE_NAAPAD@Z 10039aba f i libucrt:output.obj
 0001:00038ada       ??$extract_argument_from_va_list@PADPAD@?$standard_base@_WV?$stream_output_adapter@_W@__crt_stdio_output@@@__crt_stdio_output@@IAE_NAAPAD@Z 10039ada f i libucrt:output.obj
 0001:00038afa       ??$extract_argument_from_va_list@PADPAD@?$standard_base@_WV?$string_output_adapter@_W@__crt_stdio_output@@@__crt_stdio_output@@IAE_NAAPAD@Z 10039afa f i libucrt:output.obj
 0001:00038b1a       ??$extract_argument_from_va_list@PAUansi_string@?1??type_case_Z@?$output_processor@DV?$stream_output_adapter@D@__crt_stdio_output@@V?$format_validation_base@DV?$stream_output_adapter@D@__crt_stdio_output@@@2@@__crt_stdio_output@@AAE_NXZ@PAU1?1??234@AAE_NXZ@@?$standard_base@DV?$stream_output_adapter@D@__crt_stdio_output@@@__crt_stdio_output@@IAE_NAAPAUansi_string@?1??type_case_Z@?$output_processor@DV?$stream_output_adapter@D@__crt_stdio_output@@V?$format_validation_base@DV?$stream_output_adapter@D@__crt_stdio_output@@@2@@1@AAE_NXZ@@Z 10039b1a f i libucrt:output.obj
 0001:00038b3a       ??$extract_argument_from_va_list@PAUansi_string@?1??type_case_Z@?$output_processor@DV?$stream_output_adapter@D@__crt_stdio_output@@V?$positional_parameter_base@DV?$stream_output_adapter@D@__crt_stdio_output@@@2@@__crt_stdio_output@@AAE_NXZ@PAU1?1??234@AAE_NXZ@@?$positional_parameter_base@DV?$stream_output_adapter@D@__crt_stdio_output@@@__crt_stdio_output@@IAE_NAAPAUansi_string@?1??type_case_Z@?$output_processor@DV?$stream_output_adapter@D@__crt_stdio_output@@V?$positional_parameter_base@DV?$stream_output_adapter@D@__crt_stdio_output@@@2@@1@AAE_NXZ@@Z 10039b3a f i libucrt:output.obj
 0001:00038bd7       ??$extract_argument_from_va_list@PAUansi_string@?1??type_case_Z@?$output_processor@DV?$stream_output_adapter@D@__crt_stdio_output@@V?$positional_parameter_base@DV?$stream_output_adapter@D@__crt_stdio_output@@@2@@__crt_stdio_output@@AAE_NXZ@PAU1?1??234@AAE_NXZ@@?$standard_base@DV?$stream_output_adapter@D@__crt_stdio_output@@@__crt_stdio_output@@IAE_NAAPAUansi_string@?1??type_case_Z@?$output_processor@DV?$stream_output_adapter@D@__crt_stdio_output@@V?$positional_parameter_base@DV?$stream_output_adapter@D@__crt_stdio_output@@@2@@1@AAE_NXZ@@Z 10039bd7 f i libucrt:output.obj
 0001:00038bf7       ??$extract_argument_from_va_list@PAUansi_string@?1??type_case_Z@?$output_processor@DV?$stream_output_adapter@D@__crt_stdio_output@@V?$standard_base@DV?$stream_output_adapter@D@__crt_stdio_output@@@2@@__crt_stdio_output@@AAE_NXZ@PAU1?1??234@AAE_NXZ@@?$standard_base@DV?$stream_output_adapter@D@__crt_stdio_output@@@__crt_stdio_output@@IAE_NAAPAUansi_string@?1??type_case_Z@?$output_processor@DV?$stream_output_adapter@D@__crt_stdio_output@@V?$standard_base@DV?$stream_output_adapter@D@__crt_stdio_output@@@2@@1@AAE_NXZ@@Z 10039bf7 f i libucrt:output.obj
 0001:00038c17       ??$extract_argument_from_va_list@PAUansi_string@?1??type_case_Z@?$output_processor@DV?$string_output_adapter@D@__crt_stdio_output@@V?$format_validation_base@DV?$string_output_adapter@D@__crt_stdio_output@@@2@@__crt_stdio_output@@AAE_NXZ@PAU1?1??234@AAE_NXZ@@?$standard_base@DV?$string_output_adapter@D@__crt_stdio_output@@@__crt_stdio_output@@IAE_NAAPAUansi_string@?1??type_case_Z@?$output_processor@DV?$string_output_adapter@D@__crt_stdio_output@@V?$format_validation_base@DV?$string_output_adapter@D@__crt_stdio_output@@@2@@1@AAE_NXZ@@Z 10039c17 f i libucrt:output.obj
 0001:00038c37       ??$extract_argument_from_va_list@PAUansi_string@?1??type_case_Z@?$output_processor@DV?$string_output_adapter@D@__crt_stdio_output@@V?$positional_parameter_base@DV?$string_output_adapter@D@__crt_stdio_output@@@2@@__crt_stdio_output@@AAE_NXZ@PAU1?1??234@AAE_NXZ@@?$positional_parameter_base@DV?$string_output_adapter@D@__crt_stdio_output@@@__crt_stdio_output@@IAE_NAAPAUansi_string@?1??type_case_Z@?$output_processor@DV?$string_output_adapter@D@__crt_stdio_output@@V?$positional_parameter_base@DV?$string_output_adapter@D@__crt_stdio_output@@@2@@1@AAE_NXZ@@Z 10039c37 f i libucrt:output.obj
 0001:00038cd4       ??$extract_argument_from_va_list@PAUansi_string@?1??type_case_Z@?$output_processor@DV?$string_output_adapter@D@__crt_stdio_output@@V?$positional_parameter_base@DV?$string_output_adapter@D@__crt_stdio_output@@@2@@__crt_stdio_output@@AAE_NXZ@PAU1?1??234@AAE_NXZ@@?$standard_base@DV?$string_output_adapter@D@__crt_stdio_output@@@__crt_stdio_output@@IAE_NAAPAUansi_string@?1??type_case_Z@?$output_processor@DV?$string_output_adapter@D@__crt_stdio_output@@V?$positional_parameter_base@DV?$string_output_adapter@D@__crt_stdio_output@@@2@@1@AAE_NXZ@@Z 10039cd4 f i libucrt:output.obj
 0001:00038cf4       ??$extract_argument_from_va_list@PAUansi_string@?1??type_case_Z@?$output_processor@DV?$string_output_adapter@D@__crt_stdio_output@@V?$standard_base@DV?$string_output_adapter@D@__crt_stdio_output@@@2@@__crt_stdio_output@@AAE_NXZ@PAU1?1??234@AAE_NXZ@@?$standard_base@DV?$string_output_adapter@D@__crt_stdio_output@@@__crt_stdio_output@@IAE_NAAPAUansi_string@?1??type_case_Z@?$output_processor@DV?$string_output_adapter@D@__crt_stdio_output@@V?$standard_base@DV?$string_output_adapter@D@__crt_stdio_output@@@2@@1@AAE_NXZ@@Z 10039cf4 f i libucrt:output.obj
 0001:00038d14       ??$extract_argument_from_va_list@PAUansi_string@?1??type_case_Z@?$output_processor@_WV?$stream_output_adapter@_W@__crt_stdio_output@@V?$format_validation_base@_WV?$stream_output_adapter@_W@__crt_stdio_output@@@2@@__crt_stdio_output@@AAE_NXZ@PAU1?1??234@AAE_NXZ@@?$standard_base@_WV?$stream_output_adapter@_W@__crt_stdio_output@@@__crt_stdio_output@@IAE_NAAPAUansi_string@?1??type_case_Z@?$output_processor@_WV?$stream_output_adapter@_W@__crt_stdio_output@@V?$format_validation_base@_WV?$stream_output_adapter@_W@__crt_stdio_output@@@2@@1@AAE_NXZ@@Z 10039d14 f i libucrt:output.obj
 0001:00038d34       ??$extract_argument_from_va_list@PAUansi_string@?1??type_case_Z@?$output_processor@_WV?$stream_output_adapter@_W@__crt_stdio_output@@V?$positional_parameter_base@_WV?$stream_output_adapter@_W@__crt_stdio_output@@@2@@__crt_stdio_output@@AAE_NXZ@PAU1?1??234@AAE_NXZ@@?$positional_parameter_base@_WV?$stream_output_adapter@_W@__crt_stdio_output@@@__crt_stdio_output@@IAE_NAAPAUansi_string@?1??type_case_Z@?$output_processor@_WV?$stream_output_adapter@_W@__crt_stdio_output@@V?$positional_parameter_base@_WV?$stream_output_adapter@_W@__crt_stdio_output@@@2@@1@AAE_NXZ@@Z 10039d34 f i libucrt:output.obj
 0001:00038dd1       ??$extract_argument_from_va_list@PAUansi_string@?1??type_case_Z@?$output_processor@_WV?$stream_output_adapter@_W@__crt_stdio_output@@V?$positional_parameter_base@_WV?$stream_output_adapter@_W@__crt_stdio_output@@@2@@__crt_stdio_output@@AAE_NXZ@PAU1?1??234@AAE_NXZ@@?$standard_base@_WV?$stream_output_adapter@_W@__crt_stdio_output@@@__crt_stdio_output@@IAE_NAAPAUansi_string@?1??type_case_Z@?$output_processor@_WV?$stream_output_adapter@_W@__crt_stdio_output@@V?$positional_parameter_base@_WV?$stream_output_adapter@_W@__crt_stdio_output@@@2@@1@AAE_NXZ@@Z 10039dd1 f i libucrt:output.obj
 0001:00038df1       ??$extract_argument_from_va_list@PAUansi_string@?1??type_case_Z@?$output_processor@_WV?$stream_output_adapter@_W@__crt_stdio_output@@V?$standard_base@_WV?$stream_output_adapter@_W@__crt_stdio_output@@@2@@__crt_stdio_output@@AAE_NXZ@PAU1?1??234@AAE_NXZ@@?$standard_base@_WV?$stream_output_adapter@_W@__crt_stdio_output@@@__crt_stdio_output@@IAE_NAAPAUansi_string@?1??type_case_Z@?$output_processor@_WV?$stream_output_adapter@_W@__crt_stdio_output@@V?$standard_base@_WV?$stream_output_adapter@_W@__crt_stdio_output@@@2@@1@AAE_NXZ@@Z 10039df1 f i libucrt:output.obj
 0001:00038e11       ??$extract_argument_from_va_list@PAUansi_string@?1??type_case_Z@?$output_processor@_WV?$string_output_adapter@_W@__crt_stdio_output@@V?$format_validation_base@_WV?$string_output_adapter@_W@__crt_stdio_output@@@2@@__crt_stdio_output@@AAE_NXZ@PAU1?1??234@AAE_NXZ@@?$standard_base@_WV?$string_output_adapter@_W@__crt_stdio_output@@@__crt_stdio_output@@IAE_NAAPAUansi_string@?1??type_case_Z@?$output_processor@_WV?$string_output_adapter@_W@__crt_stdio_output@@V?$format_validation_base@_WV?$string_output_adapter@_W@__crt_stdio_output@@@2@@1@AAE_NXZ@@Z 10039e11 f i libucrt:output.obj
 0001:00038e31       ??$extract_argument_from_va_list@PAUansi_string@?1??type_case_Z@?$output_processor@_WV?$string_output_adapter@_W@__crt_stdio_output@@V?$positional_parameter_base@_WV?$string_output_adapter@_W@__crt_stdio_output@@@2@@__crt_stdio_output@@AAE_NXZ@PAU1?1??234@AAE_NXZ@@?$positional_parameter_base@_WV?$string_output_adapter@_W@__crt_stdio_output@@@__crt_stdio_output@@IAE_NAAPAUansi_string@?1??type_case_Z@?$output_processor@_WV?$string_output_adapter@_W@__crt_stdio_output@@V?$positional_parameter_base@_WV?$string_output_adapter@_W@__crt_stdio_output@@@2@@1@AAE_NXZ@@Z 10039e31 f i libucrt:output.obj
 0001:00038ece       ??$extract_argument_from_va_list@PAUansi_string@?1??type_case_Z@?$output_processor@_WV?$string_output_adapter@_W@__crt_stdio_output@@V?$positional_parameter_base@_WV?$string_output_adapter@_W@__crt_stdio_output@@@2@@__crt_stdio_output@@AAE_NXZ@PAU1?1??234@AAE_NXZ@@?$standard_base@_WV?$string_output_adapter@_W@__crt_stdio_output@@@__crt_stdio_output@@IAE_NAAPAUansi_string@?1??type_case_Z@?$output_processor@_WV?$string_output_adapter@_W@__crt_stdio_output@@V?$positional_parameter_base@_WV?$string_output_adapter@_W@__crt_stdio_output@@@2@@1@AAE_NXZ@@Z 10039ece f i libucrt:output.obj
 0001:00038eee       ??$extract_argument_from_va_list@PAUansi_string@?1??type_case_Z@?$output_processor@_WV?$string_output_adapter@_W@__crt_stdio_output@@V?$standard_base@_WV?$string_output_adapter@_W@__crt_stdio_output@@@2@@__crt_stdio_output@@AAE_NXZ@PAU1?1??234@AAE_NXZ@@?$standard_base@_WV?$string_output_adapter@_W@__crt_stdio_output@@@__crt_stdio_output@@IAE_NAAPAUansi_string@?1??type_case_Z@?$output_processor@_WV?$string_output_adapter@_W@__crt_stdio_output@@V?$standard_base@_WV?$string_output_adapter@_W@__crt_stdio_output@@@2@@1@AAE_NXZ@@Z 10039eee f i libucrt:output.obj
 0001:00038f0e       ??$extract_argument_from_va_list@PAXPAX@?$positional_parameter_base@DV?$stream_output_adapter@D@__crt_stdio_output@@@__crt_stdio_output@@IAE_NAAPAX@Z 10039f0e f i libucrt:output.obj
 0001:00038fab       ??$extract_argument_from_va_list@PAXPAX@?$positional_parameter_base@DV?$string_output_adapter@D@__crt_stdio_output@@@__crt_stdio_output@@IAE_NAAPAX@Z 10039fab f i libucrt:output.obj
 0001:00039048       ??$extract_argument_from_va_list@PAXPAX@?$positional_parameter_base@_WV?$stream_output_adapter@_W@__crt_stdio_output@@@__crt_stdio_output@@IAE_NAAPAX@Z 1003a048 f i libucrt:output.obj
 0001:000390e5       ??$extract_argument_from_va_list@PAXPAX@?$positional_parameter_base@_WV?$string_output_adapter@_W@__crt_stdio_output@@@__crt_stdio_output@@IAE_NAAPAX@Z 1003a0e5 f i libucrt:output.obj
 0001:00039182       ??$extract_argument_from_va_list@PAXPAX@?$standard_base@DV?$stream_output_adapter@D@__crt_stdio_output@@@__crt_stdio_output@@IAE_NAAPAX@Z 1003a182 f i libucrt:output.obj
 0001:000391a2       ??$extract_argument_from_va_list@PAXPAX@?$standard_base@DV?$string_output_adapter@D@__crt_stdio_output@@@__crt_stdio_output@@IAE_NAAPAX@Z 1003a1a2 f i libucrt:output.obj
 0001:000391c2       ??$extract_argument_from_va_list@PAXPAX@?$standard_base@_WV?$stream_output_adapter@_W@__crt_stdio_output@@@__crt_stdio_output@@IAE_NAAPAX@Z 1003a1c2 f i libucrt:output.obj
 0001:000391e2       ??$extract_argument_from_va_list@PAXPAX@?$standard_base@_WV?$string_output_adapter@_W@__crt_stdio_output@@@__crt_stdio_output@@IAE_NAAPAX@Z 1003a1e2 f i libucrt:output.obj
 0001:00039202       ??$extract_argument_from_va_list@U_CRT_DOUBLE@@U1@@?$positional_parameter_base@DV?$stream_output_adapter@D@__crt_stdio_output@@@__crt_stdio_output@@IAE_NAAU_CRT_DOUBLE@@@Z 1003a202 f i libucrt:output.obj
 0001:000392b3       ??$extract_argument_from_va_list@U_CRT_DOUBLE@@U1@@?$positional_parameter_base@DV?$string_output_adapter@D@__crt_stdio_output@@@__crt_stdio_output@@IAE_NAAU_CRT_DOUBLE@@@Z 1003a2b3 f i libucrt:output.obj
 0001:00039364       ??$extract_argument_from_va_list@U_CRT_DOUBLE@@U1@@?$positional_parameter_base@_WV?$stream_output_adapter@_W@__crt_stdio_output@@@__crt_stdio_output@@IAE_NAAU_CRT_DOUBLE@@@Z 1003a364 f i libucrt:output.obj
 0001:00039415       ??$extract_argument_from_va_list@U_CRT_DOUBLE@@U1@@?$positional_parameter_base@_WV?$string_output_adapter@_W@__crt_stdio_output@@@__crt_stdio_output@@IAE_NAAU_CRT_DOUBLE@@@Z 1003a415 f i libucrt:output.obj
 0001:000394c6       ??$extract_argument_from_va_list@U_CRT_DOUBLE@@U1@@?$standard_base@DV?$stream_output_adapter@D@__crt_stdio_output@@@__crt_stdio_output@@IAE_NAAU_CRT_DOUBLE@@@Z 1003a4c6 f i libucrt:output.obj
 0001:000394ee       ??$extract_argument_from_va_list@U_CRT_DOUBLE@@U1@@?$standard_base@DV?$string_output_adapter@D@__crt_stdio_output@@@__crt_stdio_output@@IAE_NAAU_CRT_DOUBLE@@@Z 1003a4ee f i libucrt:output.obj
 0001:00039516       ??$extract_argument_from_va_list@U_CRT_DOUBLE@@U1@@?$standard_base@_WV?$stream_output_adapter@_W@__crt_stdio_output@@@__crt_stdio_output@@IAE_NAAU_CRT_DOUBLE@@@Z 1003a516 f i libucrt:output.obj
 0001:0003953e       ??$extract_argument_from_va_list@U_CRT_DOUBLE@@U1@@?$standard_base@_WV?$string_output_adapter@_W@__crt_stdio_output@@@__crt_stdio_output@@IAE_NAAU_CRT_DOUBLE@@@Z 1003a53e f i libucrt:output.obj
 0001:00039566       ??$extract_argument_from_va_list@_J_J@?$positional_parameter_base@DV?$stream_output_adapter@D@__crt_stdio_output@@@__crt_stdio_output@@IAE_NAA_J@Z 1003a566 f i libucrt:output.obj
 0001:00039617       ??$extract_argument_from_va_list@_J_J@?$positional_parameter_base@DV?$string_output_adapter@D@__crt_stdio_output@@@__crt_stdio_output@@IAE_NAA_J@Z 1003a617 f i libucrt:output.obj
 0001:000396c8       ??$extract_argument_from_va_list@_J_J@?$positional_parameter_base@_WV?$stream_output_adapter@_W@__crt_stdio_output@@@__crt_stdio_output@@IAE_NAA_J@Z 1003a6c8 f i libucrt:output.obj
 0001:00039779       ??$extract_argument_from_va_list@_J_J@?$positional_parameter_base@_WV?$string_output_adapter@_W@__crt_stdio_output@@@__crt_stdio_output@@IAE_NAA_J@Z 1003a779 f i libucrt:output.obj
 0001:0003982a       ??$extract_argument_from_va_list@_J_J@?$standard_base@DV?$stream_output_adapter@D@__crt_stdio_output@@@__crt_stdio_output@@IAE_NAA_J@Z 1003a82a f i libucrt:output.obj
 0001:00039852       ??$extract_argument_from_va_list@_J_J@?$standard_base@DV?$string_output_adapter@D@__crt_stdio_output@@@__crt_stdio_output@@IAE_NAA_J@Z 1003a852 f i libucrt:output.obj
 0001:0003987a       ??$extract_argument_from_va_list@_J_J@?$standard_base@_WV?$stream_output_adapter@_W@__crt_stdio_output@@@__crt_stdio_output@@IAE_NAA_J@Z 1003a87a f i libucrt:output.obj
 0001:000398a2       ??$extract_argument_from_va_list@_J_J@?$standard_base@_WV?$string_output_adapter@_W@__crt_stdio_output@@@__crt_stdio_output@@IAE_NAA_J@Z 1003a8a2 f i libucrt:output.obj
 0001:000398ca       ??$extract_argument_from_va_list@_K_J@?$positional_parameter_base@DV?$stream_output_adapter@D@__crt_stdio_output@@@__crt_stdio_output@@IAE_NAA_J@Z 1003a8ca f i libucrt:output.obj
 0001:0003997b       ??$extract_argument_from_va_list@_K_J@?$positional_parameter_base@DV?$string_output_adapter@D@__crt_stdio_output@@@__crt_stdio_output@@IAE_NAA_J@Z 1003a97b f i libucrt:output.obj
 0001:00039a2c       ??$extract_argument_from_va_list@_K_J@?$positional_parameter_base@_WV?$stream_output_adapter@_W@__crt_stdio_output@@@__crt_stdio_output@@IAE_NAA_J@Z 1003aa2c f i libucrt:output.obj
 0001:00039add       ??$extract_argument_from_va_list@_K_J@?$positional_parameter_base@_WV?$string_output_adapter@_W@__crt_stdio_output@@@__crt_stdio_output@@IAE_NAA_J@Z 1003aadd f i libucrt:output.obj
 0001:00039b8e       ??$extract_argument_from_va_list@_K_J@?$standard_base@DV?$stream_output_adapter@D@__crt_stdio_output@@@__crt_stdio_output@@IAE_NAA_J@Z 1003ab8e f i libucrt:output.obj
 0001:00039bb6       ??$extract_argument_from_va_list@_K_J@?$standard_base@DV?$string_output_adapter@D@__crt_stdio_output@@@__crt_stdio_output@@IAE_NAA_J@Z 1003abb6 f i libucrt:output.obj
 0001:00039bde       ??$extract_argument_from_va_list@_K_J@?$standard_base@_WV?$stream_output_adapter@_W@__crt_stdio_output@@@__crt_stdio_output@@IAE_NAA_J@Z 1003abde f i libucrt:output.obj
 0001:00039c06       ??$extract_argument_from_va_list@_K_J@?$standard_base@_WV?$string_output_adapter@_W@__crt_stdio_output@@@__crt_stdio_output@@IAE_NAA_J@Z 1003ac06 f i libucrt:output.obj
 0001:00039c2e       ??$extract_argument_from_va_list@_W_W@?$positional_parameter_base@DV?$stream_output_adapter@D@__crt_stdio_output@@@__crt_stdio_output@@IAE_NAA_W@Z 1003ac2e f i libucrt:output.obj
 0001:00039cd0       ??$extract_argument_from_va_list@_W_W@?$positional_parameter_base@DV?$string_output_adapter@D@__crt_stdio_output@@@__crt_stdio_output@@IAE_NAA_W@Z 1003acd0 f i libucrt:output.obj
 0001:00039d72       ??$extract_argument_from_va_list@_W_W@?$positional_parameter_base@_WV?$stream_output_adapter@_W@__crt_stdio_output@@@__crt_stdio_output@@IAE_NAA_W@Z 1003ad72 f i libucrt:output.obj
 0001:00039e14       ??$extract_argument_from_va_list@_W_W@?$positional_parameter_base@_WV?$string_output_adapter@_W@__crt_stdio_output@@@__crt_stdio_output@@IAE_NAA_W@Z 1003ae14 f i libucrt:output.obj
 0001:00039eb6       ??$extract_argument_from_va_list@_W_W@?$standard_base@DV?$stream_output_adapter@D@__crt_stdio_output@@@__crt_stdio_output@@IAE_NAA_W@Z 1003aeb6 f i libucrt:output.obj
 0001:00039ed9       ??$extract_argument_from_va_list@_W_W@?$standard_base@DV?$string_output_adapter@D@__crt_stdio_output@@@__crt_stdio_output@@IAE_NAA_W@Z 1003aed9 f i libucrt:output.obj
 0001:00039efc       ??$extract_argument_from_va_list@_W_W@?$standard_base@_WV?$stream_output_adapter@_W@__crt_stdio_output@@@__crt_stdio_output@@IAE_NAA_W@Z 1003aefc f i libucrt:output.obj
 0001:00039f1f       ??$extract_argument_from_va_list@_W_W@?$standard_base@_WV?$string_output_adapter@_W@__crt_stdio_output@@@__crt_stdio_output@@IAE_NAA_W@Z 1003af1f f i libucrt:output.obj
 0001:00039f42       ??$get_parameter_type@D@?$positional_parameter_base@DV?$stream_output_adapter@D@__crt_stdio_output@@@__crt_stdio_output@@CA?AW4parameter_type@01@PAD@Z 1003af42 f i libucrt:output.obj
 0001:00039f46       ??$get_parameter_type@D@?$positional_parameter_base@DV?$string_output_adapter@D@__crt_stdio_output@@@__crt_stdio_output@@CA?AW4parameter_type@01@PAD@Z 1003af46 f i libucrt:output.obj
 0001:00039f4a       ??$get_parameter_type@D@?$positional_parameter_base@_WV?$stream_output_adapter@_W@__crt_stdio_output@@@__crt_stdio_output@@CA?AW4parameter_type@01@PAD@Z 1003af4a f i libucrt:output.obj
 0001:00039f4e       ??$get_parameter_type@D@?$positional_parameter_base@_WV?$string_output_adapter@_W@__crt_stdio_output@@@__crt_stdio_output@@CA?AW4parameter_type@01@PAD@Z 1003af4e f i libucrt:output.obj
 0001:00039f52       ??$get_parameter_type@Uansi_string@?1??type_case_Z@?$output_processor@DV?$stream_output_adapter@D@__crt_stdio_output@@V?$positional_parameter_base@DV?$stream_output_adapter@D@__crt_stdio_output@@@2@@__crt_stdio_output@@AAE_NXZ@@?$positional_parameter_base@DV?$stream_output_adapter@D@__crt_stdio_output@@@__crt_stdio_output@@CA?AW4parameter_type@01@PAUansi_string@?1??type_case_Z@?$output_processor@DV?$stream_output_adapter@D@__crt_stdio_output@@V?$positional_parameter_base@DV?$stream_output_adapter@D@__crt_stdio_output@@@2@@1@AAE_NXZ@@Z 1003af52 f i libucrt:output.obj
 0001:00039f56       ??$get_parameter_type@Uansi_string@?1??type_case_Z@?$output_processor@DV?$string_output_adapter@D@__crt_stdio_output@@V?$positional_parameter_base@DV?$string_output_adapter@D@__crt_stdio_output@@@2@@__crt_stdio_output@@AAE_NXZ@@?$positional_parameter_base@DV?$string_output_adapter@D@__crt_stdio_output@@@__crt_stdio_output@@CA?AW4parameter_type@01@PAUansi_string@?1??type_case_Z@?$output_processor@DV?$string_output_adapter@D@__crt_stdio_output@@V?$positional_parameter_base@DV?$string_output_adapter@D@__crt_stdio_output@@@2@@1@AAE_NXZ@@Z 1003af56 f i libucrt:output.obj
 0001:00039f5a       ??$get_parameter_type@Uansi_string@?1??type_case_Z@?$output_processor@_WV?$stream_output_adapter@_W@__crt_stdio_output@@V?$positional_parameter_base@_WV?$stream_output_adapter@_W@__crt_stdio_output@@@2@@__crt_stdio_output@@AAE_NXZ@@?$positional_parameter_base@_WV?$stream_output_adapter@_W@__crt_stdio_output@@@__crt_stdio_output@@CA?AW4parameter_type@01@PAUansi_string@?1??type_case_Z@?$output_processor@_WV?$stream_output_adapter@_W@__crt_stdio_output@@V?$positional_parameter_base@_WV?$stream_output_adapter@_W@__crt_stdio_output@@@2@@1@AAE_NXZ@@Z 1003af5a f i libucrt:output.obj
 0001:00039f5e       ??$get_parameter_type@Uansi_string@?1??type_case_Z@?$output_processor@_WV?$string_output_adapter@_W@__crt_stdio_output@@V?$positional_parameter_base@_WV?$string_output_adapter@_W@__crt_stdio_output@@@2@@__crt_stdio_output@@AAE_NXZ@@?$positional_parameter_base@_WV?$string_output_adapter@_W@__crt_stdio_output@@@__crt_stdio_output@@CA?AW4parameter_type@01@PAUansi_string@?1??type_case_Z@?$output_processor@_WV?$string_output_adapter@_W@__crt_stdio_output@@V?$positional_parameter_base@_WV?$string_output_adapter@_W@__crt_stdio_output@@@2@@1@AAE_NXZ@@Z 1003af5e f i libucrt:output.obj
 0001:00039f62       ??$get_parameter_type@X@?$positional_parameter_base@DV?$stream_output_adapter@D@__crt_stdio_output@@@__crt_stdio_output@@CA?AW4parameter_type@01@PAX@Z 1003af62 f i libucrt:output.obj
 0001:00039f66       ??$get_parameter_type@X@?$positional_parameter_base@DV?$string_output_adapter@D@__crt_stdio_output@@@__crt_stdio_output@@CA?AW4parameter_type@01@PAX@Z 1003af66 f i libucrt:output.obj
 0001:00039f6a       ??$get_parameter_type@X@?$positional_parameter_base@_WV?$stream_output_adapter@_W@__crt_stdio_output@@@__crt_stdio_output@@CA?AW4parameter_type@01@PAX@Z 1003af6a f i libucrt:output.obj
 0001:00039f6e       ??$get_parameter_type@X@?$positional_parameter_base@_WV?$string_output_adapter@_W@__crt_stdio_output@@@__crt_stdio_output@@CA?AW4parameter_type@01@PAX@Z 1003af6e f i libucrt:output.obj
 0001:00039f72       ??$is_character_specifier@D@?$positional_parameter_base@DV?$stream_output_adapter@D@__crt_stdio_output@@@__crt_stdio_output@@CA_ND@Z 1003af72 f i libucrt:output.obj
 0001:00039f91       ??$is_character_specifier@D@?$positional_parameter_base@DV?$string_output_adapter@D@__crt_stdio_output@@@__crt_stdio_output@@CA_ND@Z 1003af91 f i libucrt:output.obj
 0001:00039fb0       ??$is_character_specifier@_W@?$positional_parameter_base@_WV?$stream_output_adapter@_W@__crt_stdio_output@@@__crt_stdio_output@@CA_N_W@Z 1003afb0 f i libucrt:output.obj
 0001:00039fd3       ??$is_character_specifier@_W@?$positional_parameter_base@_WV?$string_output_adapter@_W@__crt_stdio_output@@@__crt_stdio_output@@CA_N_W@Z 1003afd3 f i libucrt:output.obj
 0001:00039ff6       ??$is_integral_specifier@D@?$positional_parameter_base@DV?$stream_output_adapter@D@__crt_stdio_output@@@__crt_stdio_output@@CA_ND@Z 1003aff6 f i libucrt:output.obj
 0001:0003a02e       ??$is_integral_specifier@D@?$positional_parameter_base@DV?$string_output_adapter@D@__crt_stdio_output@@@__crt_stdio_output@@CA_ND@Z 1003b02e f i libucrt:output.obj
 0001:0003a066       ??$is_integral_specifier@_W@?$positional_parameter_base@_WV?$stream_output_adapter@_W@__crt_stdio_output@@@__crt_stdio_output@@CA_N_W@Z 1003b066 f i libucrt:output.obj
 0001:0003a0b1       ??$is_integral_specifier@_W@?$positional_parameter_base@_WV?$string_output_adapter@_W@__crt_stdio_output@@@__crt_stdio_output@@CA_N_W@Z 1003b0b1 f i libucrt:output.obj
 0001:0003a0fc       ??$is_pointer_specifier@D@?$positional_parameter_base@DV?$stream_output_adapter@D@__crt_stdio_output@@@__crt_stdio_output@@CA_ND@Z 1003b0fc f i libucrt:output.obj
 0001:0003a110       ??$is_pointer_specifier@D@?$positional_parameter_base@DV?$string_output_adapter@D@__crt_stdio_output@@@__crt_stdio_output@@CA_ND@Z 1003b110 f i libucrt:output.obj
 0001:0003a124       ??$is_pointer_specifier@_W@?$positional_parameter_base@_WV?$stream_output_adapter@_W@__crt_stdio_output@@@__crt_stdio_output@@CA_N_W@Z 1003b124 f i libucrt:output.obj
 0001:0003a139       ??$is_pointer_specifier@_W@?$positional_parameter_base@_WV?$string_output_adapter@_W@__crt_stdio_output@@@__crt_stdio_output@@CA_N_W@Z 1003b139 f i libucrt:output.obj
 0001:0003a14e       ??$is_string_specifier@D@?$positional_parameter_base@DV?$stream_output_adapter@D@__crt_stdio_output@@@__crt_stdio_output@@CA_ND@Z 1003b14e f i libucrt:output.obj
 0001:0003a16d       ??$is_string_specifier@D@?$positional_parameter_base@DV?$string_output_adapter@D@__crt_stdio_output@@@__crt_stdio_output@@CA_ND@Z 1003b16d f i libucrt:output.obj
 0001:0003a18c       ??$is_string_specifier@_W@?$positional_parameter_base@_WV?$stream_output_adapter@_W@__crt_stdio_output@@@__crt_stdio_output@@CA_N_W@Z 1003b18c f i libucrt:output.obj
 0001:0003a1af       ??$is_string_specifier@_W@?$positional_parameter_base@_WV?$string_output_adapter@_W@__crt_stdio_output@@@__crt_stdio_output@@CA_N_W@Z 1003b1af f i libucrt:output.obj
 0001:0003a1d2       ??$is_wide_character_specifier@D@__crt_stdio_output@@YA_N_KDW4length_modifier@0@@Z 1003b1d2 f i libucrt:output.obj
 0001:0003a222       ??$is_wide_character_specifier@_W@__crt_stdio_output@@YA_N_K_WW4length_modifier@0@@Z 1003b222 f i libucrt:output.obj
 0001:0003a284       ??$peek_va_arg@C@__crt_stdio_output@@YACPAD@Z 1003b284 f i libucrt:output.obj
 0001:0003a293       ??$peek_va_arg@E@__crt_stdio_output@@YAEPAD@Z 1003b293 f i libucrt:output.obj
 0001:0003a2a2       ??$peek_va_arg@F@__crt_stdio_output@@YAFPAD@Z 1003b2a2 f i libucrt:output.obj
 0001:0003a2b2       ??$peek_va_arg@G@__crt_stdio_output@@YAGPAD@Z 1003b2b2 f i libucrt:output.obj
 0001:0003a2c2       ??$peek_va_arg@H@__crt_stdio_output@@YAHPAD@Z 1003b2c2 f i libucrt:output.obj
 0001:0003a2d1       ??$peek_va_arg@I@__crt_stdio_output@@YAIPAD@Z 1003b2d1 f i libucrt:output.obj
 0001:0003a2e0       ??$peek_va_arg@PAD@__crt_stdio_output@@YAPADPAD@Z 1003b2e0 f i libucrt:output.obj
 0001:0003a2ef       ??$peek_va_arg@PAUansi_string@?1??type_case_Z@?$output_processor@DV?$stream_output_adapter@D@__crt_stdio_output@@V?$positional_parameter_base@DV?$stream_output_adapter@D@__crt_stdio_output@@@2@@__crt_stdio_output@@AAE_NXZ@@__crt_stdio_output@@YAPAUansi_string@?1??type_case_Z@?$output_processor@DV?$stream_output_adapter@D@__crt_stdio_output@@V?$positional_parameter_base@DV?$stream_output_adapter@D@__crt_stdio_output@@@2@@0@AAE_NXZ@PAD@Z 1003b2ef f i libucrt:output.obj
 0001:0003a2fe       ??$peek_va_arg@PAUansi_string@?1??type_case_Z@?$output_processor@DV?$string_output_adapter@D@__crt_stdio_output@@V?$positional_parameter_base@DV?$string_output_adapter@D@__crt_stdio_output@@@2@@__crt_stdio_output@@AAE_NXZ@@__crt_stdio_output@@YAPAUansi_string@?1??type_case_Z@?$output_processor@DV?$string_output_adapter@D@__crt_stdio_output@@V?$positional_parameter_base@DV?$string_output_adapter@D@__crt_stdio_output@@@2@@0@AAE_NXZ@PAD@Z 1003b2fe f i libucrt:output.obj
 0001:0003a30d       ??$peek_va_arg@PAUansi_string@?1??type_case_Z@?$output_processor@_WV?$stream_output_adapter@_W@__crt_stdio_output@@V?$positional_parameter_base@_WV?$stream_output_adapter@_W@__crt_stdio_output@@@2@@__crt_stdio_output@@AAE_NXZ@@__crt_stdio_output@@YAPAUansi_string@?1??type_case_Z@?$output_processor@_WV?$stream_output_adapter@_W@__crt_stdio_output@@V?$positional_parameter_base@_WV?$stream_output_adapter@_W@__crt_stdio_output@@@2@@0@AAE_NXZ@PAD@Z 1003b30d f i libucrt:output.obj
 0001:0003a31c       ??$peek_va_arg@PAUansi_string@?1??type_case_Z@?$output_processor@_WV?$string_output_adapter@_W@__crt_stdio_output@@V?$positional_parameter_base@_WV?$string_output_adapter@_W@__crt_stdio_output@@@2@@__crt_stdio_output@@AAE_NXZ@@__crt_stdio_output@@YAPAUansi_string@?1??type_case_Z@?$output_processor@_WV?$string_output_adapter@_W@__crt_stdio_output@@V?$positional_parameter_base@_WV?$string_output_adapter@_W@__crt_stdio_output@@@2@@0@AAE_NXZ@PAD@Z 1003b31c f i libucrt:output.obj
 0001:0003a32b       ??$peek_va_arg@PAX@__crt_stdio_output@@YAPAXPAD@Z 1003b32b f i libucrt:output.obj
 0001:0003a33a       ??$peek_va_arg@U_CRT_DOUBLE@@@__crt_stdio_output@@YA?AU_CRT_DOUBLE@@PAD@Z 1003b33a f i libucrt:output.obj
 0001:0003a34c       ??$peek_va_arg@_J@__crt_stdio_output@@YA_JPAD@Z 1003b34c f i libucrt:output.obj
 0001:0003a35e       ??$peek_va_arg@_K@__crt_stdio_output@@YA_KPAD@Z 1003b35e f i libucrt:output.obj
 0001:0003a370       ??$peek_va_arg@_W@__crt_stdio_output@@YA_WPAD@Z 1003b370 f i libucrt:output.obj
 0001:0003a380       ??$puttc_nolock@ABDPAU_iobuf@@@?$__crt_char_traits@D@@SAHABD$$QAPAU_iobuf@@@Z 1003b380 f i libucrt:output.obj
 0001:0003a3a0       ??$puttc_nolock@AB_WPAU_iobuf@@@?$__crt_char_traits@_W@@SAGAB_W$$QAPAU_iobuf@@@Z 1003b3a0 f i libucrt:output.obj
 0001:0003a3c0       ??$read_va_arg@C@__crt_stdio_output@@YACAAPAD@Z 1003b3c0 f i libucrt:output.obj
 0001:0003a3d6       ??$read_va_arg@E@__crt_stdio_output@@YAEAAPAD@Z 1003b3d6 f i libucrt:output.obj
 0001:0003a3ec       ??$read_va_arg@F@__crt_stdio_output@@YAFAAPAD@Z 1003b3ec f i libucrt:output.obj
 0001:0003a403       ??$read_va_arg@G@__crt_stdio_output@@YAGAAPAD@Z 1003b403 f i libucrt:output.obj
 0001:0003a41a       ??$read_va_arg@H@__crt_stdio_output@@YAHAAPAD@Z 1003b41a f i libucrt:output.obj
 0001:0003a430       ??$read_va_arg@I@__crt_stdio_output@@YAIAAPAD@Z 1003b430 f i libucrt:output.obj
 0001:0003a446       ??$read_va_arg@PAD@__crt_stdio_output@@YAPADAAPAD@Z 1003b446 f i libucrt:output.obj
 0001:0003a45c       ??$read_va_arg@PAUansi_string@?1??type_case_Z@?$output_processor@DV?$stream_output_adapter@D@__crt_stdio_output@@V?$format_validation_base@DV?$stream_output_adapter@D@__crt_stdio_output@@@2@@__crt_stdio_output@@AAE_NXZ@@__crt_stdio_output@@YAPAUansi_string@?1??type_case_Z@?$output_processor@DV?$stream_output_adapter@D@__crt_stdio_output@@V?$format_validation_base@DV?$stream_output_adapter@D@__crt_stdio_output@@@2@@0@AAE_NXZ@AAPAD@Z 1003b45c f i libucrt:output.obj
 0001:0003a472       ??$read_va_arg@PAUansi_string@?1??type_case_Z@?$output_processor@DV?$stream_output_adapter@D@__crt_stdio_output@@V?$positional_parameter_base@DV?$stream_output_adapter@D@__crt_stdio_output@@@2@@__crt_stdio_output@@AAE_NXZ@@__crt_stdio_output@@YAPAUansi_string@?1??type_case_Z@?$output_processor@DV?$stream_output_adapter@D@__crt_stdio_output@@V?$positional_parameter_base@DV?$stream_output_adapter@D@__crt_stdio_output@@@2@@0@AAE_NXZ@AAPAD@Z 1003b472 f i libucrt:output.obj
 0001:0003a488       ??$read_va_arg@PAUansi_string@?1??type_case_Z@?$output_processor@DV?$stream_output_adapter@D@__crt_stdio_output@@V?$standard_base@DV?$stream_output_adapter@D@__crt_stdio_output@@@2@@__crt_stdio_output@@AAE_NXZ@@__crt_stdio_output@@YAPAUansi_string@?1??type_case_Z@?$output_processor@DV?$stream_output_adapter@D@__crt_stdio_output@@V?$standard_base@DV?$stream_output_adapter@D@__crt_stdio_output@@@2@@0@AAE_NXZ@AAPAD@Z 1003b488 f i libucrt:output.obj
 0001:0003a49e       ??$read_va_arg@PAUansi_string@?1??type_case_Z@?$output_processor@DV?$string_output_adapter@D@__crt_stdio_output@@V?$format_validation_base@DV?$string_output_adapter@D@__crt_stdio_output@@@2@@__crt_stdio_output@@AAE_NXZ@@__crt_stdio_output@@YAPAUansi_string@?1??type_case_Z@?$output_processor@DV?$string_output_adapter@D@__crt_stdio_output@@V?$format_validation_base@DV?$string_output_adapter@D@__crt_stdio_output@@@2@@0@AAE_NXZ@AAPAD@Z 1003b49e f i libucrt:output.obj
 0001:0003a4b4       ??$read_va_arg@PAUansi_string@?1??type_case_Z@?$output_processor@DV?$string_output_adapter@D@__crt_stdio_output@@V?$positional_parameter_base@DV?$string_output_adapter@D@__crt_stdio_output@@@2@@__crt_stdio_output@@AAE_NXZ@@__crt_stdio_output@@YAPAUansi_string@?1??type_case_Z@?$output_processor@DV?$string_output_adapter@D@__crt_stdio_output@@V?$positional_parameter_base@DV?$string_output_adapter@D@__crt_stdio_output@@@2@@0@AAE_NXZ@AAPAD@Z 1003b4b4 f i libucrt:output.obj
 0001:0003a4ca       ??$read_va_arg@PAUansi_string@?1??type_case_Z@?$output_processor@DV?$string_output_adapter@D@__crt_stdio_output@@V?$standard_base@DV?$string_output_adapter@D@__crt_stdio_output@@@2@@__crt_stdio_output@@AAE_NXZ@@__crt_stdio_output@@YAPAUansi_string@?1??type_case_Z@?$output_processor@DV?$string_output_adapter@D@__crt_stdio_output@@V?$standard_base@DV?$string_output_adapter@D@__crt_stdio_output@@@2@@0@AAE_NXZ@AAPAD@Z 1003b4ca f i libucrt:output.obj
 0001:0003a4e0       ??$read_va_arg@PAUansi_string@?1??type_case_Z@?$output_processor@_WV?$stream_output_adapter@_W@__crt_stdio_output@@V?$format_validation_base@_WV?$stream_output_adapter@_W@__crt_stdio_output@@@2@@__crt_stdio_output@@AAE_NXZ@@__crt_stdio_output@@YAPAUansi_string@?1??type_case_Z@?$output_processor@_WV?$stream_output_adapter@_W@__crt_stdio_output@@V?$format_validation_base@_WV?$stream_output_adapter@_W@__crt_stdio_output@@@2@@0@AAE_NXZ@AAPAD@Z 1003b4e0 f i libucrt:output.obj
 0001:0003a4f6       ??$read_va_arg@PAUansi_string@?1??type_case_Z@?$output_processor@_WV?$stream_output_adapter@_W@__crt_stdio_output@@V?$positional_parameter_base@_WV?$stream_output_adapter@_W@__crt_stdio_output@@@2@@__crt_stdio_output@@AAE_NXZ@@__crt_stdio_output@@YAPAUansi_string@?1??type_case_Z@?$output_processor@_WV?$stream_output_adapter@_W@__crt_stdio_output@@V?$positional_parameter_base@_WV?$stream_output_adapter@_W@__crt_stdio_output@@@2@@0@AAE_NXZ@AAPAD@Z 1003b4f6 f i libucrt:output.obj
 0001:0003a50c       ??$read_va_arg@PAUansi_string@?1??type_case_Z@?$output_processor@_WV?$stream_output_adapter@_W@__crt_stdio_output@@V?$standard_base@_WV?$stream_output_adapter@_W@__crt_stdio_output@@@2@@__crt_stdio_output@@AAE_NXZ@@__crt_stdio_output@@YAPAUansi_string@?1??type_case_Z@?$output_processor@_WV?$stream_output_adapter@_W@__crt_stdio_output@@V?$standard_base@_WV?$stream_output_adapter@_W@__crt_stdio_output@@@2@@0@AAE_NXZ@AAPAD@Z 1003b50c f i libucrt:output.obj
 0001:0003a522       ??$read_va_arg@PAUansi_string@?1??type_case_Z@?$output_processor@_WV?$string_output_adapter@_W@__crt_stdio_output@@V?$format_validation_base@_WV?$string_output_adapter@_W@__crt_stdio_output@@@2@@__crt_stdio_output@@AAE_NXZ@@__crt_stdio_output@@YAPAUansi_string@?1??type_case_Z@?$output_processor@_WV?$string_output_adapter@_W@__crt_stdio_output@@V?$format_validation_base@_WV?$string_output_adapter@_W@__crt_stdio_output@@@2@@0@AAE_NXZ@AAPAD@Z 1003b522 f i libucrt:output.obj
 0001:0003a538       ??$read_va_arg@PAUansi_string@?1??type_case_Z@?$output_processor@_WV?$string_output_adapter@_W@__crt_stdio_output@@V?$positional_parameter_base@_WV?$string_output_adapter@_W@__crt_stdio_output@@@2@@__crt_stdio_output@@AAE_NXZ@@__crt_stdio_output@@YAPAUansi_string@?1??type_case_Z@?$output_processor@_WV?$string_output_adapter@_W@__crt_stdio_output@@V?$positional_parameter_base@_WV?$string_output_adapter@_W@__crt_stdio_output@@@2@@0@AAE_NXZ@AAPAD@Z 1003b538 f i libucrt:output.obj
 0001:0003a54e       ??$read_va_arg@PAUansi_string@?1??type_case_Z@?$output_processor@_WV?$string_output_adapter@_W@__crt_stdio_output@@V?$standard_base@_WV?$string_output_adapter@_W@__crt_stdio_output@@@2@@__crt_stdio_output@@AAE_NXZ@@__crt_stdio_output@@YAPAUansi_string@?1??type_case_Z@?$output_processor@_WV?$string_output_adapter@_W@__crt_stdio_output@@V?$standard_base@_WV?$string_output_adapter@_W@__crt_stdio_output@@@2@@0@AAE_NXZ@AAPAD@Z 1003b54e f i libucrt:output.obj
 0001:0003a564       ??$read_va_arg@PAX@__crt_stdio_output@@YAPAXAAPAD@Z 1003b564 f i libucrt:output.obj
 0001:0003a57a       ??$read_va_arg@U_CRT_DOUBLE@@@__crt_stdio_output@@YA?AU_CRT_DOUBLE@@AAPAD@Z 1003b57a f i libucrt:output.obj
 0001:0003a594       ??$read_va_arg@_J@__crt_stdio_output@@YA_JAAPAD@Z 1003b594 f i libucrt:output.obj
 0001:0003a5ae       ??$read_va_arg@_K@__crt_stdio_output@@YA_KAAPAD@Z 1003b5ae f i libucrt:output.obj
 0001:0003a5c8       ??$read_va_arg@_W@__crt_stdio_output@@YA_WAAPAD@Z 1003b5c8 f i libucrt:output.obj
 0001:0003a5df       ??$scratch_count@D@formatting_buffer@__crt_stdio_output@@QBEIXZ 1003b5df f i libucrt:output.obj
 0001:0003a5e4       ??$scratch_data@D@formatting_buffer@__crt_stdio_output@@QAEPADXZ 1003b5e4 f i libucrt:output.obj
 0001:0003a609       ??$tcstol@AAPBDPAPADH@?$__crt_char_traits@D@@SAJAAPBD$$QAPAPAD$$QAH@Z 1003b609 f i libucrt:output.obj
 0001:0003a62e       ??$tcstol@AAPB_WPAPA_WH@?$__crt_char_traits@_W@@SAJAAPB_W$$QAPAPA_W$$QAH@Z 1003b62e f i libucrt:output.obj
 0001:0003a653       ??$tcstol@PBDPAPADH@?$__crt_char_traits@D@@SAJ$$QAPBD$$QAPAPAD$$QAH@Z 1003b653 f i libucrt:output.obj
 0001:0003a678       ??$tcstol@PB_WPAPA_WH@?$__crt_char_traits@_W@@SAJ$$QAPB_W$$QAPAPA_W$$QAH@Z 1003b678 f i libucrt:output.obj
 0001:0003a69d       ??$type_case_integer_parse_into_buffer@I@?$output_processor@DV?$stream_output_adapter@D@__crt_stdio_output@@V?$format_validation_base@DV?$stream_output_adapter@D@__crt_stdio_output@@@2@@__crt_stdio_output@@AAEXII_N@Z 1003b69d f i libucrt:output.obj
 0001:0003a72f       ??$type_case_integer_parse_into_buffer@I@?$output_processor@DV?$stream_output_adapter@D@__crt_stdio_output@@V?$positional_parameter_base@DV?$stream_output_adapter@D@__crt_stdio_output@@@2@@__crt_stdio_output@@AAEXII_N@Z 1003b72f f i libucrt:output.obj
 0001:0003a7c1       ??$type_case_integer_parse_into_buffer@I@?$output_processor@DV?$stream_output_adapter@D@__crt_stdio_output@@V?$standard_base@DV?$stream_output_adapter@D@__crt_stdio_output@@@2@@__crt_stdio_output@@AAEXII_N@Z 1003b7c1 f i libucrt:output.obj
 0001:0003a853       ??$type_case_integer_parse_into_buffer@I@?$output_processor@DV?$string_output_adapter@D@__crt_stdio_output@@V?$format_validation_base@DV?$string_output_adapter@D@__crt_stdio_output@@@2@@__crt_stdio_output@@AAEXII_N@Z 1003b853 f i libucrt:output.obj
 0001:0003a8e5       ??$type_case_integer_parse_into_buffer@I@?$output_processor@DV?$string_output_adapter@D@__crt_stdio_output@@V?$positional_parameter_base@DV?$string_output_adapter@D@__crt_stdio_output@@@2@@__crt_stdio_output@@AAEXII_N@Z 1003b8e5 f i libucrt:output.obj
 0001:0003a977       ??$type_case_integer_parse_into_buffer@I@?$output_processor@DV?$string_output_adapter@D@__crt_stdio_output@@V?$standard_base@DV?$string_output_adapter@D@__crt_stdio_output@@@2@@__crt_stdio_output@@AAEXII_N@Z 1003b977 f i libucrt:output.obj
 0001:0003aa09       ??$type_case_integer_parse_into_buffer@I@?$output_processor@_WV?$stream_output_adapter@_W@__crt_stdio_output@@V?$format_validation_base@_WV?$stream_output_adapter@_W@__crt_stdio_output@@@2@@__crt_stdio_output@@AAEXII_N@Z 1003ba09 f i libucrt:output.obj
 0001:0003aa9b       ??$type_case_integer_parse_into_buffer@I@?$output_processor@_WV?$stream_output_adapter@_W@__crt_stdio_output@@V?$positional_parameter_base@_WV?$stream_output_adapter@_W@__crt_stdio_output@@@2@@__crt_stdio_output@@AAEXII_N@Z 1003ba9b f i libucrt:output.obj
 0001:0003ab2d       ??$type_case_integer_parse_into_buffer@I@?$output_processor@_WV?$stream_output_adapter@_W@__crt_stdio_output@@V?$standard_base@_WV?$stream_output_adapter@_W@__crt_stdio_output@@@2@@__crt_stdio_output@@AAEXII_N@Z 1003bb2d f i libucrt:output.obj
 0001:0003abbf       ??$type_case_integer_parse_into_buffer@I@?$output_processor@_WV?$string_output_adapter@_W@__crt_stdio_output@@V?$format_validation_base@_WV?$string_output_adapter@_W@__crt_stdio_output@@@2@@__crt_stdio_output@@AAEXII_N@Z 1003bbbf f i libucrt:output.obj
 0001:0003ac51       ??$type_case_integer_parse_into_buffer@I@?$output_processor@_WV?$string_output_adapter@_W@__crt_stdio_output@@V?$positional_parameter_base@_WV?$string_output_adapter@_W@__crt_stdio_output@@@2@@__crt_stdio_output@@AAEXII_N@Z 1003bc51 f i libucrt:output.obj
 0001:0003ace3       ??$type_case_integer_parse_into_buffer@I@?$output_processor@_WV?$string_output_adapter@_W@__crt_stdio_output@@V?$standard_base@_WV?$string_output_adapter@_W@__crt_stdio_output@@@2@@__crt_stdio_output@@AAEXII_N@Z 1003bce3 f i libucrt:output.obj
 0001:0003ad75       ??$type_case_integer_parse_into_buffer@_K@?$output_processor@DV?$stream_output_adapter@D@__crt_stdio_output@@V?$format_validation_base@DV?$stream_output_adapter@D@__crt_stdio_output@@@2@@__crt_stdio_output@@AAEX_KI_N@Z 1003bd75 f i libucrt:output.obj
 0001:0003ae1f       ??$type_case_integer_parse_into_buffer@_K@?$output_processor@DV?$stream_output_adapter@D@__crt_stdio_output@@V?$positional_parameter_base@DV?$stream_output_adapter@D@__crt_stdio_output@@@2@@__crt_stdio_output@@AAEX_KI_N@Z 1003be1f f i libucrt:output.obj
 0001:0003aec9       ??$type_case_integer_parse_into_buffer@_K@?$output_processor@DV?$stream_output_adapter@D@__crt_stdio_output@@V?$standard_base@DV?$stream_output_adapter@D@__crt_stdio_output@@@2@@__crt_stdio_output@@AAEX_KI_N@Z 1003bec9 f i libucrt:output.obj
 0001:0003af73       ??$type_case_integer_parse_into_buffer@_K@?$output_processor@DV?$string_output_adapter@D@__crt_stdio_output@@V?$format_validation_base@DV?$string_output_adapter@D@__crt_stdio_output@@@2@@__crt_stdio_output@@AAEX_KI_N@Z 1003bf73 f i libucrt:output.obj
 0001:0003b01d       ??$type_case_integer_parse_into_buffer@_K@?$output_processor@DV?$string_output_adapter@D@__crt_stdio_output@@V?$positional_parameter_base@DV?$string_output_adapter@D@__crt_stdio_output@@@2@@__crt_stdio_output@@AAEX_KI_N@Z 1003c01d f i libucrt:output.obj
 0001:0003b0c7       ??$type_case_integer_parse_into_buffer@_K@?$output_processor@DV?$string_output_adapter@D@__crt_stdio_output@@V?$standard_base@DV?$string_output_adapter@D@__crt_stdio_output@@@2@@__crt_stdio_output@@AAEX_KI_N@Z 1003c0c7 f i libucrt:output.obj
 0001:0003b171       ??$type_case_integer_parse_into_buffer@_K@?$output_processor@_WV?$stream_output_adapter@_W@__crt_stdio_output@@V?$format_validation_base@_WV?$stream_output_adapter@_W@__crt_stdio_output@@@2@@__crt_stdio_output@@AAEX_KI_N@Z 1003c171 f i libucrt:output.obj
 0001:0003b21b       ??$type_case_integer_parse_into_buffer@_K@?$output_processor@_WV?$stream_output_adapter@_W@__crt_stdio_output@@V?$positional_parameter_base@_WV?$stream_output_adapter@_W@__crt_stdio_output@@@2@@__crt_stdio_output@@AAEX_KI_N@Z 1003c21b f i libucrt:output.obj
 0001:0003b2c5       ??$type_case_integer_parse_into_buffer@_K@?$output_processor@_WV?$stream_output_adapter@_W@__crt_stdio_output@@V?$standard_base@_WV?$stream_output_adapter@_W@__crt_stdio_output@@@2@@__crt_stdio_output@@AAEX_KI_N@Z 1003c2c5 f i libucrt:output.obj
 0001:0003b36f       ??$type_case_integer_parse_into_buffer@_K@?$output_processor@_WV?$string_output_adapter@_W@__crt_stdio_output@@V?$format_validation_base@_WV?$string_output_adapter@_W@__crt_stdio_output@@@2@@__crt_stdio_output@@AAEX_KI_N@Z 1003c36f f i libucrt:output.obj
 0001:0003b419       ??$type_case_integer_parse_into_buffer@_K@?$output_processor@_WV?$string_output_adapter@_W@__crt_stdio_output@@V?$positional_parameter_base@_WV?$string_output_adapter@_W@__crt_stdio_output@@@2@@__crt_stdio_output@@AAEX_KI_N@Z 1003c419 f i libucrt:output.obj
 0001:0003b4c3       ??$type_case_integer_parse_into_buffer@_K@?$output_processor@_WV?$string_output_adapter@_W@__crt_stdio_output@@V?$standard_base@_WV?$string_output_adapter@_W@__crt_stdio_output@@@2@@__crt_stdio_output@@AAEX_KI_N@Z 1003c4c3 f i libucrt:output.obj
 0001:0003b56d       ??$write_multiple_characters@V?$stream_output_adapter@D@__crt_stdio_output@@D@__crt_stdio_output@@YAXABV?$stream_output_adapter@D@0@DHQAH@Z 1003c56d f i libucrt:output.obj
 0001:0003b5a4       ??$write_multiple_characters@V?$stream_output_adapter@_W@__crt_stdio_output@@D@__crt_stdio_output@@YAXABV?$stream_output_adapter@_W@0@DHQAH@Z 1003c5a4 f i libucrt:output.obj
 0001:0003b5e1       ??$write_multiple_characters@V?$string_output_adapter@D@__crt_stdio_output@@D@__crt_stdio_output@@YAXABV?$string_output_adapter@D@0@DHQAH@Z 1003c5e1 f i libucrt:output.obj
 0001:0003b618       ??$write_multiple_characters@V?$string_output_adapter@_W@__crt_stdio_output@@D@__crt_stdio_output@@YAXABV?$string_output_adapter@_W@0@DHQAH@Z 1003c618 f i libucrt:output.obj
 0001:0003b889       ??0?$common_data@D@__crt_stdio_output@@IAE@XZ 1003c889 f i libucrt:output.obj
 0001:0003b8e1       ??0?$common_data@_W@__crt_stdio_output@@IAE@XZ 1003c8e1 f i libucrt:output.obj
 0001:0003b940       ??0?$output_adapter_data@DV?$stream_output_adapter@D@__crt_stdio_output@@@__crt_stdio_output@@IAE@ABV?$stream_output_adapter@D@1@_KQBDQAU__crt_locale_pointers@@QAD@Z 1003c940 f i libucrt:output.obj
 0001:0003b98b       ??0?$output_adapter_data@DV?$string_output_adapter@D@__crt_stdio_output@@@__crt_stdio_output@@IAE@ABV?$string_output_adapter@D@1@_KQBDQAU__crt_locale_pointers@@QAD@Z 1003c98b f i libucrt:output.obj
 0001:0003b9d6       ??0?$output_adapter_data@_WV?$stream_output_adapter@_W@__crt_stdio_output@@@__crt_stdio_output@@IAE@ABV?$stream_output_adapter@_W@1@_KQB_WQAU__crt_locale_pointers@@QAD@Z 1003c9d6 f i libucrt:output.obj
 0001:0003ba21       ??0?$output_adapter_data@_WV?$string_output_adapter@_W@__crt_stdio_output@@@__crt_stdio_output@@IAE@ABV?$string_output_adapter@_W@1@_KQB_WQAU__crt_locale_pointers@@QAD@Z 1003ca21 f i libucrt:output.obj
 0001:0003ba6c       ??0?$output_processor@DV?$stream_output_adapter@D@__crt_stdio_output@@V?$format_validation_base@DV?$stream_output_adapter@D@__crt_stdio_output@@@2@@__crt_stdio_output@@QAE@ABV?$stream_output_adapter@D@1@_KQBDQAU__crt_locale_pointers@@QAD@Z 1003ca6c f i libucrt:output.obj
 0001:0003baae       ??0?$output_processor@DV?$stream_output_adapter@D@__crt_stdio_output@@V?$positional_parameter_base@DV?$stream_output_adapter@D@__crt_stdio_output@@@2@@__crt_stdio_output@@QAE@ABV?$stream_output_adapter@D@1@_KQBDQAU__crt_locale_pointers@@QAD@Z 1003caae f i libucrt:output.obj
 0001:0003bae8       ??0?$output_processor@DV?$stream_output_adapter@D@__crt_stdio_output@@V?$standard_base@DV?$stream_output_adapter@D@__crt_stdio_output@@@2@@__crt_stdio_output@@QAE@ABV?$stream_output_adapter@D@1@_KQBDQAU__crt_locale_pointers@@QAD@Z 1003cae8 f i libucrt:output.obj
 0001:0003bb2a       ??0?$output_processor@DV?$string_output_adapter@D@__crt_stdio_output@@V?$format_validation_base@DV?$string_output_adapter@D@__crt_stdio_output@@@2@@__crt_stdio_output@@QAE@ABV?$string_output_adapter@D@1@_KQBDQAU__crt_locale_pointers@@QAD@Z 1003cb2a f i libucrt:output.obj
 0001:0003bb6c       ??0?$output_processor@DV?$string_output_adapter@D@__crt_stdio_output@@V?$positional_parameter_base@DV?$string_output_adapter@D@__crt_stdio_output@@@2@@__crt_stdio_output@@QAE@ABV?$string_output_adapter@D@1@_KQBDQAU__crt_locale_pointers@@QAD@Z 1003cb6c f i libucrt:output.obj
 0001:0003bba6       ??0?$output_processor@DV?$string_output_adapter@D@__crt_stdio_output@@V?$standard_base@DV?$string_output_adapter@D@__crt_stdio_output@@@2@@__crt_stdio_output@@QAE@ABV?$string_output_adapter@D@1@_KQBDQAU__crt_locale_pointers@@QAD@Z 1003cba6 f i libucrt:output.obj
 0001:0003bbe8       ??0?$output_processor@_WV?$stream_output_adapter@_W@__crt_stdio_output@@V?$format_validation_base@_WV?$stream_output_adapter@_W@__crt_stdio_output@@@2@@__crt_stdio_output@@QAE@ABV?$stream_output_adapter@_W@1@_KQB_WQAU__crt_locale_pointers@@QAD@Z 1003cbe8 f i libucrt:output.obj
 0001:0003bc2a       ??0?$output_processor@_WV?$stream_output_adapter@_W@__crt_stdio_output@@V?$positional_parameter_base@_WV?$stream_output_adapter@_W@__crt_stdio_output@@@2@@__crt_stdio_output@@QAE@ABV?$stream_output_adapter@_W@1@_KQB_WQAU__crt_locale_pointers@@QAD@Z 1003cc2a f i libucrt:output.obj
 0001:0003bc64       ??0?$output_processor@_WV?$stream_output_adapter@_W@__crt_stdio_output@@V?$standard_base@_WV?$stream_output_adapter@_W@__crt_stdio_output@@@2@@__crt_stdio_output@@QAE@ABV?$stream_output_adapter@_W@1@_KQB_WQAU__crt_locale_pointers@@QAD@Z 1003cc64 f i libucrt:output.obj
 0001:0003bca6       ??0?$output_processor@_WV?$string_output_adapter@_W@__crt_stdio_output@@V?$format_validation_base@_WV?$string_output_adapter@_W@__crt_stdio_output@@@2@@__crt_stdio_output@@QAE@ABV?$string_output_adapter@_W@1@_KQB_WQAU__crt_locale_pointers@@QAD@Z 1003cca6 f i libucrt:output.obj
 0001:0003bce8       ??0?$output_processor@_WV?$string_output_adapter@_W@__crt_stdio_output@@V?$positional_parameter_base@_WV?$string_output_adapter@_W@__crt_stdio_output@@@2@@__crt_stdio_output@@QAE@ABV?$string_output_adapter@_W@1@_KQB_WQAU__crt_locale_pointers@@QAD@Z 1003cce8 f i libucrt:output.obj
 0001:0003bd22       ??0?$output_processor@_WV?$string_output_adapter@_W@__crt_stdio_output@@V?$standard_base@_WV?$string_output_adapter@_W@__crt_stdio_output@@@2@@__crt_stdio_output@@QAE@ABV?$string_output_adapter@_W@1@_KQB_WQAU__crt_locale_pointers@@QAD@Z 1003cd22 f i libucrt:output.obj
 0001:0003bd64       ??0?$stream_output_adapter@D@__crt_stdio_output@@QAE@QAU_iobuf@@@Z 1003cd64 f i libucrt:output.obj
 0001:0003bd78       ??0?$stream_output_adapter@_W@__crt_stdio_output@@QAE@QAU_iobuf@@@Z 1003cd78 f i libucrt:output.obj
 0001:0003bd8c       ??0?$string_output_adapter@D@__crt_stdio_output@@QAE@QAU?$string_output_adapter_context@D@1@@Z 1003cd8c f i libucrt:output.obj
 0001:0003bda0       ??0?$string_output_adapter@_W@__crt_stdio_output@@QAE@QAU?$string_output_adapter_context@_W@1@@Z 1003cda0 f i libucrt:output.obj
 0001:0003bdb4       ??0_LocaleUpdate@@QAE@QAU__crt_locale_pointers@@@Z 1003cdb4 f i libucrt:output.obj
 0001:0003be57       ??0__acrt_stdio_temporary_buffering_guard@@QAE@QAU_iobuf@@@Z 1003ce57 f i libucrt:output.obj
 0001:0003be7c       ??0__crt_errno_guard@@QAE@QAH@Z 1003ce7c f i libucrt:output.obj
 0001:0003be9a       ??0formatting_buffer@__crt_stdio_output@@QAE@XZ 1003ce9a f i libucrt:output.obj
 0001:0003beaf       ??1?$common_data@D@__crt_stdio_output@@QAE@XZ 1003ceaf f i libucrt:output.obj
 0001:0003beb9       ??1?$common_data@_W@__crt_stdio_output@@QAE@XZ 1003ceb9 f i libucrt:output.obj
 0001:0003bec3       ??1?$format_validation_base@DV?$stream_output_adapter@D@__crt_stdio_output@@@__crt_stdio_output@@QAE@XZ 1003cec3 f i libucrt:output.obj
 0001:0003becd       ??1?$format_validation_base@DV?$string_output_adapter@D@__crt_stdio_output@@@__crt_stdio_output@@QAE@XZ 1003cecd f i libucrt:output.obj
 0001:0003bed7       ??1?$format_validation_base@_WV?$stream_output_adapter@_W@__crt_stdio_output@@@__crt_stdio_output@@QAE@XZ 1003ced7 f i libucrt:output.obj
 0001:0003bee1       ??1?$format_validation_base@_WV?$string_output_adapter@_W@__crt_stdio_output@@@__crt_stdio_output@@QAE@XZ 1003cee1 f i libucrt:output.obj
 0001:0003beeb       ??1?$output_adapter_data@DV?$stream_output_adapter@D@__crt_stdio_output@@@__crt_stdio_output@@QAE@XZ 1003ceeb f i libucrt:output.obj
 0001:0003bef5       ??1?$output_adapter_data@DV?$string_output_adapter@D@__crt_stdio_output@@@__crt_stdio_output@@QAE@XZ 1003cef5 f i libucrt:output.obj
 0001:0003beff       ??1?$output_adapter_data@_WV?$stream_output_adapter@_W@__crt_stdio_output@@@__crt_stdio_output@@QAE@XZ 1003ceff f i libucrt:output.obj
 0001:0003bf09       ??1?$output_adapter_data@_WV?$string_output_adapter@_W@__crt_stdio_output@@@__crt_stdio_output@@QAE@XZ 1003cf09 f i libucrt:output.obj
 0001:0003bf13       ??1?$output_processor@DV?$stream_output_adapter@D@__crt_stdio_output@@V?$format_validation_base@DV?$stream_output_adapter@D@__crt_stdio_output@@@2@@__crt_stdio_output@@QAE@XZ 1003cf13 f i libucrt:output.obj
 0001:0003bf1d       ??1?$output_processor@DV?$stream_output_adapter@D@__crt_stdio_output@@V?$positional_parameter_base@DV?$stream_output_adapter@D@__crt_stdio_output@@@2@@__crt_stdio_output@@QAE@XZ 1003cf1d f i libucrt:output.obj
 0001:0003bf27       ??1?$output_processor@DV?$stream_output_adapter@D@__crt_stdio_output@@V?$standard_base@DV?$stream_output_adapter@D@__crt_stdio_output@@@2@@__crt_stdio_output@@QAE@XZ 1003cf27 f i libucrt:output.obj
 0001:0003bf31       ??1?$output_processor@DV?$string_output_adapter@D@__crt_stdio_output@@V?$format_validation_base@DV?$string_output_adapter@D@__crt_stdio_output@@@2@@__crt_stdio_output@@QAE@XZ 1003cf31 f i libucrt:output.obj
 0001:0003bf3b       ??1?$output_processor@DV?$string_output_adapter@D@__crt_stdio_output@@V?$positional_parameter_base@DV?$string_output_adapter@D@__crt_stdio_output@@@2@@__crt_stdio_output@@QAE@XZ 1003cf3b f i libucrt:output.obj
 0001:0003bf45       ??1?$output_processor@DV?$string_output_adapter@D@__crt_stdio_output@@V?$standard_base@DV?$string_output_adapter@D@__crt_stdio_output@@@2@@__crt_stdio_output@@QAE@XZ 1003cf45 f i libucrt:output.obj
 0001:0003bf4f       ??1?$output_processor@_WV?$stream_output_adapter@_W@__crt_stdio_output@@V?$format_validation_base@_WV?$stream_output_adapter@_W@__crt_stdio_output@@@2@@__crt_stdio_output@@QAE@XZ 1003cf4f f i libucrt:output.obj
 0001:0003bf59       ??1?$output_processor@_WV?$stream_output_adapter@_W@__crt_stdio_output@@V?$positional_parameter_base@_WV?$stream_output_adapter@_W@__crt_stdio_output@@@2@@__crt_stdio_output@@QAE@XZ 1003cf59 f i libucrt:output.obj
 0001:0003bf63       ??1?$output_processor@_WV?$stream_output_adapter@_W@__crt_stdio_output@@V?$standard_base@_WV?$stream_output_adapter@_W@__crt_stdio_output@@@2@@__crt_stdio_output@@QAE@XZ 1003cf63 f i libucrt:output.obj
 0001:0003bf6d       ??1?$output_processor@_WV?$string_output_adapter@_W@__crt_stdio_output@@V?$format_validation_base@_WV?$string_output_adapter@_W@__crt_stdio_output@@@2@@__crt_stdio_output@@QAE@XZ 1003cf6d f i libucrt:output.obj
 0001:0003bf77       ??1?$output_processor@_WV?$string_output_adapter@_W@__crt_stdio_output@@V?$positional_parameter_base@_WV?$string_output_adapter@_W@__crt_stdio_output@@@2@@__crt_stdio_output@@QAE@XZ 1003cf77 f i libucrt:output.obj
 0001:0003bf81       ??1?$output_processor@_WV?$string_output_adapter@_W@__crt_stdio_output@@V?$standard_base@_WV?$string_output_adapter@_W@__crt_stdio_output@@@2@@__crt_stdio_output@@QAE@XZ 1003cf81 f i libucrt:output.obj
 0001:0003bf8b       ??1?$positional_parameter_base@DV?$stream_output_adapter@D@__crt_stdio_output@@@__crt_stdio_output@@QAE@XZ 1003cf8b f i libucrt:output.obj
 0001:0003bf95       ??1?$positional_parameter_base@DV?$string_output_adapter@D@__crt_stdio_output@@@__crt_stdio_output@@QAE@XZ 1003cf95 f i libucrt:output.obj
 0001:0003bf9f       ??1?$positional_parameter_base@_WV?$stream_output_adapter@_W@__crt_stdio_output@@@__crt_stdio_output@@QAE@XZ 1003cf9f f i libucrt:output.obj
 0001:0003bfa9       ??1?$positional_parameter_base@_WV?$string_output_adapter@_W@__crt_stdio_output@@@__crt_stdio_output@@QAE@XZ 1003cfa9 f i libucrt:output.obj
 0001:0003bfb3       ??1?$standard_base@DV?$stream_output_adapter@D@__crt_stdio_output@@@__crt_stdio_output@@QAE@XZ 1003cfb3 f i libucrt:output.obj
 0001:0003bfbd       ??1?$standard_base@DV?$string_output_adapter@D@__crt_stdio_output@@@__crt_stdio_output@@QAE@XZ 1003cfbd f i libucrt:output.obj
 0001:0003bfc7       ??1?$standard_base@_WV?$stream_output_adapter@_W@__crt_stdio_output@@@__crt_stdio_output@@QAE@XZ 1003cfc7 f i libucrt:output.obj
 0001:0003bfd1       ??1?$standard_base@_WV?$string_output_adapter@_W@__crt_stdio_output@@@__crt_stdio_output@@QAE@XZ 1003cfd1 f i libucrt:output.obj
 0001:0003bfdb       ??1_LocaleUpdate@@QAE@XZ   1003cfdb f i libucrt:output.obj
 0001:0003bfef       ??1__acrt_stdio_temporary_buffering_guard@@QAE@XZ 1003cfef f i libucrt:output.obj
 0001:0003c001       ??1__crt_errno_guard@@QAE@XZ 1003d001 f i libucrt:output.obj
 0001:0003c016       ??1formatting_buffer@__crt_stdio_output@@QAE@XZ 1003d016 f i libucrt:output.obj
 0001:0003c036       ??4?$__crt_unique_heap_ptr@DU__crt_internal_free_policy@@@@QAEAAV0@$$QAV0@@Z 1003d036 f i libucrt:output.obj
 0001:0003c719       ?GetLocaleT@_LocaleUpdate@@QAEPAU__crt_locale_pointers@@XZ 1003d719 f i libucrt:output.obj
 0001:0003c71d       ?__crt_interlocked_read_32@@YAHPDH@Z 1003d71d f i libucrt:output.obj
 0001:0003c72c       ?adjust_hexit@?$output_processor@DV?$stream_output_adapter@D@__crt_stdio_output@@V?$format_validation_base@DV?$stream_output_adapter@D@__crt_stdio_output@@@2@@__crt_stdio_output@@CADH_N@Z 1003d72c f i libucrt:output.obj
 0001:0003c751       ?adjust_hexit@?$output_processor@DV?$stream_output_adapter@D@__crt_stdio_output@@V?$positional_parameter_base@DV?$stream_output_adapter@D@__crt_stdio_output@@@2@@__crt_stdio_output@@CADH_N@Z 1003d751 f i libucrt:output.obj
 0001:0003c776       ?adjust_hexit@?$output_processor@DV?$stream_output_adapter@D@__crt_stdio_output@@V?$standard_base@DV?$stream_output_adapter@D@__crt_stdio_output@@@2@@__crt_stdio_output@@CADH_N@Z 1003d776 f i libucrt:output.obj
 0001:0003c79b       ?adjust_hexit@?$output_processor@DV?$string_output_adapter@D@__crt_stdio_output@@V?$format_validation_base@DV?$string_output_adapter@D@__crt_stdio_output@@@2@@__crt_stdio_output@@CADH_N@Z 1003d79b f i libucrt:output.obj
 0001:0003c7c0       ?adjust_hexit@?$output_processor@DV?$string_output_adapter@D@__crt_stdio_output@@V?$positional_parameter_base@DV?$string_output_adapter@D@__crt_stdio_output@@@2@@__crt_stdio_output@@CADH_N@Z 1003d7c0 f i libucrt:output.obj
 0001:0003c7e5       ?adjust_hexit@?$output_processor@DV?$string_output_adapter@D@__crt_stdio_output@@V?$standard_base@DV?$string_output_adapter@D@__crt_stdio_output@@@2@@__crt_stdio_output@@CADH_N@Z 1003d7e5 f i libucrt:output.obj
 0001:0003c80a       ?adjust_hexit@?$output_processor@_WV?$stream_output_adapter@_W@__crt_stdio_output@@V?$format_validation_base@_WV?$stream_output_adapter@_W@__crt_stdio_output@@@2@@__crt_stdio_output@@CADH_N@Z 1003d80a f i libucrt:output.obj
 0001:0003c82f       ?adjust_hexit@?$output_processor@_WV?$stream_output_adapter@_W@__crt_stdio_output@@V?$positional_parameter_base@_WV?$stream_output_adapter@_W@__crt_stdio_output@@@2@@__crt_stdio_output@@CADH_N@Z 1003d82f f i libucrt:output.obj
 0001:0003c854       ?adjust_hexit@?$output_processor@_WV?$stream_output_adapter@_W@__crt_stdio_output@@V?$standard_base@_WV?$stream_output_adapter@_W@__crt_stdio_output@@@2@@__crt_stdio_output@@CADH_N@Z 1003d854 f i libucrt:output.obj
 0001:0003c879       ?adjust_hexit@?$output_processor@_WV?$string_output_adapter@_W@__crt_stdio_output@@V?$format_validation_base@_WV?$string_output_adapter@_W@__crt_stdio_output@@@2@@__crt_stdio_output@@CADH_N@Z 1003d879 f i libucrt:output.obj
 0001:0003c89e       ?adjust_hexit@?$output_processor@_WV?$string_output_adapter@_W@__crt_stdio_output@@V?$positional_parameter_base@_WV?$string_output_adapter@_W@__crt_stdio_output@@@2@@__crt_stdio_output@@CADH_N@Z 1003d89e f i libucrt:output.obj
 0001:0003c8c3       ?adjust_hexit@?$output_processor@_WV?$string_output_adapter@_W@__crt_stdio_output@@V?$standard_base@_WV?$string_output_adapter@_W@__crt_stdio_output@@@2@@__crt_stdio_output@@CADH_N@Z 1003d8c3 f i libucrt:output.obj
 0001:0003c8e8       ?advance_to_next_pass@?$positional_parameter_base@DV?$stream_output_adapter@D@__crt_stdio_output@@@__crt_stdio_output@@IAE_NXZ 1003d8e8 f i libucrt:output.obj
 0001:0003c947       ?advance_to_next_pass@?$positional_parameter_base@DV?$string_output_adapter@D@__crt_stdio_output@@@__crt_stdio_output@@IAE_NXZ 1003d947 f i libucrt:output.obj
 0001:0003c9a6       ?advance_to_next_pass@?$positional_parameter_base@_WV?$stream_output_adapter@_W@__crt_stdio_output@@@__crt_stdio_output@@IAE_NXZ 1003d9a6 f i libucrt:output.obj
 0001:0003ca05       ?advance_to_next_pass@?$positional_parameter_base@_WV?$string_output_adapter@_W@__crt_stdio_output@@@__crt_stdio_output@@IAE_NXZ 1003da05 f i libucrt:output.obj
 0001:0003ca64       ?advance_to_next_pass@?$standard_base@DV?$stream_output_adapter@D@__crt_stdio_output@@@__crt_stdio_output@@IAE_NXZ 1003da64 f i libucrt:output.obj
 0001:0003ca7b       ?advance_to_next_pass@?$standard_base@DV?$string_output_adapter@D@__crt_stdio_output@@@__crt_stdio_output@@IAE_NXZ 1003da7b f i libucrt:output.obj
 0001:0003ca92       ?advance_to_next_pass@?$standard_base@_WV?$stream_output_adapter@_W@__crt_stdio_output@@@__crt_stdio_output@@IAE_NXZ 1003da92 f i libucrt:output.obj
 0001:0003caa9       ?advance_to_next_pass@?$standard_base@_WV?$string_output_adapter@_W@__crt_stdio_output@@@__crt_stdio_output@@IAE_NXZ 1003daa9 f i libucrt:output.obj
 0001:0003cac0       ?crop_zeroes@__crt_stdio_output@@YAXPADQAU__crt_locale_pointers@@@Z 1003dac0 f i libucrt:output.obj
 0001:0003cb2c       ?find_next_state@?$output_processor@DV?$stream_output_adapter@D@__crt_stdio_output@@V?$format_validation_base@DV?$stream_output_adapter@D@__crt_stdio_output@@@2@@__crt_stdio_output@@ABE?AW4state@2@DW432@@Z 1003db2c f i libucrt:output.obj
 0001:0003cb6e       ?find_next_state@?$output_processor@DV?$stream_output_adapter@D@__crt_stdio_output@@V?$positional_parameter_base@DV?$stream_output_adapter@D@__crt_stdio_output@@@2@@__crt_stdio_output@@ABE?AW4state@2@DW432@@Z 1003db6e f i libucrt:output.obj
 0001:0003cbb0       ?find_next_state@?$output_processor@DV?$stream_output_adapter@D@__crt_stdio_output@@V?$standard_base@DV?$stream_output_adapter@D@__crt_stdio_output@@@2@@__crt_stdio_output@@ABE?AW4state@2@DW432@@Z 1003dbb0 f i libucrt:output.obj
 0001:0003cbee       ?find_next_state@?$output_processor@DV?$string_output_adapter@D@__crt_stdio_output@@V?$format_validation_base@DV?$string_output_adapter@D@__crt_stdio_output@@@2@@__crt_stdio_output@@ABE?AW4state@2@DW432@@Z 1003dbee f i libucrt:output.obj
 0001:0003cc30       ?find_next_state@?$output_processor@DV?$string_output_adapter@D@__crt_stdio_output@@V?$positional_parameter_base@DV?$string_output_adapter@D@__crt_stdio_output@@@2@@__crt_stdio_output@@ABE?AW4state@2@DW432@@Z 1003dc30 f i libucrt:output.obj
 0001:0003cc72       ?find_next_state@?$output_processor@DV?$string_output_adapter@D@__crt_stdio_output@@V?$standard_base@DV?$string_output_adapter@D@__crt_stdio_output@@@2@@__crt_stdio_output@@ABE?AW4state@2@DW432@@Z 1003dc72 f i libucrt:output.obj
 0001:0003ccb0       ?find_next_state@?$output_processor@_WV?$stream_output_adapter@_W@__crt_stdio_output@@V?$format_validation_base@_WV?$stream_output_adapter@_W@__crt_stdio_output@@@2@@__crt_stdio_output@@ABE?AW4state@2@_WW432@@Z 1003dcb0 f i libucrt:output.obj
 0001:0003ccf4       ?find_next_state@?$output_processor@_WV?$stream_output_adapter@_W@__crt_stdio_output@@V?$positional_parameter_base@_WV?$stream_output_adapter@_W@__crt_stdio_output@@@2@@__crt_stdio_output@@ABE?AW4state@2@_WW432@@Z 1003dcf4 f i libucrt:output.obj
 0001:0003cd38       ?find_next_state@?$output_processor@_WV?$stream_output_adapter@_W@__crt_stdio_output@@V?$standard_base@_WV?$stream_output_adapter@_W@__crt_stdio_output@@@2@@__crt_stdio_output@@ABE?AW4state@2@_WW432@@Z 1003dd38 f i libucrt:output.obj
 0001:0003cd79       ?find_next_state@?$output_processor@_WV?$string_output_adapter@_W@__crt_stdio_output@@V?$format_validation_base@_WV?$string_output_adapter@_W@__crt_stdio_output@@@2@@__crt_stdio_output@@ABE?AW4state@2@_WW432@@Z 1003dd79 f i libucrt:output.obj
 0001:0003cdbd       ?find_next_state@?$output_processor@_WV?$string_output_adapter@_W@__crt_stdio_output@@V?$positional_parameter_base@_WV?$string_output_adapter@_W@__crt_stdio_output@@@2@@__crt_stdio_output@@ABE?AW4state@2@_WW432@@Z 1003ddbd f i libucrt:output.obj
 0001:0003ce01       ?find_next_state@?$output_processor@_WV?$string_output_adapter@_W@__crt_stdio_output@@V?$standard_base@_WV?$string_output_adapter@_W@__crt_stdio_output@@@2@@__crt_stdio_output@@ABE?AW4state@2@_WW432@@Z 1003de01 f i libucrt:output.obj
 0001:0003ce42       ?force_decimal_point@__crt_stdio_output@@YAXPADQAU__crt_locale_pointers@@@Z 1003de42 f i libucrt:output.obj
 0001:0003ceb5       ?get_flags@__crt_stdio_stream@@QBEJXZ 1003deb5 f i libucrt:output.obj
 0001:0003cebb       ?get_parameter_type@?$positional_parameter_base@DV?$stream_output_adapter@D@__crt_stdio_output@@@__crt_stdio_output@@CA?AW4parameter_type@12@F@Z 1003debb f i libucrt:output.obj
 0001:0003cebf       ?get_parameter_type@?$positional_parameter_base@DV?$stream_output_adapter@D@__crt_stdio_output@@@__crt_stdio_output@@CA?AW4parameter_type@12@G@Z 1003debf f i libucrt:output.obj
 0001:0003cec3       ?get_parameter_type@?$positional_parameter_base@DV?$stream_output_adapter@D@__crt_stdio_output@@@__crt_stdio_output@@CA?AW4parameter_type@12@H@Z 1003dec3 f i libucrt:output.obj
 0001:0003cec7       ?get_parameter_type@?$positional_parameter_base@DV?$stream_output_adapter@D@__crt_stdio_output@@@__crt_stdio_output@@CA?AW4parameter_type@12@I@Z 1003dec7 f i libucrt:output.obj
 0001:0003cecb       ?get_parameter_type@?$positional_parameter_base@DV?$stream_output_adapter@D@__crt_stdio_output@@@__crt_stdio_output@@CA?AW4parameter_type@12@U_CRT_DOUBLE@@@Z 1003decb f i libucrt:output.obj
 0001:0003cecf       ?get_parameter_type@?$positional_parameter_base@DV?$stream_output_adapter@D@__crt_stdio_output@@@__crt_stdio_output@@CA?AW4parameter_type@12@_J@Z 1003decf f i libucrt:output.obj
 0001:0003ced3       ?get_parameter_type@?$positional_parameter_base@DV?$stream_output_adapter@D@__crt_stdio_output@@@__crt_stdio_output@@CA?AW4parameter_type@12@_K@Z 1003ded3 f i libucrt:output.obj
 0001:0003ced7       ?get_parameter_type@?$positional_parameter_base@DV?$stream_output_adapter@D@__crt_stdio_output@@@__crt_stdio_output@@CA?AW4parameter_type@12@_W@Z 1003ded7 f i libucrt:output.obj
 0001:0003cedb       ?get_parameter_type@?$positional_parameter_base@DV?$string_output_adapter@D@__crt_stdio_output@@@__crt_stdio_output@@CA?AW4parameter_type@12@F@Z 1003dedb f i libucrt:output.obj
 0001:0003cedf       ?get_parameter_type@?$positional_parameter_base@DV?$string_output_adapter@D@__crt_stdio_output@@@__crt_stdio_output@@CA?AW4parameter_type@12@G@Z 1003dedf f i libucrt:output.obj
 0001:0003cee3       ?get_parameter_type@?$positional_parameter_base@DV?$string_output_adapter@D@__crt_stdio_output@@@__crt_stdio_output@@CA?AW4parameter_type@12@H@Z 1003dee3 f i libucrt:output.obj
 0001:0003cee7       ?get_parameter_type@?$positional_parameter_base@DV?$string_output_adapter@D@__crt_stdio_output@@@__crt_stdio_output@@CA?AW4parameter_type@12@I@Z 1003dee7 f i libucrt:output.obj
 0001:0003ceeb       ?get_parameter_type@?$positional_parameter_base@DV?$string_output_adapter@D@__crt_stdio_output@@@__crt_stdio_output@@CA?AW4parameter_type@12@U_CRT_DOUBLE@@@Z 1003deeb f i libucrt:output.obj
 0001:0003ceef       ?get_parameter_type@?$positional_parameter_base@DV?$string_output_adapter@D@__crt_stdio_output@@@__crt_stdio_output@@CA?AW4parameter_type@12@_J@Z 1003deef f i libucrt:output.obj
 0001:0003cef3       ?get_parameter_type@?$positional_parameter_base@DV?$string_output_adapter@D@__crt_stdio_output@@@__crt_stdio_output@@CA?AW4parameter_type@12@_K@Z 1003def3 f i libucrt:output.obj
 0001:0003cef7       ?get_parameter_type@?$positional_parameter_base@DV?$string_output_adapter@D@__crt_stdio_output@@@__crt_stdio_output@@CA?AW4parameter_type@12@_W@Z 1003def7 f i libucrt:output.obj
 0001:0003cefb       ?get_parameter_type@?$positional_parameter_base@_WV?$stream_output_adapter@_W@__crt_stdio_output@@@__crt_stdio_output@@CA?AW4parameter_type@12@F@Z 1003defb f i libucrt:output.obj
 0001:0003ceff       ?get_parameter_type@?$positional_parameter_base@_WV?$stream_output_adapter@_W@__crt_stdio_output@@@__crt_stdio_output@@CA?AW4parameter_type@12@G@Z 1003deff f i libucrt:output.obj
 0001:0003cf03       ?get_parameter_type@?$positional_parameter_base@_WV?$stream_output_adapter@_W@__crt_stdio_output@@@__crt_stdio_output@@CA?AW4parameter_type@12@H@Z 1003df03 f i libucrt:output.obj
 0001:0003cf07       ?get_parameter_type@?$positional_parameter_base@_WV?$stream_output_adapter@_W@__crt_stdio_output@@@__crt_stdio_output@@CA?AW4parameter_type@12@I@Z 1003df07 f i libucrt:output.obj
 0001:0003cf0b       ?get_parameter_type@?$positional_parameter_base@_WV?$stream_output_adapter@_W@__crt_stdio_output@@@__crt_stdio_output@@CA?AW4parameter_type@12@U_CRT_DOUBLE@@@Z 1003df0b f i libucrt:output.obj
 0001:0003cf0f       ?get_parameter_type@?$positional_parameter_base@_WV?$stream_output_adapter@_W@__crt_stdio_output@@@__crt_stdio_output@@CA?AW4parameter_type@12@_J@Z 1003df0f f i libucrt:output.obj
 0001:0003cf13       ?get_parameter_type@?$positional_parameter_base@_WV?$stream_output_adapter@_W@__crt_stdio_output@@@__crt_stdio_output@@CA?AW4parameter_type@12@_K@Z 1003df13 f i libucrt:output.obj
 0001:0003cf17       ?get_parameter_type@?$positional_parameter_base@_WV?$stream_output_adapter@_W@__crt_stdio_output@@@__crt_stdio_output@@CA?AW4parameter_type@12@_W@Z 1003df17 f i libucrt:output.obj
 0001:0003cf1b       ?get_parameter_type@?$positional_parameter_base@_WV?$string_output_adapter@_W@__crt_stdio_output@@@__crt_stdio_output@@CA?AW4parameter_type@12@F@Z 1003df1b f i libucrt:output.obj
 0001:0003cf1f       ?get_parameter_type@?$positional_parameter_base@_WV?$string_output_adapter@_W@__crt_stdio_output@@@__crt_stdio_output@@CA?AW4parameter_type@12@G@Z 1003df1f f i libucrt:output.obj
 0001:0003cf23       ?get_parameter_type@?$positional_parameter_base@_WV?$string_output_adapter@_W@__crt_stdio_output@@@__crt_stdio_output@@CA?AW4parameter_type@12@H@Z 1003df23 f i libucrt:output.obj
 0001:0003cf27       ?get_parameter_type@?$positional_parameter_base@_WV?$string_output_adapter@_W@__crt_stdio_output@@@__crt_stdio_output@@CA?AW4parameter_type@12@I@Z 1003df27 f i libucrt:output.obj
 0001:0003cf2b       ?get_parameter_type@?$positional_parameter_base@_WV?$string_output_adapter@_W@__crt_stdio_output@@@__crt_stdio_output@@CA?AW4parameter_type@12@U_CRT_DOUBLE@@@Z 1003df2b f i libucrt:output.obj
 0001:0003cf2f       ?get_parameter_type@?$positional_parameter_base@_WV?$string_output_adapter@_W@__crt_stdio_output@@@__crt_stdio_output@@CA?AW4parameter_type@12@_J@Z 1003df2f f i libucrt:output.obj
 0001:0003cf33       ?get_parameter_type@?$positional_parameter_base@_WV?$string_output_adapter@_W@__crt_stdio_output@@@__crt_stdio_output@@CA?AW4parameter_type@12@_K@Z 1003df33 f i libucrt:output.obj
 0001:0003cf37       ?get_parameter_type@?$positional_parameter_base@_WV?$string_output_adapter@_W@__crt_stdio_output@@@__crt_stdio_output@@CA?AW4parameter_type@12@_W@Z 1003df37 f i libucrt:output.obj
 0001:0003cf3b       ?has_flag@?$output_processor@DV?$stream_output_adapter@D@__crt_stdio_output@@V?$format_validation_base@DV?$stream_output_adapter@D@__crt_stdio_output@@@2@@__crt_stdio_output@@ABE_NI@Z 1003df3b f i libucrt:output.obj
 0001:0003cf55       ?has_flag@?$output_processor@DV?$stream_output_adapter@D@__crt_stdio_output@@V?$positional_parameter_base@DV?$stream_output_adapter@D@__crt_stdio_output@@@2@@__crt_stdio_output@@ABE_NI@Z 1003df55 f i libucrt:output.obj
 0001:0003cf6f       ?has_flag@?$output_processor@DV?$stream_output_adapter@D@__crt_stdio_output@@V?$standard_base@DV?$stream_output_adapter@D@__crt_stdio_output@@@2@@__crt_stdio_output@@ABE_NI@Z 1003df6f f i libucrt:output.obj
 0001:0003cf89       ?has_flag@?$output_processor@DV?$string_output_adapter@D@__crt_stdio_output@@V?$format_validation_base@DV?$string_output_adapter@D@__crt_stdio_output@@@2@@__crt_stdio_output@@ABE_NI@Z 1003df89 f i libucrt:output.obj
 0001:0003cfa3       ?has_flag@?$output_processor@DV?$string_output_adapter@D@__crt_stdio_output@@V?$positional_parameter_base@DV?$string_output_adapter@D@__crt_stdio_output@@@2@@__crt_stdio_output@@ABE_NI@Z 1003dfa3 f i libucrt:output.obj
 0001:0003cfbd       ?has_flag@?$output_processor@DV?$string_output_adapter@D@__crt_stdio_output@@V?$standard_base@DV?$string_output_adapter@D@__crt_stdio_output@@@2@@__crt_stdio_output@@ABE_NI@Z 1003dfbd f i libucrt:output.obj
 0001:0003cfd7       ?has_flag@?$output_processor@_WV?$stream_output_adapter@_W@__crt_stdio_output@@V?$format_validation_base@_WV?$stream_output_adapter@_W@__crt_stdio_output@@@2@@__crt_stdio_output@@ABE_NI@Z 1003dfd7 f i libucrt:output.obj
 0001:0003cff1       ?has_flag@?$output_processor@_WV?$stream_output_adapter@_W@__crt_stdio_output@@V?$positional_parameter_base@_WV?$stream_output_adapter@_W@__crt_stdio_output@@@2@@__crt_stdio_output@@ABE_NI@Z 1003dff1 f i libucrt:output.obj
 0001:0003d00b       ?has_flag@?$output_processor@_WV?$stream_output_adapter@_W@__crt_stdio_output@@V?$standard_base@_WV?$stream_output_adapter@_W@__crt_stdio_output@@@2@@__crt_stdio_output@@ABE_NI@Z 1003e00b f i libucrt:output.obj
 0001:0003d025       ?has_flag@?$output_processor@_WV?$string_output_adapter@_W@__crt_stdio_output@@V?$format_validation_base@_WV?$string_output_adapter@_W@__crt_stdio_output@@@2@@__crt_stdio_output@@ABE_NI@Z 1003e025 f i libucrt:output.obj
 0001:0003d03f       ?has_flag@?$output_processor@_WV?$string_output_adapter@_W@__crt_stdio_output@@V?$positional_parameter_base@_WV?$string_output_adapter@_W@__crt_stdio_output@@@2@@__crt_stdio_output@@ABE_NI@Z 1003e03f f i libucrt:output.obj
 0001:0003d059       ?has_flag@?$output_processor@_WV?$string_output_adapter@_W@__crt_stdio_output@@V?$standard_base@_WV?$string_output_adapter@_W@__crt_stdio_output@@@2@@__crt_stdio_output@@ABE_NI@Z 1003e059 f i libucrt:output.obj
 0001:0003d073       ?is_positional_parameter_reappearance_consistent@?$positional_parameter_base@DV?$stream_output_adapter@D@__crt_stdio_output@@@__crt_stdio_output@@AAE_NABUparameter_data@12@W4parameter_type@12@DW4length_modifier@2@@Z 1003e073 f i libucrt:output.obj
 0001:0003d1ec       ?is_positional_parameter_reappearance_consistent@?$positional_parameter_base@DV?$string_output_adapter@D@__crt_stdio_output@@@__crt_stdio_output@@AAE_NABUparameter_data@12@W4parameter_type@12@DW4length_modifier@2@@Z 1003e1ec f i libucrt:output.obj
 0001:0003d365       ?is_positional_parameter_reappearance_consistent@?$positional_parameter_base@_WV?$stream_output_adapter@_W@__crt_stdio_output@@@__crt_stdio_output@@AAE_NABUparameter_data@12@W4parameter_type@12@_WW4length_modifier@2@@Z 1003e365 f i libucrt:output.obj
 0001:0003d4d0       ?is_positional_parameter_reappearance_consistent@?$positional_parameter_base@_WV?$string_output_adapter@_W@__crt_stdio_output@@@__crt_stdio_output@@AAE_NABUparameter_data@12@W4parameter_type@12@_WW4length_modifier@2@@Z 1003e4d0 f i libucrt:output.obj
 0001:0003d63b       ?is_string_backed@__crt_stdio_stream@@QBE_NXZ 1003e63b f i libucrt:output.obj
 0001:0003d64a       ?narrow_null_string@?$output_processor@DV?$stream_output_adapter@D@__crt_stdio_output@@V?$format_validation_base@DV?$stream_output_adapter@D@__crt_stdio_output@@@2@@__crt_stdio_output@@CAPADXZ 1003e64a f i libucrt:output.obj
 0001:0003d650       ?narrow_null_string@?$output_processor@DV?$stream_output_adapter@D@__crt_stdio_output@@V?$positional_parameter_base@DV?$stream_output_adapter@D@__crt_stdio_output@@@2@@__crt_stdio_output@@CAPADXZ 1003e650 f i libucrt:output.obj
 0001:0003d656       ?narrow_null_string@?$output_processor@DV?$stream_output_adapter@D@__crt_stdio_output@@V?$standard_base@DV?$stream_output_adapter@D@__crt_stdio_output@@@2@@__crt_stdio_output@@CAPADXZ 1003e656 f i libucrt:output.obj
 0001:0003d65c       ?narrow_null_string@?$output_processor@DV?$string_output_adapter@D@__crt_stdio_output@@V?$format_validation_base@DV?$string_output_adapter@D@__crt_stdio_output@@@2@@__crt_stdio_output@@CAPADXZ 1003e65c f i libucrt:output.obj
 0001:0003d662       ?narrow_null_string@?$output_processor@DV?$string_output_adapter@D@__crt_stdio_output@@V?$positional_parameter_base@DV?$string_output_adapter@D@__crt_stdio_output@@@2@@__crt_stdio_output@@CAPADXZ 1003e662 f i libucrt:output.obj
 0001:0003d668       ?narrow_null_string@?$output_processor@DV?$string_output_adapter@D@__crt_stdio_output@@V?$standard_base@DV?$string_output_adapter@D@__crt_stdio_output@@@2@@__crt_stdio_output@@CAPADXZ 1003e668 f i libucrt:output.obj
 0001:0003d66e       ?narrow_null_string@?$output_processor@_WV?$stream_output_adapter@_W@__crt_stdio_output@@V?$format_validation_base@_WV?$stream_output_adapter@_W@__crt_stdio_output@@@2@@__crt_stdio_output@@CAPADXZ 1003e66e f i libucrt:output.obj
 0001:0003d674       ?narrow_null_string@?$output_processor@_WV?$stream_output_adapter@_W@__crt_stdio_output@@V?$positional_parameter_base@_WV?$stream_output_adapter@_W@__crt_stdio_output@@@2@@__crt_stdio_output@@CAPADXZ 1003e674 f i libucrt:output.obj
 0001:0003d67a       ?narrow_null_string@?$output_processor@_WV?$stream_output_adapter@_W@__crt_stdio_output@@V?$standard_base@_WV?$stream_output_adapter@_W@__crt_stdio_output@@@2@@__crt_stdio_output@@CAPADXZ 1003e67a f i libucrt:output.obj
 0001:0003d680       ?narrow_null_string@?$output_processor@_WV?$string_output_adapter@_W@__crt_stdio_output@@V?$format_validation_base@_WV?$string_output_adapter@_W@__crt_stdio_output@@@2@@__crt_stdio_output@@CAPADXZ 1003e680 f i libucrt:output.obj
 0001:0003d686       ?narrow_null_string@?$output_processor@_WV?$string_output_adapter@_W@__crt_stdio_output@@V?$positional_parameter_base@_WV?$string_output_adapter@_W@__crt_stdio_output@@@2@@__crt_stdio_output@@CAPADXZ 1003e686 f i libucrt:output.obj
 0001:0003d68c       ?narrow_null_string@?$output_processor@_WV?$string_output_adapter@_W@__crt_stdio_output@@V?$standard_base@_WV?$string_output_adapter@_W@__crt_stdio_output@@@2@@__crt_stdio_output@@CAPADXZ 1003e68c f i libucrt:output.obj
 0001:0003d692       ?parse_int_from_format_string@?$output_processor@DV?$stream_output_adapter@D@__crt_stdio_output@@V?$format_validation_base@DV?$stream_output_adapter@D@__crt_stdio_output@@@2@@__crt_stdio_output@@AAE_NQAH@Z 1003e692 f i libucrt:output.obj
 0001:0003d705       ?parse_int_from_format_string@?$output_processor@DV?$stream_output_adapter@D@__crt_stdio_output@@V?$positional_parameter_base@DV?$stream_output_adapter@D@__crt_stdio_output@@@2@@__crt_stdio_output@@AAE_NQAH@Z 1003e705 f i libucrt:output.obj
 0001:0003d778       ?parse_int_from_format_string@?$output_processor@DV?$stream_output_adapter@D@__crt_stdio_output@@V?$standard_base@DV?$stream_output_adapter@D@__crt_stdio_output@@@2@@__crt_stdio_output@@AAE_NQAH@Z 1003e778 f i libucrt:output.obj
 0001:0003d7eb       ?parse_int_from_format_string@?$output_processor@DV?$string_output_adapter@D@__crt_stdio_output@@V?$format_validation_base@DV?$string_output_adapter@D@__crt_stdio_output@@@2@@__crt_stdio_output@@AAE_NQAH@Z 1003e7eb f i libucrt:output.obj
 0001:0003d85e       ?parse_int_from_format_string@?$output_processor@DV?$string_output_adapter@D@__crt_stdio_output@@V?$positional_parameter_base@DV?$string_output_adapter@D@__crt_stdio_output@@@2@@__crt_stdio_output@@AAE_NQAH@Z 1003e85e f i libucrt:output.obj
 0001:0003d8d1       ?parse_int_from_format_string@?$output_processor@DV?$string_output_adapter@D@__crt_stdio_output@@V?$standard_base@DV?$string_output_adapter@D@__crt_stdio_output@@@2@@__crt_stdio_output@@AAE_NQAH@Z 1003e8d1 f i libucrt:output.obj
 0001:0003d944       ?parse_int_from_format_string@?$output_processor@_WV?$stream_output_adapter@_W@__crt_stdio_output@@V?$format_validation_base@_WV?$stream_output_adapter@_W@__crt_stdio_output@@@2@@__crt_stdio_output@@AAE_NQAH@Z 1003e944 f i libucrt:output.obj
 0001:0003d9b9       ?parse_int_from_format_string@?$output_processor@_WV?$stream_output_adapter@_W@__crt_stdio_output@@V?$positional_parameter_base@_WV?$stream_output_adapter@_W@__crt_stdio_output@@@2@@__crt_stdio_output@@AAE_NQAH@Z 1003e9b9 f i libucrt:output.obj
 0001:0003da2e       ?parse_int_from_format_string@?$output_processor@_WV?$stream_output_adapter@_W@__crt_stdio_output@@V?$standard_base@_WV?$stream_output_adapter@_W@__crt_stdio_output@@@2@@__crt_stdio_output@@AAE_NQAH@Z 1003ea2e f i libucrt:output.obj
 0001:0003daa3       ?parse_int_from_format_string@?$output_processor@_WV?$string_output_adapter@_W@__crt_stdio_output@@V?$format_validation_base@_WV?$string_output_adapter@_W@__crt_stdio_output@@@2@@__crt_stdio_output@@AAE_NQAH@Z 1003eaa3 f i libucrt:output.obj
 0001:0003db18       ?parse_int_from_format_string@?$output_processor@_WV?$string_output_adapter@_W@__crt_stdio_output@@V?$positional_parameter_base@_WV?$string_output_adapter@_W@__crt_stdio_output@@@2@@__crt_stdio_output@@AAE_NQAH@Z 1003eb18 f i libucrt:output.obj
 0001:0003db8d       ?parse_int_from_format_string@?$output_processor@_WV?$string_output_adapter@_W@__crt_stdio_output@@V?$standard_base@_WV?$string_output_adapter@_W@__crt_stdio_output@@@2@@__crt_stdio_output@@AAE_NQAH@Z 1003eb8d f i libucrt:output.obj
 0001:0003dc02       ?process@?$output_processor@DV?$stream_output_adapter@D@__crt_stdio_output@@V?$format_validation_base@DV?$stream_output_adapter@D@__crt_stdio_output@@@2@@__crt_stdio_output@@QAEHXZ 1003ec02 f i libucrt:output.obj
 0001:0003dd74       ?process@?$output_processor@DV?$stream_output_adapter@D@__crt_stdio_output@@V?$positional_parameter_base@DV?$stream_output_adapter@D@__crt_stdio_output@@@2@@__crt_stdio_output@@QAEHXZ 1003ed74 f i libucrt:output.obj
 0001:0003df27       ?process@?$output_processor@DV?$stream_output_adapter@D@__crt_stdio_output@@V?$standard_base@DV?$stream_output_adapter@D@__crt_stdio_output@@@2@@__crt_stdio_output@@QAEHXZ 1003ef27 f i libucrt:output.obj
 0001:0003e08a       ?process@?$output_processor@DV?$string_output_adapter@D@__crt_stdio_output@@V?$format_validation_base@DV?$string_output_adapter@D@__crt_stdio_output@@@2@@__crt_stdio_output@@QAEHXZ 1003f08a f i libucrt:output.obj
 0001:0003e1fc       ?process@?$output_processor@DV?$string_output_adapter@D@__crt_stdio_output@@V?$positional_parameter_base@DV?$string_output_adapter@D@__crt_stdio_output@@@2@@__crt_stdio_output@@QAEHXZ 1003f1fc f i libucrt:output.obj
 0001:0003e3af       ?process@?$output_processor@DV?$string_output_adapter@D@__crt_stdio_output@@V?$standard_base@DV?$string_output_adapter@D@__crt_stdio_output@@@2@@__crt_stdio_output@@QAEHXZ 1003f3af f i libucrt:output.obj
 0001:0003e512       ?process@?$output_processor@_WV?$stream_output_adapter@_W@__crt_stdio_output@@V?$format_validation_base@_WV?$stream_output_adapter@_W@__crt_stdio_output@@@2@@__crt_stdio_output@@QAEHXZ 1003f512 f i libucrt:output.obj
 0001:0003e68e       ?process@?$output_processor@_WV?$stream_output_adapter@_W@__crt_stdio_output@@V?$positional_parameter_base@_WV?$stream_output_adapter@_W@__crt_stdio_output@@@2@@__crt_stdio_output@@QAEHXZ 1003f68e f i libucrt:output.obj
 0001:0003e846       ?process@?$output_processor@_WV?$stream_output_adapter@_W@__crt_stdio_output@@V?$standard_base@_WV?$stream_output_adapter@_W@__crt_stdio_output@@@2@@__crt_stdio_output@@QAEHXZ 1003f846 f i libucrt:output.obj
 0001:0003e9ae       ?process@?$output_processor@_WV?$string_output_adapter@_W@__crt_stdio_output@@V?$format_validation_base@_WV?$string_output_adapter@_W@__crt_stdio_output@@@2@@__crt_stdio_output@@QAEHXZ 1003f9ae f i libucrt:output.obj
 0001:0003eb2a       ?process@?$output_processor@_WV?$string_output_adapter@_W@__crt_stdio_output@@V?$positional_parameter_base@_WV?$string_output_adapter@_W@__crt_stdio_output@@@2@@__crt_stdio_output@@QAEHXZ 1003fb2a f i libucrt:output.obj
 0001:0003ece2       ?process@?$output_processor@_WV?$string_output_adapter@_W@__crt_stdio_output@@V?$standard_base@_WV?$string_output_adapter@_W@__crt_stdio_output@@@2@@__crt_stdio_output@@QAEHXZ 1003fce2 f i libucrt:output.obj
 0001:0003ee4a       ?public_stream@__crt_stdio_stream@@QBEPAU_iobuf@@XZ 1003fe4a f i libucrt:output.obj
 0001:0003ee4d       ?set_flag@?$output_processor@DV?$stream_output_adapter@D@__crt_stdio_output@@V?$format_validation_base@DV?$stream_output_adapter@D@__crt_stdio_output@@@2@@__crt_stdio_output@@AAEXI@Z 1003fe4d f i libucrt:output.obj
 0001:0003ee5f       ?set_flag@?$output_processor@DV?$stream_output_adapter@D@__crt_stdio_output@@V?$positional_parameter_base@DV?$stream_output_adapter@D@__crt_stdio_output@@@2@@__crt_stdio_output@@AAEXI@Z 1003fe5f f i libucrt:output.obj
 0001:0003ee71       ?set_flag@?$output_processor@DV?$stream_output_adapter@D@__crt_stdio_output@@V?$standard_base@DV?$stream_output_adapter@D@__crt_stdio_output@@@2@@__crt_stdio_output@@AAEXI@Z 1003fe71 f i libucrt:output.obj
 0001:0003ee83       ?set_flag@?$output_processor@DV?$string_output_adapter@D@__crt_stdio_output@@V?$format_validation_base@DV?$string_output_adapter@D@__crt_stdio_output@@@2@@__crt_stdio_output@@AAEXI@Z 1003fe83 f i libucrt:output.obj
 0001:0003ee95       ?set_flag@?$output_processor@DV?$string_output_adapter@D@__crt_stdio_output@@V?$positional_parameter_base@DV?$string_output_adapter@D@__crt_stdio_output@@@2@@__crt_stdio_output@@AAEXI@Z 1003fe95 f i libucrt:output.obj
 0001:0003eea7       ?set_flag@?$output_processor@DV?$string_output_adapter@D@__crt_stdio_output@@V?$standard_base@DV?$string_output_adapter@D@__crt_stdio_output@@@2@@__crt_stdio_output@@AAEXI@Z 1003fea7 f i libucrt:output.obj
 0001:0003eeb9       ?set_flag@?$output_processor@_WV?$stream_output_adapter@_W@__crt_stdio_output@@V?$format_validation_base@_WV?$stream_output_adapter@_W@__crt_stdio_output@@@2@@__crt_stdio_output@@AAEXI@Z 1003feb9 f i libucrt:output.obj
 0001:0003eecb       ?set_flag@?$output_processor@_WV?$stream_output_adapter@_W@__crt_stdio_output@@V?$positional_parameter_base@_WV?$stream_output_adapter@_W@__crt_stdio_output@@@2@@__crt_stdio_output@@AAEXI@Z 1003fecb f i libucrt:output.obj
 0001:0003eedd       ?set_flag@?$output_processor@_WV?$stream_output_adapter@_W@__crt_stdio_output@@V?$standard_base@_WV?$stream_output_adapter@_W@__crt_stdio_output@@@2@@__crt_stdio_output@@AAEXI@Z 1003fedd f i libucrt:output.obj
 0001:0003eeef       ?set_flag@?$output_processor@_WV?$string_output_adapter@_W@__crt_stdio_output@@V?$format_validation_base@_WV?$string_output_adapter@_W@__crt_stdio_output@@@2@@__crt_stdio_output@@AAEXI@Z 1003feef f i libucrt:output.obj
 0001:0003ef01       ?set_flag@?$output_processor@_WV?$string_output_adapter@_W@__crt_stdio_output@@V?$positional_parameter_base@_WV?$string_output_adapter@_W@__crt_stdio_output@@@2@@__crt_stdio_output@@AAEXI@Z 1003ff01 f i libucrt:output.obj
 0001:0003ef13       ?set_flag@?$output_processor@_WV?$string_output_adapter@_W@__crt_stdio_output@@V?$standard_base@_WV?$string_output_adapter@_W@__crt_stdio_output@@@2@@__crt_stdio_output@@AAEXI@Z 1003ff13 f i libucrt:output.obj
 0001:0003ef25       ?should_format@?$positional_parameter_base@DV?$stream_output_adapter@D@__crt_stdio_output@@@__crt_stdio_output@@IAE_NXZ 1003ff25 f i libucrt:output.obj
 0001:0003ef40       ?should_format@?$positional_parameter_base@DV?$string_output_adapter@D@__crt_stdio_output@@@__crt_stdio_output@@IAE_NXZ 1003ff40 f i libucrt:output.obj
 0001:0003ef5b       ?should_format@?$positional_parameter_base@_WV?$stream_output_adapter@_W@__crt_stdio_output@@@__crt_stdio_output@@IAE_NXZ 1003ff5b f i libucrt:output.obj
 0001:0003ef76       ?should_format@?$positional_parameter_base@_WV?$string_output_adapter@_W@__crt_stdio_output@@@__crt_stdio_output@@IAE_NXZ 1003ff76 f i libucrt:output.obj
 0001:0003ef91       ?should_format@?$standard_base@DV?$stream_output_adapter@D@__crt_stdio_output@@@__crt_stdio_output@@IAE_NXZ 1003ff91 f i libucrt:output.obj
 0001:0003ef94       ?should_format@?$standard_base@DV?$string_output_adapter@D@__crt_stdio_output@@@__crt_stdio_output@@IAE_NXZ 1003ff94 f i libucrt:output.obj
 0001:0003ef97       ?should_format@?$standard_base@_WV?$stream_output_adapter@_W@__crt_stdio_output@@@__crt_stdio_output@@IAE_NXZ 1003ff97 f i libucrt:output.obj
 0001:0003ef9a       ?should_format@?$standard_base@_WV?$string_output_adapter@_W@__crt_stdio_output@@@__crt_stdio_output@@IAE_NXZ 1003ff9a f i libucrt:output.obj
 0001:0003ef9d       ?should_skip_normal_state_processing@?$positional_parameter_base@DV?$stream_output_adapter@D@__crt_stdio_output@@@__crt_stdio_output@@IAE_NXZ 1003ff9d f i libucrt:output.obj
 0001:0003efcf       ?should_skip_normal_state_processing@?$positional_parameter_base@DV?$string_output_adapter@D@__crt_stdio_output@@@__crt_stdio_output@@IAE_NXZ 1003ffcf f i libucrt:output.obj
 0001:0003f001       ?should_skip_normal_state_processing@?$positional_parameter_base@_WV?$stream_output_adapter@_W@__crt_stdio_output@@@__crt_stdio_output@@IAE_NXZ 10040001 f i libucrt:output.obj
 0001:0003f033       ?should_skip_normal_state_processing@?$positional_parameter_base@_WV?$string_output_adapter@_W@__crt_stdio_output@@@__crt_stdio_output@@IAE_NXZ 10040033 f i libucrt:output.obj
 0001:0003f065       ?should_skip_normal_state_processing@?$standard_base@DV?$stream_output_adapter@D@__crt_stdio_output@@@__crt_stdio_output@@IAE_NXZ 10040065 f i libucrt:output.obj
 0001:0003f068       ?should_skip_normal_state_processing@?$standard_base@DV?$string_output_adapter@D@__crt_stdio_output@@@__crt_stdio_output@@IAE_NXZ 10040068 f i libucrt:output.obj
 0001:0003f06b       ?should_skip_normal_state_processing@?$standard_base@_WV?$stream_output_adapter@_W@__crt_stdio_output@@@__crt_stdio_output@@IAE_NXZ 1004006b f i libucrt:output.obj
 0001:0003f06e       ?should_skip_normal_state_processing@?$standard_base@_WV?$string_output_adapter@_W@__crt_stdio_output@@@__crt_stdio_output@@IAE_NXZ 1004006e f i libucrt:output.obj
 0001:0003f071       ?should_skip_type_state_output@?$positional_parameter_base@DV?$stream_output_adapter@D@__crt_stdio_output@@@__crt_stdio_output@@IBE_NXZ 10040071 f i libucrt:output.obj
 0001:0003f08d       ?should_skip_type_state_output@?$positional_parameter_base@DV?$string_output_adapter@D@__crt_stdio_output@@@__crt_stdio_output@@IBE_NXZ 1004008d f i libucrt:output.obj
 0001:0003f0a9       ?should_skip_type_state_output@?$positional_parameter_base@_WV?$stream_output_adapter@_W@__crt_stdio_output@@@__crt_stdio_output@@IBE_NXZ 100400a9 f i libucrt:output.obj
 0001:0003f0c5       ?should_skip_type_state_output@?$positional_parameter_base@_WV?$string_output_adapter@_W@__crt_stdio_output@@@__crt_stdio_output@@IBE_NXZ 100400c5 f i libucrt:output.obj
 0001:0003f0e1       ?should_skip_type_state_output@?$standard_base@DV?$stream_output_adapter@D@__crt_stdio_output@@@__crt_stdio_output@@IBE_NXZ 100400e1 f i libucrt:output.obj
 0001:0003f0e4       ?should_skip_type_state_output@?$standard_base@DV?$string_output_adapter@D@__crt_stdio_output@@@__crt_stdio_output@@IBE_NXZ 100400e4 f i libucrt:output.obj
 0001:0003f0e7       ?should_skip_type_state_output@?$standard_base@_WV?$stream_output_adapter@_W@__crt_stdio_output@@@__crt_stdio_output@@IBE_NXZ 100400e7 f i libucrt:output.obj
 0001:0003f0ea       ?should_skip_type_state_output@?$standard_base@_WV?$string_output_adapter@_W@__crt_stdio_output@@@__crt_stdio_output@@IBE_NXZ 100400ea f i libucrt:output.obj
 0001:0003f0ed       ?state_case_dot@?$output_processor@DV?$stream_output_adapter@D@__crt_stdio_output@@V?$format_validation_base@DV?$stream_output_adapter@D@__crt_stdio_output@@@2@@__crt_stdio_output@@AAE_NXZ 100400ed f i libucrt:output.obj
 0001:0003f0f4       ?state_case_dot@?$output_processor@DV?$stream_output_adapter@D@__crt_stdio_output@@V?$positional_parameter_base@DV?$stream_output_adapter@D@__crt_stdio_output@@@2@@__crt_stdio_output@@AAE_NXZ 100400f4 f i libucrt:output.obj
 0001:0003f0fb       ?state_case_dot@?$output_processor@DV?$stream_output_adapter@D@__crt_stdio_output@@V?$standard_base@DV?$stream_output_adapter@D@__crt_stdio_output@@@2@@__crt_stdio_output@@AAE_NXZ 100400fb f i libucrt:output.obj
 0001:0003f102       ?state_case_dot@?$output_processor@DV?$string_output_adapter@D@__crt_stdio_output@@V?$format_validation_base@DV?$string_output_adapter@D@__crt_stdio_output@@@2@@__crt_stdio_output@@AAE_NXZ 10040102 f i libucrt:output.obj
 0001:0003f109       ?state_case_dot@?$output_processor@DV?$string_output_adapter@D@__crt_stdio_output@@V?$positional_parameter_base@DV?$string_output_adapter@D@__crt_stdio_output@@@2@@__crt_stdio_output@@AAE_NXZ 10040109 f i libucrt:output.obj
 0001:0003f110       ?state_case_dot@?$output_processor@DV?$string_output_adapter@D@__crt_stdio_output@@V?$standard_base@DV?$string_output_adapter@D@__crt_stdio_output@@@2@@__crt_stdio_output@@AAE_NXZ 10040110 f i libucrt:output.obj
 0001:0003f117       ?state_case_dot@?$output_processor@_WV?$stream_output_adapter@_W@__crt_stdio_output@@V?$format_validation_base@_WV?$stream_output_adapter@_W@__crt_stdio_output@@@2@@__crt_stdio_output@@AAE_NXZ 10040117 f i libucrt:output.obj
 0001:0003f11e       ?state_case_dot@?$output_processor@_WV?$stream_output_adapter@_W@__crt_stdio_output@@V?$positional_parameter_base@_WV?$stream_output_adapter@_W@__crt_stdio_output@@@2@@__crt_stdio_output@@AAE_NXZ 1004011e f i libucrt:output.obj
 0001:0003f125       ?state_case_dot@?$output_processor@_WV?$stream_output_adapter@_W@__crt_stdio_output@@V?$standard_base@_WV?$stream_output_adapter@_W@__crt_stdio_output@@@2@@__crt_stdio_output@@AAE_NXZ 10040125 f i libucrt:output.obj
 0001:0003f12c       ?state_case_dot@?$output_processor@_WV?$string_output_adapter@_W@__crt_stdio_output@@V?$format_validation_base@_WV?$string_output_adapter@_W@__crt_stdio_output@@@2@@__crt_stdio_output@@AAE_NXZ 1004012c f i libucrt:output.obj
 0001:0003f133       ?state_case_dot@?$output_processor@_WV?$string_output_adapter@_W@__crt_stdio_output@@V?$positional_parameter_base@_WV?$string_output_adapter@_W@__crt_stdio_output@@@2@@__crt_stdio_output@@AAE_NXZ 10040133 f i libucrt:output.obj
 0001:0003f13a       ?state_case_dot@?$output_processor@_WV?$string_output_adapter@_W@__crt_stdio_output@@V?$standard_base@_WV?$string_output_adapter@_W@__crt_stdio_output@@@2@@__crt_stdio_output@@AAE_NXZ 1004013a f i libucrt:output.obj
 0001:0003f141       ?state_case_flag@?$output_processor@DV?$stream_output_adapter@D@__crt_stdio_output@@V?$format_validation_base@DV?$stream_output_adapter@D@__crt_stdio_output@@@2@@__crt_stdio_output@@AAE_NXZ 10040141 f i libucrt:output.obj
 0001:0003f18d       ?state_case_flag@?$output_processor@DV?$stream_output_adapter@D@__crt_stdio_output@@V?$positional_parameter_base@DV?$stream_output_adapter@D@__crt_stdio_output@@@2@@__crt_stdio_output@@AAE_NXZ 1004018d f i libucrt:output.obj
 0001:0003f1d9       ?state_case_flag@?$output_processor@DV?$stream_output_adapter@D@__crt_stdio_output@@V?$standard_base@DV?$stream_output_adapter@D@__crt_stdio_output@@@2@@__crt_stdio_output@@AAE_NXZ 100401d9 f i libucrt:output.obj
 0001:0003f225       ?state_case_flag@?$output_processor@DV?$string_output_adapter@D@__crt_stdio_output@@V?$format_validation_base@DV?$string_output_adapter@D@__crt_stdio_output@@@2@@__crt_stdio_output@@AAE_NXZ 10040225 f i libucrt:output.obj
 0001:0003f271       ?state_case_flag@?$output_processor@DV?$string_output_adapter@D@__crt_stdio_output@@V?$positional_parameter_base@DV?$string_output_adapter@D@__crt_stdio_output@@@2@@__crt_stdio_output@@AAE_NXZ 10040271 f i libucrt:output.obj
 0001:0003f2bd       ?state_case_flag@?$output_processor@DV?$string_output_adapter@D@__crt_stdio_output@@V?$standard_base@DV?$string_output_adapter@D@__crt_stdio_output@@@2@@__crt_stdio_output@@AAE_NXZ 100402bd f i libucrt:output.obj
 0001:0003f309       ?state_case_flag@?$output_processor@_WV?$stream_output_adapter@_W@__crt_stdio_output@@V?$format_validation_base@_WV?$stream_output_adapter@_W@__crt_stdio_output@@@2@@__crt_stdio_output@@AAE_NXZ 10040309 f i libucrt:output.obj
 0001:0003f355       ?state_case_flag@?$output_processor@_WV?$stream_output_adapter@_W@__crt_stdio_output@@V?$positional_parameter_base@_WV?$stream_output_adapter@_W@__crt_stdio_output@@@2@@__crt_stdio_output@@AAE_NXZ 10040355 f i libucrt:output.obj
 0001:0003f3a1       ?state_case_flag@?$output_processor@_WV?$stream_output_adapter@_W@__crt_stdio_output@@V?$standard_base@_WV?$stream_output_adapter@_W@__crt_stdio_output@@@2@@__crt_stdio_output@@AAE_NXZ 100403a1 f i libucrt:output.obj
 0001:0003f3ed       ?state_case_flag@?$output_processor@_WV?$string_output_adapter@_W@__crt_stdio_output@@V?$format_validation_base@_WV?$string_output_adapter@_W@__crt_stdio_output@@@2@@__crt_stdio_output@@AAE_NXZ 100403ed f i libucrt:output.obj
 0001:0003f439       ?state_case_flag@?$output_processor@_WV?$string_output_adapter@_W@__crt_stdio_output@@V?$positional_parameter_base@_WV?$string_output_adapter@_W@__crt_stdio_output@@@2@@__crt_stdio_output@@AAE_NXZ 10040439 f i libucrt:output.obj
 0001:0003f485       ?state_case_flag@?$output_processor@_WV?$string_output_adapter@_W@__crt_stdio_output@@V?$standard_base@_WV?$string_output_adapter@_W@__crt_stdio_output@@@2@@__crt_stdio_output@@AAE_NXZ 10040485 f i libucrt:output.obj
 0001:0003f4d1       ?state_case_normal@?$output_processor@DV?$stream_output_adapter@D@__crt_stdio_output@@V?$format_validation_base@DV?$stream_output_adapter@D@__crt_stdio_output@@@2@@__crt_stdio_output@@AAE_NXZ 100404d1 f i libucrt:output.obj
 0001:0003f4f7       ?state_case_normal@?$output_processor@DV?$stream_output_adapter@D@__crt_stdio_output@@V?$positional_parameter_base@DV?$stream_output_adapter@D@__crt_stdio_output@@@2@@__crt_stdio_output@@AAE_NXZ 100404f7 f i libucrt:output.obj
 0001:0003f534       ?state_case_normal@?$output_processor@DV?$stream_output_adapter@D@__crt_stdio_output@@V?$standard_base@DV?$stream_output_adapter@D@__crt_stdio_output@@@2@@__crt_stdio_output@@AAE_NXZ 10040534 f i libucrt:output.obj
 0001:0003f55a       ?state_case_normal@?$output_processor@DV?$string_output_adapter@D@__crt_stdio_output@@V?$format_validation_base@DV?$string_output_adapter@D@__crt_stdio_output@@@2@@__crt_stdio_output@@AAE_NXZ 1004055a f i libucrt:output.obj
 0001:0003f580       ?state_case_normal@?$output_processor@DV?$string_output_adapter@D@__crt_stdio_output@@V?$positional_parameter_base@DV?$string_output_adapter@D@__crt_stdio_output@@@2@@__crt_stdio_output@@AAE_NXZ 10040580 f i libucrt:output.obj
 0001:0003f5bd       ?state_case_normal@?$output_processor@DV?$string_output_adapter@D@__crt_stdio_output@@V?$standard_base@DV?$string_output_adapter@D@__crt_stdio_output@@@2@@__crt_stdio_output@@AAE_NXZ 100405bd f i libucrt:output.obj
 0001:0003f5e3       ?state_case_normal@?$output_processor@_WV?$stream_output_adapter@_W@__crt_stdio_output@@V?$format_validation_base@_WV?$stream_output_adapter@_W@__crt_stdio_output@@@2@@__crt_stdio_output@@AAE_NXZ 100405e3 f i libucrt:output.obj
 0001:0003f609       ?state_case_normal@?$output_processor@_WV?$stream_output_adapter@_W@__crt_stdio_output@@V?$positional_parameter_base@_WV?$stream_output_adapter@_W@__crt_stdio_output@@@2@@__crt_stdio_output@@AAE_NXZ 10040609 f i libucrt:output.obj
 0001:0003f646       ?state_case_normal@?$output_processor@_WV?$stream_output_adapter@_W@__crt_stdio_output@@V?$standard_base@_WV?$stream_output_adapter@_W@__crt_stdio_output@@@2@@__crt_stdio_output@@AAE_NXZ 10040646 f i libucrt:output.obj
 0001:0003f66c       ?state_case_normal@?$output_processor@_WV?$string_output_adapter@_W@__crt_stdio_output@@V?$format_validation_base@_WV?$string_output_adapter@_W@__crt_stdio_output@@@2@@__crt_stdio_output@@AAE_NXZ 1004066c f i libucrt:output.obj
 0001:0003f692       ?state_case_normal@?$output_processor@_WV?$string_output_adapter@_W@__crt_stdio_output@@V?$positional_parameter_base@_WV?$string_output_adapter@_W@__crt_stdio_output@@@2@@__crt_stdio_output@@AAE_NXZ 10040692 f i libucrt:output.obj
 0001:0003f6cf       ?state_case_normal@?$output_processor@_WV?$string_output_adapter@_W@__crt_stdio_output@@V?$standard_base@_WV?$string_output_adapter@_W@__crt_stdio_output@@@2@@__crt_stdio_output@@AAE_NXZ 100406cf f i libucrt:output.obj
 0001:0003f6f5       ?state_case_normal_common@?$output_processor@DV?$stream_output_adapter@D@__crt_stdio_output@@V?$format_validation_base@DV?$stream_output_adapter@D@__crt_stdio_output@@@2@@__crt_stdio_output@@AAE_NXZ 100406f5 f i libucrt:output.obj
 0001:0003f729       ?state_case_normal_common@?$output_processor@DV?$stream_output_adapter@D@__crt_stdio_output@@V?$positional_parameter_base@DV?$stream_output_adapter@D@__crt_stdio_output@@@2@@__crt_stdio_output@@AAE_NXZ 10040729 f i libucrt:output.obj
 0001:0003f75d       ?state_case_normal_common@?$output_processor@DV?$stream_output_adapter@D@__crt_stdio_output@@V?$standard_base@DV?$stream_output_adapter@D@__crt_stdio_output@@@2@@__crt_stdio_output@@AAE_NXZ 1004075d f i libucrt:output.obj
 0001:0003f791       ?state_case_normal_common@?$output_processor@DV?$string_output_adapter@D@__crt_stdio_output@@V?$format_validation_base@DV?$string_output_adapter@D@__crt_stdio_output@@@2@@__crt_stdio_output@@AAE_NXZ 10040791 f i libucrt:output.obj
 0001:0003f7c5       ?state_case_normal_common@?$output_processor@DV?$string_output_adapter@D@__crt_stdio_output@@V?$positional_parameter_base@DV?$string_output_adapter@D@__crt_stdio_output@@@2@@__crt_stdio_output@@AAE_NXZ 100407c5 f i libucrt:output.obj
 0001:0003f7f9       ?state_case_normal_common@?$output_processor@DV?$string_output_adapter@D@__crt_stdio_output@@V?$standard_base@DV?$string_output_adapter@D@__crt_stdio_output@@@2@@__crt_stdio_output@@AAE_NXZ 100407f9 f i libucrt:output.obj
 0001:0003f82d       ?state_case_normal_common@?$output_processor@_WV?$stream_output_adapter@_W@__crt_stdio_output@@V?$format_validation_base@_WV?$stream_output_adapter@_W@__crt_stdio_output@@@2@@__crt_stdio_output@@AAE_NXZ 1004082d f i libucrt:output.obj
 0001:0003f84e       ?state_case_normal_common@?$output_processor@_WV?$stream_output_adapter@_W@__crt_stdio_output@@V?$positional_parameter_base@_WV?$stream_output_adapter@_W@__crt_stdio_output@@@2@@__crt_stdio_output@@AAE_NXZ 1004084e f i libucrt:output.obj
 0001:0003f86f       ?state_case_normal_common@?$output_processor@_WV?$stream_output_adapter@_W@__crt_stdio_output@@V?$standard_base@_WV?$stream_output_adapter@_W@__crt_stdio_output@@@2@@__crt_stdio_output@@AAE_NXZ 1004086f f i libucrt:output.obj
 0001:0003f890       ?state_case_normal_common@?$output_processor@_WV?$string_output_adapter@_W@__crt_stdio_output@@V?$format_validation_base@_WV?$string_output_adapter@_W@__crt_stdio_output@@@2@@__crt_stdio_output@@AAE_NXZ 10040890 f i libucrt:output.obj
 0001:0003f8b1       ?state_case_normal_common@?$output_processor@_WV?$string_output_adapter@_W@__crt_stdio_output@@V?$positional_parameter_base@_WV?$string_output_adapter@_W@__crt_stdio_output@@@2@@__crt_stdio_output@@AAE_NXZ 100408b1 f i libucrt:output.obj
 0001:0003f8d2       ?state_case_normal_common@?$output_processor@_WV?$string_output_adapter@_W@__crt_stdio_output@@V?$standard_base@_WV?$string_output_adapter@_W@__crt_stdio_output@@@2@@__crt_stdio_output@@AAE_NXZ 100408d2 f i libucrt:output.obj
 0001:0003f8f3       ?state_case_normal_tchar@?$output_processor@DV?$stream_output_adapter@D@__crt_stdio_output@@V?$format_validation_base@DV?$stream_output_adapter@D@__crt_stdio_output@@@2@@__crt_stdio_output@@AAE_ND@Z 100408f3 f i libucrt:output.obj
 0001:0003f96c       ?state_case_normal_tchar@?$output_processor@DV?$stream_output_adapter@D@__crt_stdio_output@@V?$positional_parameter_base@DV?$stream_output_adapter@D@__crt_stdio_output@@@2@@__crt_stdio_output@@AAE_ND@Z 1004096c f i libucrt:output.obj
 0001:0003f9e5       ?state_case_normal_tchar@?$output_processor@DV?$stream_output_adapter@D@__crt_stdio_output@@V?$standard_base@DV?$stream_output_adapter@D@__crt_stdio_output@@@2@@__crt_stdio_output@@AAE_ND@Z 100409e5 f i libucrt:output.obj
 0001:0003fa5e       ?state_case_normal_tchar@?$output_processor@DV?$string_output_adapter@D@__crt_stdio_output@@V?$format_validation_base@DV?$string_output_adapter@D@__crt_stdio_output@@@2@@__crt_stdio_output@@AAE_ND@Z 10040a5e f i libucrt:output.obj
 0001:0003fad7       ?state_case_normal_tchar@?$output_processor@DV?$string_output_adapter@D@__crt_stdio_output@@V?$positional_parameter_base@DV?$string_output_adapter@D@__crt_stdio_output@@@2@@__crt_stdio_output@@AAE_ND@Z 10040ad7 f i libucrt:output.obj
 0001:0003fb50       ?state_case_normal_tchar@?$output_processor@DV?$string_output_adapter@D@__crt_stdio_output@@V?$standard_base@DV?$string_output_adapter@D@__crt_stdio_output@@@2@@__crt_stdio_output@@AAE_ND@Z 10040b50 f i libucrt:output.obj
 0001:0003fbc9       ?state_case_normal_tchar@?$output_processor@_WV?$stream_output_adapter@_W@__crt_stdio_output@@V?$format_validation_base@_WV?$stream_output_adapter@_W@__crt_stdio_output@@@2@@__crt_stdio_output@@AAE_N_W@Z 10040bc9 f i libucrt:output.obj
 0001:0003fbd4       ?state_case_normal_tchar@?$output_processor@_WV?$stream_output_adapter@_W@__crt_stdio_output@@V?$positional_parameter_base@_WV?$stream_output_adapter@_W@__crt_stdio_output@@@2@@__crt_stdio_output@@AAE_N_W@Z 10040bd4 f i libucrt:output.obj
 0001:0003fbdf       ?state_case_normal_tchar@?$output_processor@_WV?$stream_output_adapter@_W@__crt_stdio_output@@V?$standard_base@_WV?$stream_output_adapter@_W@__crt_stdio_output@@@2@@__crt_stdio_output@@AAE_N_W@Z 10040bdf f i libucrt:output.obj
 0001:0003fbea       ?state_case_normal_tchar@?$output_processor@_WV?$string_output_adapter@_W@__crt_stdio_output@@V?$format_validation_base@_WV?$string_output_adapter@_W@__crt_stdio_output@@@2@@__crt_stdio_output@@AAE_N_W@Z 10040bea f i libucrt:output.obj
 0001:0003fbf5       ?state_case_normal_tchar@?$output_processor@_WV?$string_output_adapter@_W@__crt_stdio_output@@V?$positional_parameter_base@_WV?$string_output_adapter@_W@__crt_stdio_output@@@2@@__crt_stdio_output@@AAE_N_W@Z 10040bf5 f i libucrt:output.obj
 0001:0003fc00       ?state_case_normal_tchar@?$output_processor@_WV?$string_output_adapter@_W@__crt_stdio_output@@V?$standard_base@_WV?$string_output_adapter@_W@__crt_stdio_output@@@2@@__crt_stdio_output@@AAE_N_W@Z 10040c00 f i libucrt:output.obj
 0001:0003fc0b       ?state_case_percent@?$output_processor@DV?$stream_output_adapter@D@__crt_stdio_output@@V?$format_validation_base@DV?$stream_output_adapter@D@__crt_stdio_output@@@2@@__crt_stdio_output@@AAE_NXZ 10040c0b f i libucrt:output.obj
 0001:0003fc29       ?state_case_percent@?$output_processor@DV?$stream_output_adapter@D@__crt_stdio_output@@V?$positional_parameter_base@DV?$stream_output_adapter@D@__crt_stdio_output@@@2@@__crt_stdio_output@@AAE_NXZ 10040c29 f i libucrt:output.obj
 0001:0003fc47       ?state_case_percent@?$output_processor@DV?$stream_output_adapter@D@__crt_stdio_output@@V?$standard_base@DV?$stream_output_adapter@D@__crt_stdio_output@@@2@@__crt_stdio_output@@AAE_NXZ 10040c47 f i libucrt:output.obj
 0001:0003fc65       ?state_case_percent@?$output_processor@DV?$string_output_adapter@D@__crt_stdio_output@@V?$format_validation_base@DV?$string_output_adapter@D@__crt_stdio_output@@@2@@__crt_stdio_output@@AAE_NXZ 10040c65 f i libucrt:output.obj
 0001:0003fc83       ?state_case_percent@?$output_processor@DV?$string_output_adapter@D@__crt_stdio_output@@V?$positional_parameter_base@DV?$string_output_adapter@D@__crt_stdio_output@@@2@@__crt_stdio_output@@AAE_NXZ 10040c83 f i libucrt:output.obj
 0001:0003fca1       ?state_case_percent@?$output_processor@DV?$string_output_adapter@D@__crt_stdio_output@@V?$standard_base@DV?$string_output_adapter@D@__crt_stdio_output@@@2@@__crt_stdio_output@@AAE_NXZ 10040ca1 f i libucrt:output.obj
 0001:0003fcbf       ?state_case_percent@?$output_processor@_WV?$stream_output_adapter@_W@__crt_stdio_output@@V?$format_validation_base@_WV?$stream_output_adapter@_W@__crt_stdio_output@@@2@@__crt_stdio_output@@AAE_NXZ 10040cbf f i libucrt:output.obj
 0001:0003fcdd       ?state_case_percent@?$output_processor@_WV?$stream_output_adapter@_W@__crt_stdio_output@@V?$positional_parameter_base@_WV?$stream_output_adapter@_W@__crt_stdio_output@@@2@@__crt_stdio_output@@AAE_NXZ 10040cdd f i libucrt:output.obj
 0001:0003fcfb       ?state_case_percent@?$output_processor@_WV?$stream_output_adapter@_W@__crt_stdio_output@@V?$standard_base@_WV?$stream_output_adapter@_W@__crt_stdio_output@@@2@@__crt_stdio_output@@AAE_NXZ 10040cfb f i libucrt:output.obj
 0001:0003fd19       ?state_case_percent@?$output_processor@_WV?$string_output_adapter@_W@__crt_stdio_output@@V?$format_validation_base@_WV?$string_output_adapter@_W@__crt_stdio_output@@@2@@__crt_stdio_output@@AAE_NXZ 10040d19 f i libucrt:output.obj
 0001:0003fd37       ?state_case_percent@?$output_processor@_WV?$string_output_adapter@_W@__crt_stdio_output@@V?$positional_parameter_base@_WV?$string_output_adapter@_W@__crt_stdio_output@@@2@@__crt_stdio_output@@AAE_NXZ 10040d37 f i libucrt:output.obj
 0001:0003fd55       ?state_case_percent@?$output_processor@_WV?$string_output_adapter@_W@__crt_stdio_output@@V?$standard_base@_WV?$string_output_adapter@_W@__crt_stdio_output@@@2@@__crt_stdio_output@@AAE_NXZ 10040d55 f i libucrt:output.obj
 0001:0003fd73       ?state_case_precision@?$output_processor@DV?$stream_output_adapter@D@__crt_stdio_output@@V?$format_validation_base@DV?$stream_output_adapter@D@__crt_stdio_output@@@2@@__crt_stdio_output@@AAE_NXZ 10040d73 f i libucrt:output.obj
 0001:0003fda5       ?state_case_precision@?$output_processor@DV?$stream_output_adapter@D@__crt_stdio_output@@V?$positional_parameter_base@DV?$stream_output_adapter@D@__crt_stdio_output@@@2@@__crt_stdio_output@@AAE_NXZ 10040da5 f i libucrt:output.obj
 0001:0003fded       ?state_case_precision@?$output_processor@DV?$stream_output_adapter@D@__crt_stdio_output@@V?$standard_base@DV?$stream_output_adapter@D@__crt_stdio_output@@@2@@__crt_stdio_output@@AAE_NXZ 10040ded f i libucrt:output.obj
 0001:0003fe1f       ?state_case_precision@?$output_processor@DV?$string_output_adapter@D@__crt_stdio_output@@V?$format_validation_base@DV?$string_output_adapter@D@__crt_stdio_output@@@2@@__crt_stdio_output@@AAE_NXZ 10040e1f f i libucrt:output.obj
 0001:0003fe51       ?state_case_precision@?$output_processor@DV?$string_output_adapter@D@__crt_stdio_output@@V?$positional_parameter_base@DV?$string_output_adapter@D@__crt_stdio_output@@@2@@__crt_stdio_output@@AAE_NXZ 10040e51 f i libucrt:output.obj
 0001:0003fe99       ?state_case_precision@?$output_processor@DV?$string_output_adapter@D@__crt_stdio_output@@V?$standard_base@DV?$string_output_adapter@D@__crt_stdio_output@@@2@@__crt_stdio_output@@AAE_NXZ 10040e99 f i libucrt:output.obj
 0001:0003fecb       ?state_case_precision@?$output_processor@_WV?$stream_output_adapter@_W@__crt_stdio_output@@V?$format_validation_base@_WV?$stream_output_adapter@_W@__crt_stdio_output@@@2@@__crt_stdio_output@@AAE_NXZ 10040ecb f i libucrt:output.obj
 0001:0003fefe       ?state_case_precision@?$output_processor@_WV?$stream_output_adapter@_W@__crt_stdio_output@@V?$positional_parameter_base@_WV?$stream_output_adapter@_W@__crt_stdio_output@@@2@@__crt_stdio_output@@AAE_NXZ 10040efe f i libucrt:output.obj
 0001:0003ff47       ?state_case_precision@?$output_processor@_WV?$stream_output_adapter@_W@__crt_stdio_output@@V?$standard_base@_WV?$stream_output_adapter@_W@__crt_stdio_output@@@2@@__crt_stdio_output@@AAE_NXZ 10040f47 f i libucrt:output.obj
 0001:0003ff7a       ?state_case_precision@?$output_processor@_WV?$string_output_adapter@_W@__crt_stdio_output@@V?$format_validation_base@_WV?$string_output_adapter@_W@__crt_stdio_output@@@2@@__crt_stdio_output@@AAE_NXZ 10040f7a f i libucrt:output.obj
 0001:0003ffad       ?state_case_precision@?$output_processor@_WV?$string_output_adapter@_W@__crt_stdio_output@@V?$positional_parameter_base@_WV?$string_output_adapter@_W@__crt_stdio_output@@@2@@__crt_stdio_output@@AAE_NXZ 10040fad f i libucrt:output.obj
 0001:0003fff6       ?state_case_precision@?$output_processor@_WV?$string_output_adapter@_W@__crt_stdio_output@@V?$standard_base@_WV?$string_output_adapter@_W@__crt_stdio_output@@@2@@__crt_stdio_output@@AAE_NXZ 10040ff6 f i libucrt:output.obj
 0001:00040029       ?state_case_size@?$output_processor@DV?$stream_output_adapter@D@__crt_stdio_output@@V?$format_validation_base@DV?$stream_output_adapter@D@__crt_stdio_output@@@2@@__crt_stdio_output@@AAE_NXZ 10041029 f i libucrt:output.obj
 0001:000401ec       ?state_case_size@?$output_processor@DV?$stream_output_adapter@D@__crt_stdio_output@@V?$positional_parameter_base@DV?$stream_output_adapter@D@__crt_stdio_output@@@2@@__crt_stdio_output@@AAE_NXZ 100411ec f i libucrt:output.obj
 0001:000403af       ?state_case_size@?$output_processor@DV?$stream_output_adapter@D@__crt_stdio_output@@V?$standard_base@DV?$stream_output_adapter@D@__crt_stdio_output@@@2@@__crt_stdio_output@@AAE_NXZ 100413af f i libucrt:output.obj
 0001:00040572       ?state_case_size@?$output_processor@DV?$string_output_adapter@D@__crt_stdio_output@@V?$format_validation_base@DV?$string_output_adapter@D@__crt_stdio_output@@@2@@__crt_stdio_output@@AAE_NXZ 10041572 f i libucrt:output.obj
 0001:00040735       ?state_case_size@?$output_processor@DV?$string_output_adapter@D@__crt_stdio_output@@V?$positional_parameter_base@DV?$string_output_adapter@D@__crt_stdio_output@@@2@@__crt_stdio_output@@AAE_NXZ 10041735 f i libucrt:output.obj
 0001:000408f8       ?state_case_size@?$output_processor@DV?$string_output_adapter@D@__crt_stdio_output@@V?$standard_base@DV?$string_output_adapter@D@__crt_stdio_output@@@2@@__crt_stdio_output@@AAE_NXZ 100418f8 f i libucrt:output.obj
 0001:00040abb       ?state_case_size@?$output_processor@_WV?$stream_output_adapter@_W@__crt_stdio_output@@V?$format_validation_base@_WV?$stream_output_adapter@_W@__crt_stdio_output@@@2@@__crt_stdio_output@@AAE_NXZ 10041abb f i libucrt:output.obj
 0001:00040c96       ?state_case_size@?$output_processor@_WV?$stream_output_adapter@_W@__crt_stdio_output@@V?$positional_parameter_base@_WV?$stream_output_adapter@_W@__crt_stdio_output@@@2@@__crt_stdio_output@@AAE_NXZ 10041c96 f i libucrt:output.obj
 0001:00040e71       ?state_case_size@?$output_processor@_WV?$stream_output_adapter@_W@__crt_stdio_output@@V?$standard_base@_WV?$stream_output_adapter@_W@__crt_stdio_output@@@2@@__crt_stdio_output@@AAE_NXZ 10041e71 f i libucrt:output.obj
 0001:0004104c       ?state_case_size@?$output_processor@_WV?$string_output_adapter@_W@__crt_stdio_output@@V?$format_validation_base@_WV?$string_output_adapter@_W@__crt_stdio_output@@@2@@__crt_stdio_output@@AAE_NXZ 1004204c f i libucrt:output.obj
 0001:00041227       ?state_case_size@?$output_processor@_WV?$string_output_adapter@_W@__crt_stdio_output@@V?$positional_parameter_base@_WV?$string_output_adapter@_W@__crt_stdio_output@@@2@@__crt_stdio_output@@AAE_NXZ 10042227 f i libucrt:output.obj
 0001:00041402       ?state_case_size@?$output_processor@_WV?$string_output_adapter@_W@__crt_stdio_output@@V?$standard_base@_WV?$string_output_adapter@_W@__crt_stdio_output@@@2@@__crt_stdio_output@@AAE_NXZ 10042402 f i libucrt:output.obj
 0001:000415dd       ?state_case_type@?$output_processor@DV?$stream_output_adapter@D@__crt_stdio_output@@V?$format_validation_base@DV?$stream_output_adapter@D@__crt_stdio_output@@@2@@__crt_stdio_output@@AAE_NXZ 100425dd f i libucrt:output.obj
 0001:00041897       ?state_case_type@?$output_processor@DV?$stream_output_adapter@D@__crt_stdio_output@@V?$positional_parameter_base@DV?$stream_output_adapter@D@__crt_stdio_output@@@2@@__crt_stdio_output@@AAE_NXZ 10042897 f i libucrt:output.obj
 0001:00041b5f       ?state_case_type@?$output_processor@DV?$stream_output_adapter@D@__crt_stdio_output@@V?$standard_base@DV?$stream_output_adapter@D@__crt_stdio_output@@@2@@__crt_stdio_output@@AAE_NXZ 10042b5f f i libucrt:output.obj
 0001:00041e19       ?state_case_type@?$output_processor@DV?$string_output_adapter@D@__crt_stdio_output@@V?$format_validation_base@DV?$string_output_adapter@D@__crt_stdio_output@@@2@@__crt_stdio_output@@AAE_NXZ 10042e19 f i libucrt:output.obj
 0001:000420d3       ?state_case_type@?$output_processor@DV?$string_output_adapter@D@__crt_stdio_output@@V?$positional_parameter_base@DV?$string_output_adapter@D@__crt_stdio_output@@@2@@__crt_stdio_output@@AAE_NXZ 100430d3 f i libucrt:output.obj
 0001:0004239b       ?state_case_type@?$output_processor@DV?$string_output_adapter@D@__crt_stdio_output@@V?$standard_base@DV?$string_output_adapter@D@__crt_stdio_output@@@2@@__crt_stdio_output@@AAE_NXZ 1004339b f i libucrt:output.obj
 0001:00042655       ?state_case_type@?$output_processor@_WV?$stream_output_adapter@_W@__crt_stdio_output@@V?$format_validation_base@_WV?$stream_output_adapter@_W@__crt_stdio_output@@@2@@__crt_stdio_output@@AAE_NXZ 10043655 f i libucrt:output.obj
 0001:00042949       ?state_case_type@?$output_processor@_WV?$stream_output_adapter@_W@__crt_stdio_output@@V?$positional_parameter_base@_WV?$stream_output_adapter@_W@__crt_stdio_output@@@2@@__crt_stdio_output@@AAE_NXZ 10043949 f i libucrt:output.obj
 0001:00042c50       ?state_case_type@?$output_processor@_WV?$stream_output_adapter@_W@__crt_stdio_output@@V?$standard_base@_WV?$stream_output_adapter@_W@__crt_stdio_output@@@2@@__crt_stdio_output@@AAE_NXZ 10043c50 f i libucrt:output.obj
 0001:00042f44       ?state_case_type@?$output_processor@_WV?$string_output_adapter@_W@__crt_stdio_output@@V?$format_validation_base@_WV?$string_output_adapter@_W@__crt_stdio_output@@@2@@__crt_stdio_output@@AAE_NXZ 10043f44 f i libucrt:output.obj
 0001:00043238       ?state_case_type@?$output_processor@_WV?$string_output_adapter@_W@__crt_stdio_output@@V?$positional_parameter_base@_WV?$string_output_adapter@_W@__crt_stdio_output@@@2@@__crt_stdio_output@@AAE_NXZ 10044238 f i libucrt:output.obj
 0001:0004353f       ?state_case_type@?$output_processor@_WV?$string_output_adapter@_W@__crt_stdio_output@@V?$standard_base@_WV?$string_output_adapter@_W@__crt_stdio_output@@@2@@__crt_stdio_output@@AAE_NXZ 1004453f f i libucrt:output.obj
 0001:00043833       ?state_case_width@?$output_processor@DV?$stream_output_adapter@D@__crt_stdio_output@@V?$format_validation_base@DV?$stream_output_adapter@D@__crt_stdio_output@@@2@@__crt_stdio_output@@AAE_NXZ 10044833 f i libucrt:output.obj
 0001:00043868       ?state_case_width@?$output_processor@DV?$stream_output_adapter@D@__crt_stdio_output@@V?$positional_parameter_base@DV?$stream_output_adapter@D@__crt_stdio_output@@@2@@__crt_stdio_output@@AAE_NXZ 10044868 f i libucrt:output.obj
 0001:000438b8       ?state_case_width@?$output_processor@DV?$stream_output_adapter@D@__crt_stdio_output@@V?$standard_base@DV?$stream_output_adapter@D@__crt_stdio_output@@@2@@__crt_stdio_output@@AAE_NXZ 100448b8 f i libucrt:output.obj
 0001:000438ed       ?state_case_width@?$output_processor@DV?$string_output_adapter@D@__crt_stdio_output@@V?$format_validation_base@DV?$string_output_adapter@D@__crt_stdio_output@@@2@@__crt_stdio_output@@AAE_NXZ 100448ed f i libucrt:output.obj
 0001:00043922       ?state_case_width@?$output_processor@DV?$string_output_adapter@D@__crt_stdio_output@@V?$positional_parameter_base@DV?$string_output_adapter@D@__crt_stdio_output@@@2@@__crt_stdio_output@@AAE_NXZ 10044922 f i libucrt:output.obj
 0001:00043972       ?state_case_width@?$output_processor@DV?$string_output_adapter@D@__crt_stdio_output@@V?$standard_base@DV?$string_output_adapter@D@__crt_stdio_output@@@2@@__crt_stdio_output@@AAE_NXZ 10044972 f i libucrt:output.obj
 0001:000439a7       ?state_case_width@?$output_processor@_WV?$stream_output_adapter@_W@__crt_stdio_output@@V?$format_validation_base@_WV?$stream_output_adapter@_W@__crt_stdio_output@@@2@@__crt_stdio_output@@AAE_NXZ 100449a7 f i libucrt:output.obj
 0001:000439de       ?state_case_width@?$output_processor@_WV?$stream_output_adapter@_W@__crt_stdio_output@@V?$positional_parameter_base@_WV?$stream_output_adapter@_W@__crt_stdio_output@@@2@@__crt_stdio_output@@AAE_NXZ 100449de f i libucrt:output.obj
 0001:00043a2f       ?state_case_width@?$output_processor@_WV?$stream_output_adapter@_W@__crt_stdio_output@@V?$standard_base@_WV?$stream_output_adapter@_W@__crt_stdio_output@@@2@@__crt_stdio_output@@AAE_NXZ 10044a2f f i libucrt:output.obj
 0001:00043a66       ?state_case_width@?$output_processor@_WV?$string_output_adapter@_W@__crt_stdio_output@@V?$format_validation_base@_WV?$string_output_adapter@_W@__crt_stdio_output@@@2@@__crt_stdio_output@@AAE_NXZ 10044a66 f i libucrt:output.obj
 0001:00043a9d       ?state_case_width@?$output_processor@_WV?$string_output_adapter@_W@__crt_stdio_output@@V?$positional_parameter_base@_WV?$string_output_adapter@_W@__crt_stdio_output@@@2@@__crt_stdio_output@@AAE_NXZ 10044a9d f i libucrt:output.obj
 0001:00043aee       ?state_case_width@?$output_processor@_WV?$string_output_adapter@_W@__crt_stdio_output@@V?$standard_base@_WV?$string_output_adapter@_W@__crt_stdio_output@@@2@@__crt_stdio_output@@AAE_NXZ 10044aee f i libucrt:output.obj
 0001:00043b25       ?state_count@?$format_validation_base@DV?$stream_output_adapter@D@__crt_stdio_output@@@__crt_stdio_output@@KAIXZ 10044b25 f i libucrt:output.obj
 0001:00043b29       ?state_count@?$format_validation_base@DV?$string_output_adapter@D@__crt_stdio_output@@@__crt_stdio_output@@KAIXZ 10044b29 f i libucrt:output.obj
 0001:00043b2d       ?state_count@?$format_validation_base@_WV?$stream_output_adapter@_W@__crt_stdio_output@@@__crt_stdio_output@@KAIXZ 10044b2d f i libucrt:output.obj
 0001:00043b31       ?state_count@?$format_validation_base@_WV?$string_output_adapter@_W@__crt_stdio_output@@@__crt_stdio_output@@KAIXZ 10044b31 f i libucrt:output.obj
 0001:00043b35       ?state_count@?$standard_base@DV?$stream_output_adapter@D@__crt_stdio_output@@@__crt_stdio_output@@KAIXZ 10044b35 f i libucrt:output.obj
 0001:00043b39       ?state_count@?$standard_base@DV?$string_output_adapter@D@__crt_stdio_output@@@__crt_stdio_output@@KAIXZ 10044b39 f i libucrt:output.obj
 0001:00043b3d       ?state_count@?$standard_base@_WV?$stream_output_adapter@_W@__crt_stdio_output@@@__crt_stdio_output@@KAIXZ 10044b3d f i libucrt:output.obj
 0001:00043b41       ?state_count@?$standard_base@_WV?$string_output_adapter@_W@__crt_stdio_output@@@__crt_stdio_output@@KAIXZ 10044b41 f i libucrt:output.obj
 0001:00043b45       ?state_transition_table@?$format_validation_base@DV?$stream_output_adapter@D@__crt_stdio_output@@@__crt_stdio_output@@KAPBEXZ 10044b45 f i libucrt:output.obj
 0001:00043b4b       ?state_transition_table@?$format_validation_base@DV?$string_output_adapter@D@__crt_stdio_output@@@__crt_stdio_output@@KAPBEXZ 10044b4b f i libucrt:output.obj
 0001:00043b51       ?state_transition_table@?$format_validation_base@_WV?$stream_output_adapter@_W@__crt_stdio_output@@@__crt_stdio_output@@KAPBEXZ 10044b51 f i libucrt:output.obj
 0001:00043b57       ?state_transition_table@?$format_validation_base@_WV?$string_output_adapter@_W@__crt_stdio_output@@@__crt_stdio_output@@KAPBEXZ 10044b57 f i libucrt:output.obj
 0001:00043b5d       ?state_transition_table@?$standard_base@DV?$stream_output_adapter@D@__crt_stdio_output@@@__crt_stdio_output@@KAPBEXZ 10044b5d f i libucrt:output.obj
 0001:00043b63       ?state_transition_table@?$standard_base@DV?$string_output_adapter@D@__crt_stdio_output@@@__crt_stdio_output@@KAPBEXZ 10044b63 f i libucrt:output.obj
 0001:00043b69       ?state_transition_table@?$standard_base@_WV?$stream_output_adapter@_W@__crt_stdio_output@@@__crt_stdio_output@@KAPBEXZ 10044b69 f i libucrt:output.obj
 0001:00043b6f       ?state_transition_table@?$standard_base@_WV?$string_output_adapter@_W@__crt_stdio_output@@@__crt_stdio_output@@KAPBEXZ 10044b6f f i libucrt:output.obj
 0001:00043b75       ?to_integer_size@__crt_stdio_output@@YAIW4length_modifier@1@@Z 10044b75 f i libucrt:output.obj
 0001:00043be8       ?type_case_X@?$output_processor@DV?$stream_output_adapter@D@__crt_stdio_output@@V?$format_validation_base@DV?$stream_output_adapter@D@__crt_stdio_output@@@2@@__crt_stdio_output@@AAE_NXZ 10044be8 f i libucrt:output.obj
 0001:00043bf4       ?type_case_X@?$output_processor@DV?$stream_output_adapter@D@__crt_stdio_output@@V?$positional_parameter_base@DV?$stream_output_adapter@D@__crt_stdio_output@@@2@@__crt_stdio_output@@AAE_NXZ 10044bf4 f i libucrt:output.obj
 0001:00043c00       ?type_case_X@?$output_processor@DV?$stream_output_adapter@D@__crt_stdio_output@@V?$standard_base@DV?$stream_output_adapter@D@__crt_stdio_output@@@2@@__crt_stdio_output@@AAE_NXZ 10044c00 f i libucrt:output.obj
 0001:00043c0c       ?type_case_X@?$output_processor@DV?$string_output_adapter@D@__crt_stdio_output@@V?$format_validation_base@DV?$string_output_adapter@D@__crt_stdio_output@@@2@@__crt_stdio_output@@AAE_NXZ 10044c0c f i libucrt:output.obj
 0001:00043c18       ?type_case_X@?$output_processor@DV?$string_output_adapter@D@__crt_stdio_output@@V?$positional_parameter_base@DV?$string_output_adapter@D@__crt_stdio_output@@@2@@__crt_stdio_output@@AAE_NXZ 10044c18 f i libucrt:output.obj
 0001:00043c24       ?type_case_X@?$output_processor@DV?$string_output_adapter@D@__crt_stdio_output@@V?$standard_base@DV?$string_output_adapter@D@__crt_stdio_output@@@2@@__crt_stdio_output@@AAE_NXZ 10044c24 f i libucrt:output.obj
 0001:00043c30       ?type_case_X@?$output_processor@_WV?$stream_output_adapter@_W@__crt_stdio_output@@V?$format_validation_base@_WV?$stream_output_adapter@_W@__crt_stdio_output@@@2@@__crt_stdio_output@@AAE_NXZ 10044c30 f i libucrt:output.obj
 0001:00043c3c       ?type_case_X@?$output_processor@_WV?$stream_output_adapter@_W@__crt_stdio_output@@V?$positional_parameter_base@_WV?$stream_output_adapter@_W@__crt_stdio_output@@@2@@__crt_stdio_output@@AAE_NXZ 10044c3c f i libucrt:output.obj
 0001:00043c48       ?type_case_X@?$output_processor@_WV?$stream_output_adapter@_W@__crt_stdio_output@@V?$standard_base@_WV?$stream_output_adapter@_W@__crt_stdio_output@@@2@@__crt_stdio_output@@AAE_NXZ 10044c48 f i libucrt:output.obj
 0001:00043c54       ?type_case_X@?$output_processor@_WV?$string_output_adapter@_W@__crt_stdio_output@@V?$format_validation_base@_WV?$string_output_adapter@_W@__crt_stdio_output@@@2@@__crt_stdio_output@@AAE_NXZ 10044c54 f i libucrt:output.obj
 0001:00043c60       ?type_case_X@?$output_processor@_WV?$string_output_adapter@_W@__crt_stdio_output@@V?$positional_parameter_base@_WV?$string_output_adapter@_W@__crt_stdio_output@@@2@@__crt_stdio_output@@AAE_NXZ 10044c60 f i libucrt:output.obj
 0001:00043c6c       ?type_case_X@?$output_processor@_WV?$string_output_adapter@_W@__crt_stdio_output@@V?$standard_base@_WV?$string_output_adapter@_W@__crt_stdio_output@@@2@@__crt_stdio_output@@AAE_NXZ 10044c6c f i libucrt:output.obj
 0001:00043c78       ?type_case_Z@?$output_processor@DV?$stream_output_adapter@D@__crt_stdio_output@@V?$format_validation_base@DV?$stream_output_adapter@D@__crt_stdio_output@@@2@@__crt_stdio_output@@AAE_NXZ 10044c78 f i libucrt:output.obj
 0001:00043cf3       ?type_case_Z@?$output_processor@DV?$stream_output_adapter@D@__crt_stdio_output@@V?$positional_parameter_base@DV?$stream_output_adapter@D@__crt_stdio_output@@@2@@__crt_stdio_output@@AAE_NXZ 10044cf3 f i libucrt:output.obj
 0001:00043d91       ?type_case_Z@?$output_processor@DV?$stream_output_adapter@D@__crt_stdio_output@@V?$standard_base@DV?$stream_output_adapter@D@__crt_stdio_output@@@2@@__crt_stdio_output@@AAE_NXZ 10044d91 f i libucrt:output.obj
 0001:00043e0c       ?type_case_Z@?$output_processor@DV?$string_output_adapter@D@__crt_stdio_output@@V?$format_validation_base@DV?$string_output_adapter@D@__crt_stdio_output@@@2@@__crt_stdio_output@@AAE_NXZ 10044e0c f i libucrt:output.obj
 0001:00043e87       ?type_case_Z@?$output_processor@DV?$string_output_adapter@D@__crt_stdio_output@@V?$positional_parameter_base@DV?$string_output_adapter@D@__crt_stdio_output@@@2@@__crt_stdio_output@@AAE_NXZ 10044e87 f i libucrt:output.obj
 0001:00043f25       ?type_case_Z@?$output_processor@DV?$string_output_adapter@D@__crt_stdio_output@@V?$standard_base@DV?$string_output_adapter@D@__crt_stdio_output@@@2@@__crt_stdio_output@@AAE_NXZ 10044f25 f i libucrt:output.obj
 0001:00043fa0       ?type_case_Z@?$output_processor@_WV?$stream_output_adapter@_W@__crt_stdio_output@@V?$format_validation_base@_WV?$stream_output_adapter@_W@__crt_stdio_output@@@2@@__crt_stdio_output@@AAE_NXZ 10044fa0 f i libucrt:output.obj
 0001:0004401b       ?type_case_Z@?$output_processor@_WV?$stream_output_adapter@_W@__crt_stdio_output@@V?$positional_parameter_base@_WV?$stream_output_adapter@_W@__crt_stdio_output@@@2@@__crt_stdio_output@@AAE_NXZ 1004501b f i libucrt:output.obj
 0001:000440b9       ?type_case_Z@?$output_processor@_WV?$stream_output_adapter@_W@__crt_stdio_output@@V?$standard_base@_WV?$stream_output_adapter@_W@__crt_stdio_output@@@2@@__crt_stdio_output@@AAE_NXZ 100450b9 f i libucrt:output.obj
 0001:00044134       ?type_case_Z@?$output_processor@_WV?$string_output_adapter@_W@__crt_stdio_output@@V?$format_validation_base@_WV?$string_output_adapter@_W@__crt_stdio_output@@@2@@__crt_stdio_output@@AAE_NXZ 10045134 f i libucrt:output.obj
 0001:000441af       ?type_case_Z@?$output_processor@_WV?$string_output_adapter@_W@__crt_stdio_output@@V?$positional_parameter_base@_WV?$string_output_adapter@_W@__crt_stdio_output@@@2@@__crt_stdio_output@@AAE_NXZ 100451af f i libucrt:output.obj
 0001:0004424d       ?type_case_Z@?$output_processor@_WV?$string_output_adapter@_W@__crt_stdio_output@@V?$standard_base@_WV?$string_output_adapter@_W@__crt_stdio_output@@@2@@__crt_stdio_output@@AAE_NXZ 1004524d f i libucrt:output.obj
 0001:000442c8       ?type_case_a@?$output_processor@DV?$stream_output_adapter@D@__crt_stdio_output@@V?$format_validation_base@DV?$stream_output_adapter@D@__crt_stdio_output@@@2@@__crt_stdio_output@@AAE_NXZ 100452c8 f i libucrt:output.obj
 0001:00044478       ?type_case_a@?$output_processor@DV?$stream_output_adapter@D@__crt_stdio_output@@V?$positional_parameter_base@DV?$stream_output_adapter@D@__crt_stdio_output@@@2@@__crt_stdio_output@@AAE_NXZ 10045478 f i libucrt:output.obj
 0001:0004464f       ?type_case_a@?$output_processor@DV?$stream_output_adapter@D@__crt_stdio_output@@V?$standard_base@DV?$stream_output_adapter@D@__crt_stdio_output@@@2@@__crt_stdio_output@@AAE_NXZ 1004564f f i libucrt:output.obj
 0001:000447ff       ?type_case_a@?$output_processor@DV?$string_output_adapter@D@__crt_stdio_output@@V?$format_validation_base@DV?$string_output_adapter@D@__crt_stdio_output@@@2@@__crt_stdio_output@@AAE_NXZ 100457ff f i libucrt:output.obj
 0001:000449af       ?type_case_a@?$output_processor@DV?$string_output_adapter@D@__crt_stdio_output@@V?$positional_parameter_base@DV?$string_output_adapter@D@__crt_stdio_output@@@2@@__crt_stdio_output@@AAE_NXZ 100459af f i libucrt:output.obj
 0001:00044b86       ?type_case_a@?$output_processor@DV?$string_output_adapter@D@__crt_stdio_output@@V?$standard_base@DV?$string_output_adapter@D@__crt_stdio_output@@@2@@__crt_stdio_output@@AAE_NXZ 10045b86 f i libucrt:output.obj
 0001:00044d36       ?type_case_a@?$output_processor@_WV?$stream_output_adapter@_W@__crt_stdio_output@@V?$format_validation_base@_WV?$stream_output_adapter@_W@__crt_stdio_output@@@2@@__crt_stdio_output@@AAE_NXZ 10045d36 f i libucrt:output.obj
 0001:00044f04       ?type_case_a@?$output_processor@_WV?$stream_output_adapter@_W@__crt_stdio_output@@V?$positional_parameter_base@_WV?$stream_output_adapter@_W@__crt_stdio_output@@@2@@__crt_stdio_output@@AAE_NXZ 10045f04 f i libucrt:output.obj
 0001:000450f9       ?type_case_a@?$output_processor@_WV?$stream_output_adapter@_W@__crt_stdio_output@@V?$standard_base@_WV?$stream_output_adapter@_W@__crt_stdio_output@@@2@@__crt_stdio_output@@AAE_NXZ 100460f9 f i libucrt:output.obj
 0001:000452c7       ?type_case_a@?$output_processor@_WV?$string_output_adapter@_W@__crt_stdio_output@@V?$format_validation_base@_WV?$string_output_adapter@_W@__crt_stdio_output@@@2@@__crt_stdio_output@@AAE_NXZ 100462c7 f i libucrt:output.obj
 0001:00045495       ?type_case_a@?$output_processor@_WV?$string_output_adapter@_W@__crt_stdio_output@@V?$positional_parameter_base@_WV?$string_output_adapter@_W@__crt_stdio_output@@@2@@__crt_stdio_output@@AAE_NXZ 10046495 f i libucrt:output.obj
 0001:0004568a       ?type_case_a@?$output_processor@_WV?$string_output_adapter@_W@__crt_stdio_output@@V?$standard_base@_WV?$string_output_adapter@_W@__crt_stdio_output@@@2@@__crt_stdio_output@@AAE_NXZ 1004668a f i libucrt:output.obj
 0001:00045858       ?type_case_c@?$output_processor@DV?$stream_output_adapter@D@__crt_stdio_output@@V?$format_validation_base@DV?$stream_output_adapter@D@__crt_stdio_output@@@2@@__crt_stdio_output@@AAE_NXZ 10046858 f i libucrt:output.obj
 0001:00045862       ?type_case_c@?$output_processor@DV?$stream_output_adapter@D@__crt_stdio_output@@V?$positional_parameter_base@DV?$stream_output_adapter@D@__crt_stdio_output@@@2@@__crt_stdio_output@@AAE_NXZ 10046862 f i libucrt:output.obj
 0001:0004586c       ?type_case_c@?$output_processor@DV?$stream_output_adapter@D@__crt_stdio_output@@V?$standard_base@DV?$stream_output_adapter@D@__crt_stdio_output@@@2@@__crt_stdio_output@@AAE_NXZ 1004686c f i libucrt:output.obj
 0001:00045876       ?type_case_c@?$output_processor@DV?$string_output_adapter@D@__crt_stdio_output@@V?$format_validation_base@DV?$string_output_adapter@D@__crt_stdio_output@@@2@@__crt_stdio_output@@AAE_NXZ 10046876 f i libucrt:output.obj
 0001:00045880       ?type_case_c@?$output_processor@DV?$string_output_adapter@D@__crt_stdio_output@@V?$positional_parameter_base@DV?$string_output_adapter@D@__crt_stdio_output@@@2@@__crt_stdio_output@@AAE_NXZ 10046880 f i libucrt:output.obj
 0001:0004588a       ?type_case_c@?$output_processor@DV?$string_output_adapter@D@__crt_stdio_output@@V?$standard_base@DV?$string_output_adapter@D@__crt_stdio_output@@@2@@__crt_stdio_output@@AAE_NXZ 1004688a f i libucrt:output.obj
 0001:00045894       ?type_case_c@?$output_processor@_WV?$stream_output_adapter@_W@__crt_stdio_output@@V?$format_validation_base@_WV?$stream_output_adapter@_W@__crt_stdio_output@@@2@@__crt_stdio_output@@AAE_NXZ 10046894 f i libucrt:output.obj
 0001:0004589e       ?type_case_c@?$output_processor@_WV?$stream_output_adapter@_W@__crt_stdio_output@@V?$positional_parameter_base@_WV?$stream_output_adapter@_W@__crt_stdio_output@@@2@@__crt_stdio_output@@AAE_NXZ 1004689e f i libucrt:output.obj
 0001:000458a8       ?type_case_c@?$output_processor@_WV?$stream_output_adapter@_W@__crt_stdio_output@@V?$standard_base@_WV?$stream_output_adapter@_W@__crt_stdio_output@@@2@@__crt_stdio_output@@AAE_NXZ 100468a8 f i libucrt:output.obj
 0001:000458b2       ?type_case_c@?$output_processor@_WV?$string_output_adapter@_W@__crt_stdio_output@@V?$format_validation_base@_WV?$string_output_adapter@_W@__crt_stdio_output@@@2@@__crt_stdio_output@@AAE_NXZ 100468b2 f i libucrt:output.obj
 0001:000458bc       ?type_case_c@?$output_processor@_WV?$string_output_adapter@_W@__crt_stdio_output@@V?$positional_parameter_base@_WV?$string_output_adapter@_W@__crt_stdio_output@@@2@@__crt_stdio_output@@AAE_NXZ 100468bc f i libucrt:output.obj
 0001:000458c6       ?type_case_c@?$output_processor@_WV?$string_output_adapter@_W@__crt_stdio_output@@V?$standard_base@_WV?$string_output_adapter@_W@__crt_stdio_output@@@2@@__crt_stdio_output@@AAE_NXZ 100468c6 f i libucrt:output.obj
 0001:000458d0       ?type_case_c_tchar@?$output_processor@DV?$stream_output_adapter@D@__crt_stdio_output@@V?$format_validation_base@DV?$stream_output_adapter@D@__crt_stdio_output@@@2@@__crt_stdio_output@@AAE_ND@Z 100468d0 f i libucrt:output.obj
 0001:00045984       ?type_case_c_tchar@?$output_processor@DV?$stream_output_adapter@D@__crt_stdio_output@@V?$positional_parameter_base@DV?$stream_output_adapter@D@__crt_stdio_output@@@2@@__crt_stdio_output@@AAE_ND@Z 10046984 f i libucrt:output.obj
 0001:00045a74       ?type_case_c_tchar@?$output_processor@DV?$stream_output_adapter@D@__crt_stdio_output@@V?$standard_base@DV?$stream_output_adapter@D@__crt_stdio_output@@@2@@__crt_stdio_output@@AAE_ND@Z 10046a74 f i libucrt:output.obj
 0001:00045b28       ?type_case_c_tchar@?$output_processor@DV?$string_output_adapter@D@__crt_stdio_output@@V?$format_validation_base@DV?$string_output_adapter@D@__crt_stdio_output@@@2@@__crt_stdio_output@@AAE_ND@Z 10046b28 f i libucrt:output.obj
 0001:00045bdc       ?type_case_c_tchar@?$output_processor@DV?$string_output_adapter@D@__crt_stdio_output@@V?$positional_parameter_base@DV?$string_output_adapter@D@__crt_stdio_output@@@2@@__crt_stdio_output@@AAE_ND@Z 10046bdc f i libucrt:output.obj
 0001:00045ccc       ?type_case_c_tchar@?$output_processor@DV?$string_output_adapter@D@__crt_stdio_output@@V?$standard_base@DV?$string_output_adapter@D@__crt_stdio_output@@@2@@__crt_stdio_output@@AAE_ND@Z 10046ccc f i libucrt:output.obj
 0001:00045d80       ?type_case_c_tchar@?$output_processor@_WV?$stream_output_adapter@_W@__crt_stdio_output@@V?$format_validation_base@_WV?$stream_output_adapter@_W@__crt_stdio_output@@@2@@__crt_stdio_output@@AAE_N_W@Z 10046d80 f i libucrt:output.obj
 0001:00045e3e       ?type_case_c_tchar@?$output_processor@_WV?$stream_output_adapter@_W@__crt_stdio_output@@V?$positional_parameter_base@_WV?$stream_output_adapter@_W@__crt_stdio_output@@@2@@__crt_stdio_output@@AAE_N_W@Z 10046e3e f i libucrt:output.obj
 0001:00045f18       ?type_case_c_tchar@?$output_processor@_WV?$stream_output_adapter@_W@__crt_stdio_output@@V?$standard_base@_WV?$stream_output_adapter@_W@__crt_stdio_output@@@2@@__crt_stdio_output@@AAE_N_W@Z 10046f18 f i libucrt:output.obj
 0001:00045fd6       ?type_case_c_tchar@?$output_processor@_WV?$string_output_adapter@_W@__crt_stdio_output@@V?$format_validation_base@_WV?$string_output_adapter@_W@__crt_stdio_output@@@2@@__crt_stdio_output@@AAE_N_W@Z 10046fd6 f i libucrt:output.obj
 0001:00046094       ?type_case_c_tchar@?$output_processor@_WV?$string_output_adapter@_W@__crt_stdio_output@@V?$positional_parameter_base@_WV?$string_output_adapter@_W@__crt_stdio_output@@@2@@__crt_stdio_output@@AAE_N_W@Z 10047094 f i libucrt:output.obj
 0001:0004616e       ?type_case_c_tchar@?$output_processor@_WV?$string_output_adapter@_W@__crt_stdio_output@@V?$standard_base@_WV?$string_output_adapter@_W@__crt_stdio_output@@@2@@__crt_stdio_output@@AAE_N_W@Z 1004716e f i libucrt:output.obj
 0001:0004622c       ?type_case_d@?$output_processor@DV?$stream_output_adapter@D@__crt_stdio_output@@V?$format_validation_base@DV?$stream_output_adapter@D@__crt_stdio_output@@@2@@__crt_stdio_output@@AAE_NXZ 1004722c f i libucrt:output.obj
 0001:0004623d       ?type_case_d@?$output_processor@DV?$stream_output_adapter@D@__crt_stdio_output@@V?$positional_parameter_base@DV?$stream_output_adapter@D@__crt_stdio_output@@@2@@__crt_stdio_output@@AAE_NXZ 1004723d f i libucrt:output.obj
 0001:0004624e       ?type_case_d@?$output_processor@DV?$stream_output_adapter@D@__crt_stdio_output@@V?$standard_base@DV?$stream_output_adapter@D@__crt_stdio_output@@@2@@__crt_stdio_output@@AAE_NXZ 1004724e f i libucrt:output.obj
 0001:0004625f       ?type_case_d@?$output_processor@DV?$string_output_adapter@D@__crt_stdio_output@@V?$format_validation_base@DV?$string_output_adapter@D@__crt_stdio_output@@@2@@__crt_stdio_output@@AAE_NXZ 1004725f f i libucrt:output.obj
 0001:00046270       ?type_case_d@?$output_processor@DV?$string_output_adapter@D@__crt_stdio_output@@V?$positional_parameter_base@DV?$string_output_adapter@D@__crt_stdio_output@@@2@@__crt_stdio_output@@AAE_NXZ 10047270 f i libucrt:output.obj
 0001:00046281       ?type_case_d@?$output_processor@DV?$string_output_adapter@D@__crt_stdio_output@@V?$standard_base@DV?$string_output_adapter@D@__crt_stdio_output@@@2@@__crt_stdio_output@@AAE_NXZ 10047281 f i libucrt:output.obj
 0001:00046292       ?type_case_d@?$output_processor@_WV?$stream_output_adapter@_W@__crt_stdio_output@@V?$format_validation_base@_WV?$stream_output_adapter@_W@__crt_stdio_output@@@2@@__crt_stdio_output@@AAE_NXZ 10047292 f i libucrt:output.obj
 0001:000462a3       ?type_case_d@?$output_processor@_WV?$stream_output_adapter@_W@__crt_stdio_output@@V?$positional_parameter_base@_WV?$stream_output_adapter@_W@__crt_stdio_output@@@2@@__crt_stdio_output@@AAE_NXZ 100472a3 f i libucrt:output.obj
 0001:000462b4       ?type_case_d@?$output_processor@_WV?$stream_output_adapter@_W@__crt_stdio_output@@V?$standard_base@_WV?$stream_output_adapter@_W@__crt_stdio_output@@@2@@__crt_stdio_output@@AAE_NXZ 100472b4 f i libucrt:output.obj
 0001:000462c5       ?type_case_d@?$output_processor@_WV?$string_output_adapter@_W@__crt_stdio_output@@V?$format_validation_base@_WV?$string_output_adapter@_W@__crt_stdio_output@@@2@@__crt_stdio_output@@AAE_NXZ 100472c5 f i libucrt:output.obj
 0001:000462d6       ?type_case_d@?$output_processor@_WV?$string_output_adapter@_W@__crt_stdio_output@@V?$positional_parameter_base@_WV?$string_output_adapter@_W@__crt_stdio_output@@@2@@__crt_stdio_output@@AAE_NXZ 100472d6 f i libucrt:output.obj
 0001:000462e7       ?type_case_d@?$output_processor@_WV?$string_output_adapter@_W@__crt_stdio_output@@V?$standard_base@_WV?$string_output_adapter@_W@__crt_stdio_output@@@2@@__crt_stdio_output@@AAE_NXZ 100472e7 f i libucrt:output.obj
 0001:000462f8       ?type_case_integer@?$output_processor@DV?$stream_output_adapter@D@__crt_stdio_output@@V?$format_validation_base@DV?$stream_output_adapter@D@__crt_stdio_output@@@2@@__crt_stdio_output@@AAE_NI_N@Z 100472f8 f i libucrt:output.obj
 0001:00046494       ?type_case_integer@?$output_processor@DV?$stream_output_adapter@D@__crt_stdio_output@@V?$positional_parameter_base@DV?$stream_output_adapter@D@__crt_stdio_output@@@2@@__crt_stdio_output@@AAE_NI_N@Z 10047494 f i libucrt:output.obj
 0001:00046671       ?type_case_integer@?$output_processor@DV?$stream_output_adapter@D@__crt_stdio_output@@V?$standard_base@DV?$stream_output_adapter@D@__crt_stdio_output@@@2@@__crt_stdio_output@@AAE_NI_N@Z 10047671 f i libucrt:output.obj
 0001:0004680d       ?type_case_integer@?$output_processor@DV?$string_output_adapter@D@__crt_stdio_output@@V?$format_validation_base@DV?$string_output_adapter@D@__crt_stdio_output@@@2@@__crt_stdio_output@@AAE_NI_N@Z 1004780d f i libucrt:output.obj
 0001:000469a9       ?type_case_integer@?$output_processor@DV?$string_output_adapter@D@__crt_stdio_output@@V?$positional_parameter_base@DV?$string_output_adapter@D@__crt_stdio_output@@@2@@__crt_stdio_output@@AAE_NI_N@Z 100479a9 f i libucrt:output.obj
 0001:00046b86       ?type_case_integer@?$output_processor@DV?$string_output_adapter@D@__crt_stdio_output@@V?$standard_base@DV?$string_output_adapter@D@__crt_stdio_output@@@2@@__crt_stdio_output@@AAE_NI_N@Z 10047b86 f i libucrt:output.obj
 0001:00046d22       ?type_case_integer@?$output_processor@_WV?$stream_output_adapter@_W@__crt_stdio_output@@V?$format_validation_base@_WV?$stream_output_adapter@_W@__crt_stdio_output@@@2@@__crt_stdio_output@@AAE_NI_N@Z 10047d22 f i libucrt:output.obj
 0001:00046ebe       ?type_case_integer@?$output_processor@_WV?$stream_output_adapter@_W@__crt_stdio_output@@V?$positional_parameter_base@_WV?$stream_output_adapter@_W@__crt_stdio_output@@@2@@__crt_stdio_output@@AAE_NI_N@Z 10047ebe f i libucrt:output.obj
 0001:0004709b       ?type_case_integer@?$output_processor@_WV?$stream_output_adapter@_W@__crt_stdio_output@@V?$standard_base@_WV?$stream_output_adapter@_W@__crt_stdio_output@@@2@@__crt_stdio_output@@AAE_NI_N@Z 1004809b f i libucrt:output.obj
 0001:00047237       ?type_case_integer@?$output_processor@_WV?$string_output_adapter@_W@__crt_stdio_output@@V?$format_validation_base@_WV?$string_output_adapter@_W@__crt_stdio_output@@@2@@__crt_stdio_output@@AAE_NI_N@Z 10048237 f i libucrt:output.obj
 0001:000473d3       ?type_case_integer@?$output_processor@_WV?$string_output_adapter@_W@__crt_stdio_output@@V?$positional_parameter_base@_WV?$string_output_adapter@_W@__crt_stdio_output@@@2@@__crt_stdio_output@@AAE_NI_N@Z 100483d3 f i libucrt:output.obj
 0001:000475b0       ?type_case_integer@?$output_processor@_WV?$string_output_adapter@_W@__crt_stdio_output@@V?$standard_base@_WV?$string_output_adapter@_W@__crt_stdio_output@@@2@@__crt_stdio_output@@AAE_NI_N@Z 100485b0 f i libucrt:output.obj
 0001:0004774c       ?type_case_n@?$output_processor@DV?$stream_output_adapter@D@__crt_stdio_output@@V?$format_validation_base@DV?$stream_output_adapter@D@__crt_stdio_output@@@2@@__crt_stdio_output@@AAE_NXZ 1004874c f i libucrt:output.obj
 0001:000477dd       ?type_case_n@?$output_processor@DV?$stream_output_adapter@D@__crt_stdio_output@@V?$positional_parameter_base@DV?$stream_output_adapter@D@__crt_stdio_output@@@2@@__crt_stdio_output@@AAE_NXZ 100487dd f i libucrt:output.obj
 0001:0004789c       ?type_case_n@?$output_processor@DV?$stream_output_adapter@D@__crt_stdio_output@@V?$standard_base@DV?$stream_output_adapter@D@__crt_stdio_output@@@2@@__crt_stdio_output@@AAE_NXZ 1004889c f i libucrt:output.obj
 0001:0004792d       ?type_case_n@?$output_processor@DV?$string_output_adapter@D@__crt_stdio_output@@V?$format_validation_base@DV?$string_output_adapter@D@__crt_stdio_output@@@2@@__crt_stdio_output@@AAE_NXZ 1004892d f i libucrt:output.obj
 0001:000479be       ?type_case_n@?$output_processor@DV?$string_output_adapter@D@__crt_stdio_output@@V?$positional_parameter_base@DV?$string_output_adapter@D@__crt_stdio_output@@@2@@__crt_stdio_output@@AAE_NXZ 100489be f i libucrt:output.obj
 0001:00047a7d       ?type_case_n@?$output_processor@DV?$string_output_adapter@D@__crt_stdio_output@@V?$standard_base@DV?$string_output_adapter@D@__crt_stdio_output@@@2@@__crt_stdio_output@@AAE_NXZ 10048a7d f i libucrt:output.obj
 0001:00047b0e       ?type_case_n@?$output_processor@_WV?$stream_output_adapter@_W@__crt_stdio_output@@V?$format_validation_base@_WV?$stream_output_adapter@_W@__crt_stdio_output@@@2@@__crt_stdio_output@@AAE_NXZ 10048b0e f i libucrt:output.obj
 0001:00047b9f       ?type_case_n@?$output_processor@_WV?$stream_output_adapter@_W@__crt_stdio_output@@V?$positional_parameter_base@_WV?$stream_output_adapter@_W@__crt_stdio_output@@@2@@__crt_stdio_output@@AAE_NXZ 10048b9f f i libucrt:output.obj
 0001:00047c5e       ?type_case_n@?$output_processor@_WV?$stream_output_adapter@_W@__crt_stdio_output@@V?$standard_base@_WV?$stream_output_adapter@_W@__crt_stdio_output@@@2@@__crt_stdio_output@@AAE_NXZ 10048c5e f i libucrt:output.obj
 0001:00047cef       ?type_case_n@?$output_processor@_WV?$string_output_adapter@_W@__crt_stdio_output@@V?$format_validation_base@_WV?$string_output_adapter@_W@__crt_stdio_output@@@2@@__crt_stdio_output@@AAE_NXZ 10048cef f i libucrt:output.obj
 0001:00047d80       ?type_case_n@?$output_processor@_WV?$string_output_adapter@_W@__crt_stdio_output@@V?$positional_parameter_base@_WV?$string_output_adapter@_W@__crt_stdio_output@@@2@@__crt_stdio_output@@AAE_NXZ 10048d80 f i libucrt:output.obj
 0001:00047e3f       ?type_case_n@?$output_processor@_WV?$string_output_adapter@_W@__crt_stdio_output@@V?$standard_base@_WV?$string_output_adapter@_W@__crt_stdio_output@@@2@@__crt_stdio_output@@AAE_NXZ 10048e3f f i libucrt:output.obj
 0001:00047ed0       ?type_case_o@?$output_processor@DV?$stream_output_adapter@D@__crt_stdio_output@@V?$format_validation_base@DV?$stream_output_adapter@D@__crt_stdio_output@@@2@@__crt_stdio_output@@AAE_NXZ 10048ed0 f i libucrt:output.obj
 0001:00047ef6       ?type_case_o@?$output_processor@DV?$stream_output_adapter@D@__crt_stdio_output@@V?$positional_parameter_base@DV?$stream_output_adapter@D@__crt_stdio_output@@@2@@__crt_stdio_output@@AAE_NXZ 10048ef6 f i libucrt:output.obj
 0001:00047f1c       ?type_case_o@?$output_processor@DV?$stream_output_adapter@D@__crt_stdio_output@@V?$standard_base@DV?$stream_output_adapter@D@__crt_stdio_output@@@2@@__crt_stdio_output@@AAE_NXZ 10048f1c f i libucrt:output.obj
 0001:00047f42       ?type_case_o@?$output_processor@DV?$string_output_adapter@D@__crt_stdio_output@@V?$format_validation_base@DV?$string_output_adapter@D@__crt_stdio_output@@@2@@__crt_stdio_output@@AAE_NXZ 10048f42 f i libucrt:output.obj
 0001:00047f68       ?type_case_o@?$output_processor@DV?$string_output_adapter@D@__crt_stdio_output@@V?$positional_parameter_base@DV?$string_output_adapter@D@__crt_stdio_output@@@2@@__crt_stdio_output@@AAE_NXZ 10048f68 f i libucrt:output.obj
 0001:00047f8e       ?type_case_o@?$output_processor@DV?$string_output_adapter@D@__crt_stdio_output@@V?$standard_base@DV?$string_output_adapter@D@__crt_stdio_output@@@2@@__crt_stdio_output@@AAE_NXZ 10048f8e f i libucrt:output.obj
 0001:00047fb4       ?type_case_o@?$output_processor@_WV?$stream_output_adapter@_W@__crt_stdio_output@@V?$format_validation_base@_WV?$stream_output_adapter@_W@__crt_stdio_output@@@2@@__crt_stdio_output@@AAE_NXZ 10048fb4 f i libucrt:output.obj
 0001:00047fda       ?type_case_o@?$output_processor@_WV?$stream_output_adapter@_W@__crt_stdio_output@@V?$positional_parameter_base@_WV?$stream_output_adapter@_W@__crt_stdio_output@@@2@@__crt_stdio_output@@AAE_NXZ 10048fda f i libucrt:output.obj
 0001:00048000       ?type_case_o@?$output_processor@_WV?$stream_output_adapter@_W@__crt_stdio_output@@V?$standard_base@_WV?$stream_output_adapter@_W@__crt_stdio_output@@@2@@__crt_stdio_output@@AAE_NXZ 10049000 f i libucrt:output.obj
 0001:00048026       ?type_case_o@?$output_processor@_WV?$string_output_adapter@_W@__crt_stdio_output@@V?$format_validation_base@_WV?$string_output_adapter@_W@__crt_stdio_output@@@2@@__crt_stdio_output@@AAE_NXZ 10049026 f i libucrt:output.obj
 0001:0004804c       ?type_case_o@?$output_processor@_WV?$string_output_adapter@_W@__crt_stdio_output@@V?$positional_parameter_base@_WV?$string_output_adapter@_W@__crt_stdio_output@@@2@@__crt_stdio_output@@AAE_NXZ 1004904c f i libucrt:output.obj
 0001:00048072       ?type_case_o@?$output_processor@_WV?$string_output_adapter@_W@__crt_stdio_output@@V?$standard_base@_WV?$string_output_adapter@_W@__crt_stdio_output@@@2@@__crt_stdio_output@@AAE_NXZ 10049072 f i libucrt:output.obj
 0001:00048098       ?type_case_p@?$output_processor@DV?$stream_output_adapter@D@__crt_stdio_output@@V?$format_validation_base@DV?$stream_output_adapter@D@__crt_stdio_output@@@2@@__crt_stdio_output@@AAE_NXZ 10049098 f i libucrt:output.obj
 0001:000480b6       ?type_case_p@?$output_processor@DV?$stream_output_adapter@D@__crt_stdio_output@@V?$positional_parameter_base@DV?$stream_output_adapter@D@__crt_stdio_output@@@2@@__crt_stdio_output@@AAE_NXZ 100490b6 f i libucrt:output.obj
 0001:000480d4       ?type_case_p@?$output_processor@DV?$stream_output_adapter@D@__crt_stdio_output@@V?$standard_base@DV?$stream_output_adapter@D@__crt_stdio_output@@@2@@__crt_stdio_output@@AAE_NXZ 100490d4 f i libucrt:output.obj
 0001:000480f2       ?type_case_p@?$output_processor@DV?$string_output_adapter@D@__crt_stdio_output@@V?$format_validation_base@DV?$string_output_adapter@D@__crt_stdio_output@@@2@@__crt_stdio_output@@AAE_NXZ 100490f2 f i libucrt:output.obj
 0001:00048110       ?type_case_p@?$output_processor@DV?$string_output_adapter@D@__crt_stdio_output@@V?$positional_parameter_base@DV?$string_output_adapter@D@__crt_stdio_output@@@2@@__crt_stdio_output@@AAE_NXZ 10049110 f i libucrt:output.obj
 0001:0004812e       ?type_case_p@?$output_processor@DV?$string_output_adapter@D@__crt_stdio_output@@V?$standard_base@DV?$string_output_adapter@D@__crt_stdio_output@@@2@@__crt_stdio_output@@AAE_NXZ 1004912e f i libucrt:output.obj
 0001:0004814c       ?type_case_p@?$output_processor@_WV?$stream_output_adapter@_W@__crt_stdio_output@@V?$format_validation_base@_WV?$stream_output_adapter@_W@__crt_stdio_output@@@2@@__crt_stdio_output@@AAE_NXZ 1004914c f i libucrt:output.obj
 0001:0004816a       ?type_case_p@?$output_processor@_WV?$stream_output_adapter@_W@__crt_stdio_output@@V?$positional_parameter_base@_WV?$stream_output_adapter@_W@__crt_stdio_output@@@2@@__crt_stdio_output@@AAE_NXZ 1004916a f i libucrt:output.obj
 0001:00048188       ?type_case_p@?$output_processor@_WV?$stream_output_adapter@_W@__crt_stdio_output@@V?$standard_base@_WV?$stream_output_adapter@_W@__crt_stdio_output@@@2@@__crt_stdio_output@@AAE_NXZ 10049188 f i libucrt:output.obj
 0001:000481a6       ?type_case_p@?$output_processor@_WV?$string_output_adapter@_W@__crt_stdio_output@@V?$format_validation_base@_WV?$string_output_adapter@_W@__crt_stdio_output@@@2@@__crt_stdio_output@@AAE_NXZ 100491a6 f i libucrt:output.obj
 0001:000481c4       ?type_case_p@?$output_processor@_WV?$string_output_adapter@_W@__crt_stdio_output@@V?$positional_parameter_base@_WV?$string_output_adapter@_W@__crt_stdio_output@@@2@@__crt_stdio_output@@AAE_NXZ 100491c4 f i libucrt:output.obj
 0001:000481e2       ?type_case_p@?$output_processor@_WV?$string_output_adapter@_W@__crt_stdio_output@@V?$standard_base@_WV?$string_output_adapter@_W@__crt_stdio_output@@@2@@__crt_stdio_output@@AAE_NXZ 100491e2 f i libucrt:output.obj
 0001:00048200       ?type_case_s@?$output_processor@DV?$stream_output_adapter@D@__crt_stdio_output@@V?$format_validation_base@DV?$stream_output_adapter@D@__crt_stdio_output@@@2@@__crt_stdio_output@@AAE_NXZ 10049200 f i libucrt:output.obj
 0001:0004828f       ?type_case_s@?$output_processor@DV?$stream_output_adapter@D@__crt_stdio_output@@V?$positional_parameter_base@DV?$stream_output_adapter@D@__crt_stdio_output@@@2@@__crt_stdio_output@@AAE_NXZ 1004928f f i libucrt:output.obj
 0001:0004832a       ?type_case_s@?$output_processor@DV?$stream_output_adapter@D@__crt_stdio_output@@V?$standard_base@DV?$stream_output_adapter@D@__crt_stdio_output@@@2@@__crt_stdio_output@@AAE_NXZ 1004932a f i libucrt:output.obj
 0001:000483b9       ?type_case_s@?$output_processor@DV?$string_output_adapter@D@__crt_stdio_output@@V?$format_validation_base@DV?$string_output_adapter@D@__crt_stdio_output@@@2@@__crt_stdio_output@@AAE_NXZ 100493b9 f i libucrt:output.obj
 0001:00048448       ?type_case_s@?$output_processor@DV?$string_output_adapter@D@__crt_stdio_output@@V?$positional_parameter_base@DV?$string_output_adapter@D@__crt_stdio_output@@@2@@__crt_stdio_output@@AAE_NXZ 10049448 f i libucrt:output.obj
 0001:000484e3       ?type_case_s@?$output_processor@DV?$string_output_adapter@D@__crt_stdio_output@@V?$standard_base@DV?$string_output_adapter@D@__crt_stdio_output@@@2@@__crt_stdio_output@@AAE_NXZ 100494e3 f i libucrt:output.obj
 0001:00048572       ?type_case_s@?$output_processor@_WV?$stream_output_adapter@_W@__crt_stdio_output@@V?$format_validation_base@_WV?$stream_output_adapter@_W@__crt_stdio_output@@@2@@__crt_stdio_output@@AAE_NXZ 10049572 f i libucrt:output.obj
 0001:00048603       ?type_case_s@?$output_processor@_WV?$stream_output_adapter@_W@__crt_stdio_output@@V?$positional_parameter_base@_WV?$stream_output_adapter@_W@__crt_stdio_output@@@2@@__crt_stdio_output@@AAE_NXZ 10049603 f i libucrt:output.obj
 0001:000486a0       ?type_case_s@?$output_processor@_WV?$stream_output_adapter@_W@__crt_stdio_output@@V?$standard_base@_WV?$stream_output_adapter@_W@__crt_stdio_output@@@2@@__crt_stdio_output@@AAE_NXZ 100496a0 f i libucrt:output.obj
 0001:00048731       ?type_case_s@?$output_processor@_WV?$string_output_adapter@_W@__crt_stdio_output@@V?$format_validation_base@_WV?$string_output_adapter@_W@__crt_stdio_output@@@2@@__crt_stdio_output@@AAE_NXZ 10049731 f i libucrt:output.obj
 0001:000487c2       ?type_case_s@?$output_processor@_WV?$string_output_adapter@_W@__crt_stdio_output@@V?$positional_parameter_base@_WV?$string_output_adapter@_W@__crt_stdio_output@@@2@@__crt_stdio_output@@AAE_NXZ 100497c2 f i libucrt:output.obj
 0001:0004885f       ?type_case_s@?$output_processor@_WV?$string_output_adapter@_W@__crt_stdio_output@@V?$standard_base@_WV?$string_output_adapter@_W@__crt_stdio_output@@@2@@__crt_stdio_output@@AAE_NXZ 1004985f f i libucrt:output.obj
 0001:000488f0       ?type_case_s_compute_narrow_string_length@?$output_processor@DV?$stream_output_adapter@D@__crt_stdio_output@@V?$format_validation_base@DV?$stream_output_adapter@D@__crt_stdio_output@@@2@@__crt_stdio_output@@ABEHHD@Z 100498f0 f i libucrt:output.obj
 0001:0004890b       ?type_case_s_compute_narrow_string_length@?$output_processor@DV?$stream_output_adapter@D@__crt_stdio_output@@V?$positional_parameter_base@DV?$stream_output_adapter@D@__crt_stdio_output@@@2@@__crt_stdio_output@@ABEHHD@Z 1004990b f i libucrt:output.obj
 0001:00048926       ?type_case_s_compute_narrow_string_length@?$output_processor@DV?$stream_output_adapter@D@__crt_stdio_output@@V?$standard_base@DV?$stream_output_adapter@D@__crt_stdio_output@@@2@@__crt_stdio_output@@ABEHHD@Z 10049926 f i libucrt:output.obj
 0001:00048941       ?type_case_s_compute_narrow_string_length@?$output_processor@DV?$string_output_adapter@D@__crt_stdio_output@@V?$format_validation_base@DV?$string_output_adapter@D@__crt_stdio_output@@@2@@__crt_stdio_output@@ABEHHD@Z 10049941 f i libucrt:output.obj
 0001:0004895c       ?type_case_s_compute_narrow_string_length@?$output_processor@DV?$string_output_adapter@D@__crt_stdio_output@@V?$positional_parameter_base@DV?$string_output_adapter@D@__crt_stdio_output@@@2@@__crt_stdio_output@@ABEHHD@Z 1004995c f i libucrt:output.obj
 0001:00048977       ?type_case_s_compute_narrow_string_length@?$output_processor@DV?$string_output_adapter@D@__crt_stdio_output@@V?$standard_base@DV?$string_output_adapter@D@__crt_stdio_output@@@2@@__crt_stdio_output@@ABEHHD@Z 10049977 f i libucrt:output.obj
 0001:00048992       ?type_case_s_compute_narrow_string_length@?$output_processor@_WV?$stream_output_adapter@_W@__crt_stdio_output@@V?$format_validation_base@_WV?$stream_output_adapter@_W@__crt_stdio_output@@@2@@__crt_stdio_output@@ABEHH_W@Z 10049992 f i libucrt:output.obj
 0001:000489e2       ?type_case_s_compute_narrow_string_length@?$output_processor@_WV?$stream_output_adapter@_W@__crt_stdio_output@@V?$positional_parameter_base@_WV?$stream_output_adapter@_W@__crt_stdio_output@@@2@@__crt_stdio_output@@ABEHH_W@Z 100499e2 f i libucrt:output.obj
 0001:00048a32       ?type_case_s_compute_narrow_string_length@?$output_processor@_WV?$stream_output_adapter@_W@__crt_stdio_output@@V?$standard_base@_WV?$stream_output_adapter@_W@__crt_stdio_output@@@2@@__crt_stdio_output@@ABEHH_W@Z 10049a32 f i libucrt:output.obj
 0001:00048a82       ?type_case_s_compute_narrow_string_length@?$output_processor@_WV?$string_output_adapter@_W@__crt_stdio_output@@V?$format_validation_base@_WV?$string_output_adapter@_W@__crt_stdio_output@@@2@@__crt_stdio_output@@ABEHH_W@Z 10049a82 f i libucrt:output.obj
 0001:00048ad2       ?type_case_s_compute_narrow_string_length@?$output_processor@_WV?$string_output_adapter@_W@__crt_stdio_output@@V?$positional_parameter_base@_WV?$string_output_adapter@_W@__crt_stdio_output@@@2@@__crt_stdio_output@@ABEHH_W@Z 10049ad2 f i libucrt:output.obj
 0001:00048b22       ?type_case_s_compute_narrow_string_length@?$output_processor@_WV?$string_output_adapter@_W@__crt_stdio_output@@V?$standard_base@_WV?$string_output_adapter@_W@__crt_stdio_output@@@2@@__crt_stdio_output@@ABEHH_W@Z 10049b22 f i libucrt:output.obj
 0001:00048b72       ?type_case_u@?$output_processor@DV?$stream_output_adapter@D@__crt_stdio_output@@V?$format_validation_base@DV?$stream_output_adapter@D@__crt_stdio_output@@@2@@__crt_stdio_output@@AAE_NXZ 10049b72 f i libucrt:output.obj
 0001:00048b7e       ?type_case_u@?$output_processor@DV?$stream_output_adapter@D@__crt_stdio_output@@V?$positional_parameter_base@DV?$stream_output_adapter@D@__crt_stdio_output@@@2@@__crt_stdio_output@@AAE_NXZ 10049b7e f i libucrt:output.obj
 0001:00048b8a       ?type_case_u@?$output_processor@DV?$stream_output_adapter@D@__crt_stdio_output@@V?$standard_base@DV?$stream_output_adapter@D@__crt_stdio_output@@@2@@__crt_stdio_output@@AAE_NXZ 10049b8a f i libucrt:output.obj
 0001:00048b96       ?type_case_u@?$output_processor@DV?$string_output_adapter@D@__crt_stdio_output@@V?$format_validation_base@DV?$string_output_adapter@D@__crt_stdio_output@@@2@@__crt_stdio_output@@AAE_NXZ 10049b96 f i libucrt:output.obj
 0001:00048ba2       ?type_case_u@?$output_processor@DV?$string_output_adapter@D@__crt_stdio_output@@V?$positional_parameter_base@DV?$string_output_adapter@D@__crt_stdio_output@@@2@@__crt_stdio_output@@AAE_NXZ 10049ba2 f i libucrt:output.obj
 0001:00048bae       ?type_case_u@?$output_processor@DV?$string_output_adapter@D@__crt_stdio_output@@V?$standard_base@DV?$string_output_adapter@D@__crt_stdio_output@@@2@@__crt_stdio_output@@AAE_NXZ 10049bae f i libucrt:output.obj
 0001:00048bba       ?type_case_u@?$output_processor@_WV?$stream_output_adapter@_W@__crt_stdio_output@@V?$format_validation_base@_WV?$stream_output_adapter@_W@__crt_stdio_output@@@2@@__crt_stdio_output@@AAE_NXZ 10049bba f i libucrt:output.obj
 0001:00048bc6       ?type_case_u@?$output_processor@_WV?$stream_output_adapter@_W@__crt_stdio_output@@V?$positional_parameter_base@_WV?$stream_output_adapter@_W@__crt_stdio_output@@@2@@__crt_stdio_output@@AAE_NXZ 10049bc6 f i libucrt:output.obj
 0001:00048bd2       ?type_case_u@?$output_processor@_WV?$stream_output_adapter@_W@__crt_stdio_output@@V?$standard_base@_WV?$stream_output_adapter@_W@__crt_stdio_output@@@2@@__crt_stdio_output@@AAE_NXZ 10049bd2 f i libucrt:output.obj
 0001:00048bde       ?type_case_u@?$output_processor@_WV?$string_output_adapter@_W@__crt_stdio_output@@V?$format_validation_base@_WV?$string_output_adapter@_W@__crt_stdio_output@@@2@@__crt_stdio_output@@AAE_NXZ 10049bde f i libucrt:output.obj
 0001:00048bea       ?type_case_u@?$output_processor@_WV?$string_output_adapter@_W@__crt_stdio_output@@V?$positional_parameter_base@_WV?$string_output_adapter@_W@__crt_stdio_output@@@2@@__crt_stdio_output@@AAE_NXZ 10049bea f i libucrt:output.obj
 0001:00048bf6       ?type_case_u@?$output_processor@_WV?$string_output_adapter@_W@__crt_stdio_output@@V?$standard_base@_WV?$string_output_adapter@_W@__crt_stdio_output@@@2@@__crt_stdio_output@@AAE_NXZ 10049bf6 f i libucrt:output.obj
 0001:00048c02       ?type_case_x@?$output_processor@DV?$stream_output_adapter@D@__crt_stdio_output@@V?$format_validation_base@DV?$stream_output_adapter@D@__crt_stdio_output@@@2@@__crt_stdio_output@@AAE_NXZ 10049c02 f i libucrt:output.obj
 0001:00048c0e       ?type_case_x@?$output_processor@DV?$stream_output_adapter@D@__crt_stdio_output@@V?$positional_parameter_base@DV?$stream_output_adapter@D@__crt_stdio_output@@@2@@__crt_stdio_output@@AAE_NXZ 10049c0e f i libucrt:output.obj
 0001:00048c1a       ?type_case_x@?$output_processor@DV?$stream_output_adapter@D@__crt_stdio_output@@V?$standard_base@DV?$stream_output_adapter@D@__crt_stdio_output@@@2@@__crt_stdio_output@@AAE_NXZ 10049c1a f i libucrt:output.obj
 0001:00048c26       ?type_case_x@?$output_processor@DV?$string_output_adapter@D@__crt_stdio_output@@V?$format_validation_base@DV?$string_output_adapter@D@__crt_stdio_output@@@2@@__crt_stdio_output@@AAE_NXZ 10049c26 f i libucrt:output.obj
 0001:00048c32       ?type_case_x@?$output_processor@DV?$string_output_adapter@D@__crt_stdio_output@@V?$positional_parameter_base@DV?$string_output_adapter@D@__crt_stdio_output@@@2@@__crt_stdio_output@@AAE_NXZ 10049c32 f i libucrt:output.obj
 0001:00048c3e       ?type_case_x@?$output_processor@DV?$string_output_adapter@D@__crt_stdio_output@@V?$standard_base@DV?$string_output_adapter@D@__crt_stdio_output@@@2@@__crt_stdio_output@@AAE_NXZ 10049c3e f i libucrt:output.obj
 0001:00048c4a       ?type_case_x@?$output_processor@_WV?$stream_output_adapter@_W@__crt_stdio_output@@V?$format_validation_base@_WV?$stream_output_adapter@_W@__crt_stdio_output@@@2@@__crt_stdio_output@@AAE_NXZ 10049c4a f i libucrt:output.obj
 0001:00048c56       ?type_case_x@?$output_processor@_WV?$stream_output_adapter@_W@__crt_stdio_output@@V?$positional_parameter_base@_WV?$stream_output_adapter@_W@__crt_stdio_output@@@2@@__crt_stdio_output@@AAE_NXZ 10049c56 f i libucrt:output.obj
 0001:00048c62       ?type_case_x@?$output_processor@_WV?$stream_output_adapter@_W@__crt_stdio_output@@V?$standard_base@_WV?$stream_output_adapter@_W@__crt_stdio_output@@@2@@__crt_stdio_output@@AAE_NXZ 10049c62 f i libucrt:output.obj
 0001:00048c6e       ?type_case_x@?$output_processor@_WV?$string_output_adapter@_W@__crt_stdio_output@@V?$format_validation_base@_WV?$string_output_adapter@_W@__crt_stdio_output@@@2@@__crt_stdio_output@@AAE_NXZ 10049c6e f i libucrt:output.obj
 0001:00048c7a       ?type_case_x@?$output_processor@_WV?$string_output_adapter@_W@__crt_stdio_output@@V?$positional_parameter_base@_WV?$string_output_adapter@_W@__crt_stdio_output@@@2@@__crt_stdio_output@@AAE_NXZ 10049c7a f i libucrt:output.obj
 0001:00048c86       ?type_case_x@?$output_processor@_WV?$string_output_adapter@_W@__crt_stdio_output@@V?$standard_base@_WV?$string_output_adapter@_W@__crt_stdio_output@@@2@@__crt_stdio_output@@AAE_NXZ 10049c86 f i libucrt:output.obj
 0001:00048c92       ?unset_flag@?$output_processor@DV?$stream_output_adapter@D@__crt_stdio_output@@V?$format_validation_base@DV?$stream_output_adapter@D@__crt_stdio_output@@@2@@__crt_stdio_output@@AAEXI@Z 10049c92 f i libucrt:output.obj
 0001:00048ca7       ?unset_flag@?$output_processor@DV?$stream_output_adapter@D@__crt_stdio_output@@V?$positional_parameter_base@DV?$stream_output_adapter@D@__crt_stdio_output@@@2@@__crt_stdio_output@@AAEXI@Z 10049ca7 f i libucrt:output.obj
 0001:00048cbc       ?unset_flag@?$output_processor@DV?$stream_output_adapter@D@__crt_stdio_output@@V?$standard_base@DV?$stream_output_adapter@D@__crt_stdio_output@@@2@@__crt_stdio_output@@AAEXI@Z 10049cbc f i libucrt:output.obj
 0001:00048cd1       ?unset_flag@?$output_processor@DV?$string_output_adapter@D@__crt_stdio_output@@V?$format_validation_base@DV?$string_output_adapter@D@__crt_stdio_output@@@2@@__crt_stdio_output@@AAEXI@Z 10049cd1 f i libucrt:output.obj
 0001:00048ce6       ?unset_flag@?$output_processor@DV?$string_output_adapter@D@__crt_stdio_output@@V?$positional_parameter_base@DV?$string_output_adapter@D@__crt_stdio_output@@@2@@__crt_stdio_output@@AAEXI@Z 10049ce6 f i libucrt:output.obj
 0001:00048cfb       ?unset_flag@?$output_processor@DV?$string_output_adapter@D@__crt_stdio_output@@V?$standard_base@DV?$string_output_adapter@D@__crt_stdio_output@@@2@@__crt_stdio_output@@AAEXI@Z 10049cfb f i libucrt:output.obj
 0001:00048d10       ?unset_flag@?$output_processor@_WV?$stream_output_adapter@_W@__crt_stdio_output@@V?$format_validation_base@_WV?$stream_output_adapter@_W@__crt_stdio_output@@@2@@__crt_stdio_output@@AAEXI@Z 10049d10 f i libucrt:output.obj
 0001:00048d25       ?unset_flag@?$output_processor@_WV?$stream_output_adapter@_W@__crt_stdio_output@@V?$positional_parameter_base@_WV?$stream_output_adapter@_W@__crt_stdio_output@@@2@@__crt_stdio_output@@AAEXI@Z 10049d25 f i libucrt:output.obj
 0001:00048d3a       ?unset_flag@?$output_processor@_WV?$stream_output_adapter@_W@__crt_stdio_output@@V?$standard_base@_WV?$stream_output_adapter@_W@__crt_stdio_output@@@2@@__crt_stdio_output@@AAEXI@Z 10049d3a f i libucrt:output.obj
 0001:00048d4f       ?unset_flag@?$output_processor@_WV?$string_output_adapter@_W@__crt_stdio_output@@V?$format_validation_base@_WV?$string_output_adapter@_W@__crt_stdio_output@@@2@@__crt_stdio_output@@AAEXI@Z 10049d4f f i libucrt:output.obj
 0001:00048d64       ?unset_flag@?$output_processor@_WV?$string_output_adapter@_W@__crt_stdio_output@@V?$positional_parameter_base@_WV?$string_output_adapter@_W@__crt_stdio_output@@@2@@__crt_stdio_output@@AAEXI@Z 10049d64 f i libucrt:output.obj
 0001:00048d79       ?unset_flag@?$output_processor@_WV?$string_output_adapter@_W@__crt_stdio_output@@V?$standard_base@_WV?$string_output_adapter@_W@__crt_stdio_output@@@2@@__crt_stdio_output@@AAEXI@Z 10049d79 f i libucrt:output.obj
 0001:00048d8e       ?update_field_width@?$positional_parameter_base@DV?$stream_output_adapter@D@__crt_stdio_output@@@__crt_stdio_output@@IAE_NXZ 10049d8e f i libucrt:output.obj
 0001:00048e71       ?update_field_width@?$positional_parameter_base@DV?$string_output_adapter@D@__crt_stdio_output@@@__crt_stdio_output@@IAE_NXZ 10049e71 f i libucrt:output.obj
 0001:00048f54       ?update_field_width@?$positional_parameter_base@_WV?$stream_output_adapter@_W@__crt_stdio_output@@@__crt_stdio_output@@IAE_NXZ 10049f54 f i libucrt:output.obj
 0001:00049038       ?update_field_width@?$positional_parameter_base@_WV?$string_output_adapter@_W@__crt_stdio_output@@@__crt_stdio_output@@IAE_NXZ 1004a038 f i libucrt:output.obj
 0001:0004911c       ?update_field_width@?$standard_base@DV?$stream_output_adapter@D@__crt_stdio_output@@@__crt_stdio_output@@IAE_NXZ 1004a11c f i libucrt:output.obj
 0001:00049130       ?update_field_width@?$standard_base@DV?$string_output_adapter@D@__crt_stdio_output@@@__crt_stdio_output@@IAE_NXZ 1004a130 f i libucrt:output.obj
 0001:00049144       ?update_field_width@?$standard_base@_WV?$stream_output_adapter@_W@__crt_stdio_output@@@__crt_stdio_output@@IAE_NXZ 1004a144 f i libucrt:output.obj
 0001:00049158       ?update_field_width@?$standard_base@_WV?$string_output_adapter@_W@__crt_stdio_output@@@__crt_stdio_output@@IAE_NXZ 1004a158 f i libucrt:output.obj
 0001:0004916c       ?update_precision@?$positional_parameter_base@DV?$stream_output_adapter@D@__crt_stdio_output@@@__crt_stdio_output@@IAE_NXZ 1004a16c f i libucrt:output.obj
 0001:0004924f       ?update_precision@?$positional_parameter_base@DV?$string_output_adapter@D@__crt_stdio_output@@@__crt_stdio_output@@IAE_NXZ 1004a24f f i libucrt:output.obj
 0001:00049332       ?update_precision@?$positional_parameter_base@_WV?$stream_output_adapter@_W@__crt_stdio_output@@@__crt_stdio_output@@IAE_NXZ 1004a332 f i libucrt:output.obj
 0001:00049416       ?update_precision@?$positional_parameter_base@_WV?$string_output_adapter@_W@__crt_stdio_output@@@__crt_stdio_output@@IAE_NXZ 1004a416 f i libucrt:output.obj
 0001:000494fa       ?update_precision@?$standard_base@DV?$stream_output_adapter@D@__crt_stdio_output@@@__crt_stdio_output@@IAE_NXZ 1004a4fa f i libucrt:output.obj
 0001:0004950e       ?update_precision@?$standard_base@DV?$string_output_adapter@D@__crt_stdio_output@@@__crt_stdio_output@@IAE_NXZ 1004a50e f i libucrt:output.obj
 0001:00049522       ?update_precision@?$standard_base@_WV?$stream_output_adapter@_W@__crt_stdio_output@@@__crt_stdio_output@@IAE_NXZ 1004a522 f i libucrt:output.obj
 0001:00049536       ?update_precision@?$standard_base@_WV?$string_output_adapter@_W@__crt_stdio_output@@@__crt_stdio_output@@IAE_NXZ 1004a536 f i libucrt:output.obj
 0001:0004954a       ?valid@__crt_stdio_stream@@QBE_NXZ 1004a54a f i libucrt:output.obj
 0001:00049554       ?validate@?$stream_output_adapter@D@__crt_stdio_output@@QBE_NXZ 1004a554 f i libucrt:output.obj
 0001:0004957d       ?validate@?$stream_output_adapter@_W@__crt_stdio_output@@QBE_NXZ 1004a57d f i libucrt:output.obj
 0001:0004959e       ?validate@?$string_output_adapter@D@__crt_stdio_output@@QBE_NXZ 1004a59e f i libucrt:output.obj
 0001:000495bf       ?validate@?$string_output_adapter@_W@__crt_stdio_output@@QBE_NXZ 1004a5bf f i libucrt:output.obj
 0001:000495e0       ?validate_and_store_parameter_data@?$positional_parameter_base@DV?$stream_output_adapter@D@__crt_stdio_output@@@__crt_stdio_output@@AAE_NAAUparameter_data@12@W4parameter_type@12@DW4length_modifier@2@@Z 1004a5e0 f i libucrt:output.obj
 0001:0004963d       ?validate_and_store_parameter_data@?$positional_parameter_base@DV?$string_output_adapter@D@__crt_stdio_output@@@__crt_stdio_output@@AAE_NAAUparameter_data@12@W4parameter_type@12@DW4length_modifier@2@@Z 1004a63d f i libucrt:output.obj
 0001:0004969a       ?validate_and_store_parameter_data@?$positional_parameter_base@_WV?$stream_output_adapter@_W@__crt_stdio_output@@@__crt_stdio_output@@AAE_NAAUparameter_data@12@W4parameter_type@12@_WW4length_modifier@2@@Z 1004a69a f i libucrt:output.obj
 0001:000496fa       ?validate_and_store_parameter_data@?$positional_parameter_base@_WV?$string_output_adapter@_W@__crt_stdio_output@@@__crt_stdio_output@@AAE_NAAUparameter_data@12@W4parameter_type@12@_WW4length_modifier@2@@Z 1004a6fa f i libucrt:output.obj
 0001:0004975a       ?validate_and_update_state_at_beginning_of_format_character@?$positional_parameter_base@DV?$stream_output_adapter@D@__crt_stdio_output@@@__crt_stdio_output@@IAE_NXZ 1004a75a f i libucrt:output.obj
 0001:00049890       ?validate_and_update_state_at_beginning_of_format_character@?$positional_parameter_base@DV?$string_output_adapter@D@__crt_stdio_output@@@__crt_stdio_output@@IAE_NXZ 1004a890 f i libucrt:output.obj
 0001:000499c6       ?validate_and_update_state_at_beginning_of_format_character@?$positional_parameter_base@_WV?$stream_output_adapter@_W@__crt_stdio_output@@@__crt_stdio_output@@IAE_NXZ 1004a9c6 f i libucrt:output.obj
 0001:00049b08       ?validate_and_update_state_at_beginning_of_format_character@?$positional_parameter_base@_WV?$string_output_adapter@_W@__crt_stdio_output@@@__crt_stdio_output@@IAE_NXZ 1004ab08 f i libucrt:output.obj
 0001:00049c4a       ?validate_and_update_state_at_beginning_of_format_character@?$standard_base@DV?$stream_output_adapter@D@__crt_stdio_output@@@__crt_stdio_output@@IAE_NXZ 1004ac4a f i libucrt:output.obj
 0001:00049c4d       ?validate_and_update_state_at_beginning_of_format_character@?$standard_base@DV?$string_output_adapter@D@__crt_stdio_output@@@__crt_stdio_output@@IAE_NXZ 1004ac4d f i libucrt:output.obj
 0001:00049c50       ?validate_and_update_state_at_beginning_of_format_character@?$standard_base@_WV?$stream_output_adapter@_W@__crt_stdio_output@@@__crt_stdio_output@@IAE_NXZ 1004ac50 f i libucrt:output.obj
 0001:00049c53       ?validate_and_update_state_at_beginning_of_format_character@?$standard_base@_WV?$string_output_adapter@_W@__crt_stdio_output@@@__crt_stdio_output@@IAE_NXZ 1004ac53 f i libucrt:output.obj
 0001:00049c56       ?validate_and_update_state_at_end_of_format_string@?$format_validation_base@DV?$stream_output_adapter@D@__crt_stdio_output@@@__crt_stdio_output@@IBE_NXZ 1004ac56 f i libucrt:output.obj
 0001:00049c80       ?validate_and_update_state_at_end_of_format_string@?$format_validation_base@DV?$string_output_adapter@D@__crt_stdio_output@@@__crt_stdio_output@@IBE_NXZ 1004ac80 f i libucrt:output.obj
 0001:00049caa       ?validate_and_update_state_at_end_of_format_string@?$format_validation_base@_WV?$stream_output_adapter@_W@__crt_stdio_output@@@__crt_stdio_output@@IBE_NXZ 1004acaa f i libucrt:output.obj
 0001:00049cd4       ?validate_and_update_state_at_end_of_format_string@?$format_validation_base@_WV?$string_output_adapter@_W@__crt_stdio_output@@@__crt_stdio_output@@IBE_NXZ 1004acd4 f i libucrt:output.obj
 0001:00049cfe       ?validate_and_update_state_at_end_of_format_string@?$positional_parameter_base@DV?$stream_output_adapter@D@__crt_stdio_output@@@__crt_stdio_output@@IAE_NXZ 1004acfe f i libucrt:output.obj
 0001:00049d9e       ?validate_and_update_state_at_end_of_format_string@?$positional_parameter_base@DV?$string_output_adapter@D@__crt_stdio_output@@@__crt_stdio_output@@IAE_NXZ 1004ad9e f i libucrt:output.obj
 0001:00049e3e       ?validate_and_update_state_at_end_of_format_string@?$positional_parameter_base@_WV?$stream_output_adapter@_W@__crt_stdio_output@@@__crt_stdio_output@@IAE_NXZ 1004ae3e f i libucrt:output.obj
 0001:00049ede       ?validate_and_update_state_at_end_of_format_string@?$positional_parameter_base@_WV?$string_output_adapter@_W@__crt_stdio_output@@@__crt_stdio_output@@IAE_NXZ 1004aede f i libucrt:output.obj
 0001:00049f7e       ?validate_and_update_state_at_end_of_format_string@?$standard_base@DV?$stream_output_adapter@D@__crt_stdio_output@@@__crt_stdio_output@@IBE_NXZ 1004af7e f i libucrt:output.obj
 0001:00049f81       ?validate_and_update_state_at_end_of_format_string@?$standard_base@DV?$string_output_adapter@D@__crt_stdio_output@@@__crt_stdio_output@@IBE_NXZ 1004af81 f i libucrt:output.obj
 0001:00049f84       ?validate_and_update_state_at_end_of_format_string@?$standard_base@_WV?$stream_output_adapter@_W@__crt_stdio_output@@@__crt_stdio_output@@IBE_NXZ 1004af84 f i libucrt:output.obj
 0001:00049f87       ?validate_and_update_state_at_end_of_format_string@?$standard_base@_WV?$string_output_adapter@_W@__crt_stdio_output@@@__crt_stdio_output@@IBE_NXZ 1004af87 f i libucrt:output.obj
 0001:00049f8a       ?validate_state_for_type_case_a@?$positional_parameter_base@DV?$stream_output_adapter@D@__crt_stdio_output@@@__crt_stdio_output@@IAE_NXZ 1004af8a f i libucrt:output.obj
 0001:00049ff1       ?validate_state_for_type_case_a@?$positional_parameter_base@DV?$string_output_adapter@D@__crt_stdio_output@@@__crt_stdio_output@@IAE_NXZ 1004aff1 f i libucrt:output.obj
 0001:0004a058       ?validate_state_for_type_case_a@?$positional_parameter_base@_WV?$stream_output_adapter@_W@__crt_stdio_output@@@__crt_stdio_output@@IAE_NXZ 1004b058 f i libucrt:output.obj
 0001:0004a0bf       ?validate_state_for_type_case_a@?$positional_parameter_base@_WV?$string_output_adapter@_W@__crt_stdio_output@@@__crt_stdio_output@@IAE_NXZ 1004b0bf f i libucrt:output.obj
 0001:0004a126       ?validate_state_for_type_case_a@?$standard_base@DV?$stream_output_adapter@D@__crt_stdio_output@@@__crt_stdio_output@@IBE_NXZ 1004b126 f i libucrt:output.obj
 0001:0004a129       ?validate_state_for_type_case_a@?$standard_base@DV?$string_output_adapter@D@__crt_stdio_output@@@__crt_stdio_output@@IBE_NXZ 1004b129 f i libucrt:output.obj
 0001:0004a12c       ?validate_state_for_type_case_a@?$standard_base@_WV?$stream_output_adapter@_W@__crt_stdio_output@@@__crt_stdio_output@@IBE_NXZ 1004b12c f i libucrt:output.obj
 0001:0004a12f       ?validate_state_for_type_case_a@?$standard_base@_WV?$string_output_adapter@_W@__crt_stdio_output@@@__crt_stdio_output@@IBE_NXZ 1004b12f f i libucrt:output.obj
 0001:0004a132       ?validate_stream_is_ansi_if_required@?$__acrt_stdio_char_traits@D@@SA_NQAU_iobuf@@@Z 1004b132 f i libucrt:output.obj
 0001:0004a1d4       ?validate_stream_is_ansi_if_required@?$__acrt_stdio_char_traits@_W@@SA_NQAU_iobuf@@@Z 1004b1d4 f i libucrt:output.obj
 0001:0004a1d7       ?wide_null_string@?$output_processor@DV?$stream_output_adapter@D@__crt_stdio_output@@V?$format_validation_base@DV?$stream_output_adapter@D@__crt_stdio_output@@@2@@__crt_stdio_output@@CAPA_WXZ 1004b1d7 f i libucrt:output.obj
 0001:0004a1dd       ?wide_null_string@?$output_processor@DV?$stream_output_adapter@D@__crt_stdio_output@@V?$positional_parameter_base@DV?$stream_output_adapter@D@__crt_stdio_output@@@2@@__crt_stdio_output@@CAPA_WXZ 1004b1dd f i libucrt:output.obj
 0001:0004a1e3       ?wide_null_string@?$output_processor@DV?$stream_output_adapter@D@__crt_stdio_output@@V?$standard_base@DV?$stream_output_adapter@D@__crt_stdio_output@@@2@@__crt_stdio_output@@CAPA_WXZ 1004b1e3 f i libucrt:output.obj
 0001:0004a1e9       ?wide_null_string@?$output_processor@DV?$string_output_adapter@D@__crt_stdio_output@@V?$format_validation_base@DV?$string_output_adapter@D@__crt_stdio_output@@@2@@__crt_stdio_output@@CAPA_WXZ 1004b1e9 f i libucrt:output.obj
 0001:0004a1ef       ?wide_null_string@?$output_processor@DV?$string_output_adapter@D@__crt_stdio_output@@V?$positional_parameter_base@DV?$string_output_adapter@D@__crt_stdio_output@@@2@@__crt_stdio_output@@CAPA_WXZ 1004b1ef f i libucrt:output.obj
 0001:0004a1f5       ?wide_null_string@?$output_processor@DV?$string_output_adapter@D@__crt_stdio_output@@V?$standard_base@DV?$string_output_adapter@D@__crt_stdio_output@@@2@@__crt_stdio_output@@CAPA_WXZ 1004b1f5 f i libucrt:output.obj
 0001:0004a1fb       ?wide_null_string@?$output_processor@_WV?$stream_output_adapter@_W@__crt_stdio_output@@V?$format_validation_base@_WV?$stream_output_adapter@_W@__crt_stdio_output@@@2@@__crt_stdio_output@@CAPA_WXZ 1004b1fb f i libucrt:output.obj
 0001:0004a201       ?wide_null_string@?$output_processor@_WV?$stream_output_adapter@_W@__crt_stdio_output@@V?$positional_parameter_base@_WV?$stream_output_adapter@_W@__crt_stdio_output@@@2@@__crt_stdio_output@@CAPA_WXZ 1004b201 f i libucrt:output.obj
 0001:0004a207       ?wide_null_string@?$output_processor@_WV?$stream_output_adapter@_W@__crt_stdio_output@@V?$standard_base@_WV?$stream_output_adapter@_W@__crt_stdio_output@@@2@@__crt_stdio_output@@CAPA_WXZ 1004b207 f i libucrt:output.obj
 0001:0004a20d       ?wide_null_string@?$output_processor@_WV?$string_output_adapter@_W@__crt_stdio_output@@V?$format_validation_base@_WV?$string_output_adapter@_W@__crt_stdio_output@@@2@@__crt_stdio_output@@CAPA_WXZ 1004b20d f i libucrt:output.obj
 0001:0004a213       ?wide_null_string@?$output_processor@_WV?$string_output_adapter@_W@__crt_stdio_output@@V?$positional_parameter_base@_WV?$string_output_adapter@_W@__crt_stdio_output@@@2@@__crt_stdio_output@@CAPA_WXZ 1004b213 f i libucrt:output.obj
 0001:0004a219       ?wide_null_string@?$output_processor@_WV?$string_output_adapter@_W@__crt_stdio_output@@V?$standard_base@_WV?$string_output_adapter@_W@__crt_stdio_output@@@2@@__crt_stdio_output@@CAPA_WXZ 1004b219 f i libucrt:output.obj
 0001:0004a21f       ?write_character@?$stream_output_adapter@D@__crt_stdio_output@@QBEXDQAH@Z 1004b21f f i libucrt:output.obj
 0001:0004a26b       ?write_character@?$stream_output_adapter@_W@__crt_stdio_output@@QBEX_WQAH@Z 1004b26b f i libucrt:output.obj
 0001:0004a2bb       ?write_character@?$string_output_adapter@D@__crt_stdio_output@@QBE_NDQAH@Z 1004b2bb f i libucrt:output.obj
 0001:0004a30d       ?write_character@?$string_output_adapter@_W@__crt_stdio_output@@QBE_N_WQAH@Z 1004b30d f i libucrt:output.obj
 0001:0004a363       ?write_stored_string_tchar@?$output_processor@DV?$stream_output_adapter@D@__crt_stdio_output@@V?$format_validation_base@DV?$stream_output_adapter@D@__crt_stdio_output@@@2@@__crt_stdio_output@@AAE_ND@Z 1004b363 f i libucrt:output.obj
 0001:0004a433       ?write_stored_string_tchar@?$output_processor@DV?$stream_output_adapter@D@__crt_stdio_output@@V?$positional_parameter_base@DV?$stream_output_adapter@D@__crt_stdio_output@@@2@@__crt_stdio_output@@AAE_ND@Z 1004b433 f i libucrt:output.obj
 0001:0004a503       ?write_stored_string_tchar@?$output_processor@DV?$stream_output_adapter@D@__crt_stdio_output@@V?$standard_base@DV?$stream_output_adapter@D@__crt_stdio_output@@@2@@__crt_stdio_output@@AAE_ND@Z 1004b503 f i libucrt:output.obj
 0001:0004a5d3       ?write_stored_string_tchar@?$output_processor@DV?$string_output_adapter@D@__crt_stdio_output@@V?$format_validation_base@DV?$string_output_adapter@D@__crt_stdio_output@@@2@@__crt_stdio_output@@AAE_ND@Z 1004b5d3 f i libucrt:output.obj
 0001:0004a6a3       ?write_stored_string_tchar@?$output_processor@DV?$string_output_adapter@D@__crt_stdio_output@@V?$positional_parameter_base@DV?$string_output_adapter@D@__crt_stdio_output@@@2@@__crt_stdio_output@@AAE_ND@Z 1004b6a3 f i libucrt:output.obj
 0001:0004a773       ?write_stored_string_tchar@?$output_processor@DV?$string_output_adapter@D@__crt_stdio_output@@V?$standard_base@DV?$string_output_adapter@D@__crt_stdio_output@@@2@@__crt_stdio_output@@AAE_ND@Z 1004b773 f i libucrt:output.obj
 0001:0004a843       ?write_stored_string_tchar@?$output_processor@_WV?$stream_output_adapter@_W@__crt_stdio_output@@V?$format_validation_base@_WV?$stream_output_adapter@_W@__crt_stdio_output@@@2@@__crt_stdio_output@@AAE_N_W@Z 1004b843 f i libucrt:output.obj
 0001:0004a8f0       ?write_stored_string_tchar@?$output_processor@_WV?$stream_output_adapter@_W@__crt_stdio_output@@V?$positional_parameter_base@_WV?$stream_output_adapter@_W@__crt_stdio_output@@@2@@__crt_stdio_output@@AAE_N_W@Z 1004b8f0 f i libucrt:output.obj
 0001:0004a99d       ?write_stored_string_tchar@?$output_processor@_WV?$stream_output_adapter@_W@__crt_stdio_output@@V?$standard_base@_WV?$stream_output_adapter@_W@__crt_stdio_output@@@2@@__crt_stdio_output@@AAE_N_W@Z 1004b99d f i libucrt:output.obj
 0001:0004aa4a       ?write_stored_string_tchar@?$output_processor@_WV?$string_output_adapter@_W@__crt_stdio_output@@V?$format_validation_base@_WV?$string_output_adapter@_W@__crt_stdio_output@@@2@@__crt_stdio_output@@AAE_N_W@Z 1004ba4a f i libucrt:output.obj
 0001:0004aaf7       ?write_stored_string_tchar@?$output_processor@_WV?$string_output_adapter@_W@__crt_stdio_output@@V?$positional_parameter_base@_WV?$string_output_adapter@_W@__crt_stdio_output@@@2@@__crt_stdio_output@@AAE_N_W@Z 1004baf7 f i libucrt:output.obj
 0001:0004aba4       ?write_stored_string_tchar@?$output_processor@_WV?$string_output_adapter@_W@__crt_stdio_output@@V?$standard_base@_WV?$string_output_adapter@_W@__crt_stdio_output@@@2@@__crt_stdio_output@@AAE_N_W@Z 1004bba4 f i libucrt:output.obj
 0001:0004ac51       ?write_string@?$stream_output_adapter@D@__crt_stdio_output@@QBEXQBDHQAH1@Z 1004bc51 f i libucrt:output.obj
 0001:0004acfd       ?write_string@?$stream_output_adapter@_W@__crt_stdio_output@@QBEXQB_WHQAH1@Z 1004bcfd f i libucrt:output.obj
 0001:0004adad       ?write_string@?$string_output_adapter@D@__crt_stdio_output@@QBEXQBDHQAH1@Z 1004bdad f i libucrt:output.obj
 0001:0004ae64       ?write_string@?$string_output_adapter@_W@__crt_stdio_output@@QBEXQB_WHQAH1@Z 1004be64 f i libucrt:output.obj
 0001:0004af24       ___acrt_isleadbyte_l_noupdate 1004bf24 f i libucrt:output.obj
 0001:0004af45       ___acrt_locale_changed     1004bf45 f i libucrt:output.obj
 0001:0004af56       ___stdio_common_vfprintf   1004bf56 f   libucrt:output.obj
 0001:0004afea       ___stdio_common_vfprintf_p 1004bfea f   libucrt:output.obj
 0001:0004b07e       ___stdio_common_vfprintf_s 1004c07e f   libucrt:output.obj
 0001:0004b112       ___stdio_common_vfwprintf  1004c112 f   libucrt:output.obj
 0001:0004b1a6       ___stdio_common_vfwprintf_p 1004c1a6 f   libucrt:output.obj
 0001:0004b23a       ___stdio_common_vfwprintf_s 1004c23a f   libucrt:output.obj
 0001:0004b2ce       ___stdio_common_vsnprintf_s 1004c2ce f   libucrt:output.obj
 0001:0004b2fe       ___stdio_common_vsnwprintf_s 1004c2fe f   libucrt:output.obj
 0001:0004b32e       ___stdio_common_vsprintf   1004c32e f   libucrt:output.obj
 0001:0004b35b       ___stdio_common_vsprintf_p 1004c35b f   libucrt:output.obj
 0001:0004b388       ___stdio_common_vsprintf_s 1004c388 f   libucrt:output.obj
 0001:0004b3b5       ___stdio_common_vswprintf  1004c3b5 f   libucrt:output.obj
 0001:0004b3e2       ___stdio_common_vswprintf_p 1004c3e2 f   libucrt:output.obj
 0001:0004b40f       ___stdio_common_vswprintf_s 1004c40f f   libucrt:output.obj
 0001:0004b43c       ___libm_sse2_pow           1004c43c f   libucrt:pow_sse2.obj
 0001:0004c152       _calloc                    1004d152 f   libucrt:calloc.obj
 0001:0004c15f       _free                      1004d15f f   libucrt:free.obj
 0001:0004c164       _realloc                   1004d164 f   libucrt:realloc.obj
 0001:0004c171       ??$?B$$A6GXPAXK0@Z@__crt_fast_encoded_nullptr_t@@QBEP6GXPAXK0@ZXZ 1004d171 f i libucrt:exit.obj
 0001:0004c18f       ??$__crt_fast_decode_pointer@P6GXPAXK0@Z@@YAP6GXPAXK0@ZQ6GX0K0@Z@Z 1004d18f f i libucrt:exit.obj
 0001:0004c1aa       ??$__crt_fast_encode_pointer@P6GXPAXK0@Z@@YAP6GXPAXK0@ZQ6GX0K0@Z@Z 1004d1aa f i libucrt:exit.obj
 0001:0004c1d0       ??$__crt_get_proc_address@P6GXI@Z@@YAP6GXI@ZQAUHINSTANCE__@@QBD@Z 1004d1d0 f i libucrt:exit.obj
 0001:0004c1e7       ??0?$__crt_unique_handle_t@U__crt_hmodule_traits@@@@QAE@QAUHINSTANCE__@@@Z 1004d1e7 f i libucrt:exit.obj
 0001:0004c1fb       ??1?$__crt_unique_handle_t@U__crt_hmodule_traits@@@@QAE@XZ 1004d1fb f i libucrt:exit.obj
 0001:0004c22e       ?close@?$__crt_unique_handle_t@U__crt_hmodule_traits@@@@QAEXXZ 1004d22e f i libucrt:exit.obj
 0001:0004c24a       ?close@__crt_hmodule_traits@@SA_NPAUHINSTANCE__@@@Z 1004d24a f i libucrt:exit.obj
 0001:0004c415       ?get@?$__crt_unique_handle_t@U__crt_hmodule_traits@@@@QBEPAUHINSTANCE__@@XZ 1004d415 f i libucrt:exit.obj
 0001:0004c418       ?get_address_of@?$__crt_unique_handle_t@U__crt_hmodule_traits@@@@QAEPAPAUHINSTANCE__@@XZ 1004d418 f i libucrt:exit.obj
 0001:0004c41b       ?get_invalid_value@__crt_hmodule_traits@@SAPAUHINSTANCE__@@XZ 1004d41b f i libucrt:exit.obj
 0001:0004c518       __Exit                     1004d518 f   libucrt:exit.obj
 0001:0004c533       ___acrt_initialize_thread_local_exit_callback 1004d533 f   libucrt:exit.obj
 0001:0004c545       __c_exit                   1004d545 f   libucrt:exit.obj
 0001:0004c557       __cexit                    1004d557 f   libucrt:exit.obj
 0001:0004c569       __exit                     1004d569 f   libucrt:exit.obj
 0001:0004c584       __is_c_termination_complete 1004d584 f   libucrt:exit.obj
 0001:0004c58a       __register_thread_local_exe_atexit_callback 1004d58a f   libucrt:exit.obj
 0001:0004c5d0       _exit                      1004d5d0 f   libucrt:exit.obj
 0001:0004c5eb       _quick_exit                1004d5eb f   libucrt:exit.obj
 0001:0004c610       _strncat                   1004d610 f   libucrt:strncat.obj
 0001:0004c7a0       _strncpy                   1004d7a0 f   libucrt:strncpy.obj
 0001:0004c90d       ?is_in_use@__crt_stdio_stream@@QBE_NXZ 1004d90d f i libucrt:fclose.obj
 0001:0004c91c       __fclose_nolock            1004d91c f   libucrt:fclose.obj
 0001:0004c9af       _fclose                    1004d9af f   libucrt:fclose.obj
 0001:0004cce1       ??$open_file@ABQBDABQBDABHPAU_iobuf@@@?$__crt_char_traits@D@@SAPAU_iobuf@@ABQBD0ABH$$QAPAU1@@Z 1004dce1 f i libucrt:fopen.obj
 0001:0004cd0c       ??$open_file@ABQB_WABQB_WABHPAU_iobuf@@@?$__crt_char_traits@_W@@SAPAU_iobuf@@ABQB_W0ABH$$QAPAU1@@Z 1004dd0c f i libucrt:fopen.obj
 0001:0004cd37       ?unlock@__crt_stdio_stream@@QBEXXZ 1004dd37 f i libucrt:fopen.obj
 0001:0004cd42       __fsopen                   1004dd42 f   libucrt:fopen.obj
 0001:0004cd4f       __wfopen                   1004dd4f f   libucrt:fopen.obj
 0001:0004cd6b       __wfopen_s                 1004dd6b f   libucrt:fopen.obj
 0001:0004cdc3       __wfsopen                  1004ddc3 f   libucrt:fopen.obj
 0001:0004cdd0       _fopen                     1004ddd0 f   libucrt:fopen.obj
 0001:0004cdec       _fopen_s                   1004ddec f   libucrt:fopen.obj
 0001:0004ce44       ?has_any_buffer@__crt_stdio_stream@@QBE_NXZ 1004de44 f i libucrt:fread.obj
 0001:0004ce59       ?has_any_of@__crt_stdio_stream@@QBE_NJ@Z 1004de59 f i libucrt:fread.obj
 0001:0004ce75       ?set_flags@__crt_stdio_stream@@QBE_NJ@Z 1004de75 f i libucrt:fread.obj
 0001:0004cea5       __fread_nolock             1004dea5 f   libucrt:fread.obj
 0001:0004cec9       __fread_nolock_s           1004dec9 f   libucrt:fread.obj
 0001:0004d108       _fread                     1004e108 f   libucrt:fread.obj
 0001:0004d12c       _fread_s                   1004e12c f   libucrt:fread.obj
 0001:0004d284       ??$?RV<lambda_11b4f7b0d3157825a5656a18eba1ae27>@@AAV<lambda_b51c0495177f500e782686251704ae76>@@V<lambda_cf89b47920b5017557bfe891e78aca36>@@@?$__crt_seh_guarded_call@I@@QAEI$$QAV<lambda_11b4f7b0d3157825a5656a18eba1ae27>@@AAV<lambda_b51c0495177f500e782686251704ae76>@@$$QAV<lambda_cf89b47920b5017557bfe891e78aca36>@@@Z 1004e284 f i libucrt:fwrite.obj
 0001:0004d2e9       ??$__acrt_lock_stream_and_call@V<lambda_b51c0495177f500e782686251704ae76>@@@@YAIQAU_iobuf@@$$QAV<lambda_b51c0495177f500e782686251704ae76>@@@Z 1004e2e9 f i libucrt:fwrite.obj
 0001:0004d3de       ?has_big_buffer@__crt_stdio_stream@@QBE_NXZ 1004e3de f i libucrt:fwrite.obj
 0001:0004d3ef       __fwrite_nolock            1004e3ef f   libucrt:fwrite.obj
 0001:0004d5c6       _fwrite                    1004e5c6 f   libucrt:fwrite.obj
 0001:0004d634       ??$?R_W@__crt_internal_free_policy@@QBEXQB_W@Z 1004e634 f i libucrt:unlink.obj
 0001:0004d64a       ??0?$__crt_unique_heap_ptr@_WU__crt_internal_free_policy@@@@QAE@QA_W@Z 1004e64a f i libucrt:unlink.obj
 0001:0004d65e       ??1?$__crt_unique_heap_ptr@_WU__crt_internal_free_policy@@@@QAE@XZ 1004e65e f i libucrt:unlink.obj
 0001:0004d674       ?get@?$__crt_unique_heap_ptr@_WU__crt_internal_free_policy@@@@QBEPA_WXZ 1004e674 f i libucrt:unlink.obj
 0001:0004d677       ?get_address_of@?$__crt_unique_heap_ptr@_WU__crt_internal_free_policy@@@@QAEPAPA_WXZ 1004e677 f i libucrt:unlink.obj
 0001:0004d67a       ?release@?$__crt_unique_heap_ptr@_WU__crt_internal_free_policy@@@@QAEXXZ 1004e67a f i libucrt:unlink.obj
 0001:0004d690       __unlink                   1004e690 f   libucrt:unlink.obj
 0001:0004d69d       _remove                    1004e69d f   libucrt:unlink.obj
 0001:0004d6fd       ?__acrt_stdio_reset_buffer@@YAXV__crt_stdio_stream@@@Z 1004e6fd f i libucrt:rewind.obj
 0001:0004d718       ?has_all_of@__crt_stdio_stream@@QBE_NJ@Z 1004e718 f i libucrt:rewind.obj
 0001:0004d737       ?unset_flags@__crt_stdio_stream@@QBE_NJ@Z 1004e737 f i libucrt:rewind.obj
 0001:0004d76b       _rewind                    1004e76b f   libucrt:rewind.obj
 0001:0004d86c       _ldexp                     1004e86c f   libucrt:ldexp.obj
 0001:0004dacc       ??$__vcrt_va_start_verify_argument_type@QB_W@@YAXXZ 1004eacc f i libucrt:assert.obj
 0001:0004ea69       ??$ftprintf@PAU_iobuf@@PBDABQBDABQBDABI@?$__crt_char_traits@D@@SAH$$QAPAU_iobuf@@$$QAPBDABQBD2ABI@Z 1004fa69 f i libucrt:assert.obj
 0001:0004ea9b       ??$ftprintf@PAU_iobuf@@PB_WABQB_WABQB_WABI@?$__crt_char_traits@_W@@SAH$$QAPAU_iobuf@@$$QAPB_WABQB_W2ABI@Z 1004fa9b f i libucrt:assert.obj
 0001:0004eacd       ??$get_module_file_name@AAPAUHINSTANCE__@@AAY0BAF@DK@?$__crt_char_traits@D@@SAKAAPAUHINSTANCE__@@AAY0BAF@D$$QAK@Z 1004facd f i libucrt:assert.obj
 0001:0004eaed       ??$get_module_file_name@AAPAUHINSTANCE__@@AAY0BAF@_WK@?$__crt_char_traits@_W@@SAKAAPAUHINSTANCE__@@AAY0BAF@_W$$QAK@Z 1004faed f i libucrt:assert.obj
 0001:0004eb0d       ??$itot_s@ABIQAD$$CBIH@?$__crt_char_traits@D@@SAHABI$$QBQAD$$QBI$$QAH@Z 1004fb0d f i libucrt:assert.obj
 0001:0004eb38       ??$itot_s@ABIQA_W$$CBIH@?$__crt_char_traits@_W@@SAHABI$$QBQA_W$$QBI$$QAH@Z 1004fb38 f i libucrt:assert.obj
 0001:0004eb63       ??$show_message_box@AAY0CEA@DPBDJ@?$__crt_char_traits@D@@SAHAAY0CEA@D$$QAPBD$$QAJ@Z 1004fb63 f i libucrt:assert.obj
 0001:0004eb86       ??$show_message_box@AAY0CEA@_WPB_WJ@?$__crt_char_traits@_W@@SAHAAY0CEA@_W$$QAPB_W$$QAJ@Z 1004fb86 f i libucrt:assert.obj
 0001:0004eba9       ??$tcscat_s@ABQADABIAAPAD@?$__crt_char_traits@D@@SAHABQADABIAAPAD@Z 1004fba9 f i libucrt:assert.obj
 0001:0004ebce       ??$tcscat_s@ABQADABIABQBD@?$__crt_char_traits@D@@SAHABQADABIABQBD@Z 1004fbce f i libucrt:assert.obj
 0001:0004ebf3       ??$tcscat_s@ABQADABIPBD@?$__crt_char_traits@D@@SAHABQADABI$$QAPBD@Z 1004fbf3 f i libucrt:assert.obj
 0001:0004ec18       ??$tcscat_s@ABQA_WABIAAPA_W@?$__crt_char_traits@_W@@SAHABQA_WABIAAPA_W@Z 1004fc18 f i libucrt:assert.obj
 0001:0004ec3d       ??$tcscat_s@ABQA_WABIABQB_W@?$__crt_char_traits@_W@@SAHABQA_WABIABQB_W@Z 1004fc3d f i libucrt:assert.obj
 0001:0004ec62       ??$tcscat_s@ABQA_WABIPB_W@?$__crt_char_traits@_W@@SAHABQA_WABI$$QAPB_W@Z 1004fc62 f i libucrt:assert.obj
 0001:0004ec87       ??$tcscpy_s@AAY0BAF@DIPBD@?$__crt_char_traits@D@@SAHAAY0BAF@D$$QAI$$QAPBD@Z 1004fc87 f i libucrt:assert.obj
 0001:0004ecaa       ??$tcscpy_s@AAY0BAF@_WIPB_W@?$__crt_char_traits@_W@@SAHAAY0BAF@_W$$QAI$$QAPB_W@Z 1004fcaa f i libucrt:assert.obj
 0001:0004eccd       ??$tcscpy_s@ABQADABIPBD@?$__crt_char_traits@D@@SAHABQADABI$$QAPBD@Z 1004fccd f i libucrt:assert.obj
 0001:0004ecf2       ??$tcscpy_s@ABQA_WABIPB_W@?$__crt_char_traits@_W@@SAHABQA_WABI$$QAPB_W@Z 1004fcf2 f i libucrt:assert.obj
 0001:0004ed17       ??$tcslen@AAY0BAF@D@?$__crt_char_traits@D@@SAIAAY0BAF@D@Z 1004fd17 f i libucrt:assert.obj
 0001:0004ed32       ??$tcslen@AAY0BAF@_W@?$__crt_char_traits@_W@@SAIAAY0BAF@_W@Z 1004fd32 f i libucrt:assert.obj
 0001:0004ed55       ??$tcslen@ABQAD@?$__crt_char_traits@D@@SAIABQAD@Z 1004fd55 f i libucrt:assert.obj
 0001:0004ed73       ??$tcslen@ABQA_W@?$__crt_char_traits@_W@@SAIABQA_W@Z 1004fd73 f i libucrt:assert.obj
 0001:0004ed98       ??$tcslen@ABQBD@?$__crt_char_traits@D@@SAIABQBD@Z 1004fd98 f i libucrt:assert.obj
 0001:0004edb6       ??$tcslen@ABQB_W@?$__crt_char_traits@_W@@SAIABQB_W@Z 1004fdb6 f i libucrt:assert.obj
 0001:0004eddb       ??$tcsncat_s@ABQADABIAAPBD$$CBI@?$__crt_char_traits@D@@SAHABQADABIAAPBD$$QBI@Z 1004fddb f i libucrt:assert.obj
 0001:0004ee06       ??$tcsncat_s@ABQADABIABQBDABI@?$__crt_char_traits@D@@SAHABQADABIABQBD1@Z 1004fe06 f i libucrt:assert.obj
 0001:0004ee31       ??$tcsncat_s@ABQADABIPBD$$CBI@?$__crt_char_traits@D@@SAHABQADABI$$QAPBD$$QBI@Z 1004fe31 f i libucrt:assert.obj
 0001:0004ee5c       ??$tcsncat_s@ABQA_WABIAAPB_W$$CBI@?$__crt_char_traits@_W@@SAHABQA_WABIAAPB_W$$QBI@Z 1004fe5c f i libucrt:assert.obj
 0001:0004ee87       ??$tcsncat_s@ABQA_WABIABQB_WABI@?$__crt_char_traits@_W@@SAHABQA_WABIABQB_W1@Z 1004fe87 f i libucrt:assert.obj
 0001:0004eeb2       ??$tcsncat_s@ABQA_WABIPB_W$$CBI@?$__crt_char_traits@_W@@SAHABQA_WABI$$QAPB_W$$QBI@Z 1004feb2 f i libucrt:assert.obj
 0001:0004f057       __assert                   10050057 f   libucrt:assert.obj
 0001:0004f0b1       __invoke_watson_if_error   100500b1 f i libucrt:assert.obj
 0001:0004f0db       __vfwprintf_l              100500db f i libucrt:assert.obj
 0001:0004f109       __vswprintf_c_l            10050109 f i libucrt:assert.obj
 0001:0004f143       __wassert                  10050143 f   libucrt:assert.obj
 0001:0004f19d       _fwprintf                  1005019d f i libucrt:assert.obj
 0001:0004f25f       _swprintf                  1005025f f i libucrt:assert.obj
 0001:0004f290       _strncmp                   10050290 f   libucrt:strncmp.obj
 0001:0004f326       __errcode                  10050326 f   libucrt:fpexcept.obj
 0001:0004f367       __except1                  10050367 f   libucrt:fpexcept.obj
 0001:0004f468       __except2                  10050468 f   libucrt:fpexcept.obj
 0001:0004f5b1       __handle_exc               100505b1 f   libucrt:fpexcept.obj
 0001:0004f809       __handle_qnan2             10050809 f   libucrt:fpexcept.obj
 0001:0004f819       __raise_exc                10050819 f   libucrt:fpexcept.obj
 0001:0004f844       __raise_exc_ex             10050844 f   libucrt:fpexcept.obj
 0001:0004fbf1       __raise_excf               10050bf1 f   libucrt:fpexcept.obj
 0001:0004fc1c       __set_errno_from_matherr   10050c1c f   libucrt:fpexcept.obj
 0001:0004fc56       __umatherr                 10050c56 f   libucrt:fpexcept.obj
 0001:0004fd20       __initterm                 10050d20 f   libucrt:initterm.obj
 0001:0004fd93       __initterm_e               10050d93 f   libucrt:initterm.obj
 0001:0004fe16       __seh_filter_dll           10050e16 f   libucrt:exception_filter.obj
 0001:0004fe3e       __seh_filter_exe           10050e3e f   libucrt:exception_filter.obj
 0001:0005000d       ??$?RPAD@__crt_internal_free_policy@@QBEXQBQAD@Z 1005100d f i libucrt:environment_initialization.obj
 0001:00050023       ??$?RPA_W@__crt_internal_free_policy@@QBEXQBQA_W@Z 10051023 f i libucrt:environment_initialization.obj
 0001:00050501       ??$get_environment_from_os@$$$V@?$__crt_char_traits@D@@SAPADXZ 10051501 f i libucrt:environment_initialization.obj
 0001:00050506       ??$get_environment_from_os@$$$V@?$__crt_char_traits@_W@@SAPA_WXZ 10051506 f i libucrt:environment_initialization.obj
 0001:00050640       ??$set_variable_in_environment_nolock@PADH@?$__crt_char_traits@D@@SAH$$QAPAD$$QAH@Z 10051640 f i libucrt:environment_initialization.obj
 0001:0005065e       ??$set_variable_in_environment_nolock@PA_WH@?$__crt_char_traits@_W@@SAH$$QAPA_W$$QAH@Z 1005165e f i libucrt:environment_initialization.obj
 0001:0005067c       ??$tcscpy_s@PADABIAAPAD@?$__crt_char_traits@D@@SAH$$QAPADABIAAPAD@Z 1005167c f i libucrt:environment_initialization.obj
 0001:000506a1       ??$tcscpy_s@PA_WABIAAPA_W@?$__crt_char_traits@_W@@SAH$$QAPA_WABIAAPA_W@Z 100516a1 f i libucrt:environment_initialization.obj
 0001:000506c6       ??$tcslen@AAPAD@?$__crt_char_traits@D@@SAIAAPAD@Z 100516c6 f i libucrt:environment_initialization.obj
 0001:000506e4       ??$tcslen@AAPA_W@?$__crt_char_traits@_W@@SAIAAPA_W@Z 100516e4 f i libucrt:environment_initialization.obj
 0001:00050709       ??$uninitialize@A6AXAAPAPAD@Z@?$dual_state_global@PAPAD@__crt_state_management@@QAEXA6AXAAPAPAD@Z@Z 10051709 f i libucrt:environment_initialization.obj
 0001:00050759       ??$uninitialize@A6AXAAPAPA_W@Z@?$dual_state_global@PAPA_W@__crt_state_management@@QAEXA6AXAAPAPA_W@Z@Z 10051759 f i libucrt:environment_initialization.obj
 0001:000507eb       ??0?$__crt_unique_heap_ptr@PADU__crt_internal_free_policy@@@@QAE@QAPAD@Z 100517eb f i libucrt:environment_initialization.obj
 0001:000507ff       ??0?$__crt_unique_heap_ptr@PA_WU__crt_internal_free_policy@@@@QAE@QAPA_W@Z 100517ff f i libucrt:environment_initialization.obj
 0001:00050813       ??1?$__crt_unique_heap_ptr@PADU__crt_internal_free_policy@@@@QAE@XZ 10051813 f i libucrt:environment_initialization.obj
 0001:00050829       ??1?$__crt_unique_heap_ptr@PA_WU__crt_internal_free_policy@@@@QAE@XZ 10051829 f i libucrt:environment_initialization.obj
 0001:0005083f       ??B?$__crt_unique_heap_ptr@PADU__crt_internal_free_policy@@@@QBE_NXZ 1005183f f i libucrt:environment_initialization.obj
 0001:00050849       ??B?$__crt_unique_heap_ptr@PA_WU__crt_internal_free_policy@@@@QBE_NXZ 10051849 f i libucrt:environment_initialization.obj
 0001:00050853       ??B?$__crt_unique_heap_ptr@_WU__crt_internal_free_policy@@@@QBE_NXZ 10051853 f i libucrt:environment_initialization.obj
 0001:0005085d       ?__crt_compute_required_transform_buffer_count@@YAIIQBD@Z 1005185d f i libucrt:environment_initialization.obj
 0001:0005087d       ?__crt_compute_required_transform_buffer_count@@YAIIQB_W@Z 1005187d f i libucrt:environment_initialization.obj
 0001:000508a0       ?__crt_transform_string@@YAIIQBDQA_WI@Z 100518a0 f i libucrt:environment_initialization.obj
 0001:000508c4       ?__crt_transform_string@@YAIIQB_WQADI@Z 100518c4 f i libucrt:environment_initialization.obj
 0001:000508ec       ?detach@?$__crt_unique_heap_ptr@DU__crt_internal_free_policy@@@@QAEPADXZ 100518ec f i libucrt:environment_initialization.obj
 0001:000508f2       ?detach@?$__crt_unique_heap_ptr@PADU__crt_internal_free_policy@@@@QAEPAPADXZ 100518f2 f i libucrt:environment_initialization.obj
 0001:000508f8       ?detach@?$__crt_unique_heap_ptr@PA_WU__crt_internal_free_policy@@@@QAEPAPA_WXZ 100518f8 f i libucrt:environment_initialization.obj
 0001:000508fe       ?detach@?$__crt_unique_heap_ptr@_WU__crt_internal_free_policy@@@@QAEPA_WXZ 100518fe f i libucrt:environment_initialization.obj
 0001:00050904       ?get@?$__crt_unique_heap_ptr@PADU__crt_internal_free_policy@@@@QBEPAPADXZ 10051904 f i libucrt:environment_initialization.obj
 0001:00050907       ?get@?$__crt_unique_heap_ptr@PA_WU__crt_internal_free_policy@@@@QBEPAPA_WXZ 10051907 f i libucrt:environment_initialization.obj
 0001:0005090a       ?get_current_state_index@__crt_state_management@@YAIXZ 1005190a f i libucrt:environment_initialization.obj
 0001:00050931       ?initialize@?$dual_state_global@PAPAD@__crt_state_management@@QAEXQAPAD@Z 10051931 f i libucrt:environment_initialization.obj
 0001:0005096e       ?initialize@?$dual_state_global@PAPA_W@__crt_state_management@@QAEXQAPA_W@Z 1005196e f i libucrt:environment_initialization.obj
 0001:000509ab       ?is_valid@?$__crt_unique_heap_ptr@PADU__crt_internal_free_policy@@@@QBE_NXZ 100519ab f i libucrt:environment_initialization.obj
 0001:000509b5       ?is_valid@?$__crt_unique_heap_ptr@PA_WU__crt_internal_free_policy@@@@QBE_NXZ 100519b5 f i libucrt:environment_initialization.obj
 0001:000509bf       ?is_valid@?$__crt_unique_heap_ptr@_WU__crt_internal_free_policy@@@@QBE_NXZ 100519bf f i libucrt:environment_initialization.obj
 0001:000509cf       ?release@?$__crt_unique_heap_ptr@PADU__crt_internal_free_policy@@@@QAEXXZ 100519cf f i libucrt:environment_initialization.obj
 0001:000509e5       ?release@?$__crt_unique_heap_ptr@PA_WU__crt_internal_free_policy@@@@QAEXXZ 100519e5 f i libucrt:environment_initialization.obj
 0001:000509fb       ?value@?$dual_state_global@PAPAD@__crt_state_management@@QAEAAPAPADXZ 100519fb f i libucrt:environment_initialization.obj
 0001:000509fe       ?value@?$dual_state_global@PAPA_W@__crt_state_management@@QAEAAPAPA_WXZ 100519fe f i libucrt:environment_initialization.obj
 0001:00050a01       ___dcrt_get_or_create_narrow_environment_nolock 10051a01 f   libucrt:environment_initialization.obj
 0001:00050a06       ___dcrt_get_or_create_wide_environment_nolock 10051a06 f   libucrt:environment_initialization.obj
 0001:00050a0b       ___dcrt_uninitialize_environments_nolock 10051a0b f   libucrt:environment_initialization.obj
 0001:00050a4f       ___p__environ              10051a4f f   libucrt:environment_initialization.obj
 0001:00050a55       ___p__wenviron             10051a55 f   libucrt:environment_initialization.obj
 0001:00050a5b       __get_initial_narrow_environment 10051a5b f   libucrt:environment_initialization.obj
 0001:00050a74       __get_initial_wide_environment 10051a74 f   libucrt:environment_initialization.obj
 0001:00050a8d       __initialize_narrow_environment 10051a8d f   libucrt:environment_initialization.obj
 0001:00050a92       __initialize_wide_environment 10051a92 f   libucrt:environment_initialization.obj
 0001:00050a97       ??$?BP6AXXZ@__crt_fast_encoded_nullptr_t@@QBEPAP6AXXZXZ 10051a97 f i libucrt:onexit.obj
 0001:00050ab5       ??$?RP6AXXZ@__crt_internal_free_policy@@QBEXQBQ6AXXZ@Z 10051ab5 f i libucrt:onexit.obj
 0001:00050acb       ??$?RV<lambda_800076c951b434888f4765a74a194fcc>@@AAV<lambda_4e60a939b0d047cfe11ddc22648dfba9>@@V<lambda_6dbb1268764f43b569ce7b67e331d33a>@@@?$__crt_seh_guarded_call@H@@QAEH$$QAV<lambda_800076c951b434888f4765a74a194fcc>@@AAV<lambda_4e60a939b0d047cfe11ddc22648dfba9>@@$$QAV<lambda_6dbb1268764f43b569ce7b67e331d33a>@@@Z 10051acb f i libucrt:onexit.obj
 0001:00050b30       ??$?RV<lambda_995298e7d72eb4c2aab26c0585b3abe5>@@AAV<lambda_275893d493268fdec8709772e3fcec0e>@@V<lambda_293819299cbf9a7022e18b56a874bb5c>@@@?$__crt_seh_guarded_call@H@@QAEH$$QAV<lambda_995298e7d72eb4c2aab26c0585b3abe5>@@AAV<lambda_275893d493268fdec8709772e3fcec0e>@@$$QAV<lambda_293819299cbf9a7022e18b56a874bb5c>@@@Z 10051b30 f i libucrt:onexit.obj
 0001:00050b95       ??$__acrt_lock_and_call@V<lambda_275893d493268fdec8709772e3fcec0e>@@@@YAHW4__acrt_lock_id@@$$QAV<lambda_275893d493268fdec8709772e3fcec0e>@@@Z 10051b95 f i libucrt:onexit.obj
 0001:00050bc7       ??$__acrt_lock_and_call@V<lambda_4e60a939b0d047cfe11ddc22648dfba9>@@@@YAHW4__acrt_lock_id@@$$QAV<lambda_4e60a939b0d047cfe11ddc22648dfba9>@@@Z 10051bc7 f i libucrt:onexit.obj
 0001:00050bf9       ??$__crt_fast_encode_pointer@P6AHXZ@@YAP6AHXZQ6AHXZ@Z 10051bf9 f i libucrt:onexit.obj
 0001:00050ca6       ??0?$__crt_unique_heap_ptr@P6AXXZU__crt_internal_free_policy@@@@QAE@QAP6AXXZ@Z 10051ca6 f i libucrt:onexit.obj
 0001:00050cba       ??1?$__crt_unique_heap_ptr@P6AXXZU__crt_internal_free_policy@@@@QAE@XZ 10051cba f i libucrt:onexit.obj
 0001:00050ff5       ?detach@?$__crt_unique_heap_ptr@P6AXXZU__crt_internal_free_policy@@@@QAEPAP6AXXZXZ 10051ff5 f i libucrt:onexit.obj
 0001:00050ffb       ?release@?$__crt_unique_heap_ptr@P6AXXZU__crt_internal_free_policy@@@@QAEXXZ 10051ffb f i libucrt:onexit.obj
 0001:00051011       __crt_at_quick_exit        10052011 f   libucrt:onexit.obj
 0001:0005102c       __crt_atexit               1005202c f   libucrt:onexit.obj
 0001:00051047       __execute_onexit_table     10052047 f   libucrt:onexit.obj
 0001:0005106b       __initialize_onexit_table  1005206b f   libucrt:onexit.obj
 0001:000510b7       __register_onexit_function 100520b7 f   libucrt:onexit.obj
 0001:0005121e       ?initialize@?$dual_state_global@PAU__crt_locale_data@@@__crt_state_management@@QAEXQAU__crt_locale_data@@@Z 1005221e f i libucrt:initialization.obj
 0001:0005125b       ___acrt_initialize         1005225b f   libucrt:initialization.obj
 0001:00051271       ___acrt_thread_attach      10052271 f   libucrt:initialization.obj
 0001:0005127e       ___acrt_thread_detach      1005227e f   libucrt:initialization.obj
 0001:00051288       ___acrt_uninitialize       10052288 f   libucrt:initialization.obj
 0001:0005129e       ___acrt_uninitialize_critical 1005229e f   libucrt:initialization.obj
 0001:000512cf       __get_terminate            100522cf f   libucrt:terminate.obj
 0001:000512e5       _set_terminate             100522e5 f   libucrt:terminate.obj
 0001:0005130d       _terminate                 1005230d f   libucrt:terminate.obj
 0001:00051358       ??$__crt_interlocked_exchange_pointer@X$$T@@YAPAXPDSAX$$T@Z 10052358 f i libucrt:free_base.obj
 0001:00051370       ___acrt_get_msvcrt_heap_handle 10052370 f   libucrt:free_base.obj
 0001:00051401       __free_base                10052401 f   libucrt:free_base.obj
 0001:00051449       __malloc_base              10052449 f   libucrt:malloc_base.obj
 0001:0005151a       _strcpy_s                  1005251a f   libucrt:strcpy_s.obj
 0001:0005158a       __set_abort_behavior       1005258a f   libucrt:abort.obj
 0001:000515b3       _abort                     100525b3 f   libucrt:abort.obj
 0001:00051606       __calloc_base              10052606 f   libucrt:calloc_base.obj
 0001:0005167a       ??$is_overflow_condition@K@__crt_strtox@@YA_NIK@Z 1005267a f i libucrt:atox.obj
 0001:000516b9       ??$is_overflow_condition@_K@__crt_strtox@@YA_NI_K@Z 100526b9 f i libucrt:atox.obj
 0001:0005170c       ??$make_c_string_character_source@D$$T@__crt_strtox@@YA?AV?$c_string_character_source@D@0@QBD$$T@Z 1005270c f i libucrt:atox.obj
 0001:0005172d       ??$make_c_string_character_source@_W$$T@__crt_strtox@@YA?AV?$c_string_character_source@_W@0@QB_W$$T@Z 1005272d f i libucrt:atox.obj
 0001:0005174e       ??$parse_integer@KV?$c_string_character_source@D@__crt_strtox@@@__crt_strtox@@YAKQAU__crt_locale_pointers@@V?$c_string_character_source@D@0@H_N@Z 1005274e f i libucrt:atox.obj
 0001:00051a00       ??$parse_integer@KV?$c_string_character_source@_W@__crt_strtox@@@__crt_strtox@@YAKQAU__crt_locale_pointers@@V?$c_string_character_source@_W@0@H_N@Z 10052a00 f i libucrt:atox.obj
 0001:0005229e       ??$parse_integer@_KV?$c_string_character_source@D@__crt_strtox@@@__crt_strtox@@YA_KQAU__crt_locale_pointers@@V?$c_string_character_source@D@0@H_N@Z 1005329e f i libucrt:atox.obj
 0001:000525ed       ??$parse_integer@_KV?$c_string_character_source@_W@__crt_strtox@@@__crt_strtox@@YA_KQAU__crt_locale_pointers@@V?$c_string_character_source@_W@0@H_N@Z 100535ed f i libucrt:atox.obj
 0001:00052d5f       ??$parse_integer_from_string@JD$$T@__crt_strtox@@YAJQBD$$THQAU__crt_locale_pointers@@@Z 10053d5f f i libucrt:atox.obj
 0001:00052d97       ??$parse_integer_from_string@J_W$$T@__crt_strtox@@YAJQB_W$$THQAU__crt_locale_pointers@@@Z 10053d97 f i libucrt:atox.obj
 0001:00052dcf       ??$parse_integer_from_string@_JD$$T@__crt_strtox@@YA_JQBD$$THQAU__crt_locale_pointers@@@Z 10053dcf f i libucrt:atox.obj
 0001:00052e07       ??$parse_integer_from_string@_J_W$$T@__crt_strtox@@YA_JQB_W$$THQAU__crt_locale_pointers@@@Z 10053e07 f i libucrt:atox.obj
 0001:00052e3f       ??0?$c_string_character_source@D@__crt_strtox@@QAE@QBDQAPBD@Z 10053e3f f i libucrt:atox.obj
 0001:00052e62       ??0?$c_string_character_source@_W@__crt_strtox@@QAE@QB_WQAPB_W@Z 10053e62 f i libucrt:atox.obj
 0001:00052e85       ??1?$c_string_character_source@D@__crt_strtox@@QAE@XZ 10053e85 f i libucrt:atox.obj
 0001:00052e94       ??1?$c_string_character_source@_W@__crt_strtox@@QAE@XZ 10053e94 f i libucrt:atox.obj
 0001:00052ea3       ?get@?$c_string_character_source@D@__crt_strtox@@QAEDXZ 10053ea3 f i libucrt:atox.obj
 0001:00052ead       ?get@?$c_string_character_source@_W@__crt_strtox@@QAE_WXZ 10053ead f i libucrt:atox.obj
 0001:00052eba       ?is_space@__crt_strtox@@YA_NDQAU__crt_locale_pointers@@@Z 10053eba f i libucrt:atox.obj
 0001:00052ee0       ?is_space@__crt_strtox@@YA_N_WPAU__crt_locale_pointers@@@Z 10053ee0 f i libucrt:atox.obj
 0001:00052eff       ?maximum_signed_value@__crt_strtox@@YAJK@Z 10053eff f i libucrt:atox.obj
 0001:00052f05       ?maximum_signed_value@__crt_strtox@@YA_J_K@Z 10053f05 f i libucrt:atox.obj
 0001:00052f10       ?minimum_signed_value@__crt_strtox@@YAJK@Z 10053f10 f i libucrt:atox.obj
 0001:00052f16       ?minimum_signed_value@__crt_strtox@@YA_J_K@Z 10053f16 f i libucrt:atox.obj
 0001:00052f20       ?parse_digit@__crt_strtox@@YAID@Z 10053f20 f i libucrt:atox.obj
 0001:00052f68       ?parse_digit@__crt_strtox@@YAI_W@Z 10053f68 f i libucrt:atox.obj
 0001:000531c5       ?restore_state@?$c_string_character_source@D@__crt_strtox@@QAE_NQBD@Z 100541c5 f i libucrt:atox.obj
 0001:000531d9       ?restore_state@?$c_string_character_source@_W@__crt_strtox@@QAE_NQB_W@Z 100541d9 f i libucrt:atox.obj
 0001:000531ed       ?save_state@?$c_string_character_source@D@__crt_strtox@@QBEPBDXZ 100541ed f i libucrt:atox.obj
 0001:000531f0       ?save_state@?$c_string_character_source@_W@__crt_strtox@@QBEPB_WXZ 100541f0 f i libucrt:atox.obj
 0001:000531f3       ?unget@?$c_string_character_source@D@__crt_strtox@@QAEXD@Z 100541f3 f i libucrt:atox.obj
 0001:00053225       ?unget@?$c_string_character_source@_W@__crt_strtox@@QAEX_W@Z 10054225 f i libucrt:atox.obj
 0001:0005325c       ?validate@?$c_string_character_source@D@__crt_strtox@@QBE_NXZ 1005425c f i libucrt:atox.obj
 0001:0005327d       ?validate@?$c_string_character_source@_W@__crt_strtox@@QBE_NXZ 1005427d f i libucrt:atox.obj
 0001:0005329e       ?wide_character_to_digit@__crt_strtox@@YAH_W@Z 1005429e f i libucrt:atox.obj
 0001:000534a7       ___acrt_get_locale_data_prefix 100544a7 f i libucrt:atox.obj
 0001:000534b6       __atoi64                   100544b6 f   libucrt:atox.obj
 0001:000534ea       __atoi64_l                 100544ea f   libucrt:atox.obj
 0001:0005351f       __atoi_l                   1005451f f   libucrt:atox.obj
 0001:00053554       __atol_l                   10054554 f   libucrt:atox.obj
 0001:00053589       __atoll_l                  10054589 f   libucrt:atox.obj
 0001:000535be       __chvalidchk_l             100545be f i libucrt:atox.obj
 0001:000535f2       __ischartype_l             100545f2 f i libucrt:atox.obj
 0001:00053631       __wtoi                     10054631 f   libucrt:atox.obj
 0001:00053665       __wtoi64                   10054665 f   libucrt:atox.obj
 0001:00053699       __wtoi64_l                 10054699 f   libucrt:atox.obj
 0001:000536ce       __wtoi_l                   100546ce f   libucrt:atox.obj
 0001:00053703       __wtol                     10054703 f   libucrt:atox.obj
 0001:00053737       __wtol_l                   10054737 f   libucrt:atox.obj
 0001:0005376c       __wtoll                    1005476c f   libucrt:atox.obj
 0001:000537a0       __wtoll_l                  100547a0 f   libucrt:atox.obj
 0001:000537d5       _atoi                      100547d5 f   libucrt:atox.obj
 0001:00053809       _atol                      10054809 f   libucrt:atox.obj
 0001:0005383d       _atoll                     1005483d f   libucrt:atox.obj
 0001:00053871       ??$__crt_fast_decode_pointer@P6AXPB_W00II@Z@@YAP6AXPB_W00II@ZQ6AX000II@Z@Z 10054871 f i libucrt:invalid_parameter.obj
 0001:0005388c       ??$__crt_fast_encode_pointer@P6AXPB_W00II@Z@@YAP6AXPB_W00II@ZQ6AX000II@Z@Z 1005488c f i libucrt:invalid_parameter.obj
 0001:000538b2       ?initialize@?$dual_state_global@P6AXPB_W00II@Z@__crt_state_management@@QAEXQ6AXPB_W00II@Z@Z 100548b2 f i libucrt:invalid_parameter.obj
 0001:000538ef       ?value@?$dual_state_global@P6AXPB_W00II@Z@__crt_state_management@@QAEAAP6AXPB_W00II@ZXZ 100548ef f i libucrt:invalid_parameter.obj
 0001:000538f2       ___acrt_call_reportfault   100548f2 f   libucrt:invalid_parameter.obj
 0001:00053a7b       ___acrt_initialize_invalid_parameter_handler 10054a7b f   libucrt:invalid_parameter.obj
 0001:00053a94       __get_invalid_parameter_handler 10054a94 f   libucrt:invalid_parameter.obj
 0001:00053aab       __get_thread_local_invalid_parameter_handler 10054aab f   libucrt:invalid_parameter.obj
 0001:00053ac0       __invalid_parameter        10054ac0 f   libucrt:invalid_parameter.obj
 0001:00053b59       __invalid_parameter_noinfo 10054b59 f   libucrt:invalid_parameter.obj
 0001:00053b6d       __invalid_parameter_noinfo_noreturn 10054b6d f   libucrt:invalid_parameter.obj
 0001:00053b91       __invoke_watson            10054b91 f   libucrt:invalid_parameter.obj
 0001:00053bd0       __set_invalid_parameter_handler 10054bd0 f   libucrt:invalid_parameter.obj
 0001:00053c0c       __set_thread_local_invalid_parameter_handler 10054c0c f   libucrt:invalid_parameter.obj
 0001:00053c30       ___acrt_errno_from_os_error 10054c30 f   libucrt:errno.obj
 0001:00053c83       ___acrt_errno_map_os_error 10054c83 f   libucrt:errno.obj
 0001:00053cae       ___doserrno                10054cae f   libucrt:errno.obj
 0001:00053cc5       __errno                    10054cc5 f   libucrt:errno.obj
 0001:00053cdc       __get_doserrno             10054cdc f   libucrt:errno.obj
 0001:00053d0a       __get_errno                10054d0a f   libucrt:errno.obj
 0001:00053d38       __set_doserrno             10054d38 f   libucrt:errno.obj
 0001:00053d61       __set_errno                10054d61 f   libucrt:errno.obj
 0001:00053de1       ??$?B$$A6GHPA_WKJ@Z@__crt_fast_encoded_nullptr_t@@QBEP6GHPA_WKJ@ZXZ 10054de1 f i libucrt:winapi_thunks.obj
 0001:00053dff       ??$?RV<lambda_9227be29367c048ad7fd93a717dcb1a1>@@AAV<lambda_a463b7b0560cfcaf9b17f27c6ef46564>@@V<lambda_ccea11b5727ccf69be64f5f5d9a08d9f>@@@?$__crt_seh_guarded_call@H@@QAEH$$QAV<lambda_9227be29367c048ad7fd93a717dcb1a1>@@AAV<lambda_a463b7b0560cfcaf9b17f27c6ef46564>@@$$QAV<lambda_ccea11b5727ccf69be64f5f5d9a08d9f>@@@Z 10054dff f i libucrt:winapi_thunks.obj
 0001:00053ea4       ??$__acrt_lock_and_call@V<lambda_a463b7b0560cfcaf9b17f27c6ef46564>@@@@YAHW4__acrt_lock_id@@$$QAV<lambda_a463b7b0560cfcaf9b17f27c6ef46564>@@@Z 10054ea4 f i libucrt:winapi_thunks.obj
 0001:00053ed6       ??$__crt_fast_decode_pointer@P6GHPA_WKJ@Z@@YAP6GHPA_WKJ@ZQ6GH0KJ@Z@Z 10054ed6 f i libucrt:winapi_thunks.obj
 0001:00053ef1       ??$__crt_fast_encode_pointer@P6GHPA_WKJ@Z@@YAP6GHPA_WKJ@ZQ6GH0KJ@Z@Z 10054ef1 f i libucrt:winapi_thunks.obj
 0001:0005461e       ___acrt_AreFileApisANSI@0  1005561e f   libucrt:winapi_thunks.obj
 0001:0005467f       ___acrt_CompareStringEx@36 1005567f f   libucrt:winapi_thunks.obj
 0001:00054710       ___acrt_EnumSystemLocalesEx@16 10055710 f   libucrt:winapi_thunks.obj
 0001:00054798       ___acrt_FlsAlloc@4         10055798 f   libucrt:winapi_thunks.obj
 0001:00054803       ___acrt_FlsFree@4          10055803 f   libucrt:winapi_thunks.obj
 0001:0005486e       ___acrt_FlsGetValue@4      1005586e f   libucrt:winapi_thunks.obj
 0001:000548d9       ___acrt_FlsSetValue@8      100558d9 f   libucrt:winapi_thunks.obj
 0001:00054948       ___acrt_GetDateFormatEx@28 10055948 f   libucrt:winapi_thunks.obj
 0001:000549ea       ___acrt_GetEnabledXStateFeatures@0 100559ea f   libucrt:winapi_thunks.obj
 0001:00054a4c       ___acrt_GetFileInformationByHandleEx@16 10055a4c f   libucrt:winapi_thunks.obj
 0001:00054ac7       ___acrt_GetLocaleInfoEx@16 10055ac7 f   libucrt:winapi_thunks.obj
 0001:00054b4b       ___acrt_GetSystemTimePreciseAsFileTime@4 10055b4b f   libucrt:winapi_thunks.obj
 0001:00054bb6       ___acrt_GetTimeFormatEx@24 10055bb6 f   libucrt:winapi_thunks.obj
 0001:00054c42       ___acrt_GetUserDefaultLocaleName@8 10055c42 f   libucrt:winapi_thunks.obj
 0001:00054cc2       ___acrt_GetXStateFeaturesMask@8 10055cc2 f   libucrt:winapi_thunks.obj
 0001:00054d2e       ___acrt_InitializeCriticalSectionEx@12 10055d2e f   libucrt:winapi_thunks.obj
 0001:00054da8       ___acrt_IsValidLocaleName@4 10055da8 f   libucrt:winapi_thunks.obj
 0001:00054e23       ___acrt_LCIDToLocaleName@16 10055e23 f   libucrt:winapi_thunks.obj
 0001:00054ea7       ___acrt_LCMapStringEx@36   10055ea7 f   libucrt:winapi_thunks.obj
 0001:00054f51       ___acrt_LocaleNameToLCID@8 10055f51 f   libucrt:winapi_thunks.obj
 0001:00054fc4       ___acrt_LocateXStateFeature@12 10055fc4 f   libucrt:winapi_thunks.obj
 0001:0005501b       ___acrt_MessageBoxA@16     1005601b f   libucrt:winapi_thunks.obj
 0001:00055076       ___acrt_MessageBoxW@16     10056076 f   libucrt:winapi_thunks.obj
 0001:000550d1       ___acrt_RoInitialize@4     100560d1 f   libucrt:winapi_thunks.obj
 0001:00055137       ___acrt_RoUninitialize@0   10056137 f   libucrt:winapi_thunks.obj
 0001:00055192       ___acrt_RtlGenRandom@8     10056192 f   libucrt:winapi_thunks.obj
 0001:000551fe       ___acrt_SetThreadStackGuarantee@4 100561fe f   libucrt:winapi_thunks.obj
 0001:00055264       ___acrt_can_show_message_box 10056264 f   libucrt:winapi_thunks.obj
 0001:00055283       ___acrt_can_use_vista_locale_apis 10056283 f   libucrt:winapi_thunks.obj
 0001:00055292       ___acrt_can_use_xstate_apis 10056292 f   libucrt:winapi_thunks.obj
 0001:000552a1       ___acrt_get_parent_window  100562a1 f   libucrt:winapi_thunks.obj
 0001:0005533f       ___acrt_initialize_winapi_thunks 1005633f f   libucrt:winapi_thunks.obj
 0001:0005536e       ___acrt_is_interactive     1005636e f   libucrt:winapi_thunks.obj
 0001:0005543d       ___acrt_is_packaged_app    1005643d f   libucrt:winapi_thunks.obj
 0001:000554e5       ___acrt_uninitialize_winapi_thunks 100564e5 f   libucrt:winapi_thunks.obj
 0001:00055528       ??0__crt_stdio_stream@@QAE@QAU__crt_stdio_stream_data@@@Z 10056528 f i libucrt:closeall.obj
 0001:0005553c       __fcloseall                1005653c f   libucrt:closeall.obj
 0001:00055604       ___acrt_stdio_flush_nolock 10056604 f   libucrt:fflush.obj
 0001:00055683       __fflush_nolock            10056683 f   libucrt:fflush.obj
 0001:000556db       __flushall                 100566db f   libucrt:fflush.obj
 0001:000557f4       _fflush                    100567f4 f   libucrt:fflush.obj
 0001:00055863       ?has_crt_buffer@__crt_stdio_stream@@QBE_NXZ 10056863 f i libucrt:_freebuf.obj
 0001:00055872       ___acrt_stdio_free_buffer_nolock 10056872 f   libucrt:_freebuf.obj
 0001:00055aaf       ___acrt_initialize_lowio   10056aaf f   libucrt:ioinit.obj
 0001:00055b1a       ___acrt_uninitialize_lowio 10056b1a f   libucrt:ioinit.obj
 0001:00055b6c       ___isascii                 10056b6c f i libucrt:_ctype.obj
 0001:00055b82       ___iscsym                  10056b82 f i libucrt:_ctype.obj
 0001:00055bac       ___iscsymf                 10056bac f i libucrt:_ctype.obj
 0001:00055bd2       ___toascii                 10056bd2 f i libucrt:_ctype.obj
 0001:00055be2       __isalnum_l                10056be2 f i libucrt:_ctype.obj
 0001:00055c2b       __isalpha_l                10056c2b f i libucrt:_ctype.obj
 0001:00055c74       __isblank_l                10056c74 f i libucrt:_ctype.obj
 0001:00055cc7       __iscntrl_l                10056cc7 f i libucrt:_ctype.obj
 0001:00055d0d       __iscsym_l                 10056d0d f i libucrt:_ctype.obj
 0001:00055d38       __iscsymf_l                10056d38 f i libucrt:_ctype.obj
 0001:00055d63       __isdigit_l                10056d63 f i libucrt:_ctype.obj
 0001:00055da9       __isgraph_l                10056da9 f i libucrt:_ctype.obj
 0001:00055df2       __islower_l                10056df2 f i libucrt:_ctype.obj
 0001:00055e38       __isprint_l                10056e38 f i libucrt:_ctype.obj
 0001:00055e81       __ispunct_l                10056e81 f i libucrt:_ctype.obj
 0001:00055ec7       __isspace_l                10056ec7 f i libucrt:_ctype.obj
 0001:00055f0d       __isupper_l                10056f0d f i libucrt:_ctype.obj
 0001:00055f53       __isxdigit_l               10056f53 f i libucrt:_ctype.obj
 0001:00055f9c       _isalnum                   10056f9c f i libucrt:_ctype.obj
 0001:00055fd6       _isalpha                   10056fd6 f i libucrt:_ctype.obj
 0001:00056010       _isblank                   10057010 f i libucrt:_ctype.obj
 0001:00056054       _iscntrl                   10057054 f i libucrt:_ctype.obj
 0001:0005608c       _isdigit                   1005708c f i libucrt:_ctype.obj
 0001:000560c4       _isgraph                   100570c4 f i libucrt:_ctype.obj
 0001:000560fe       _islower                   100570fe f i libucrt:_ctype.obj
 0001:00056136       _isprint                   10057136 f i libucrt:_ctype.obj
 0001:00056170       _ispunct                   10057170 f i libucrt:_ctype.obj
 0001:000561a8       _isspace                   100571a8 f i libucrt:_ctype.obj
 0001:000561e0       _isupper                   100571e0 f i libucrt:_ctype.obj
 0001:00056218       _isxdigit                  10057218 f i libucrt:_ctype.obj
 0001:00056610       __tolower                  10057610 f   libucrt:tolower_toupper.obj
 0001:00056620       __tolower_l                10057620 f   libucrt:tolower_toupper.obj
 0001:00056640       __toupper                  10057640 f   libucrt:tolower_toupper.obj
 0001:00056650       __toupper_l                10057650 f   libucrt:tolower_toupper.obj
 0001:00056670       _tolower                   10057670 f   libucrt:tolower_toupper.obj
 0001:000566ac       _toupper                   100576ac f   libucrt:tolower_toupper.obj
 0001:000566e8       ??$make_c_string_character_source@DPAPAD@__crt_strtox@@YA?AV?$c_string_character_source@D@0@QBDQAPAD@Z 100576e8 f i libucrt:strtox.obj
 0001:00056709       ??$make_c_string_character_source@_WPAPA_W@__crt_strtox@@YA?AV?$c_string_character_source@_W@0@QB_WQAPA_W@Z 10057709 f i libucrt:strtox.obj
 0001:0005672a       ??$parse_integer_from_string@JDPAPAD@__crt_strtox@@YAJQBDQAPADHQAU__crt_locale_pointers@@@Z 1005772a f i libucrt:strtox.obj
 0001:00056762       ??$parse_integer_from_string@J_WPAPA_W@__crt_strtox@@YAJQB_WQAPA_WHQAU__crt_locale_pointers@@@Z 10057762 f i libucrt:strtox.obj
 0001:0005679a       ??$parse_integer_from_string@KDPAPAD@__crt_strtox@@YAKQBDQAPADHQAU__crt_locale_pointers@@@Z 1005779a f i libucrt:strtox.obj
 0001:000567d2       ??$parse_integer_from_string@K_WPAPA_W@__crt_strtox@@YAKQB_WQAPA_WHQAU__crt_locale_pointers@@@Z 100577d2 f i libucrt:strtox.obj
 0001:0005680a       ??$parse_integer_from_string@_JDPAPAD@__crt_strtox@@YA_JQBDQAPADHQAU__crt_locale_pointers@@@Z 1005780a f i libucrt:strtox.obj
 0001:00056842       ??$parse_integer_from_string@_J_WPAPA_W@__crt_strtox@@YA_JQB_WQAPA_WHQAU__crt_locale_pointers@@@Z 10057842 f i libucrt:strtox.obj
 0001:0005687a       ??$parse_integer_from_string@_KDPAPAD@__crt_strtox@@YA_KQBDQAPADHQAU__crt_locale_pointers@@@Z 1005787a f i libucrt:strtox.obj
 0001:000568b2       ??$parse_integer_from_string@_K_WPAPA_W@__crt_strtox@@YA_KQB_WQAPA_WHQAU__crt_locale_pointers@@@Z 100578b2 f i libucrt:strtox.obj
 0001:000568ea       __strtoi64                 100578ea f   libucrt:strtox.obj
 0001:00056921       __strtoi64_l               10057921 f   libucrt:strtox.obj
 0001:00056959       __strtoimax_l              10057959 f   libucrt:strtox.obj
 0001:00056991       __strtol_l                 10057991 f   libucrt:strtox.obj
 0001:000569c9       __strtoll_l                100579c9 f   libucrt:strtox.obj
 0001:00056a01       __strtoui64                10057a01 f   libucrt:strtox.obj
 0001:00056a38       __strtoui64_l              10057a38 f   libucrt:strtox.obj
 0001:00056a70       __strtoul_l                10057a70 f   libucrt:strtox.obj
 0001:00056aa8       __strtoull_l               10057aa8 f   libucrt:strtox.obj
 0001:00056ae0       __strtoumax_l              10057ae0 f   libucrt:strtox.obj
 0001:00056b18       __wcstoi64                 10057b18 f   libucrt:strtox.obj
 0001:00056b4f       __wcstoi64_l               10057b4f f   libucrt:strtox.obj
 0001:00056b87       __wcstoimax_l              10057b87 f   libucrt:strtox.obj
 0001:00056bbf       __wcstol_l                 10057bbf f   libucrt:strtox.obj
 0001:00056bf7       __wcstoll_l                10057bf7 f   libucrt:strtox.obj
 0001:00056c2f       __wcstoui64                10057c2f f   libucrt:strtox.obj
 0001:00056c66       __wcstoui64_l              10057c66 f   libucrt:strtox.obj
 0001:00056c9e       __wcstoul_l                10057c9e f   libucrt:strtox.obj
 0001:00056cd6       __wcstoull_l               10057cd6 f   libucrt:strtox.obj
 0001:00056d0e       __wcstoumax_l              10057d0e f   libucrt:strtox.obj
 0001:00056d46       _strtoimax                 10057d46 f   libucrt:strtox.obj
 0001:00056d7d       _strtol                    10057d7d f   libucrt:strtox.obj
 0001:00056db4       _strtoll                   10057db4 f   libucrt:strtox.obj
 0001:00056deb       _strtoul                   10057deb f   libucrt:strtox.obj
 0001:00056e22       _strtoull                  10057e22 f   libucrt:strtox.obj
 0001:00056e59       _strtoumax                 10057e59 f   libucrt:strtox.obj
 0001:00056e90       _wcstoimax                 10057e90 f   libucrt:strtox.obj
 0001:00056ec7       _wcstol                    10057ec7 f   libucrt:strtox.obj
 0001:00056efe       _wcstoll                   10057efe f   libucrt:strtox.obj
 0001:00056f35       _wcstoul                   10057f35 f   libucrt:strtox.obj
 0001:00056f6c       _wcstoull                  10057f6c f   libucrt:strtox.obj
 0001:00056fa3       _wcstoumax                 10057fa3 f   libucrt:strtox.obj
 0001:00056fda       __mbtowc_l                 10057fda f   libucrt:mbtowc.obj
 0001:00057112       _mbtowc                    10058112 f   libucrt:mbtowc.obj
 0001:00057132       __wctomb_l                 10058132 f   libucrt:wctomb.obj
 0001:00057199       __wctomb_s_l               10058199 f   libucrt:wctomb.obj
 0001:00057302       _wctomb                    10058302 f   libucrt:wctomb.obj
 0001:00057343       _wctomb_s                  10058343 f   libucrt:wctomb.obj
 0001:00057a5b       ??1?$__crt_simd_cleanup_guard@$00@@QAE@XZ 10058a5b f i libucrt:strnlen.obj
 0001:00057a5f       ??1?$__crt_simd_cleanup_guard@$0A@@@QAE@XZ 10058a5f f i libucrt:strnlen.obj
 0001:00057a60       ?compare_equals@?$__crt_simd_traits@$00E@@SA?AT__m256i@@T2@0@Z 10058a60 f i libucrt:strnlen.obj
 0001:00057a65       ?compare_equals@?$__crt_simd_traits@$00G@@SA?AT__m256i@@T2@0@Z 10058a65 f i libucrt:strnlen.obj
 0001:00057a6a       ?compare_equals@?$__crt_simd_traits@$0A@E@@SA?AT__m128i@@T2@0@Z 10058a6a f i libucrt:strnlen.obj
 0001:00057a6f       ?compare_equals@?$__crt_simd_traits@$0A@G@@SA?AT__m128i@@T2@0@Z 10058a6f f i libucrt:strnlen.obj
 0001:00057a74       ?compute_byte_mask@?$__crt_simd_pack_traits@$00@@SAHT__m256i@@@Z 10058a74 f i libucrt:strnlen.obj
 0001:00057a79       ?compute_byte_mask@?$__crt_simd_pack_traits@$0A@@@SAHT__m128i@@@Z 10058a79 f i libucrt:strnlen.obj
 0001:00057a7e       ?get_zero_pack@?$__crt_simd_pack_traits@$00@@SA?AT__m256i@@XZ 10058a7e f i libucrt:strnlen.obj
 0001:00057a83       ?get_zero_pack@?$__crt_simd_pack_traits@$0A@@@SA?AT__m128i@@XZ 10058a83 f i libucrt:strnlen.obj
 0001:00057a88       _strnlen                   10058a88 f   libucrt:strnlen.obj
 0001:00057bf8       _wcsnlen                   10058bf8 f   libucrt:strnlen.obj
 0001:00057e1c       ??$?RU__acrt_ptd@@@__crt_internal_free_policy@@QBEXQBU__acrt_ptd@@@Z 10058e1c f i libucrt:per_thread_data.obj
 0001:00057e32       ??$?RV<lambda_3518db117f0e7cdb002338c5d3c47b6c>@@AAV<lambda_b2ea41f6bbb362cd97d94c6828d90b61>@@V<lambda_abdedf541bb04549bc734292b4a045d4>@@@?$__crt_seh_guarded_call@X@@QAEX$$QAV<lambda_3518db117f0e7cdb002338c5d3c47b6c>@@AAV<lambda_b2ea41f6bbb362cd97d94c6828d90b61>@@$$QAV<lambda_abdedf541bb04549bc734292b4a045d4>@@@Z 10058e32 f i libucrt:per_thread_data.obj
 0001:00057e96       ??$?RV<lambda_51b6e8b1eb166f2a3faf91f424b38130>@@AAV<lambda_6250bd4b2a391816dd638c3bf72b0bcb>@@V<lambda_0b5a4a3e68152e1d9b943535f5f47bed>@@@?$__crt_seh_guarded_call@X@@QAEX$$QAV<lambda_51b6e8b1eb166f2a3faf91f424b38130>@@AAV<lambda_6250bd4b2a391816dd638c3bf72b0bcb>@@$$QAV<lambda_0b5a4a3e68152e1d9b943535f5f47bed>@@@Z 10058e96 f i libucrt:per_thread_data.obj
 0001:00057f0f       ??$?RV<lambda_5b71d36f03204c0beab531769a5b5694>@@AAV<lambda_be2b3da3f62db62e9dad5dc70221a656>@@V<lambda_8f9ce462984622f9bf76b59e2aaaf805>@@@?$__crt_seh_guarded_call@X@@QAEX$$QAV<lambda_5b71d36f03204c0beab531769a5b5694>@@AAV<lambda_be2b3da3f62db62e9dad5dc70221a656>@@$$QAV<lambda_8f9ce462984622f9bf76b59e2aaaf805>@@@Z 10058f0f f i libucrt:per_thread_data.obj
 0001:00057f6c       ??$?RV<lambda_9df27f884b057bc3edfc946cb5b7cf47>@@AAV<lambda_e69574bed617af4e071282c136b37893>@@V<lambda_cc0d902bcbbeb830f749456577db4721>@@@?$__crt_seh_guarded_call@X@@QAEX$$QAV<lambda_9df27f884b057bc3edfc946cb5b7cf47>@@AAV<lambda_e69574bed617af4e071282c136b37893>@@$$QAV<lambda_cc0d902bcbbeb830f749456577db4721>@@@Z 10058f6c f i libucrt:per_thread_data.obj
 0001:00057fc6       ??$__acrt_lock_and_call@V<lambda_6250bd4b2a391816dd638c3bf72b0bcb>@@@@YAXW4__acrt_lock_id@@$$QAV<lambda_6250bd4b2a391816dd638c3bf72b0bcb>@@@Z 10058fc6 f i libucrt:per_thread_data.obj
 0001:00057ff8       ??$__acrt_lock_and_call@V<lambda_b2ea41f6bbb362cd97d94c6828d90b61>@@@@YAXW4__acrt_lock_id@@$$QAV<lambda_b2ea41f6bbb362cd97d94c6828d90b61>@@@Z 10058ff8 f i libucrt:per_thread_data.obj
 0001:0005802a       ??$__acrt_lock_and_call@V<lambda_be2b3da3f62db62e9dad5dc70221a656>@@@@YAXW4__acrt_lock_id@@$$QAV<lambda_be2b3da3f62db62e9dad5dc70221a656>@@@Z 1005902a f i libucrt:per_thread_data.obj
 0001:0005805c       ??$__acrt_lock_and_call@V<lambda_e69574bed617af4e071282c136b37893>@@@@YAXW4__acrt_lock_id@@$$QAV<lambda_e69574bed617af4e071282c136b37893>@@@Z 1005905c f i libucrt:per_thread_data.obj
 0001:00058195       ??0?$__crt_unique_heap_ptr@U__acrt_ptd@@U__crt_internal_free_policy@@@@QAE@QAU__acrt_ptd@@@Z 10059195 f i libucrt:per_thread_data.obj
 0001:000581a9       ??0__crt_scoped_get_last_error_reset@@QAE@XZ 100591a9 f i libucrt:per_thread_data.obj
 0001:000581be       ??1?$__crt_unique_heap_ptr@U__acrt_ptd@@U__crt_internal_free_policy@@@@QAE@XZ 100591be f i libucrt:per_thread_data.obj
 0001:000581d4       ??1__crt_scoped_get_last_error_reset@@QAE@XZ 100591d4 f i libucrt:per_thread_data.obj
 0001:000581df       ??B?$__crt_unique_heap_ptr@U__acrt_ptd@@U__crt_internal_free_policy@@@@QBE_NXZ 100591df f i libucrt:per_thread_data.obj
 0001:00058355       ?dangerous_get_state_array@?$dual_state_global@PAU__crt_locale_data@@@__crt_state_management@@QAEPAPAU__crt_locale_data@@XZ 10059355 f i libucrt:per_thread_data.obj
 0001:00058459       ?detach@?$__crt_unique_heap_ptr@U__acrt_ptd@@U__crt_internal_free_policy@@@@QAEPAU__acrt_ptd@@XZ 10059459 f i libucrt:per_thread_data.obj
 0001:0005845f       ?get@?$__crt_unique_heap_ptr@U__acrt_ptd@@U__crt_internal_free_policy@@@@QBEPAU__acrt_ptd@@XZ 1005945f f i libucrt:per_thread_data.obj
 0001:0005856e       ?is_valid@?$__crt_unique_heap_ptr@U__acrt_ptd@@U__crt_internal_free_policy@@@@QBE_NXZ 1005956e f i libucrt:per_thread_data.obj
 0001:00058578       ?release@?$__crt_unique_heap_ptr@U__acrt_ptd@@U__crt_internal_free_policy@@@@QAEXXZ 10059578 f i libucrt:per_thread_data.obj
 0001:00058604       ?value@?$dual_state_global@PAU__crt_locale_data@@@__crt_state_management@@QAEAAPAU__crt_locale_data@@XZ 10059604 f i libucrt:per_thread_data.obj
 0001:00058607       ___acrt_freeptd            10059607 f   libucrt:per_thread_data.obj
 0001:0005863e       ___acrt_getptd             1005963e f   libucrt:per_thread_data.obj
 0001:000586e3       ___acrt_getptd_noexit      100596e3 f   libucrt:per_thread_data.obj
 0001:00058789       ___acrt_initialize_ptd     10059789 f   libucrt:per_thread_data.obj
 0001:000587c0       ___acrt_uninitialize_ptd   100597c0 f   libucrt:per_thread_data.obj
 0001:000587e0       ___threadhandle            100597e0 f   libucrt:per_thread_data.obj
 0001:000587e6       ___threadid                100597e6 f   libucrt:per_thread_data.obj
 0001:000587ec       ___acrt_update_locale_info 100597ec f   libucrt:locale_update.obj
 0001:00058824       ___acrt_update_multibyte_info 10059824 f   libucrt:locale_update.obj
 0001:0005885c       ?__acrt_fp_classify@@YA?AW4__acrt_fp_class@@ABN@Z 1005985c f i libucrt:cvt.obj
 0001:000588e3       ?__acrt_fp_is_negative@@YA_NABN@Z 100598e3 f i libucrt:cvt.obj
 0001:00059356       ?strrchr@@YAPADQADH@Z      1005a356 f i libucrt:cvt.obj
 0001:00059363       ___acrt_fp_format          1005a363 f   libucrt:cvt.obj
 0001:0005953d       __fputwc_nolock            1005a53d f   libucrt:fputwc.obj
 0001:000596ac       __fputwchar                1005a6ac f   libucrt:fputwc.obj
 0001:000596cc       __putwc_nolock             1005a6cc f   libucrt:fputwc.obj
 0001:000596d9       _fputwc                    1005a6d9 f   libucrt:fputwc.obj
 0001:00059772       _putwc                     1005a772 f   libucrt:fputwc.obj
 0001:0005977f       _putwchar                  1005a77f f   libucrt:fputwc.obj
 0001:0005978c       ?lowio_handle@__crt_stdio_stream@@QBEHXZ 1005a78c f i libucrt:fileno.obj
 0001:00059792       __fileno                   1005a792 f   libucrt:fileno.obj
 0001:000597c1       __fputc_nolock             1005a7c1 f   libucrt:fputc.obj
 0001:000597f4       __fputchar                 1005a7f4 f   libucrt:fputc.obj
 0001:00059814       __putc_nolock              1005a814 f   libucrt:fputc.obj
 0001:00059821       _fputc                     1005a821 f   libucrt:fputc.obj
 0001:00059966       _putc                      1005a966 f   libucrt:fputc.obj
 0001:00059973       _putchar                   1005a973 f   libucrt:fputc.obj
 0001:00059980       __get_printf_count_output  1005a980 f   libucrt:printf_count_output.obj
 0001:0005999a       __set_printf_count_output  1005a99a f   libucrt:printf_count_output.obj
 0001:000599ce       ?has_temporary_buffer@__crt_stdio_stream@@QBE_NXZ 1005a9ce f i libucrt:_sftbuf.obj
 0001:000599dd       ___acrt_stdio_begin_temporary_buffering_nolock 1005a9dd f   libucrt:_sftbuf.obj
 0001:00059abf       ___acrt_stdio_end_temporary_buffering_nolock 1005aabf f   libucrt:_sftbuf.obj
 0001:00059b09       ??$?RU__crt_locale_data@@@__crt_internal_free_policy@@QBEXQBU__crt_locale_data@@@Z 1005ab09 f i libucrt:wsetlocale.obj
 0001:00059b1f       ??$?RU__crt_locale_pointers@@@__crt_internal_free_policy@@QBEXQBU__crt_locale_pointers@@@Z 1005ab1f f i libucrt:wsetlocale.obj
 0001:00059b35       ??$?RU__crt_multibyte_data@@@__crt_internal_free_policy@@QBEXQBU__crt_multibyte_data@@@Z 1005ab35 f i libucrt:wsetlocale.obj
 0001:00059b4b       ??$?RV<lambda_70818de7b02deff9841e8b0962a60ed9>@@AAV<lambda_2af78c5f5901b1372d98f9ab3177dfa6>@@AAV<lambda_f51fe5fd7c79a33db34fc9310f277369>@@@?$__crt_seh_guarded_call@X@@QAEX$$QAV<lambda_70818de7b02deff9841e8b0962a60ed9>@@AAV<lambda_2af78c5f5901b1372d98f9ab3177dfa6>@@AAV<lambda_f51fe5fd7c79a33db34fc9310f277369>@@@Z 1005ab4b f i libucrt:wsetlocale.obj
 0001:00059b94       ??$?RV<lambda_76aaead6e312921abc834cb00a638bdd>@@AAV<lambda_176e34f99554166dd2fac165c457248c>@@V<lambda_998ee1c9f4290b119b936bcd6215875a>@@@?$__crt_seh_guarded_call@X@@QAEX$$QAV<lambda_76aaead6e312921abc834cb00a638bdd>@@AAV<lambda_176e34f99554166dd2fac165c457248c>@@$$QAV<lambda_998ee1c9f4290b119b936bcd6215875a>@@@Z 1005ab94 f i libucrt:wsetlocale.obj
 0001:00059bf0       ??$?RV<lambda_c76fdea48760d5f9368b465f31df4405>@@AAV<lambda_e378711a6f6581bf7f0efd7cdf97f5d9>@@V<lambda_e927a58b2a85c081d733e8c6192ae2d2>@@@?$__crt_seh_guarded_call@X@@QAEX$$QAV<lambda_c76fdea48760d5f9368b465f31df4405>@@AAV<lambda_e378711a6f6581bf7f0efd7cdf97f5d9>@@$$QAV<lambda_e927a58b2a85c081d733e8c6192ae2d2>@@@Z 1005abf0 f i libucrt:wsetlocale.obj
 0001:00059c43       ??$?RV<lambda_c9469061b39d205f0f236529d4a41659>@@AAV<lambda_b7fb1a997d3ebc0cc0186c5835178808>@@V<lambda_14b92c79d699846b5cc916cd4cf280e4>@@@?$__crt_seh_guarded_call@X@@QAEX$$QAV<lambda_c9469061b39d205f0f236529d4a41659>@@AAV<lambda_b7fb1a997d3ebc0cc0186c5835178808>@@$$QAV<lambda_14b92c79d699846b5cc916cd4cf280e4>@@@Z 1005ac43 f i libucrt:wsetlocale.obj
 0001:00059c9d       ??$__acrt_lock_and_call@V<lambda_176e34f99554166dd2fac165c457248c>@@@@YAXW4__acrt_lock_id@@$$QAV<lambda_176e34f99554166dd2fac165c457248c>@@@Z 1005ac9d f i libucrt:wsetlocale.obj
 0001:00059ccf       ??$__acrt_lock_and_call@V<lambda_b7fb1a997d3ebc0cc0186c5835178808>@@@@YAXW4__acrt_lock_id@@$$QAV<lambda_b7fb1a997d3ebc0cc0186c5835178808>@@@Z 1005accf f i libucrt:wsetlocale.obj
 0001:00059d01       ??$__acrt_lock_and_call@V<lambda_e378711a6f6581bf7f0efd7cdf97f5d9>@@@@YAXW4__acrt_lock_id@@$$QAV<lambda_e378711a6f6581bf7f0efd7cdf97f5d9>@@@Z 1005ad01 f i libucrt:wsetlocale.obj
 0001:00059d33       ??$__crt_call_and_cleanup@V<lambda_2af78c5f5901b1372d98f9ab3177dfa6>@@V<lambda_f51fe5fd7c79a33db34fc9310f277369>@@@@YAX$$QAV<lambda_2af78c5f5901b1372d98f9ab3177dfa6>@@$$QAV<lambda_f51fe5fd7c79a33db34fc9310f277369>@@@Z 1005ad33 f i libucrt:wsetlocale.obj
 0001:00059d56       ??$__vcrt_va_start_verify_argument_type@H@@YAXXZ 1005ad56 f i libucrt:wsetlocale.obj
 0001:00059e7b       ??0?$__crt_unique_heap_ptr@U__crt_locale_data@@U__crt_internal_free_policy@@@@QAE@QAU__crt_locale_data@@@Z 1005ae7b f i libucrt:wsetlocale.obj
 0001:00059e8f       ??0?$__crt_unique_heap_ptr@U__crt_locale_pointers@@U__crt_internal_free_policy@@@@QAE@QAU__crt_locale_pointers@@@Z 1005ae8f f i libucrt:wsetlocale.obj
 0001:00059ea3       ??0?$__crt_unique_heap_ptr@U__crt_multibyte_data@@U__crt_internal_free_policy@@@@QAE@QAU__crt_multibyte_data@@@Z 1005aea3 f i libucrt:wsetlocale.obj
 0001:00059eb7       ??1?$__crt_unique_heap_ptr@U__crt_locale_data@@U__crt_internal_free_policy@@@@QAE@XZ 1005aeb7 f i libucrt:wsetlocale.obj
 0001:00059ecd       ??1?$__crt_unique_heap_ptr@U__crt_locale_pointers@@U__crt_internal_free_policy@@@@QAE@XZ 1005aecd f i libucrt:wsetlocale.obj
 0001:00059ee3       ??1?$__crt_unique_heap_ptr@U__crt_multibyte_data@@U__crt_internal_free_policy@@@@QAE@XZ 1005aee3 f i libucrt:wsetlocale.obj
 0001:00059ef9       ??B?$__crt_unique_heap_ptr@U__crt_locale_data@@U__crt_internal_free_policy@@@@QBE_NXZ 1005aef9 f i libucrt:wsetlocale.obj
 0001:00059f03       ??B?$__crt_unique_heap_ptr@U__crt_locale_pointers@@U__crt_internal_free_policy@@@@QBE_NXZ 1005af03 f i libucrt:wsetlocale.obj
 0001:00059f0d       ??B?$__crt_unique_heap_ptr@U__crt_multibyte_data@@U__crt_internal_free_policy@@@@QBE_NXZ 1005af0d f i libucrt:wsetlocale.obj
 0001:0005a136       ?detach@?$__crt_unique_heap_ptr@U__crt_locale_data@@U__crt_internal_free_policy@@@@QAEPAU__crt_locale_data@@XZ 1005b136 f i libucrt:wsetlocale.obj
 0001:0005a13c       ?detach@?$__crt_unique_heap_ptr@U__crt_locale_pointers@@U__crt_internal_free_policy@@@@QAEPAU__crt_locale_pointers@@XZ 1005b13c f i libucrt:wsetlocale.obj
 0001:0005a142       ?detach@?$__crt_unique_heap_ptr@U__crt_multibyte_data@@U__crt_internal_free_policy@@@@QAEPAU__crt_multibyte_data@@XZ 1005b142 f i libucrt:wsetlocale.obj
 0001:0005a148       ?get@?$__crt_unique_heap_ptr@U__crt_locale_data@@U__crt_internal_free_policy@@@@QBEPAU__crt_locale_data@@XZ 1005b148 f i libucrt:wsetlocale.obj
 0001:0005a14b       ?get@?$__crt_unique_heap_ptr@U__crt_locale_pointers@@U__crt_internal_free_policy@@@@QBEPAU__crt_locale_pointers@@XZ 1005b14b f i libucrt:wsetlocale.obj
 0001:0005a14e       ?get@?$__crt_unique_heap_ptr@U__crt_multibyte_data@@U__crt_internal_free_policy@@@@QBEPAU__crt_multibyte_data@@XZ 1005b14e f i libucrt:wsetlocale.obj
 0001:0005a151       ?is_valid@?$__crt_unique_heap_ptr@U__crt_locale_data@@U__crt_internal_free_policy@@@@QBE_NXZ 1005b151 f i libucrt:wsetlocale.obj
 0001:0005a15b       ?is_valid@?$__crt_unique_heap_ptr@U__crt_locale_pointers@@U__crt_internal_free_policy@@@@QBE_NXZ 1005b15b f i libucrt:wsetlocale.obj
 0001:0005a165       ?is_valid@?$__crt_unique_heap_ptr@U__crt_multibyte_data@@U__crt_internal_free_policy@@@@QBE_NXZ 1005b165 f i libucrt:wsetlocale.obj
 0001:0005a16f       ?release@?$__crt_unique_heap_ptr@U__crt_locale_data@@U__crt_internal_free_policy@@@@QAEXXZ 1005b16f f i libucrt:wsetlocale.obj
 0001:0005a185       ?release@?$__crt_unique_heap_ptr@U__crt_locale_pointers@@U__crt_internal_free_policy@@@@QAEXXZ 1005b185 f i libucrt:wsetlocale.obj
 0001:0005a19b       ?release@?$__crt_unique_heap_ptr@U__crt_multibyte_data@@U__crt_internal_free_policy@@@@QAEXXZ 1005b19b f i libucrt:wsetlocale.obj
 0001:0005a1b1       ___acrt_copy_locale_name   1005b1b1 f   libucrt:wsetlocale.obj
 0001:0005a230       ___acrt_set_locale_changed 1005b230 f   libucrt:wsetlocale.obj
 0001:0005a23d       ___acrt_uninitialize_locale 1005b23d f   libucrt:wsetlocale.obj
 0001:0005a2a3       ___lc_lctowcs              1005b2a3 f   libucrt:wsetlocale.obj
 0001:0005a32f       ___lc_wcstolc              1005b32f f   libucrt:wsetlocale.obj
 0001:0005a4a9       __configthreadlocale       1005b4a9 f   libucrt:wsetlocale.obj
 0001:0005a55d       __create_locale            1005b55d f   libucrt:wsetlocale.obj
 0001:0005a5da       __expandlocale             1005b5da f   libucrt:wsetlocale.obj
 0001:0005aa2e       __free_locale              1005ba2e f   libucrt:wsetlocale.obj
 0001:0005ab14       __get_current_locale       1005bb14 f   libucrt:wsetlocale.obj
 0001:0005abad       __wcreate_locale           1005bbad f   libucrt:wsetlocale.obj
 0001:0005acf8       __wcscats                  1005bcf8 f   libucrt:wsetlocale.obj
 0001:0005ad49       __wsetlocale               1005bd49 f   libucrt:wsetlocale.obj
 0001:0005b86f       ___p___mb_cur_max          1005c86f f   libucrt:nlsdata.obj
 0001:0005b89f       __realloc_base             1005c89f f   libucrt:realloc_base.obj
 0001:0005b922       ___acrt_initialize_locks   1005c922 f   libucrt:locks.obj
 0001:0005b973       ___acrt_lock               1005c973 f   libucrt:locks.obj
 0001:0005b98f       ___acrt_uninitialize_locks 1005c98f f   libucrt:locks.obj
 0001:0005b9cc       ___acrt_unlock             1005c9cc f   libucrt:locks.obj
 0001:0005b9e8       __lock_locales             1005c9e8 f   libucrt:locks.obj
 0001:0005b9f3       __unlock_locales           1005c9f3 f   libucrt:locks.obj
 0001:0005b9fe       ??$?RV<lambda_123407a5e2ac06da108355a851863b7a>@@AAV<lambda_2fe9b910cf3cbf4a0ab98a02ba45b3ec>@@V<lambda_ae55bdf541ad94d75914d381c370e64d>@@@?$__crt_seh_guarded_call@H@@QAEH$$QAV<lambda_123407a5e2ac06da108355a851863b7a>@@AAV<lambda_2fe9b910cf3cbf4a0ab98a02ba45b3ec>@@$$QAV<lambda_ae55bdf541ad94d75914d381c370e64d>@@@Z 1005c9fe f i libucrt:close.obj
 0001:0005baa0       ??$__acrt_lowio_lock_fh_and_call@V<lambda_2fe9b910cf3cbf4a0ab98a02ba45b3ec>@@@@YAHH$$QAV<lambda_2fe9b910cf3cbf4a0ab98a02ba45b3ec>@@@Z 1005caa0 f i libucrt:close.obj
 0001:0005bbf3       __close                    1005cbf3 f   libucrt:close.obj
 0001:0005bc91       __close_nolock             1005cc91 f   libucrt:close.obj
 0001:0005bd54       ??$?RU__crt_stdio_stream_data@@@__crt_internal_free_policy@@QBEXQBU__crt_stdio_stream_data@@@Z 1005cd54 f i libucrt:stream.obj
 0001:0005bd6a       ??0?$__crt_unique_heap_ptr@U__crt_stdio_stream_data@@U__crt_internal_free_policy@@@@QAE@QAU__crt_stdio_stream_data@@@Z 1005cd6a f i libucrt:stream.obj
 0001:0005bd7e       ??0__crt_stdio_stream@@QAE@XZ 1005cd7e f i libucrt:stream.obj
 0001:0005bd84       ??1?$__crt_unique_heap_ptr@U__crt_stdio_stream_data@@U__crt_internal_free_policy@@@@QAE@XZ 1005cd84 f i libucrt:stream.obj
 0001:0005bd9a       ?__acrt_stdio_allocate_stream@@YA?AV__crt_stdio_stream@@XZ 1005cd9a f   libucrt:stream.obj
 0001:0005be10       ?__acrt_stdio_free_stream@@YAXV__crt_stdio_stream@@@Z 1005ce10 f   libucrt:stream.obj
 0001:0005be59       ?deallocate@__crt_stdio_stream@@QAEXXZ 1005ce59 f i libucrt:stream.obj
 0001:0005be65       ?detach@?$__crt_unique_heap_ptr@U__crt_stdio_stream_data@@U__crt_internal_free_policy@@@@QAEPAU__crt_stdio_stream_data@@XZ 1005ce65 f i libucrt:stream.obj
 0001:0005bf5e       ?lock@__crt_stdio_stream@@QBEXXZ 1005cf5e f i libucrt:stream.obj
 0001:0005bf69       ?release@?$__crt_unique_heap_ptr@U__crt_stdio_stream_data@@U__crt_internal_free_policy@@@@QAEXXZ 1005cf69 f i libucrt:stream.obj
 0001:0005bf7f       ?try_allocate@__crt_stdio_stream@@QAE_NXZ 1005cf7f f i libucrt:stream.obj
 0001:0005bfa8       ??$__acrt_stdio_parse_mode@D@@YA?AU__acrt_stdio_stream_mode@@QBD@Z 1005cfa8 f i libucrt:openfile.obj
 0001:0005c266       ??$__acrt_stdio_parse_mode@_W@@YA?AU__acrt_stdio_stream_mode@@QB_W@Z 1005d266 f i libucrt:openfile.obj
 0001:0005c687       ??$tcsncmp@AAPBDAAY02$$CBDI@?$__crt_char_traits@D@@SAHAAPBDAAY02$$CBD$$QAI@Z 1005d687 f i libucrt:openfile.obj
 0001:0005c6aa       ??$tcsncmp@AAPB_WAAY02$$CB_WI@?$__crt_char_traits@_W@@SAHAAPB_WAAY02$$CB_W$$QAI@Z 1005d6aa f i libucrt:openfile.obj
 0001:0005c6cd       ??$tcsnicmp@AAPBDAAY04$$CBDI@?$__crt_char_traits@D@@SAHAAPBDAAY04$$CBD$$QAI@Z 1005d6cd f i libucrt:openfile.obj
 0001:0005c6f0       ??$tcsnicmp@AAPBDAAY06$$CBDI@?$__crt_char_traits@D@@SAHAAPBDAAY06$$CBD$$QAI@Z 1005d6f0 f i libucrt:openfile.obj
 0001:0005c713       ??$tcsnicmp@AAPBDAAY07$$CBDI@?$__crt_char_traits@D@@SAHAAPBDAAY07$$CBD$$QAI@Z 1005d713 f i libucrt:openfile.obj
 0001:0005c736       ??$tcsnicmp@AAPB_WAAY04$$CB_WI@?$__crt_char_traits@_W@@SAHAAPB_WAAY04$$CB_W$$QAI@Z 1005d736 f i libucrt:openfile.obj
 0001:0005c759       ??$tcsnicmp@AAPB_WAAY06$$CB_WI@?$__crt_char_traits@_W@@SAHAAPB_WAAY06$$CB_W$$QAI@Z 1005d759 f i libucrt:openfile.obj
 0001:0005c77c       ??$tcsnicmp@AAPB_WAAY07$$CB_WI@?$__crt_char_traits@_W@@SAHAAPB_WAAY07$$CB_W$$QAI@Z 1005d77c f i libucrt:openfile.obj
 0001:0005c79f       ??$tsopen_s@PAHABQBDABHABHH@?$__crt_char_traits@D@@SAH$$QAPAHABQBDABH2$$QAH@Z 1005d79f f i libucrt:openfile.obj
 0001:0005c7d1       ??$tsopen_s@PAHABQB_WABHABHH@?$__crt_char_traits@_W@@SAH$$QAPAHABQB_WABH2$$QAH@Z 1005d7d1 f i libucrt:openfile.obj
 0001:0005c803       ?__acrt_stdio_parse_mode_D@@YA_NAAU__acrt_stdio_stream_mode@@@Z 1005d803 f i libucrt:openfile.obj
 0001:0005c824       ?__acrt_stdio_parse_mode_N@@YA_NAAU__acrt_stdio_stream_mode@@@Z 1005d824 f i libucrt:openfile.obj
 0001:0005c83a       ?__acrt_stdio_parse_mode_R@@YA_NAAU__acrt_stdio_stream_mode@@AA_N@Z 1005d83a f i libucrt:openfile.obj
 0001:0005c85f       ?__acrt_stdio_parse_mode_S@@YA_NAAU__acrt_stdio_stream_mode@@AA_N@Z 1005d85f f i libucrt:openfile.obj
 0001:0005c884       ?__acrt_stdio_parse_mode_T@@YA_NAAU__acrt_stdio_stream_mode@@@Z 1005d884 f i libucrt:openfile.obj
 0001:0005c8aa       ?__acrt_stdio_parse_mode_b@@YA_NAAU__acrt_stdio_stream_mode@@@Z 1005d8aa f i libucrt:openfile.obj
 0001:0005c8d2       ?__acrt_stdio_parse_mode_c@@YA_NAAU__acrt_stdio_stream_mode@@AA_N@Z 1005d8d2 f i libucrt:openfile.obj
 0001:0005c8fc       ?__acrt_stdio_parse_mode_n@@YA_NAAU__acrt_stdio_stream_mode@@AA_N@Z 1005d8fc f i libucrt:openfile.obj
 0001:0005c926       ?__acrt_stdio_parse_mode_plus@@YA_NAAU__acrt_stdio_stream_mode@@AA_N@Z 1005d926 f i libucrt:openfile.obj
 0001:0005c968       ?__acrt_stdio_parse_mode_t@@YA_NAAU__acrt_stdio_stream_mode@@@Z 1005d968 f i libucrt:openfile.obj
 0001:0005c990       __openfile                 1005d990 f   libucrt:openfile.obj
 0001:0005c99d       __wopenfile                1005d99d f   libucrt:openfile.obj
 0001:0005d042       __read                     1005e042 f   libucrt:read.obj
 0001:0005d199       __read_nolock              1005e199 f   libucrt:read.obj
 0001:0005db31       ___acrt_stdio_refill_and_read_narrow_nolock 1005eb31 f   libucrt:_filbuf.obj
 0001:0005db3e       ___acrt_stdio_refill_and_read_wide_nolock 1005eb3e f   libucrt:_filbuf.obj
 0001:0005e29d       __write                    1005f29d f   libucrt:write.obj
 0001:0005e3c2       __write_nolock             1005f3c2 f   libucrt:write.obj
 0001:0005eb08       ___acrt_stdio_flush_and_write_narrow_nolock 1005fb08 f   libucrt:_flsbuf.obj
 0001:0005eb15       ___acrt_stdio_flush_and_write_wide_nolock 1005fb15 f   libucrt:_flsbuf.obj
 0001:0005eb22       ___acrt_copy_path_to_wide_string 1005fb22 f   libucrt:string_utilities.obj
 0001:0005ec1a       ___acrt_copy_to_char       1005fc1a f   libucrt:string_utilities.obj
 0001:0005ed05       __wremove                  1005fd05 f   libucrt:wunlink.obj
 0001:0005ed37       __wunlink                  1005fd37 f   libucrt:wunlink.obj
 0001:0005f1ab       __lseek                    100601ab f   libucrt:lseek.obj
 0001:0005f1b8       __lseek_nolock             100601b8 f   libucrt:lseek.obj
 0001:0005f1c5       __lseeki64                 100601c5 f   libucrt:lseek.obj
 0001:0005f1e6       __lseeki64_nolock          100601e6 f   libucrt:lseek.obj
 0001:0005f207       __chgsign                  10060207 f   libucrt:ieeemisc.obj
 0001:0005f241       __chgsignf                 10060241 f   libucrt:ieeemisc.obj
 0001:0005f26c       __copysign                 1006026c f   libucrt:ieeemisc.obj
 0001:0005f2a0       __copysignf                100602a0 f   libucrt:ieeemisc.obj
 0001:0005f2c5       __finite                   100602c5 f   libucrt:ieeemisc.obj
 0001:0005f2e5       __fpclass                  100602e5 f   libucrt:ieeemisc.obj
 0001:0005f3b2       __isnan                    100603b2 f   libucrt:ieeemisc.obj
 0001:0005f3f5       __logb                     100603f5 f   libucrt:ieeemisc.obj
 0001:0005f4fa       __nextafter                100604fa f   libucrt:ieeemisc.obj
 0001:0005f520       __scalb                    10060520 f   libucrt:ieeemisc.obj
 0001:0005f540       __add_exp                  10060540 f   libucrt:util.obj
 0001:0005f57a       __decomp                   1006057a f   libucrt:util.obj
 0001:0005f683       __get_exp                  10060683 f   libucrt:util.obj
 0001:0005f6a2       __set_bexp                 100606a2 f   libucrt:util.obj
 0001:0005f6d5       __set_exp                  100606d5 f   libucrt:util.obj
 0001:0005f70f       __sptype                   1006070f f   libucrt:util.obj
 0001:0005f784       ___clrfp_sse2              10060784 f   libucrt:fpctrl.obj
 0001:0005f7ad       ___ctrlfp_sse2             100607ad f   libucrt:fpctrl.obj
 0001:0005f7f6       ___fclrf_sse2              100607f6 f   libucrt:fpctrl.obj
 0001:0005f81c       ___get_fpsr_sse2           1006081c f   libucrt:fpctrl.obj
 0001:0005f841       ___set_fpsr_sse2           10060841 f   libucrt:fpctrl.obj
 0001:0005f8d4       ___set_statfp_sse2         100608d4 f   libucrt:fpctrl.obj
 0001:0005f8f5       ___statfp_sse2             100608f5 f   libucrt:fpctrl.obj
 0001:0005f90f       __clrfp                    1006090f f   libucrt:fpctrl.obj
 0001:0005f926       __ctrlfp                   10060926 f   libucrt:fpctrl.obj
 0001:0005f95d       __set_statfp               1006095d f   libucrt:fpctrl.obj
 0001:0005f9ce       __statfp                   100609ce f   libucrt:fpctrl.obj
 0001:0005faab       ___acrt_report_runtime_error 10060aab f   libucrt:report_runtime_error.obj
 0001:0005fc11       __query_app_type           10060c11 f   libucrt:report_runtime_error.obj
 0001:0005fc17       __set_app_type             10060c17 f   libucrt:report_runtime_error.obj
 0001:00060103       __i64toa                   10061103 f   libucrt:xtoa.obj
 0001:00060156       __i64toa_s                 10061156 f   libucrt:xtoa.obj
 0001:000601a7       __i64tow                   100611a7 f   libucrt:xtoa.obj
 0001:000601fa       __i64tow_s                 100611fa f   libucrt:xtoa.obj
 0001:0006024b       __itoa                     1006124b f   libucrt:xtoa.obj
 0001:0006028f       __itoa_s                   1006128f f   libucrt:xtoa.obj
 0001:000602d1       __itow                     100612d1 f   libucrt:xtoa.obj
 0001:00060315       __itow_s                   10061315 f   libucrt:xtoa.obj
 0001:00060357       __ltoa                     10061357 f   libucrt:xtoa.obj
 0001:0006039b       __ltoa_s                   1006139b f   libucrt:xtoa.obj
 0001:000603dd       __ltow                     100613dd f   libucrt:xtoa.obj
 0001:00060421       __ltow_s                   10061421 f   libucrt:xtoa.obj
 0001:00060463       __ui64toa                  10061463 f   libucrt:xtoa.obj
 0001:0006048d       __ui64toa_s                1006148d f   libucrt:xtoa.obj
 0001:000604b5       __ui64tow                  100614b5 f   libucrt:xtoa.obj
 0001:000604df       __ui64tow_s                100614df f   libucrt:xtoa.obj
 0001:00060507       __ultoa                    10061507 f   libucrt:xtoa.obj
 0001:0006052d       __ultoa_s                  1006152d f   libucrt:xtoa.obj
 0001:00060551       __ultow                    10061551 f   libucrt:xtoa.obj
 0001:00060577       __ultow_s                  10061577 f   libucrt:xtoa.obj
 0001:0006059b       __set_error_mode           1006159b f   libucrt:set_error_mode.obj
 0001:00060677       _wcscat_s                  10061677 f   libucrt:wcscat_s.obj
 0001:00060781       _wcscpy_s                  10061781 f   libucrt:wcscpy_s.obj
 0001:00060921       _wcsncat_s                 10061921 f   libucrt:wcsncat_s.obj
 0001:000609b1       _strcat_s                  100619b1 f   libucrt:strcat_s.obj
 0001:00060b38       _strncat_s                 10061b38 f   libucrt:strncat_s.obj
 0001:00060d63       ??$message_box@$$TAAPBDAAPBDAAI@?$__crt_char_traits@D@@SAH$$QA$$TAAPBD1AAI@Z 10061d63 f i libucrt:crtmbox.obj
 0001:00060d8b       ??$message_box@$$TAAPB_WAAPB_WAAI@?$__crt_char_traits@_W@@SAH$$QA$$TAAPB_W1AAI@Z 10061d8b f i libucrt:crtmbox.obj
 0001:00060db3       ??$message_box@$$TABQBDABQBDK@?$__crt_char_traits@D@@SAH$$QA$$TABQBD1$$QAK@Z 10061db3 f i libucrt:crtmbox.obj
 0001:00060ddb       ??$message_box@$$TABQB_WABQB_WK@?$__crt_char_traits@_W@@SAH$$QA$$TABQB_W1$$QAK@Z 10061ddb f i libucrt:crtmbox.obj
 0001:00060e03       ??$message_box@PAUHWND__@@ABQBDABQBDABI@?$__crt_char_traits@D@@SAH$$QAPAUHWND__@@ABQBD1ABI@Z 10061e03 f i libucrt:crtmbox.obj
 0001:00060e2b       ??$message_box@PAUHWND__@@ABQB_WABQB_WABI@?$__crt_char_traits@_W@@SAH$$QAPAUHWND__@@ABQB_W1ABI@Z 10061e2b f i libucrt:crtmbox.obj
 0001:00060ea7       ??$output_debug_string@ABQBD@?$__crt_char_traits@D@@SAXABQBD@Z 10061ea7 f i libucrt:crtmbox.obj
 0001:00060ebd       ??$output_debug_string@ABQB_W@?$__crt_char_traits@_W@@SAXABQB_W@Z 10061ebd f i libucrt:crtmbox.obj
 0001:00060ed3       ??0?$__crt_unique_handle_t@U__crt_handle_traits@@@@QAE@QAX@Z 10061ed3 f i libucrt:crtmbox.obj
 0001:00060ee7       ??1?$__crt_unique_handle_t@U__crt_handle_traits@@@@QAE@XZ 10061ee7 f i libucrt:crtmbox.obj
 0001:00060f03       ??B?$__crt_unique_handle_t@U__crt_handle_traits@@@@QBE_NXZ 10061f03 f i libucrt:crtmbox.obj
 0001:00060f0e       ?close@?$__crt_unique_handle_t@U__crt_handle_traits@@@@QAEXXZ 10061f0e f i libucrt:crtmbox.obj
 0001:00060f2a       ?close@__crt_handle_traits@@SA_NPAX@Z 10061f2a f i libucrt:crtmbox.obj
 0001:00060f45       ?get@?$__crt_unique_handle_t@U__crt_handle_traits@@@@QBEPAXXZ 10061f45 f i libucrt:crtmbox.obj
 0001:00060f48       ?get_invalid_value@__crt_handle_traits@@SAPAXXZ 10061f48 f i libucrt:crtmbox.obj
 0001:00060f4c       ?is_valid@?$__crt_unique_handle_t@U__crt_handle_traits@@@@QBE_NXZ 10061f4c f i libucrt:crtmbox.obj
 0001:00060f57       ___acrt_show_narrow_message_box 10061f57 f   libucrt:crtmbox.obj
 0001:00060f64       ___acrt_show_wide_message_box 10061f64 f   libucrt:crtmbox.obj
 0001:00060f71       ??$?RV<lambda_d92cfe8357b99225085016881b624cb0>@@AAV<lambda_b721fa326cdb32351d23dfa67958c160>@@V<lambda_42d75b0848218ec137fa420c8ba9fdf9>@@@?$__crt_seh_guarded_call@H@@QAEH$$QAV<lambda_d92cfe8357b99225085016881b624cb0>@@AAV<lambda_b721fa326cdb32351d23dfa67958c160>@@$$QAV<lambda_42d75b0848218ec137fa420c8ba9fdf9>@@@Z 10061f71 f i libucrt:setvbuf.obj
 0001:00060fd6       ??$__acrt_lock_stream_and_call@V<lambda_b721fa326cdb32351d23dfa67958c160>@@@@YAHQAU_iobuf@@$$QAV<lambda_b721fa326cdb32351d23dfa67958c160>@@@Z 10061fd6 f i libucrt:setvbuf.obj
 0001:00061173       _setvbuf                   10062173 f   libucrt:setvbuf.obj
 0001:00061206       ??$?B$$A6AXH@Z@__crt_fast_encoded_nullptr_t@@QBEP6AXH@ZXZ 10062206 f i libucrt:signal.obj
 0001:00061224       ??$?RV<lambda_a048d3beccc847880fc8490e18b82769>@@AAV<lambda_ec61778202f4f5fc7e7711acc23c3bca>@@V<lambda_f7496a158712204296dd6628a163878e>@@@?$__crt_seh_guarded_call@P6AXH@Z@@QAEP6AXH@Z$$QAV<lambda_a048d3beccc847880fc8490e18b82769>@@AAV<lambda_ec61778202f4f5fc7e7711acc23c3bca>@@$$QAV<lambda_f7496a158712204296dd6628a163878e>@@@Z 10062224 f i libucrt:signal.obj
 0001:00061294       ??$__acrt_lock_and_call@V<lambda_ec61778202f4f5fc7e7711acc23c3bca>@@@@YAP6AXH@ZW4__acrt_lock_id@@$$QAV<lambda_ec61778202f4f5fc7e7711acc23c3bca>@@@Z 10062294 f i libucrt:signal.obj
 0001:000612c6       ??$__crt_fast_decode_pointer@P6AXH@Z@@YAP6AXH@ZQ6AXH@Z@Z 100622c6 f i libucrt:signal.obj
 0001:000612e1       ??$__crt_fast_encode_pointer@P6AXH@Z@@YAP6AXH@ZQ6AXH@Z@Z 100622e1 f i libucrt:signal.obj
 0001:0006148b       ?initialize@?$dual_state_global@P6AXH@Z@__crt_state_management@@QAEXQ6AXH@Z@Z 1006248b f i libucrt:signal.obj
 0001:00061537       ?value@?$dual_state_global@P6AXH@Z@__crt_state_management@@QAEAAP6AXH@ZXZ 10062537 f i libucrt:signal.obj
 0001:0006153a       ___acrt_get_sigabrt_handler 1006253a f   libucrt:signal.obj
 0001:00061556       ___acrt_initialize_signal_handlers 10062556 f   libucrt:signal.obj
 0001:0006159f       ___fpecode                 1006259f f   libucrt:signal.obj
 0001:000615aa       ___pxcptinfoptrs           100625aa f   libucrt:signal.obj
 0001:000615b5       _raise                     100625b5 f   libucrt:signal.obj
 0001:0006183f       _signal                    1006283f f   libucrt:signal.obj
 0001:00061a5d       ??$__crt_fast_decode_pointer@P6AHPAU_exception@@@Z@@YAP6AHPAU_exception@@@ZQ6AH0@Z@Z 10062a5d f i libucrt:matherr.obj
 0001:00061a78       ??$__crt_fast_encode_pointer@P6AHPAU_exception@@@Z@@YAP6AHPAU_exception@@@ZQ6AH0@Z@Z 10062a78 f i libucrt:matherr.obj
 0001:00061a9e       ?initialize@?$dual_state_global@P6AHPAU_exception@@@Z@__crt_state_management@@QAEXQ6AHPAU_exception@@@Z@Z 10062a9e f i libucrt:matherr.obj
 0001:00061adb       ?value@?$dual_state_global@P6AHPAU_exception@@@Z@__crt_state_management@@QAEAAP6AHPAU_exception@@@ZXZ 10062adb f i libucrt:matherr.obj
 0001:00061ade       ___acrt_has_user_matherr   10062ade f   libucrt:matherr.obj
 0001:00061afd       ___acrt_initialize_user_matherr 10062afd f   libucrt:matherr.obj
 0001:00061b16       ___acrt_invoke_user_matherr 10062b16 f   libucrt:matherr.obj
 0001:00061b71       ___setusermatherr          10062b71 f   libucrt:matherr.obj
 0001:00061b8b       ??$?RV<lambda_978dc153c237d78434369da87b74ff60>@@AAV<lambda_ad1ced32f4ac17aa236e5ef05d6b3b7c>@@V<lambda_4a8533e2866a575feecb8298ce776b0d>@@@?$__crt_seh_guarded_call@X@@QAEX$$QAV<lambda_978dc153c237d78434369da87b74ff60>@@AAV<lambda_ad1ced32f4ac17aa236e5ef05d6b3b7c>@@$$QAV<lambda_4a8533e2866a575feecb8298ce776b0d>@@@Z 10062b8b f i libucrt:mbctype.obj
 0001:00061bde       ??$__acrt_lock_and_call@V<lambda_ad1ced32f4ac17aa236e5ef05d6b3b7c>@@@@YAXW4__acrt_lock_id@@$$QAV<lambda_ad1ced32f4ac17aa236e5ef05d6b3b7c>@@@Z 10062bde f i libucrt:mbctype.obj
 0001:000621ef       ___acrt_initialize_multibyte 100631ef f   libucrt:mbctype.obj
 0001:00062214       ___acrt_update_thread_multibyte_data 10063214 f   libucrt:mbctype.obj
 0001:000622de       ___p__mbcasemap            100632de f   libucrt:mbctype.obj
 0001:000622e4       ___p__mbctype              100632e4 f   libucrt:mbctype.obj
 0001:000622ea       __getmbcp                  100632ea f   libucrt:mbctype.obj
 0001:0006232d       __setmbcp                  1006332d f   libucrt:mbctype.obj
 0001:00062344       __setmbcp_nolock           10063344 f   libucrt:mbctype.obj
 0001:00062652       ??0?$__crt_unique_handle_t@Uenvironment_strings_traits@?A0x29f97c20@@@@QAE@QA_W@Z 10063652 f i libucrt:get_environment_from_os.obj
 0001:00062666       ??1?$__crt_unique_handle_t@Uenvironment_strings_traits@?A0x29f97c20@@@@QAE@XZ 10063666 f i libucrt:get_environment_from_os.obj
 0001:00062682       ??B?$__crt_unique_handle_t@Uenvironment_strings_traits@?A0x29f97c20@@@@QBE_NXZ 10063682 f i libucrt:get_environment_from_os.obj
 0001:0006268c       ?close@?$__crt_unique_handle_t@Uenvironment_strings_traits@?A0x29f97c20@@@@QAEXXZ 1006368c f i libucrt:get_environment_from_os.obj
 0001:000626a8       ?close@environment_strings_traits@?A0x29f97c20@@SA_NPA_W@Z 100636a8 f i libucrt:get_environment_from_os.obj
 0001:00062702       ?get@?$__crt_unique_handle_t@Uenvironment_strings_traits@?A0x29f97c20@@@@QBEPA_WXZ 10063702 f i libucrt:get_environment_from_os.obj
 0001:00062705       ?get_invalid_value@environment_strings_traits@?A0x29f97c20@@SAPA_WXZ 10063705 f i libucrt:get_environment_from_os.obj
 0001:00062708       ?is_valid@?$__crt_unique_handle_t@Uenvironment_strings_traits@?A0x29f97c20@@@@QBE_NXZ 10063708 f i libucrt:get_environment_from_os.obj
 0001:00062712       ___dcrt_get_narrow_environment_from_os 10063712 f   libucrt:get_environment_from_os.obj
 0001:000627b5       ___dcrt_get_wide_environment_from_os 100637b5 f   libucrt:get_environment_from_os.obj
 0001:0006304d       ??$get_or_create_environment_nolock@$$$V@?$__crt_char_traits@D@@SAPAPADXZ 1006404d f i libucrt:setenv.obj
 0001:00063052       ??$get_or_create_environment_nolock@$$$V@?$__crt_char_traits@_W@@SAPAPA_WXZ 10064052 f i libucrt:setenv.obj
 0001:00063057       ??$set_environment_variable@ABQADQAD@?$__crt_char_traits@D@@SAHABQAD$$QBQAD@Z 10064057 f i libucrt:setenv.obj
 0001:00063073       ??$set_environment_variable@ABQA_WQA_W@?$__crt_char_traits@_W@@SAHABQA_W$$QBQA_W@Z 10064073 f i libucrt:setenv.obj
 0001:0006308f       ??$tcschr@ABQADD@?$__crt_char_traits@D@@SAPADABQAD$$QAD@Z 1006408f f i libucrt:setenv.obj
 0001:000630af       ??$tcschr@ABQA_WD@?$__crt_char_traits@_W@@SAPA_WABQA_W$$QAD@Z 100640af f i libucrt:setenv.obj
 0001:000630d4       ??$tcscpy_s@AAPADABIAAPAD@?$__crt_char_traits@D@@SAHAAPADABI0@Z 100640d4 f i libucrt:setenv.obj
 0001:000630f9       ??$tcscpy_s@AAPA_WABIAAPA_W@?$__crt_char_traits@_W@@SAHAAPA_WABI0@Z 100640f9 f i libucrt:setenv.obj
 0001:0006311e       ??$tcscpy_s@ABQADABIABQAD@?$__crt_char_traits@D@@SAHABQADABI0@Z 1006411e f i libucrt:setenv.obj
 0001:00063143       ??$tcscpy_s@ABQA_WABIABQA_W@?$__crt_char_traits@_W@@SAHABQA_WABI0@Z 10064143 f i libucrt:setenv.obj
 0001:00063168       ??$tcsnicoll@ABQBDAAPADABI@?$__crt_char_traits@D@@SAHABQBDAAPADABI@Z 10064168 f i libucrt:setenv.obj
 0001:0006318d       ??$tcsnicoll@ABQB_WAAPA_WABI@?$__crt_char_traits@_W@@SAHABQB_WAAPA_WABI@Z 1006418d f i libucrt:setenv.obj
 0001:000631d6       ?strchr@@YAPADQADH@Z       100641d6 f i libucrt:setenv.obj
 0001:000631e3       ?wcschr@@YAPA_WPA_W_W@Z    100641e3 f i libucrt:setenv.obj
 0001:000631f0       ___dcrt_set_variable_in_narrow_environment_nolock 100641f0 f   libucrt:setenv.obj
 0001:000631fd       ___dcrt_set_variable_in_wide_environment_nolock 100641fd f   libucrt:setenv.obj
 0001:0006320a       __recalloc                 1006420a f   libucrt:recalloc.obj
 0001:00063217       __recalloc_base            10064217 f   libucrt:recalloc.obj
 0001:0006329f       ___acrt_getheap            1006429f f   libucrt:heap_handle.obj
 0001:000632a5       ___acrt_initialize_heap    100642a5 f   libucrt:heap_handle.obj
 0001:000632ba       ___acrt_uninitialize_heap  100642ba f   libucrt:heap_handle.obj
 0001:000632c6       __get_heap_handle          100642c6 f   libucrt:heap_handle.obj
 0001:000632cc       ___acrt_initialize_command_line 100642cc f   libucrt:argv_data.obj
 0001:000632eb       ___acrt_uninitialize_command_line 100642eb f   libucrt:argv_data.obj
 0001:000632ee       ___p___argc                100642ee f   libucrt:argv_data.obj
 0001:000632f4       ___p___argv                100642f4 f   libucrt:argv_data.obj
 0001:000632fa       ___p___wargv               100642fa f   libucrt:argv_data.obj
 0001:00063300       ___p__acmdln               10064300 f   libucrt:argv_data.obj
 0001:00063306       ___p__pgmptr               10064306 f   libucrt:argv_data.obj
 0001:0006330c       ___p__wcmdln               1006430c f   libucrt:argv_data.obj
 0001:00063312       ___p__wpgmptr              10064312 f   libucrt:argv_data.obj
 0001:00063318       __get_pgmptr               10064318 f   libucrt:argv_data.obj
 0001:00063355       __get_wpgmptr              10064355 f   libucrt:argv_data.obj
 0001:00063392       ___acrt_execute_initializers 10064392 f   libucrt:shared_initialization.obj
 0001:00063435       ___acrt_execute_uninitializers 10064435 f   libucrt:shared_initialization.obj
 0001:00063495       ??$?B$$A6AHI@Z@__crt_fast_encoded_nullptr_t@@QBEP6AHI@ZXZ 10064495 f i libucrt:new_handler.obj
 0001:000634b3       ??$__crt_fast_decode_pointer@P6AHI@Z@@YAP6AHI@ZQ6AHI@Z@Z 100644b3 f i libucrt:new_handler.obj
 0001:000634ce       ??$__crt_fast_encode_pointer@P6AHI@Z@@YAP6AHI@ZQ6AHI@Z@Z 100644ce f i libucrt:new_handler.obj
 0001:000634f4       ?_set_new_handler@@YAP6AHI@ZH@Z 100644f4 f   libucrt:new_handler.obj
 0001:0006351a       ?initialize@?$dual_state_global@P6AHI@Z@__crt_state_management@@QAEXQ6AHI@Z@Z 1006451a f i libucrt:new_handler.obj
 0001:00063557       ?value@?$dual_state_global@P6AHI@Z@__crt_state_management@@QAEAAP6AHI@ZXZ 10064557 f i libucrt:new_handler.obj
 0001:0006355a       ___acrt_initialize_new_handler 1006455a f   libucrt:new_handler.obj
 0001:00063573       __callnewh                 10064573 f   libucrt:new_handler.obj
 0001:000635c8       __query_new_handler        100645c8 f   libucrt:new_handler.obj
 0001:0006362e       __set_new_handler          1006462e f   libucrt:new_handler.obj
 0001:000636a6       ?value@?$dual_state_global@J@__crt_state_management@@QAEAAJXZ 100646a6 f i libucrt:new_mode.obj
 0001:000636a9       __query_new_mode           100646a9 f   libucrt:new_mode.obj
 0001:000636af       __set_new_mode             100646af f   libucrt:new_mode.obj
 0001:000636e9       ___pctype_func             100646e9 f   libucrt:ctype.obj
 0001:00063718       ___pwctype_func            10064718 f   libucrt:ctype.obj
 0001:0006371e       __iswctype_l               1006471e f   libucrt:iswctype.obj
 0001:00063737       _iswctype                  10064737 f   libucrt:iswctype.obj
 0001:000637ad       __isctype                  100647ad f   libucrt:isctype.obj
 0001:000637ea       __isctype_l                100647ea f   libucrt:isctype.obj
 0001:00063ab1       ___acrt_DownlevelLCIDToLocaleName 10064ab1 f   libucrt:lcidtoname_downlevel.obj
 0001:00063b85       ___acrt_DownlevelLocaleNameToLCID 10064b85 f   libucrt:lcidtoname_downlevel.obj
 0001:00063bbc       ??$?RV<lambda_61cee617f5178ae960314fd4d05640a0>@@AAV<lambda_6978c1fb23f02e42e1d9e99668cc68aa>@@V<lambda_9cd88cf8ad10232537feb2133f08c833>@@@?$__crt_seh_guarded_call@H@@QAEH$$QAV<lambda_61cee617f5178ae960314fd4d05640a0>@@AAV<lambda_6978c1fb23f02e42e1d9e99668cc68aa>@@$$QAV<lambda_9cd88cf8ad10232537feb2133f08c833>@@@Z 10064bbc f i libucrt:commit.obj
 0001:00063c7a       ??$__acrt_lowio_lock_fh_and_call@V<lambda_6978c1fb23f02e42e1d9e99668cc68aa>@@@@YAHH$$QAV<lambda_6978c1fb23f02e42e1d9e99668cc68aa>@@@Z 10064c7a f i libucrt:commit.obj
 0001:00063d6c       __commit                   10064d6c f   libucrt:commit.obj
 0001:00063df6       ??$?RU__crt_lowio_handle_data@@@__crt_internal_free_policy@@QBEXQBU__crt_lowio_handle_data@@@Z 10064df6 f i libucrt:osfinfo.obj
 0001:00063e0c       ??0?$__crt_unique_heap_ptr@U__crt_lowio_handle_data@@U__crt_internal_free_policy@@@@QAE@QAU__crt_lowio_handle_data@@@Z 10064e0c f i libucrt:osfinfo.obj
 0001:00063e20       ??1?$__crt_unique_heap_ptr@U__crt_lowio_handle_data@@U__crt_internal_free_policy@@@@QAE@XZ 10064e20 f i libucrt:osfinfo.obj
 0001:00063e36       ??B?$__crt_unique_heap_ptr@U__crt_lowio_handle_data@@U__crt_internal_free_policy@@@@QBE_NXZ 10064e36 f i libucrt:osfinfo.obj
 0001:00063e40       ?detach@?$__crt_unique_heap_ptr@U__crt_lowio_handle_data@@U__crt_internal_free_policy@@@@QAEPAU__crt_lowio_handle_data@@XZ 10064e40 f i libucrt:osfinfo.obj
 0001:00063e46       ?get@?$__crt_unique_heap_ptr@U__crt_lowio_handle_data@@U__crt_internal_free_policy@@@@QBEPAU__crt_lowio_handle_data@@XZ 10064e46 f i libucrt:osfinfo.obj
 0001:00063e49       ?is_valid@?$__crt_unique_heap_ptr@U__crt_lowio_handle_data@@U__crt_internal_free_policy@@@@QBE_NXZ 10064e49 f i libucrt:osfinfo.obj
 0001:00063e53       ?release@?$__crt_unique_heap_ptr@U__crt_lowio_handle_data@@U__crt_internal_free_policy@@@@QAEXXZ 10064e53 f i libucrt:osfinfo.obj
 0001:00063e69       ___acrt_lowio_create_handle_array 10064e69 f   libucrt:osfinfo.obj
 0001:00063f01       ___acrt_lowio_destroy_handle_array 10064f01 f   libucrt:osfinfo.obj
 0001:00063f43       ___acrt_lowio_ensure_fh_exists 10064f43 f   libucrt:osfinfo.obj
 0001:00064001       ___acrt_lowio_lock_fh      10065001 f   libucrt:osfinfo.obj
 0001:0006402c       ___acrt_lowio_set_os_handle 1006502c f   libucrt:osfinfo.obj
 0001:000640e5       ___acrt_lowio_unlock_fh    100650e5 f   libucrt:osfinfo.obj
 0001:00064110       __alloc_osfhnd             10065110 f   libucrt:osfinfo.obj
 0001:00064266       __free_osfhnd              10065266 f   libucrt:osfinfo.obj
 0001:0006431b       __get_osfhandle            1006531b f   libucrt:osfinfo.obj
 0001:0006439f       __open_osfhandle           1006539f f   libucrt:osfinfo.obj
 0001:000644f0       ___iswcsym                 100654f0 f i libucrt:_wctype.obj
 0001:0006451f       ___iswcsymf                1006551f f i libucrt:_wctype.obj
 0001:0006454e       __isleadbyte_l             1006554e f i libucrt:_wctype.obj
 0001:00064595       __iswalnum_l               10065595 f i libucrt:_wctype.obj
 0001:000645b0       __iswalpha_l               100655b0 f i libucrt:_wctype.obj
 0001:000645cb       __iswblank_l               100655cb f i libucrt:_wctype.obj
 0001:000645ef       __iswcntrl_l               100655ef f i libucrt:_wctype.obj
 0001:00064606       __iswcsym_l                10065606 f i libucrt:_wctype.obj
 0001:00064635       __iswcsymf_l               10065635 f i libucrt:_wctype.obj
 0001:00064664       __iswdigit_l               10065664 f i libucrt:_wctype.obj
 0001:0006467b       __iswgraph_l               1006567b f i libucrt:_wctype.obj
 0001:00064696       __iswlower_l               10065696 f i libucrt:_wctype.obj
 0001:000646ad       __iswprint_l               100656ad f i libucrt:_wctype.obj
 0001:000646c8       __iswpunct_l               100656c8 f i libucrt:_wctype.obj
 0001:000646df       __iswspace_l               100656df f i libucrt:_wctype.obj
 0001:000646f6       __iswupper_l               100656f6 f i libucrt:_wctype.obj
 0001:0006470d       __iswxdigit_l              1006570d f i libucrt:_wctype.obj
 0001:00064728       _isleadbyte                10065728 f i libucrt:_wctype.obj
 0001:0006473f       _iswalnum                  1006573f f i libucrt:_wctype.obj
 0001:0006475a       _iswalpha                  1006575a f i libucrt:_wctype.obj
 0001:00064775       _iswascii                  10065775 f i libucrt:_wctype.obj
 0001:0006478e       _iswblank                  1006578e f i libucrt:_wctype.obj
 0001:000647b2       _iswcntrl                  100657b2 f i libucrt:_wctype.obj
 0001:000647c9       _iswdigit                  100657c9 f i libucrt:_wctype.obj
 0001:000647e0       _iswgraph                  100657e0 f i libucrt:_wctype.obj
 0001:000647fb       _iswlower                  100657fb f i libucrt:_wctype.obj
 0001:00064812       _iswprint                  10065812 f i libucrt:_wctype.obj
 0001:0006482d       _iswpunct                  1006582d f i libucrt:_wctype.obj
 0001:00064844       _iswspace                  10065844 f i libucrt:_wctype.obj
 0001:0006485b       _iswupper                  1006585b f i libucrt:_wctype.obj
 0001:00064872       _iswxdigit                 10065872 f i libucrt:_wctype.obj
 0001:0006488d       ??0?$__crt_scoped_stack_ptr@_W@@QAE@U?$__crt_scoped_stack_ptr_tag@_W@@@Z 1006588d f i libucrt:lcmapstringa.obj
 0001:000648a1       ??0?$__crt_scoped_stack_ptr_tag@_W@@QAE@QA_W@Z 100658a1 f i libucrt:lcmapstringa.obj
 0001:000648b5       ??1?$__crt_scoped_stack_ptr@_W@@QAE@XZ 100658b5 f i libucrt:lcmapstringa.obj
 0001:000648c0       ??B?$__crt_scoped_stack_ptr@_W@@QBE_NXZ 100658c0 f i libucrt:lcmapstringa.obj
 0001:00064b6e       ?get@?$__crt_scoped_stack_ptr@_W@@QBEPA_WXZ 10065b6e f i libucrt:lcmapstringa.obj
 0001:00064b71       __MallocaComputeSize       10065b71 f i libucrt:lcmapstringa.obj
 0001:00064b88       __MarkAllocaS              10065b88 f i libucrt:lcmapstringa.obj
 0001:00064ba3       ___acrt_LCMapStringA       10065ba3 f   libucrt:lcmapstringa.obj
 0001:00064c00       __freea_crt                10065c00 f i libucrt:lcmapstringa.obj
 0001:00064c28       ??$?RE@__crt_internal_free_policy@@QBEXQBE@Z 10065c28 f i libucrt:initctype.obj
 0001:00064c3e       ??$?RG@__crt_internal_free_policy@@QBEXQBG@Z 10065c3e f i libucrt:initctype.obj
 0001:00064c54       ??$?RJ@__crt_internal_free_policy@@QBEXQBJ@Z 10065c54 f i libucrt:initctype.obj
 0001:00064c6a       ??0?$__crt_unique_heap_ptr@EU__crt_internal_free_policy@@@@QAE@QAE@Z 10065c6a f i libucrt:initctype.obj
 0001:00064c7e       ??0?$__crt_unique_heap_ptr@GU__crt_internal_free_policy@@@@QAE@QAG@Z 10065c7e f i libucrt:initctype.obj
 0001:00064c92       ??0?$__crt_unique_heap_ptr@JU__crt_internal_free_policy@@@@QAE@QAJ@Z 10065c92 f i libucrt:initctype.obj
 0001:00064ca6       ??1?$__crt_unique_heap_ptr@EU__crt_internal_free_policy@@@@QAE@XZ 10065ca6 f i libucrt:initctype.obj
 0001:00064cbc       ??1?$__crt_unique_heap_ptr@GU__crt_internal_free_policy@@@@QAE@XZ 10065cbc f i libucrt:initctype.obj
 0001:00064cd2       ??1?$__crt_unique_heap_ptr@JU__crt_internal_free_policy@@@@QAE@XZ 10065cd2 f i libucrt:initctype.obj
 0001:00064ce8       ?detach@?$__crt_unique_heap_ptr@EU__crt_internal_free_policy@@@@QAEPAEXZ 10065ce8 f i libucrt:initctype.obj
 0001:00064cee       ?detach@?$__crt_unique_heap_ptr@GU__crt_internal_free_policy@@@@QAEPAGXZ 10065cee f i libucrt:initctype.obj
 0001:00064cf4       ?detach@?$__crt_unique_heap_ptr@JU__crt_internal_free_policy@@@@QAEPAJXZ 10065cf4 f i libucrt:initctype.obj
 0001:00064cfa       ?release@?$__crt_unique_heap_ptr@EU__crt_internal_free_policy@@@@QAEXXZ 10065cfa f i libucrt:initctype.obj
 0001:00064d10       ?release@?$__crt_unique_heap_ptr@GU__crt_internal_free_policy@@@@QAEXXZ 10065d10 f i libucrt:initctype.obj
 0001:00064d26       ?release@?$__crt_unique_heap_ptr@JU__crt_internal_free_policy@@@@QAEXXZ 10065d26 f i libucrt:initctype.obj
 0001:00064d3c       ____lc_codepage_func       10065d3c f   libucrt:initctype.obj
 0001:00064d6c       ____lc_collate_cp_func     10065d6c f   libucrt:initctype.obj
 0001:00064d9c       ____lc_locale_name_func    10065d9c f   libucrt:initctype.obj
 0001:00064dcf       ____mb_cur_max_func        10065dcf f   libucrt:initctype.obj
 0001:00064dff       ____mb_cur_max_l_func      10065dff f   libucrt:initctype.obj
 0001:00064e1e       ___acrt_locale_initialize_ctype 10065e1e f   libucrt:initctype.obj
 0001:000652a3       ___acrt_add_locale_ref     100662a3 f   libucrt:locale_refcounting.obj
 0001:0006533f       ___acrt_free_locale        1006633f f   libucrt:locale_refcounting.obj
 0001:000654db       ___acrt_locale_add_lc_time_reference 100664db f   libucrt:locale_refcounting.obj
 0001:0006550e       ___acrt_locale_free_lc_time_if_unreferenced 1006650e f   libucrt:locale_refcounting.obj
 0001:0006554a       ___acrt_locale_release_lc_time_reference 1006654a f   libucrt:locale_refcounting.obj
 0001:0006557d       ___acrt_release_locale_ref 1006657d f   libucrt:locale_refcounting.obj
 0001:0006561e       ___acrt_update_thread_locale_data 1006661e f   libucrt:locale_refcounting.obj
 0001:000656b2       __updatetlocinfoEx_nolock  100666b2 f   libucrt:locale_refcounting.obj
 0001:00065716       ___acrt_fp_strflt_to_string 10066716 f   libucrt:_fptostr.obj
 0001:00066f40       ??0big_integer@__crt_strtox@@QAE@ABU01@@Z 10067f40 f i libucrt:cfout.obj
 0001:00066f80       ??0big_integer@__crt_strtox@@QAE@XZ 10067f80 f i libucrt:cfout.obj
 0001:00066f8b       ??0scoped_fp_state_reset@?A0x3568b024@@QAE@XZ 10067f8b f i libucrt:cfout.obj
 0001:00066fbf       ??1scoped_fp_state_reset@?A0x3568b024@@QAE@XZ 10067fbf f i libucrt:cfout.obj
 0001:00066fd0       ??4big_integer@__crt_strtox@@QAEAAU01@ABU01@@Z 10067fd0 f i libucrt:cfout.obj
 0001:00067010       ??8__crt_strtox@@YA_NABUbig_integer@0@0@Z 10068010 f i libucrt:cfout.obj
 0001:00067060       ??9__crt_strtox@@YA_NABUbig_integer@0@0@Z 10068060 f i libucrt:cfout.obj
 0001:000670c0       ?add_carry@__crt_strtox@@YAIAAIII@Z 100680c0 f i libucrt:cfout.obj
 0001:000670f0       ?add_multiply_carry@__crt_strtox@@YAIAAIIII@Z 100680f0 f i libucrt:cfout.obj
 0001:00067120       ?bit_scan_reverse@__crt_strtox@@YAII@Z 10068120 f i libucrt:cfout.obj
 0001:00067150       ?count_sequential_high_zeroes@__crt_strtox@@YAII@Z 10068150 f i libucrt:cfout.obj
 0001:00067180       ?divide@__crt_strtox@@YA_KAAUbig_integer@1@ABU21@@Z 10068180 f i libucrt:cfout.obj
 0001:00067760       ?is_zero@__crt_strtox@@YA_NABUbig_integer@1@@Z 10068760 f i libucrt:cfout.obj
 0001:00067780       ?make_big_integer@__crt_strtox@@YA?AUbig_integer@1@_K@Z 10068780 f i libucrt:cfout.obj
 0001:000677b0       ?make_big_integer_power_of_two@__crt_strtox@@YA?AUbig_integer@1@I@Z 100687b0 f i libucrt:cfout.obj
 0001:00067810       ?multiply@__crt_strtox@@YA_NAAUbig_integer@1@ABU21@@Z 10068810 f i libucrt:cfout.obj
 0001:00067cc0       ?multiply@__crt_strtox@@YA_NAAUbig_integer@1@I@Z 10068cc0 f i libucrt:cfout.obj
 0001:00067dc0       ?multiply_64_32@__crt_strtox@@YA_K_KI@Z 10068dc0 f i libucrt:cfout.obj
 0001:00067de0       ?multiply_by_power_of_ten@__crt_strtox@@YA_NAAUbig_integer@1@I@Z 10068de0 f i libucrt:cfout.obj
 0001:000684e0       ?multiply_core@__crt_strtox@@YAIQAIII@Z 100694e0 f i libucrt:cfout.obj
 0001:00068530       ?shift_left@__crt_strtox@@YA_NAAUbig_integer@1@I@Z 10069530 f i libucrt:cfout.obj
 0001:000686d2       ___acrt_fltout             100696d2 f   libucrt:cfout.obj
 0001:00069ff6       __isatty                   1006aff6 f   libucrt:isatty.obj
 0001:0006a061       ??$?RUlconv@@@__crt_internal_free_policy@@QBEXQBUlconv@@@Z 1006b061 f i libucrt:initmon.obj
 0001:0006a077       ??0?$__crt_unique_heap_ptr@Ulconv@@U__crt_internal_free_policy@@@@QAE@QAUlconv@@@Z 1006b077 f i libucrt:initmon.obj
 0001:0006a08b       ??1?$__crt_unique_heap_ptr@Ulconv@@U__crt_internal_free_policy@@@@QAE@XZ 1006b08b f i libucrt:initmon.obj
 0001:0006a0a1       ?detach@?$__crt_unique_heap_ptr@Ulconv@@U__crt_internal_free_policy@@@@QAEPAUlconv@@XZ 1006b0a1 f i libucrt:initmon.obj
 0001:0006a0a7       ?release@?$__crt_unique_heap_ptr@Ulconv@@U__crt_internal_free_policy@@@@QAEXXZ 1006b0a7 f i libucrt:initmon.obj
 0001:0006a0bd       ___acrt_locale_free_monetary 1006b0bd f   libucrt:initmon.obj
 0001:0006a1fa       ___acrt_locale_initialize_monetary 1006b1fa f   libucrt:initmon.obj
 0001:0006a6ed       ___acrt_locale_free_numeric 1006b6ed f   libucrt:initnum.obj
 0001:0006a770       ___acrt_locale_initialize_numeric 1006b770 f   libucrt:initnum.obj
 0001:0006aa5b       ??$?RU__crt_lc_time_data@@@__crt_internal_free_policy@@QBEXQBU__crt_lc_time_data@@@Z 1006ba5b f i libucrt:inittime.obj
 0001:0006aafb       ??0?$__crt_unique_heap_ptr@U__crt_lc_time_data@@U__crt_internal_free_policy@@@@QAE@QAU__crt_lc_time_data@@@Z 1006bafb f i libucrt:inittime.obj
 0001:0006ab0f       ??1?$__crt_unique_heap_ptr@U__crt_lc_time_data@@U__crt_internal_free_policy@@@@QAE@XZ 1006bb0f f i libucrt:inittime.obj
 0001:0006ab25       ??B?$__crt_unique_heap_ptr@U__crt_lc_time_data@@U__crt_internal_free_policy@@@@QBE_NXZ 1006bb25 f i libucrt:inittime.obj
 0001:0006ab2f       ?detach@?$__crt_unique_heap_ptr@U__crt_lc_time_data@@U__crt_internal_free_policy@@@@QAEPAU__crt_lc_time_data@@XZ 1006bb2f f i libucrt:inittime.obj
 0001:0006ab80       ?get@?$__crt_unique_heap_ptr@U__crt_lc_time_data@@U__crt_internal_free_policy@@@@QBEPAU__crt_lc_time_data@@XZ 1006bb80 f i libucrt:inittime.obj
 0001:0006af18       ?is_valid@?$__crt_unique_heap_ptr@U__crt_lc_time_data@@U__crt_internal_free_policy@@@@QBE_NXZ 1006bf18 f i libucrt:inittime.obj
 0001:0006af22       ?release@?$__crt_unique_heap_ptr@U__crt_lc_time_data@@U__crt_internal_free_policy@@@@QAEXXZ 1006bf22 f i libucrt:inittime.obj
 0001:0006af38       ___acrt_locale_free_time   1006bf38 f   libucrt:inittime.obj
 0001:0006b055       ___acrt_locale_initialize_time 1006c055 f   libucrt:inittime.obj
 0001:0006b1f3       _wcsncpy_s                 1006c1f3 f   libucrt:wcsncpy_s.obj
 0001:0006b200       _wcscspn                   1006c200 f   libucrt:wcscspn.obj
 0001:0006b264       _wcsncmp                   1006c264 f   libucrt:wcsncmp.obj
 0001:0006b2ac       _wcspbrk                   1006c2ac f   libucrt:wcspbrk.obj
 0001:0006b302       ___acrt_GetStringTypeA     1006c302 f   libucrt:getstringtypea.obj
 0001:0006bd76       ___acrt_get_qualified_locale 1006cd76 f   libucrt:get_qualified_locale.obj
 0001:0006c91d       ___acrt_get_qualified_locale_downlevel 1006d91d f   libucrt:getqloc_downlevel.obj
 0001:0006cba5       _localeconv                1006dba5 f   libucrt:localeconv.obj
 0001:0006cbd9       __wcsnicmp                 1006dbd9 f   libucrt:wcsnicmp.obj
 0001:0006ccbf       __wcsnicmp_l               1006dcbf f   libucrt:wcsnicmp.obj
 0001:0006ce00       __strnicmp                 1006de00 f   libucrt:strnicmp.obj
 0001:0006ce87       __strnicmp_l               1006de87 f   libucrt:strnicmp.obj
 0001:0006cf6b       ??$__vcrt_va_start_verify_argument_type@$$CBH@@YAXXZ 1006df6b f i libucrt:open.obj
 0001:0006d322       ??$tsopen_nolock@PAHABQAHABQBDABHABHABHABH@?$__crt_char_traits@D@@SAH$$QAPAHABQAHABQBDABH333@Z 1006e322 f i libucrt:open.obj
 0001:0006d360       ??$tsopen_nolock@PAHABQAHABQB_WABHABHABHABH@?$__crt_char_traits@_W@@SAH$$QAPAHABQAHABQB_WABH333@Z 1006e360 f i libucrt:open.obj
 0001:0006d39e       ??$tsopen_nolock@PAHPAHABQBDABHHABHH@?$__crt_char_traits@D@@SAH$$QAPAH0ABQBDABH$$QAH23@Z 1006e39e f i libucrt:open.obj
 0001:0006d3dc       ??$tsopen_nolock@PAHPAHABQB_WABHHABHH@?$__crt_char_traits@_W@@SAH$$QAPAH0ABQB_WABH$$QAH23@Z 1006e3dc f i libucrt:open.obj
 0001:0006dbaa       __open                     1006ebaa f   libucrt:open.obj
 0001:0006dbc8       __sopen                    1006ebc8 f   libucrt:open.obj
 0001:0006dc0a       __sopen_dispatch           1006ec0a f   libucrt:open.obj
 0001:0006dc17       __sopen_nolock             1006ec17 f   libucrt:open.obj
 0001:0006dc7c       __sopen_s                  1006ec7c f   libucrt:open.obj
 0001:0006dca4       __wopen                    1006eca4 f   libucrt:open.obj
 0001:0006dcc2       __wsopen                   1006ecc2 f   libucrt:open.obj
 0001:0006dd04       __wsopen_dispatch          1006ed04 f   libucrt:open.obj
 0001:0006dd11       __wsopen_nolock            1006ed11 f   libucrt:open.obj
 0001:0006e104       __wsopen_s                 1006f104 f   libucrt:open.obj
 0001:0006e12c       ___p__commode              1006f12c f   libucrt:ncommode.obj
 0001:0006e132       ___acrt_stdio_allocate_buffer_nolock 1006f132 f   libucrt:_getbuf.obj
 0001:0006e1a6       ??$?RV<lambda_4980db0136e49a56f91ef52c46ca659a>@@AAV<lambda_6e3e78bb6855d1e4040e022c1b427e22>@@V<lambda_9c074eaf62197b4fd0274ed9e7824161>@@@?$__crt_seh_guarded_call@G@@QAEG$$QAV<lambda_4980db0136e49a56f91ef52c46ca659a>@@AAV<lambda_6e3e78bb6855d1e4040e022c1b427e22>@@$$QAV<lambda_9c074eaf62197b4fd0274ed9e7824161>@@@Z 1006f1a6 f i libucrt:putwch.obj
 0001:0006e21b       ??$__acrt_lock_and_call@V<lambda_6e3e78bb6855d1e4040e022c1b427e22>@@@@YAGW4__acrt_lock_id@@$$QAV<lambda_6e3e78bb6855d1e4040e022c1b427e22>@@@Z 1006f21b f i libucrt:putwch.obj
 0001:0006e2b3       __putwch                   1006f2b3 f   libucrt:putwch.obj
 0001:0006e2d7       __putwch_nolock            1006f2d7 f   libucrt:putwch.obj
 0001:0006e32d       _nextafter                 1006f32d f   libucrt:nextafter.obj
 0001:0006e365       __wcsnicoll                1006f365 f   libucrt:wcsnicol.obj
 0001:0006e469       __wcsnicoll_l              1006f469 f   libucrt:wcsnicol.obj
 0001:0006e5e1       __strnicoll                1006f5e1 f   libucrt:strnicol.obj
 0001:0006e614       __strnicoll_l              1006f614 f   libucrt:strnicol.obj
 0001:0006e74f       __msize                    1006f74f f   libucrt:msize.obj
 0001:0006e78e       ___strncnt                 1006f78e f   libucrt:strncnt.obj
 0001:0006e8ea       ___acrt_GetLocaleInfoA     1006f8ea f   libucrt:getlocaleinfoa.obj
 0001:0006eb08       _fegetenv                  1006fb08 f   libucrt:fegetenv.obj
 0001:0006eb2c       _fesetenv                  1006fb2c f   libucrt:fesetenv.obj
 0001:0006eb87       _feholdexcept              1006fb87 f   libucrt:feholdexcept.obj
 0001:0006ebf0       _log10                     1006fbf0 f   libucrt:log10.obj
 0001:0006ec30       __CIlog10                  1006fc30 f   libucrt:log10.obj
 0001:0006ec6b       __CIlog10_default          1006fc6b f   libucrt:log10.obj
 0001:0006ec7f       __log10_default            1006fc7f     libucrt:log10.obj
 0001:0006eda0       _ceil                      1006fda0 f   libucrt:ceil_pentium4.obj
 0001:0006ede0       __ceil_pentium4            1006fde0 f   libucrt:ceil_pentium4.obj
 0001:0006ef04       __wcsicmp                  1006ff04 f   libucrt:wcsicmp.obj
 0001:0006efbe       __wcsicmp_l                1006ffbe f   libucrt:wcsicmp.obj
 0001:0006f0d6       __towlower_l               100700d6 f   libucrt:towlower.obj
 0001:0006f1d1       _towlower                  100701d1 f   libucrt:towlower.obj
 0001:0006f1f0       ___ascii_strnicmp          100701f0 f   libucrt:_strnicm.obj
 0001:0006f269       ??$__crt_interlocked_read@H@@YAHPDH@Z 10070269 f i libucrt:setmode.obj
 0001:0006f278       __get_fmode                10070278 f   libucrt:setmode.obj
 0001:0006f2af       __set_fmode                100702af f   libucrt:setmode.obj
 0001:0006f2fb       __setmode                  100702fb f   libucrt:setmode.obj
 0001:0006f44c       __setmode_nolock           1007044c f   libucrt:setmode.obj
 0001:0006f551       ??$?RV<lambda_4cfda81533ccf5a03113a1ca40a30445>@@AAV<lambda_1cffa78e445b1da5fba1a2e0e533226f>@@V<lambda_68c952aa1b860373b2109ef12d0bba9d>@@@?$__crt_seh_guarded_call@H@@QAEH$$QAV<lambda_4cfda81533ccf5a03113a1ca40a30445>@@AAV<lambda_1cffa78e445b1da5fba1a2e0e533226f>@@$$QAV<lambda_68c952aa1b860373b2109ef12d0bba9d>@@@Z 10070551 f i libucrt:chsize.obj
 0001:0006f5fb       ??$__acrt_lowio_lock_fh_and_call@V<lambda_1cffa78e445b1da5fba1a2e0e533226f>@@@@YAHH$$QAV<lambda_1cffa78e445b1da5fba1a2e0e533226f>@@@Z 100705fb f i libucrt:chsize.obj
 0001:0006f6dd       __chsize                   100706dd f   libucrt:chsize.obj
 0001:0006f700       __chsize_nolock            10070700 f   libucrt:chsize.obj
 0001:0006f8f5       __chsize_s                 100708f5 f   libucrt:chsize.obj
 0001:0006f9b6       __umask                    100709b6 f   libucrt:umask.obj
 0001:0006f9e4       __umask_s                  100709e4 f   libucrt:umask.obj
 0001:0006fa2d       ___dcrt_lowio_initialize_console_output 10070a2d f   libucrt:initcon.obj
 0001:0006fa53       ___dcrt_terminate_console_output 10070a53 f   libucrt:initcon.obj
 0001:0006fa6f       _nexttoward                10070a6f f   libucrt:nexttoward.obj
 0001:0006fc20       ___acrt_CompareStringW     10070c20 f   libucrt:comparestringw.obj
 0001:0006fff4       ___acrt_CompareStringA     10070ff4 f   libucrt:comparestringa.obj
 0001:0007012b       _strncpy_s                 1007112b f   libucrt:strncpy_s.obj
 0001:00070138       ___acrt_fenv_get_fp_status_word_from_exception_mask 10071138 f   libucrt:_fenvutils.obj
 0001:0007057b       __getfpcontrolword         1007157b f   libucrt:_fenvutils.obj
 0001:000705ce       __getfpstatusword          100715ce f   libucrt:_fenvutils.obj
 0001:000706a0       __setfpcontrolword         100716a0 f   libucrt:_fenvutils.obj
 0001:00070740       __setfpstatusword          10071740 f   libucrt:_fenvutils.obj
 0001:00070976       ___control87_2             10071976 f   libucrt:ieee87.obj
 0001:00070f4a       ___fpreset_sse2            10071f4a f   libucrt:ieee87.obj
 0001:0007119d       __clearfp                  1007219d f   libucrt:ieee87.obj
 0001:000712b2       __control87                100722b2 f   libucrt:ieee87.obj
 0001:00071674       __controlfp                10072674 f   libucrt:ieee87.obj
 0001:00071694       __fpreset                  10072694 f   libucrt:ieee87.obj
 0001:00071791       __set_controlfp            10072791 f   libucrt:ieee87.obj
 0001:00071827       __statusfp                 10072827 f   libucrt:ieee87.obj
 0001:000718ea       __statusfp2                100728ea f   libucrt:ieee87.obj
 0001:00071967       ___acrt_initialize_sse2    10072967 f   libucrt:mathfcns.obj
 0001:00071979       __set_SSE2_enable          10072979 f   libucrt:mathfcns.obj
 0001:000719b0       __CIlog10_pentium4         100729b0 f   libucrt:log10_pentium4.obj
 0001:000719c8       __log10_pentium4           100729c8     libucrt:log10_pentium4.obj
 0001:00071d01       __fFEXP                    10072d01     libucrt:87tran.obj
 0001:00071d58       __rtinfpopse               10072d58     libucrt:87tran.obj
 0001:00071d5a       __rtinfnpopse              10072d5a     libucrt:87tran.obj
 0001:00071d6a       __fFLN                     10072d6a     libucrt:87tran.obj
 0001:00071e1f       __rtinfpop                 10072e1f     libucrt:87tran.obj
 0001:00071e21       __rtinfnpop                10072e21     libucrt:87tran.obj
 0001:00071e3e       __ffexpm1                  10072e3e     libucrt:87tran.obj
 0001:00071f70       __trandisp1                10072f70 f   libucrt:87disp.obj
 0001:00071fd7       __trandisp2                10072fd7 f   libucrt:87disp.obj
 0001:00072063       __rttospopde               10073063     libucrt:87disp.obj
 0001:00072068       __rttospop                 10073068     libucrt:87disp.obj
 0001:0007206a       __rtnospop                 1007306a     libucrt:87disp.obj
 0001:0007206c       __rttosnpop                1007306c     libucrt:87disp.obj
 0001:0007206d       __rtnospopde               1007306d     libucrt:87disp.obj
 0001:00072074       __rtzeropop                10073074     libucrt:87disp.obj
 0001:00072076       __rtzeronpop               10073076     libucrt:87disp.obj
 0001:0007207b       __rtzerospop               1007307b     libucrt:87disp.obj
 0001:00072088       __rtonepop                 10073088     libucrt:87disp.obj
 0001:0007208a       __rtonenpop                1007308a     libucrt:87disp.obj
 0001:0007208f       __tosnan1                  1007308f     libucrt:87disp.obj
 0001:000720ba       __nosnan2                  100730ba     libucrt:87disp.obj
 0001:000720bc       __tosnan2                  100730bc     libucrt:87disp.obj
 0001:000720e4       __nan2                     100730e4     libucrt:87disp.obj
 0001:00072123       __rtindfpop                10073123     libucrt:87disp.obj
 0001:00072125       __rtindfnpop               10073125     libucrt:87disp.obj
 0001:00072136       __rttosnpopde              10073136     libucrt:87disp.obj
 0001:00072140       __rtatan2inf               10073140     libucrt:87disp.obj
 0001:0007215d       __rtchsifneg               1007315d     libucrt:87disp.obj
 0001:000721e1       ___setfflag                100731e1 f   libucrt:fp_flags.obj
 0001:00072200       __twoToTOS                 10073200 f   libucrt:common.obj
 0001:00072215       __load_CW                  10073215 f   libucrt:common.obj
 0001:0007222c       __convertTOStoQNaN         1007322c f   libucrt:common.obj
 0001:00072245       __fload_withFB             10073245 f   libucrt:common.obj
 0001:00072288       __checkTOS_withFB          10073288 f   libucrt:common.obj
 0001:0007229e       __fast_exit                1007329e f   libucrt:common.obj
 0001:000722ab       __math_exit                100732ab f   libucrt:common.obj
 0001:000722d5       __check_overflow_exit      100732d5 f   libucrt:common.obj
 0001:000722e9       __check_range_exit         100732e9 f   libucrt:common.obj
 0001:000723f0       __startTwoArgErrorHandling 100733f0 f   libucrt:genexcep.obj
 0001:00072407       __startOneArgErrorHandling 10073407 f   libucrt:genexcep.obj
 0001:00072457       ___libm_error_support      10073457 f   libucrt:libm_error.obj
 0001:000726f5       ___libm_setusermatherr     100736f5 f   libucrt:libm_error.obj
 0001:0007272e       __ceil_default             1007372e f   libucrt:ceil.obj
 0001:00072815       ___acrt_LCMapStringW       10073815 f   libucrt:lcmapstringw.obj
 0001:00072862       ___p__fmode                10073862 f   libucrt:txtmode.obj
 0001:00072868       __d_int                    10073868 f   libucrt:_test.obj
 0001:000729b0       __dtest                    100739b0 f   libucrt:_test.obj
 0001:00072a2d       __fd_int                   10073a2d f   libucrt:_test.obj
 0001:00072b2f       __fdtest                   10073b2f f   libucrt:_test.obj
 0001:00072b90       __fperrraise               10073b90 f   libucrt:_test.obj
 0001:00072bbb       __ld_int                   10073bbb f   libucrt:_test.obj
 0001:00072bc8       __ldtest                   10073bc8 f   libucrt:_test.obj
 0001:00072c6d       __controlfp_s              10073c6d f   libucrt:contrlfp.obj
 0001:00072ce3       __d_inttype                10073ce3 f   libucrt:powhlp.obj
 0001:00072d67       __powhlp                   10073d67 f   libucrt:powhlp.obj
 0001:00072edc       __87except                 10073edc f   libucrt:87except.obj
 0001:00073029       __frnd                     10074029 f   libucrt:frnd.obj
 0001:00073044       _fegetexceptflag           10074044 f   libucrt:fegetexceptflag.obj
 0001:00073081       _fesetexceptflag           10074081 f   libucrt:fesetexceptflag.obj
 0001:000730e2       _fetestexcept              100740e2 f   libucrt:fetestexcept.obj
 0001:00073110       __FindPESection            10074110 f   LIBCMT:pesect.obj
 0001:00073170       __IsNonwritableInCurrentImage 10074170 f   LIBCMT:pesect.obj
 0001:00073260       __ValidateImageBase        10074260 f   LIBCMT:pesect.obj
 0001:000732a0       __aulldvrm                 100742a0 f   LIBCMT:ulldvrm.obj
 0001:0007335a       ??1type_info@@UAE@XZ       1007435a f   LIBCMT:std_type_info_static.obj
 0001:00073361       ??_Gtype_info@@UAEPAXI@Z   10074361 f i LIBCMT:std_type_info_static.obj
 0001:00073361       ??_Etype_info@@UAEPAXI@Z   10074361 f i LIBCMT:std_type_info_static.obj
 0001:00073390       __SEH_prolog4_GS           10074390 f   LIBCMT:_sehprolg4gs_.obj
 0001:000733d9       __SEH_epilog4_GS           100743d9 f   LIBCMT:_sehprolg4gs_.obj
 0001:00073400       __allmul                   10074400 f   LIBCMT:llmul.obj
 0001:00073450       __alldvrm                  10074450 f   LIBCMT:lldvrm.obj
 0001:00073570       __aullshr                  10074570 f   LIBCMT:ullshr.obj
 0001:000735a0       __chkstk                   100745a0 f   LIBCMT:chkstk.obj
 0001:000735a0       __alloca_probe             100745a0 f   LIBCMT:chkstk.obj
 0001:000735e0       __alloca_probe_16          100745e0 f   LIBCMT:alloca16.obj
 0001:000735f6       __alloca_probe_8           100745f6     LIBCMT:alloca16.obj
 0001:00073620       __allshl                   10074620 f   LIBCMT:llshl.obj
 0001:00073650       __ftol2_sse                10074650 f   LIBCMT:_ftol2_.obj
 0001:00073659       __ftol2_pentium4           10074659 f   LIBCMT:_ftol2_.obj
 0001:0007366c       __ftol2_sse_excpt          1007466c f   LIBCMT:_ftol2_.obj
 0001:00073690       __ftol2                    10074690 f   LIBCMT:_ftol2_.obj
 0001:00073732       __initialize_default_precision 10074732 f   LIBCMT:default_precision.obj
 0001:0007375b       ??3@YAXPAXI@Z              1007475b f   LIBCMT:delete_scalar_size.obj
 0001:0007376c       ??3@YAXPAX@Z               1007476c f   LIBCMT:delete_scalar.obj
 0001:00073772       _GetLastError@0            10074772 f   kernel32:KERNEL32.dll
 0001:00073778       _GetModuleFileNameW@12     10074778 f   kernel32:KERNEL32.dll
 0001:0007377e       _InterlockedPushEntrySList@8 1007477e f   kernel32:KERNEL32.dll
 0001:00073784       _InterlockedFlushSList@4   10074784 f   kernel32:KERNEL32.dll
 0001:0007378a       _InitializeCriticalSectionAndSpinCount@8 1007478a f   kernel32:KERNEL32.dll
 0001:00073790       _TlsAlloc@0                10074790 f   kernel32:KERNEL32.dll
 0001:00073796       _TlsGetValue@4             10074796 f   kernel32:KERNEL32.dll
 0001:0007379c       _TlsSetValue@8             1007479c f   kernel32:KERNEL32.dll
 0001:000737a2       _TlsFree@4                 100747a2 f   kernel32:KERNEL32.dll
 0001:000737a8       _FreeLibrary@4             100747a8 f   kernel32:KERNEL32.dll
 0001:000737ae       _LoadLibraryExW@12         100747ae f   kernel32:KERNEL32.dll
 0001:000737b4       _RtlUnwind@16              100747b4 f   kernel32:KERNEL32.dll
 0001:000737ba       _SetLastError@4            100747ba f   kernel32:KERNEL32.dll
 0001:000737c0       _EnterCriticalSection@4    100747c0 f   kernel32:KERNEL32.dll
 0001:000737c6       _LeaveCriticalSection@4    100747c6 f   kernel32:KERNEL32.dll
 0001:000737cc       _DeleteCriticalSection@4   100747cc f   kernel32:KERNEL32.dll
 0001:000737d2       _ExitProcess@4             100747d2 f   kernel32:KERNEL32.dll
 0001:000737d8       _GetModuleHandleExW@12     100747d8 f   kernel32:KERNEL32.dll
 0001:000737de       _GetStdHandle@4            100747de f   kernel32:KERNEL32.dll
 0001:000737e4       _GetFileType@4             100747e4 f   kernel32:KERNEL32.dll
 0001:000737ea       _GetModuleFileNameA@12     100747ea f   kernel32:KERNEL32.dll
 0001:000737f0       _WriteConsoleW@20          100747f0 f   kernel32:KERNEL32.dll
 0001:000737f6       _RaiseException@16         100747f6 f   kernel32:KERNEL32.dll
 0001:000737fc       _MultiByteToWideChar@24    100747fc f   kernel32:KERNEL32.dll
 0001:00073802       _WideCharToMultiByte@32    10074802 f   kernel32:KERNEL32.dll
 0001:00073808       _HeapFree@12               10074808 f   kernel32:KERNEL32.dll
 0001:0007380e       _HeapAlloc@12              1007480e f   kernel32:KERNEL32.dll
 0001:00073814       _GetDateFormatW@24         10074814 f   kernel32:KERNEL32.dll
 0001:0007381a       _GetTimeFormatW@24         1007481a f   kernel32:KERNEL32.dll
 0001:00073820       _CompareStringW@24         10074820 f   kernel32:KERNEL32.dll
 0001:00073826       _LCMapStringW@24           10074826 f   kernel32:KERNEL32.dll
 0001:0007382c       _GetLocaleInfoW@16         1007482c f   kernel32:KERNEL32.dll
 0001:00073832       _IsValidLocale@8           10074832 f   kernel32:KERNEL32.dll
 0001:00073838       _GetUserDefaultLCID@0      10074838 f   kernel32:KERNEL32.dll
 0001:0007383e       _EnumSystemLocalesW@8      1007483e f   kernel32:KERNEL32.dll
 0001:00073844       _GetCurrentThread@0        10074844 f   kernel32:KERNEL32.dll
 0001:0007384a       _GetACP@0                  1007484a f   kernel32:KERNEL32.dll
 0001:00073850       _HeapReAlloc@16            10074850 f   kernel32:KERNEL32.dll
 0001:00073856       _CloseHandle@4             10074856 f   kernel32:KERNEL32.dll
 0001:0007385c       _ReadFile@20               1007485c f   kernel32:KERNEL32.dll
 0001:00073862       _GetConsoleMode@8          10074862 f   kernel32:KERNEL32.dll
 0001:00073868       _ReadConsoleW@20           10074868 f   kernel32:KERNEL32.dll
 0001:0007386e       _WriteFile@20              1007486e f   kernel32:KERNEL32.dll
 0001:00073874       _GetConsoleCP@0            10074874 f   kernel32:KERNEL32.dll
 0001:0007387a       _DeleteFileW@4             1007487a f   kernel32:KERNEL32.dll
 0001:00073880       _SetFilePointerEx@20       10074880 f   kernel32:KERNEL32.dll
 0001:00073886       _OutputDebugStringA@4      10074886 f   kernel32:KERNEL32.dll
 0001:0007388c       _OutputDebugStringW@4      1007488c f   kernel32:KERNEL32.dll
 0001:00073892       _WaitForSingleObjectEx@12  10074892 f   kernel32:KERNEL32.dll
 0001:00073898       _CreateThread@24           10074898 f   kernel32:KERNEL32.dll
 0001:0007389e       _SetConsoleCtrlHandler@8   1007489e f   kernel32:KERNEL32.dll
 0001:000738a4       _IsValidCodePage@4         100748a4 f   kernel32:KERNEL32.dll
 0001:000738aa       _GetOEMCP@0                100748aa f   kernel32:KERNEL32.dll
 0001:000738b0       _GetCPInfo@8               100748b0 f   kernel32:KERNEL32.dll
 0001:000738b6       _GetEnvironmentStringsW@0  100748b6 f   kernel32:KERNEL32.dll
 0001:000738bc       _FreeEnvironmentStringsW@4 100748bc f   kernel32:KERNEL32.dll
 0001:000738c2       _SetEnvironmentVariableA@8 100748c2 f   kernel32:KERNEL32.dll
 0001:000738c8       _SetEnvironmentVariableW@8 100748c8 f   kernel32:KERNEL32.dll
 0001:000738ce       _GetProcessHeap@0          100748ce f   kernel32:KERNEL32.dll
 0001:000738d4       _GetCommandLineA@0         100748d4 f   kernel32:KERNEL32.dll
 0001:000738da       _GetCommandLineW@0         100748da f   kernel32:KERNEL32.dll
 0001:000738e0       _GetStringTypeW@16         100748e0 f   kernel32:KERNEL32.dll
 0001:000738e6       _FlushFileBuffers@4        100748e6 f   kernel32:KERNEL32.dll
 0001:000738ec       _SetStdHandle@8            100748ec f   kernel32:KERNEL32.dll
 0001:000738f2       _CreateFileW@28            100748f2 f   kernel32:KERNEL32.dll
 0001:000738f8       _HeapSize@12               100748f8 f   kernel32:KERNEL32.dll
 0001:000738fe       _SetEndOfFile@4            100748fe f   kernel32:KERNEL32.dll
 0001:00073904       _EncodePointer@4           10074904 f   kernel32:KERNEL32.dll
 0001:0007390a       _DecodePointer@4           1007490a f   kernel32:KERNEL32.dll
 0001:00073910       _SystemFunction036@8       10074910 f   advapi32:ADVAPI32.dll
 0001:00073920       _strrchr                   10074920 f   libvcruntime:strrchr.obj
 0001:00073c07       _memcmp                    10074c07 f   libvcruntime:_memcmp_.obj
 0001:000776ef       _wcschr                    100786ef f   libvcruntime:wcschr.obj
 0002:00000000       ___xc_a                    1007a000     LIBCMT:initializers.obj
 0002:00000104       ___xc_z                    1007a104     LIBCMT:initializers.obj
 0002:00000208       ___xi_a                    1007a208     LIBCMT:initializers.obj
 0002:0000030c       ___acrt_stdio_initializer  1007a30c     libucrt:stdio_initializer.obj
 0002:00000310       ___acrt_multibyte_initializer 1007a310     libucrt:multibyte_initializer.obj
 0002:00000314       ___acrt_tran_sse2_initializer 1007a314     libucrt:sse2_initializer.obj
 0002:0000041c       ___xi_z                    1007a41c     LIBCMT:initializers.obj
 0002:00000520       ___xp_a                    1007a520     LIBCMT:initializers.obj
 0002:00000624       ___acrt_locale_terminator  1007a624     libucrt:locale_initializer.obj
 0002:00000628       ___dcrt_console_output_terminator 1007a628     libucrt:console_output_initializer.obj
 0002:00000730       ___acrt_stdio_terminator   1007a730     libucrt:stdio_initializer.obj
 0002:00000834       ___xp_z                    1007a834     LIBCMT:initializers.obj
 0002:00000938       ___xt_a                    1007a938     LIBCMT:initializers.obj
 0002:00000a3c       ___xt_z                    1007aa3c     LIBCMT:initializers.obj
 0002:00000b40       _Control_software_v1_1_M   1007ab40     Control_software_v1_1.obj
 0002:00000b44       ??_C@_0BI@PBFPDHLE@Error?5creating?5scope?54?6?$AA@ 1007ab44     Control_software_v1_1.obj
 0002:00000b60       ??_C@_0CD@PABKEHBL@Logging?1Time_Scope_trigger?1Switc@ 1007ab60     Control_software_v1_1.obj
 0002:00000b8c       ??_C@_0N@JOPDLDLD@Var_Time?4dat?$AA@ 1007ab8c     Control_software_v1_1.obj
 0002:00000b9c       ??_C@_0BI@PHJEPFFP@Error?5creating?5scope?51?6?$AA@ 1007ab9c     Control_software_v1_1.obj
 0002:00000bb8       ??_C@_0N@JGBBFACG@Var_MVLK?4dat?$AA@ 1007abb8     Control_software_v1_1.obj
 0002:00000bc8       ??_C@_0BI@PEBACBDB@Error?5creating?5scope?53?6?$AA@ 1007abc8     Control_software_v1_1.obj
 0002:00000be4       ??_C@_0CM@PCIJLOAC@Logging?1Log_conditioning?1Rate?5Tr@ 1007abe4     Control_software_v1_1.obj
 0002:00000c18       ??_C@_0CM@NJKEONMB@Logging?1Log_conditioning?1Rate?5Tr@ 1007ac18     Control_software_v1_1.obj
 0002:00000c4c       ??_C@_0CM@MALPNMIA@Logging?1Log_conditioning?1Rate?5Tr@ 1007ac4c     Control_software_v1_1.obj
 0002:00000c80       ??_C@_0CM@IPPOEKEH@Logging?1Log_conditioning?1Rate?5Tr@ 1007ac80     Control_software_v1_1.obj
 0002:00000cb4       ??_C@_0CM@JGOFHLAG@Logging?1Log_conditioning?1Rate?5Tr@ 1007acb4     Control_software_v1_1.obj
 0002:00000ce8       ??_C@_0CM@LNMICIMF@Logging?1Log_conditioning?1Rate?5Tr@ 1007ace8     Control_software_v1_1.obj
 0002:00000d1c       ??_C@_0CM@KENDBJIE@Logging?1Log_conditioning?1Rate?5Tr@ 1007ad1c     Control_software_v1_1.obj
 0002:00000d50       ??_C@_0CM@CDELAFEL@Logging?1Log_conditioning?1Rate?5Tr@ 1007ad50     Control_software_v1_1.obj
 0002:00000d84       ??_C@_0CM@DKFADEAK@Logging?1Log_conditioning?1Rate?5Tr@ 1007ad84     Control_software_v1_1.obj
 0002:00000db8       ??_C@_0CN@DBLKNOGB@Logging?1Log_conditioning?1Rate?5Tr@ 1007adb8     Control_software_v1_1.obj
 0002:00000df0       ??_C@_0CN@CIKBOPCA@Logging?1Log_conditioning?1Rate?5Tr@ 1007adf0     Control_software_v1_1.obj
 0002:00000e28       ??_C@_0CN@DIMLMOD@Logging?1Log_conditioning?1Rate?5Tr@ 1007ae28     Control_software_v1_1.obj
 0002:00000e60       ??_C@_0CN@BKJHINKC@Logging?1Log_conditioning?1Rate?5Tr@ 1007ae60     Control_software_v1_1.obj
 0002:00000e98       ??_C@_0CN@FFNGBLGF@Logging?1Log_conditioning?1Rate?5Tr@ 1007ae98     Control_software_v1_1.obj
 0002:00000ed0       ??_C@_0CN@EMMNCKCE@Logging?1Log_conditioning?1Rate?5Tr@ 1007aed0     Control_software_v1_1.obj
 0002:00000f08       ??_C@_0CN@GHOAHJOH@Logging?1Log_conditioning?1Rate?5Tr@ 1007af08     Control_software_v1_1.obj
 0002:00000f40       ??_C@_0CN@HOPLEIKG@Logging?1Log_conditioning?1Rate?5Tr@ 1007af40     Control_software_v1_1.obj
 0002:00000f78       ??_C@_0CN@PJGDFEGJ@Logging?1Log_conditioning?1Rate?5Tr@ 1007af78     Control_software_v1_1.obj
 0002:00000fb0       ??_C@_0CN@OAHIGFCI@Logging?1Log_conditioning?1Rate?5Tr@ 1007afb0     Control_software_v1_1.obj
 0002:00000fe8       ??_C@_0CN@DDPMGADI@Logging?1Log_conditioning?1Rate?5Tr@ 1007afe8     Control_software_v1_1.obj
 0002:00001020       ??_C@_0CN@CKOHFBHJ@Logging?1Log_conditioning?1Rate?5Tr@ 1007b020     Control_software_v1_1.obj
 0002:00001058       ??_C@_0CN@BMKACLK@Logging?1Log_conditioning?1Rate?5Tr@ 1007b058     Control_software_v1_1.obj
 0002:00001090       ??_C@_0CN@BINBDDPL@Logging?1Log_conditioning?1Rate?5Tr@ 1007b090     Control_software_v1_1.obj
 0002:000010c8       ??_C@_0CN@FHJAKFDM@Logging?1Log_conditioning?1Rate?5Tr@ 1007b0c8     Control_software_v1_1.obj
 0002:00001100       ??_C@_0CN@EOILJEHN@Logging?1Log_conditioning?1Rate?5Tr@ 1007b100     Control_software_v1_1.obj
 0002:00001138       ??_C@_0CN@GFKGMHLO@Logging?1Log_conditioning?1Rate?5Tr@ 1007b138     Control_software_v1_1.obj
 0002:00001170       ??_C@_0CN@HMLNPGPP@Logging?1Log_conditioning?1Rate?5Tr@ 1007b170     Control_software_v1_1.obj
 0002:000011a8       ??_C@_0CN@PLCFOKDA@Logging?1Log_conditioning?1Rate?5Tr@ 1007b1a8     Control_software_v1_1.obj
 0002:000011e0       ??_C@_0CN@OCDONLHB@Logging?1Log_conditioning?1Rate?5Tr@ 1007b1e0     Control_software_v1_1.obj
 0002:00001218       ??_C@_0CN@DCDOAKAP@Logging?1Log_conditioning?1Rate?5Tr@ 1007b218     Control_software_v1_1.obj
 0002:00001250       ??_C@_0CN@CLCFDLEO@Logging?1Log_conditioning?1Rate?5Tr@ 1007b250     Control_software_v1_1.obj
 0002:00001288       ??_C@_0CN@IGIIN@Logging?1Log_conditioning?1Rate?5Tr@ 1007b288     Control_software_v1_1.obj
 0002:000012c0       ??_C@_0CN@BJBDFJMM@Logging?1Log_conditioning?1Rate?5Tr@ 1007b2c0     Control_software_v1_1.obj
 0002:000012f8       ??_C@_0CN@FGFCMPAL@Logging?1Log_conditioning?1Rate?5Tr@ 1007b2f8     Control_software_v1_1.obj
 0002:00001330       ??_C@_0CN@EPEJPOEK@Logging?1Log_conditioning?1Rate?5Tr@ 1007b330     Control_software_v1_1.obj
 0002:00001368       ??_C@_0M@LEOMEJEO@Var_100?4dat?$AA@ 1007b368     Control_software_v1_1.obj
 0002:00001378       ??_C@_0BI@PFNCELAG@Error?5creating?5scope?52?6?$AA@ 1007b378     Control_software_v1_1.obj
 0002:00001394       ??_C@_0DH@CHJBJNOH@Inputs?1RS232_read?1GPS_read?1Embed@ 1007b394     Control_software_v1_1.obj
 0002:000013d8       ??_C@_0DH@MLMMOCE@Inputs?1RS232_read?1GPS_read?1Embed@ 1007b3d8     Control_software_v1_1.obj
 0002:0000141c       ??_C@_0DH@BFKHPPGF@Inputs?1RS232_read?1GPS_read?1Embed@ 1007b41c     Control_software_v1_1.obj
 0002:00001460       ??_C@_0DH@FKOGGJKC@Inputs?1RS232_read?1GPS_read?1Embed@ 1007b460     Control_software_v1_1.obj
 0002:000014a4       ??_C@_09NPFKMDAO@Var_1?4dat?$AA@ 1007b4a4     Control_software_v1_1.obj
 0002:000014b0       ??_C@_0BI@PAJNFNID@Error?5creating?5scope?55?6?$AA@ 1007b4b0     Control_software_v1_1.obj
 0002:000014cc       ??_C@_0DI@LEILGLKC@Input?5conditioning?5and?5estimator@ 1007b4cc     Control_software_v1_1.obj
 0002:00001510       ??_C@_0CL@JGOJNICA@Interrupting?5board?5at?5?$FL0?0?5?91?$FN?3?5N@ 1007b510     Control_software_v1_1.obj
 0002:00001544       ??_C@_0CG@MEGHGBEC@ISR?5reg?5failed?5for?5IRQ?5?$CFd?5at?5?$FL0?0@ 1007b544     Control_software_v1_1.obj
 0002:00001574       ??_C@_0BC@OJJPBDHH@FixedStepDiscrete?$AA@ 1007b574     Control_software_v1_1.obj
 0002:00001589       ??_C@_00CNPNBAHC@?$AA@     1007b589     Control_software_v1_1.obj
 0002:0000158c       ??_C@_03HBFGMJOD@rt_?$AA@  1007b58c     Control_software_v1_1.obj
 0002:00001590       ??_C@_0BB@CEKNGLLH@Read?5Int?5Status1?$AA@ 1007b590     Control_software_v1_1.obj
 0002:000015a8       ??_C@_0GG@DNOMIEGA@Control_software_v1_1?1Inputs?1RS2@ 1007b5a8     Control_software_v1_1.obj
 0002:00001624       ??_C@_0BD@CMNGIDGM@Filter?5Int?5Reason5?$AA@ 1007b624     Control_software_v1_1.obj
 0002:00001640       ??_C@_0GI@NCBKDGBM@Control_software_v1_1?1Inputs?1RS2@ 1007b640     Control_software_v1_1.obj
 0002:000016bc       ??_C@_0M@FAEAPFJN@FIFO?5read?51?$AA@ 1007b6bc     Control_software_v1_1.obj
 0002:000016d0       ??_C@_0GB@KJLMIEOH@Control_software_v1_1?1Inputs?1RS2@ 1007b6d0     Control_software_v1_1.obj
 0002:00001744       ??_C@_0P@IMFDEIPE@Write?5HW?5FIFO1?$AA@ 1007b744     Control_software_v1_1.obj
 0002:00001758       ??_C@_0GE@FHBKFDAL@Control_software_v1_1?1Inputs?1RS2@ 1007b758     Control_software_v1_1.obj
 0002:000017d0       ??_C@_0BD@HPLNAKP@Filter?5Int?5Reason6?$AA@ 1007b7d0     Control_software_v1_1.obj
 0002:000017e8       ??_C@_0GI@PJDHGFNP@Control_software_v1_1?1Inputs?1RS2@ 1007b7e8     Control_software_v1_1.obj
 0002:00001864       ??_C@_0M@HLGNKGFO@FIFO?5read?52?$AA@ 1007b864     Control_software_v1_1.obj
 0002:00001878       ??_C@_0GB@ICJBNHCE@Control_software_v1_1?1Inputs?1RS2@ 1007b878     Control_software_v1_1.obj
 0002:000018ec       ??_C@_0P@KHHOBLDH@Write?5HW?5FIFO2?$AA@ 1007b8ec     Control_software_v1_1.obj
 0002:00001900       ??_C@_0GE@HMDHAAMI@Control_software_v1_1?1Inputs?1RS2@ 1007b900     Control_software_v1_1.obj
 0002:00001978       ??_C@_0BD@BOOAOBOO@Filter?5Int?5Reason7?$AA@ 1007b978     Control_software_v1_1.obj
 0002:00001990       ??_C@_0GI@OACMFEJO@Control_software_v1_1?1Inputs?1RS2@ 1007b990     Control_software_v1_1.obj
 0002:00001a0c       ??_C@_0M@GCHGJHBP@FIFO?5read?53?$AA@ 1007ba0c     Control_software_v1_1.obj
 0002:00001a20       ??_C@_0GB@JLIKOGGF@Control_software_v1_1?1Inputs?1RS2@ 1007ba20     Control_software_v1_1.obj
 0002:00001a94       ??_C@_0P@LOGFCKHG@Write?5HW?5FIFO3?$AA@ 1007ba94     Control_software_v1_1.obj
 0002:00001aa8       ??_C@_0GE@GFCMDBIJ@Control_software_v1_1?1Inputs?1RS2@ 1007baa8     Control_software_v1_1.obj
 0002:00001b20       ??_C@_0BD@JJHIPNCB@Filter?5Int?5Reason8?$AA@ 1007bb20     Control_software_v1_1.obj
 0002:00001b38       ??_C@_0GI@GHLEEIFB@Control_software_v1_1?1Inputs?1RS2@ 1007bb38     Control_software_v1_1.obj
 0002:00001bb4       ??_C@_0M@CNDHABNI@FIFO?5read?54?$AA@ 1007bbb4     Control_software_v1_1.obj
 0002:00001bc8       ??_C@_0GB@NEMLHAKC@Control_software_v1_1?1Inputs?1RS2@ 1007bbc8     Control_software_v1_1.obj
 0002:00001c3c       ??_C@_0P@PBCELMLB@Write?5HW?5FIFO4?$AA@ 1007bc3c     Control_software_v1_1.obj
 0002:00001c50       ??_C@_0GE@CKGNKHEO@Control_software_v1_1?1Inputs?1RS2@ 1007bc50     Control_software_v1_1.obj
 0002:00001cc8       ??_C@_0BD@EILKEGGI@Filter?5Int?5Reason1?$AA@ 1007bcc8     Control_software_v1_1.obj
 0002:00001ce0       ??_C@_0GI@LGHGPDBI@Control_software_v1_1?1Inputs?1RS2@ 1007bce0     Control_software_v1_1.obj
 0002:00001d5c       ??_C@_0O@JNEIFNPD@Read?5HW?5FIFO1?$AA@ 1007bd5c     Control_software_v1_1.obj
 0002:00001d70       ??_C@_0GD@GPJKHENJ@Control_software_v1_1?1Inputs?1RS2@ 1007bd70     Control_software_v1_1.obj
 0002:00001de8       ??_C@_0N@JPLHHADN@FIFO?5write?51?$AA@ 1007bde8     Control_software_v1_1.obj
 0002:00001df8       ??_C@_0GC@CPJOBEGO@Control_software_v1_1?1Inputs?1RS2@ 1007bdf8     Control_software_v1_1.obj
 0002:00001e70       ??_C@_0BD@GDJHBFKL@Filter?5Int?5Reason2?$AA@ 1007be70     Control_software_v1_1.obj
 0002:00001e88       ??_C@_0GI@JNFLKANL@Control_software_v1_1?1Inputs?1RS2@ 1007be88     Control_software_v1_1.obj
 0002:00001f04       ??_C@_0O@LGGFAODA@Read?5HW?5FIFO2?$AA@ 1007bf04     Control_software_v1_1.obj
 0002:00001f18       ??_C@_0GD@EELHCHBK@Control_software_v1_1?1Inputs?1RS2@ 1007bf18     Control_software_v1_1.obj
 0002:00001f90       ??_C@_0N@LEJKCDPO@FIFO?5write?52?$AA@ 1007bf90     Control_software_v1_1.obj
 0002:00001fa0       ??_C@_0GC@ELDEHKN@Control_software_v1_1?1Inputs?1RS2@ 1007bfa0     Control_software_v1_1.obj
 0002:00002018       ??_C@_0BD@HKIMCEOK@Filter?5Int?5Reason3?$AA@ 1007c018     Control_software_v1_1.obj
 0002:00002030       ??_C@_0GI@IEEAJBJK@Control_software_v1_1?1Inputs?1RS2@ 1007c030     Control_software_v1_1.obj
 0002:000020ac       ??_C@_0O@KPHODPHB@Read?5HW?5FIFO3?$AA@ 1007c0ac     Control_software_v1_1.obj
 0002:000020c0       ??_C@_0GD@FNKMBGFL@Control_software_v1_1?1Inputs?1RS2@ 1007c0c0     Control_software_v1_1.obj
 0002:00002138       ??_C@_0N@KNIBBCLP@FIFO?5write?53?$AA@ 1007c138     Control_software_v1_1.obj
 0002:00002148       ??_C@_0GC@BNKIHGOM@Control_software_v1_1?1Inputs?1RS2@ 1007c148     Control_software_v1_1.obj
 0002:000021c0       ??_C@_0BD@DFMNLCCN@Filter?5Int?5Reason4?$AA@ 1007c1c0     Control_software_v1_1.obj
 0002:000021d8       ??_C@_0GI@MLABAHFN@Control_software_v1_1?1Inputs?1RS2@ 1007c1d8     Control_software_v1_1.obj
 0002:00002254       ??_C@_0O@OADPKJLG@Read?5HW?5FIFO4?$AA@ 1007c254     Control_software_v1_1.obj
 0002:00002268       ??_C@_0GD@BCONIAJM@Control_software_v1_1?1Inputs?1RS2@ 1007c268     Control_software_v1_1.obj
 0002:000022e0       ??_C@_0N@OCMAIEHI@FIFO?5write?54?$AA@ 1007c2e0     Control_software_v1_1.obj
 0002:000022f0       ??_C@_0GC@FCOJOACL@Control_software_v1_1?1Inputs?1RS2@ 1007c2f0     Control_software_v1_1.obj
 0002:00002368       ??_C@_0M@KDIEODF@PCI?96221?5AD?$AA@ 1007c368     Control_software_v1_1.obj
 0002:00002378       ??_C@_0DH@HFEHINBN@Control_software_v1_1?1Inputs?1Ana@ 1007c378     Control_software_v1_1.obj
 0002:000023bc       ??_C@_0M@LJFNPCJD@PCI?96221?5DI?$AA@ 1007c3bc     Control_software_v1_1.obj
 0002:000023cc       ??_C@_0DI@LOEOMHAA@Control_software_v1_1?1Inputs?1Dig@ 1007c3cc     Control_software_v1_1.obj
 0002:00002410       ??_C@_0BB@EFMGDNLK@PCI?56221?5PFI?5DI?5?$AA@ 1007c410     Control_software_v1_1.obj
 0002:00002424       ??_C@_0DN@EFLEODAH@Control_software_v1_1?1Inputs?1Dig@ 1007c424     Control_software_v1_1.obj
 0002:00002470       ??_C@_0BC@HOGJCGBE@FIFO?5ASCII?5read?51?$AA@ 1007c470     Control_software_v1_1.obj
 0002:00002488       ??_C@_0EH@EEPFHKIA@Control_software_v1_1?1Inputs?1RS2@ 1007c488     Control_software_v1_1.obj
 0002:000024e0       ??_C@_0ED@BMDLEKDD@Control_software_v1_1?1Inputs?1RS2@ 1007c4e0     Control_software_v1_1.obj
 0002:00002530       ??_C@_0BB@IJIEKJDH@FIFO?5ASCII?5read?5?$AA@ 1007c530     Control_software_v1_1.obj
 0002:00002548       ??_C@_0EC@PGBFJNBK@Control_software_v1_1?1Inputs?1RS2@ 1007c548     Control_software_v1_1.obj
 0002:00002598       ??_C@_0DP@POEBMNMG@Control_software_v1_1?1Inputs?1RS2@ 1007c598     Control_software_v1_1.obj
 0002:000025e4       ??_C@_0M@GKEFOLG@Enable?5TX?51?$AA@ 1007c5e4     Control_software_v1_1.obj
 0002:000025f4       ??_C@_0DO@JLOGHGGI@Control_software_v1_1?1Inputs?1RS2@ 1007c5f4     Control_software_v1_1.obj
 0002:00002640       ??_C@_0DP@NFGMJOAF@Control_software_v1_1?1Inputs?1RS2@ 1007c640     Control_software_v1_1.obj
 0002:0000268c       ??_C@_0M@CNIJANHF@Enable?5TX?52?$AA@ 1007c68c     Control_software_v1_1.obj
 0002:0000269c       ??_C@_0DO@LAMLCFKL@Control_software_v1_1?1Inputs?1RS2@ 1007c69c     Control_software_v1_1.obj
 0002:000026e8       ??_C@_0DP@MMHHKPEE@Control_software_v1_1?1Inputs?1RS2@ 1007c6e8     Control_software_v1_1.obj
 0002:00002734       ??_C@_0M@DEJCDMDE@Enable?5TX?53?$AA@ 1007c734     Control_software_v1_1.obj
 0002:00002744       ??_C@_0DO@KJNABEOK@Control_software_v1_1?1Inputs?1RS2@ 1007c744     Control_software_v1_1.obj
 0002:00002790       ??_C@_0DP@IDDGDJID@Control_software_v1_1?1Inputs?1RS2@ 1007c790     Control_software_v1_1.obj
 0002:000027dc       ??_C@_0M@HLNDKKPD@Enable?5TX?54?$AA@ 1007c7dc     Control_software_v1_1.obj
 0002:000027ec       ??_C@_0DO@OGJBICCN@Control_software_v1_1?1Inputs?1RS2@ 1007c7ec     Control_software_v1_1.obj
 0002:00002838       ??_C@_06OKIIDEAB@Setup1?$AA@ 1007c838     Control_software_v1_1.obj
 0002:00002840       ??_C@_0DJ@ELEJPCMB@Control_software_v1_1?1Inputs?1RS2@ 1007c840     Control_software_v1_1.obj
 0002:00002884       ??_C@_06MBKFGHMC@Setup2?$AA@ 1007c884     Control_software_v1_1.obj
 0002:0000288c       ??_C@_0DJ@GAGEKBAC@Control_software_v1_1?1Inputs?1RS2@ 1007c88c     Control_software_v1_1.obj
 0002:000028d0       ??_C@_06NILOFGID@Setup3?$AA@ 1007c8d0     Control_software_v1_1.obj
 0002:000028d8       ??_C@_0DJ@HJHPJAED@Control_software_v1_1?1Inputs?1RS2@ 1007c8d8     Control_software_v1_1.obj
 0002:0000291c       ??_C@_06JHPPMAEE@Setup4?$AA@ 1007c91c     Control_software_v1_1.obj
 0002:00002924       ??_C@_0DJ@DGDOAGIE@Control_software_v1_1?1Inputs?1RS2@ 1007c924     Control_software_v1_1.obj
 0002:00002968       ??_C@_0BB@EBELEBAI@PCI?56221?5PFI?5DO?5?$AA@ 1007c968     Control_software_v1_1.obj
 0002:0000297c       ??_C@_0CP@CPMMPKJG@Control_software_v1_1?1Outputs?1PC@ 1007c97c     Control_software_v1_1.obj
 0002:000029b4       ??_C@_0M@HBIEHIJL@PCI?96221?5DA?$AA@ 1007c9b4     Control_software_v1_1.obj
 0002:000029c4       ??_C@_0CK@DFDDCBBK@Control_software_v1_1?1Outputs?1PC@ 1007c9c4     Control_software_v1_1.obj
 0002:000029f8       ??_C@_0M@OPAHFFBF@PCI?96221?5DO?$AA@ 1007c9f8     Control_software_v1_1.obj
 0002:00002a08       ??_C@_0CK@KLLAAMJE@Control_software_v1_1?1Outputs?1PC@ 1007ca08     Control_software_v1_1.obj
 0002:00002a40       __real@0000000000000000    1007ca40     Control_software_v1_1.obj
 0002:00002a50       __real@0010000000000000    1007ca50     Control_software_v1_1.obj
 0002:00002a60       __real@3f1a36e2eb1c432d    1007ca60     Control_software_v1_1.obj
 0002:00002a70       __real@3f50624dd2f1a9fc    1007ca70     Control_software_v1_1.obj
 0002:00002a80       __real@3f76c16c16c16c17    1007ca80     Control_software_v1_1.obj
 0002:00002a90       __real@3f816872b020c49c    1007ca90     Control_software_v1_1.obj
 0002:00002aa0       __real@3f847ae147ae147b    1007caa0     Control_software_v1_1.obj
 0002:00002ab0       __real@3f855714b9cb6849    1007cab0     Control_software_v1_1.obj
 0002:00002ac0       __real@3f91111111111111    1007cac0     Control_software_v1_1.obj
 0002:00002ad0       __real@3f947ae147ae147b    1007cad0     Control_software_v1_1.obj
 0002:00002ae0       __real@3fb999999999999a    1007cae0     Control_software_v1_1.obj
 0002:00002af0       __real@3fd5555555555555    1007caf0     Control_software_v1_1.obj
 0002:00002b00       __real@3fe0000000000000    1007cb00     Control_software_v1_1.obj
 0002:00002b10       __real@3fef5c28f5c28f5c    1007cb10     Control_software_v1_1.obj
 0002:00002b20       __real@3fefae147ae147ae    1007cb20     Control_software_v1_1.obj
 0002:00002b30       __real@3ff0000000000000    1007cb30     Control_software_v1_1.obj
 0002:00002b40       __real@3ff199999999999a    1007cb40     Control_software_v1_1.obj
 0002:00002b50       __real@4000000000000000    1007cb50     Control_software_v1_1.obj
 0002:00002b60       __real@4008000000000000    1007cb60     Control_software_v1_1.obj
 0002:00002b70       __real@400921fb54442d18    1007cb70     Control_software_v1_1.obj
 0002:00002b80       __real@4010000000000000    1007cb80     Control_software_v1_1.obj
 0002:00002b90       __real@4014000000000000    1007cb90     Control_software_v1_1.obj
 0002:00002ba0       __real@4018000000000000    1007cba0     Control_software_v1_1.obj
 0002:00002bb0       __real@401c000000000000    1007cbb0     Control_software_v1_1.obj
 0002:00002bc0       __real@4020000000000000    1007cbc0     Control_software_v1_1.obj
 0002:00002bd0       __real@4022000000000000    1007cbd0     Control_software_v1_1.obj
 0002:00002be0       __real@4024000000000000    1007cbe0     Control_software_v1_1.obj
 0002:00002bf0       __real@4026000000000000    1007cbf0     Control_software_v1_1.obj
 0002:00002c00       __real@4028000000000000    1007cc00     Control_software_v1_1.obj
 0002:00002c10       __real@4030000000000000    1007cc10     Control_software_v1_1.obj
 0002:00002c20       __real@403f000000000000    1007cc20     Control_software_v1_1.obj
 0002:00002c30       __real@4040000000000000    1007cc30     Control_software_v1_1.obj
 0002:00002c40       __real@4048000000000000    1007cc40     Control_software_v1_1.obj
 0002:00002c50       __real@4059000000000000    1007cc50     Control_software_v1_1.obj
 0002:00002c60       __real@405fc00000000000    1007cc60     Control_software_v1_1.obj
 0002:00002c70       __real@406f400000000000    1007cc70     Control_software_v1_1.obj
 0002:00002c80       __real@408f400000000000    1007cc80     Control_software_v1_1.obj
 0002:00002c90       __real@408ff80000000000    1007cc90     Control_software_v1_1.obj
 0002:00002ca0       __real@4090000000000000    1007cca0     Control_software_v1_1.obj
 0002:00002cb0       __real@41e0000000000000    1007ccb0     Control_software_v1_1.obj
 0002:00002cc0       __real@41f0000000000000    1007ccc0     Control_software_v1_1.obj
 0002:00002cd0       __real@4330000000000000    1007ccd0     Control_software_v1_1.obj
 0002:00002ce0       __real@8000000000000000    1007cce0     Control_software_v1_1.obj
 0002:00002cf0       __real@bfd5555555555555    1007ccf0     Control_software_v1_1.obj
 0002:00002d00       __real@bff0000000000000    1007cd00     Control_software_v1_1.obj
 0002:00002d10       __real@c000000000000000    1007cd10     Control_software_v1_1.obj
 0002:00002d20       __real@c008000000000000    1007cd20     Control_software_v1_1.obj
 0002:00002d30       __real@c024000000000000    1007cd30     Control_software_v1_1.obj
 0002:00002d40       __real@c08ff80000000000    1007cd40     Control_software_v1_1.obj
 0002:00002d50       __xmm@00000003000000020000000100000000 1007cd50     Control_software_v1_1.obj
 0002:00002d70       __xmm@00000499000000bf0000010500000004 1007cd70     Control_software_v1_1.obj
 0002:00002d90       __xmm@01010101010101010101010101010101 1007cd90     Control_software_v1_1.obj
 0002:00002db0       __xmm@2c2c2c2c2c2c2c2c2c2c2c2c2c2c2c2c 1007cdb0     Control_software_v1_1.obj
 0002:00002dd0       __xmm@3f847ae147ae147b3f50624dd2f1a9fc 1007cdd0     Control_software_v1_1.obj
 0002:00002df0       __xmm@3ff00000000000003f947ae147ae147b 1007cdf0     Control_software_v1_1.obj
 0002:00002e10       __xmm@41f00000000000000000000000000000 1007ce10     Control_software_v1_1.obj
 0002:00002e30       __xmm@7fffffffffffffff7fffffffffffffff 1007ce30     Control_software_v1_1.obj
 0002:00002e50       __xmm@80000000000000008000000000000000 1007ce50     Control_software_v1_1.obj
 0002:00002e68       ??_C@_0FB@LAFJOPCC@Inputs?1RS232_read?1IMU_read?1IMU_d@ 1007ce68     Control_software_v1_1_capi.obj
 0002:00002ecc       ??_C@_02IPGJIHBB@Vx?$AA@   1007cecc     Control_software_v1_1_capi.obj
 0002:00002ed0       ??_C@_0FC@BDINBPLJ@Inputs?1RS232_read?1IMU_read?1IMU_d@ 1007ced0     Control_software_v1_1_capi.obj
 0002:00002f34       ??_C@_02JGHCLGFA@Vy?$AA@   1007cf34     Control_software_v1_1_capi.obj
 0002:00002f38       ??_C@_0FC@CBLLHNDL@Inputs?1RS232_read?1IMU_read?1IMU_d@ 1007cf38     Control_software_v1_1_capi.obj
 0002:00002f9c       ??_C@_02LNFPOFJD@Vz?$AA@   1007cf9c     Control_software_v1_1_capi.obj
 0002:00002fa0       ??_C@_0FA@FOIBDAOC@Inputs?1RS232_read?1IMU_read?1IMU_d@ 1007cfa0     Control_software_v1_1_capi.obj
 0002:00003000       ??_C@_02JDNACDDI@q1?$AA@   1007d000     Control_software_v1_1_capi.obj
 0002:00003008       ??_C@_0FB@IIAHAFNG@Inputs?1RS232_read?1IMU_read?1IMU_d@ 1007d008     Control_software_v1_1_capi.obj
 0002:0000306c       ??_C@_02LIPNHAPL@q2?$AA@   1007d06c     Control_software_v1_1_capi.obj
 0002:00003070       ??_C@_0FB@LKDBGHFE@Inputs?1RS232_read?1IMU_read?1IMU_d@ 1007d070     Control_software_v1_1_capi.obj
 0002:000030d4       ??_C@_02KBOGEBLK@q3?$AA@   1007d0d4     Control_software_v1_1_capi.obj
 0002:000030d8       ??_C@_0FB@PFHAPBJD@Inputs?1RS232_read?1IMU_read?1IMU_d@ 1007d0d8     Control_software_v1_1_capi.obj
 0002:0000313c       ??_C@_02OOKHNHHN@q4?$AA@   1007d13c     Control_software_v1_1_capi.obj
 0002:00003140       ??_C@_0FA@CAFKLLKP@Inputs?1RS232_read?1IMU_read?1IMU_d@ 1007d140     Control_software_v1_1_capi.obj
 0002:000031a0       ??_C@_02JCINEOFG@Gx?$AA@   1007d1a0     Control_software_v1_1_capi.obj
 0002:000031a8       ??_C@_0FB@IABEODHA@Inputs?1RS232_read?1IMU_read?1IMU_d@ 1007d1a8     Control_software_v1_1_capi.obj
 0002:0000320c       ??_C@_02ILJGHPBH@Gy?$AA@   1007d20c     Control_software_v1_1_capi.obj
 0002:00003210       ??_C@_0FB@LCCCIBPC@Inputs?1RS232_read?1IMU_read?1IMU_d@ 1007d210     Control_software_v1_1_capi.obj
 0002:00003274       ??_C@_02KALLCMNE@Gz?$AA@   1007d274     Control_software_v1_1_capi.obj
 0002:00003278       ??_C@_0FA@EONGKAOO@Inputs?1RS232_read?1IMU_read?1IMU_d@ 1007d278     Control_software_v1_1_capi.obj
 0002:000032d8       ??_C@_02JGAADCOE@Ax?$AA@   1007d2d8     Control_software_v1_1_capi.obj
 0002:000032e0       ??_C@_0FB@IBKBBOGN@Inputs?1RS232_read?1IMU_read?1IMU_d@ 1007d2e0     Control_software_v1_1_capi.obj
 0002:00003344       ??_C@_02IPBLADKF@Ay?$AA@   1007d344     Control_software_v1_1_capi.obj
 0002:00003348       ??_C@_0FB@LDJHHMOP@Inputs?1RS232_read?1IMU_read?1IMU_d@ 1007d348     Control_software_v1_1_capi.obj
 0002:000033ac       ??_C@_02KEDGFAGG@Az?$AA@   1007d3ac     Control_software_v1_1_capi.obj
 0002:000033b0       ??_C@_0EJ@GEJENCKB@Inputs?1RS232_read?1QSC?9100?5F?1RS23@ 1007d3b0     Control_software_v1_1_capi.obj
 0002:00003408       ??_C@_0EJ@EPLJIBGC@Inputs?1RS232_read?1QSC?9100?5F?1RS23@ 1007d408     Control_software_v1_1_capi.obj
 0002:00003460       ??_C@_0EJ@FGKCLACD@Inputs?1RS232_read?1QSC?9100?5F?1RS23@ 1007d460     Control_software_v1_1_capi.obj
 0002:000034b8       ??_C@_0EJ@BJODCGOE@Inputs?1RS232_read?1QSC?9100?5F?1RS23@ 1007d4b8     Control_software_v1_1_capi.obj
 0002:00003510       ??_C@_0FA@BOKCMBEG@Inputs?1RS232_read?1QSC?9100?5F?1RS23@ 1007d510     Control_software_v1_1_capi.obj
 0002:00003570       ??_C@_0FD@EPPBOPDM@Inputs?1RS232_read?1QSC?9100?5F?1RS23@ 1007d570     Control_software_v1_1_capi.obj
 0002:000035d8       ??_C@_0FI@JPPDGNKP@Inputs?1RS232_read?1QSC?9100?5F?1RS23@ 1007d5d8     Control_software_v1_1_capi.obj
 0002:00003648       ??_C@_0EO@PGODKAAG@Inputs?1RS232_read?1QSC?9100?5F?1RS23@ 1007d648     Control_software_v1_1_capi.obj
 0002:000036a8       ??_C@_0EO@NNMOPDMF@Inputs?1RS232_read?1QSC?9100?5F?1RS23@ 1007d6a8     Control_software_v1_1_capi.obj
 0002:00003708       ??_C@_0EO@LBEDNKNG@Inputs?1RS232_read?1QSC?9100?5F?1RS23@ 1007d708     Control_software_v1_1_capi.obj
 0002:00003768       ??_C@_0EO@JKGOIJBF@Inputs?1RS232_read?1QSC?9100?5F?1RS23@ 1007d768     Control_software_v1_1_capi.obj
 0002:000037c8       ??_C@_0EO@IMCDPDGG@Inputs?1RS232_read?1QSC?9100?5F?1RS23@ 1007d7c8     Control_software_v1_1_capi.obj
 0002:00003828       ??_C@_0EO@KHAOKAKF@Inputs?1RS232_read?1QSC?9100?5F?1RS23@ 1007d828     Control_software_v1_1_capi.obj
 0002:00003888       ??_C@_0EO@DOADCPHG@Inputs?1RS232_read?1QSC?9100?5F?1RS23@ 1007d888     Control_software_v1_1_capi.obj
 0002:000038e8       ??_C@_0EO@BFCOHMLF@Inputs?1RS232_read?1QSC?9100?5F?1RS23@ 1007d8e8     Control_software_v1_1_capi.obj
 0002:00003948       ??_C@_0EM@NAMCFIKP@Inputs?1RS232_read?1QSC?9100?5F?1RS23@ 1007d948     Control_software_v1_1_capi.obj
 0002:000039a8       ??_C@_0EM@PLOPALGM@Inputs?1RS232_read?1QSC?9100?5F?1RS23@ 1007d9a8     Control_software_v1_1_capi.obj
 0002:00003a08       ??_C@_0EM@OCPEDKCN@Inputs?1RS232_read?1QSC?9100?5F?1RS23@ 1007da08     Control_software_v1_1_capi.obj
 0002:00003a68       ??_C@_0EM@KNLFKMOK@Inputs?1RS232_read?1QSC?9100?5F?1RS23@ 1007da68     Control_software_v1_1_capi.obj
 0002:00003ac8       ??_C@_0FC@MOICAPLG@Inputs?1RS232_read?1QSC?9100?5F?1RS23@ 1007dac8     Control_software_v1_1_capi.obj
 0002:00003b30       ??_C@_0FC@OFKPFMHF@Inputs?1RS232_read?1QSC?9100?5F?1RS23@ 1007db30     Control_software_v1_1_capi.obj
 0002:00003b98       ??_C@_0FC@PMLEGNDE@Inputs?1RS232_read?1QSC?9100?5F?1RS23@ 1007db98     Control_software_v1_1_capi.obj
 0002:00003c00       ??_C@_0FC@LDPFPLPD@Inputs?1RS232_read?1QSC?9100?5F?1RS23@ 1007dc00     Control_software_v1_1_capi.obj
 0002:00003c68       ??_C@_0FC@KKOOMKLC@Inputs?1RS232_read?1QSC?9100?5F?1RS23@ 1007dc68     Control_software_v1_1_capi.obj
 0002:00003cd0       ??_C@_0FC@IBMDJJHB@Inputs?1RS232_read?1QSC?9100?5F?1RS23@ 1007dcd0     Control_software_v1_1_capi.obj
 0002:00003d38       ??_C@_0FC@JINIKIDA@Inputs?1RS232_read?1QSC?9100?5F?1RS23@ 1007dd38     Control_software_v1_1_capi.obj
 0002:00003da0       ??_C@_0FC@BPEALEPP@Inputs?1RS232_read?1QSC?9100?5F?1RS23@ 1007dda0     Control_software_v1_1_capi.obj
 0002:00003e08       ??_C@_0EN@IDAGNKLD@Inputs?1RS232_read?1QSC?9100?5F?1RS23@ 1007de08     Control_software_v1_1_capi.obj
 0002:00003e68       ??_C@_0EN@KICLIJHA@Inputs?1RS232_read?1QSC?9100?5F?1RS23@ 1007de68     Control_software_v1_1_capi.obj
 0002:00003ec8       ??_C@_0EN@LBDALIDB@Inputs?1RS232_read?1QSC?9100?5F?1RS23@ 1007dec8     Control_software_v1_1_capi.obj
 0002:00003f28       ??_C@_0EN@POHBCOPG@Inputs?1RS232_read?1QSC?9100?5F?1RS23@ 1007df28     Control_software_v1_1_capi.obj
 0002:00003f88       ??_C@_0FA@LBJBIEHC@Inputs?1RS232_read?1QSC?9100?5F?1RS23@ 1007df88     Control_software_v1_1_capi.obj
 0002:00007d50       ??_C@_0BB@CFEOEMDC@InitialCondition?$AA@ 10081d50     Control_software_v1_1_capi.obj
 0002:00007d64       ??_C@_0BB@JJMGKOG@Outputs?1Constant?$AA@ 10081d64     Control_software_v1_1_capi.obj
 0002:00007d78       ??_C@_05LPIJGKJ@Value?$AA@ 10081d78     Control_software_v1_1_capi.obj
 0002:00007d80       ??_C@_0BC@KEBAIPFG@Outputs?1Constant2?$AA@ 10081d80     Control_software_v1_1_capi.obj
 0002:00007d98       ??_C@_0BJ@MOBIHFCC@Outputs?1PCI?56221?5PFI?5DO?5?$AA@ 10081d98     Control_software_v1_1_capi.obj
 0002:00007db8       ??_C@_02KKFPAPOP@P1?$AA@   10081db8     Control_software_v1_1_capi.obj
 0002:00007dbc       ??_C@_02IBHCFMCM@P2?$AA@   10081dbc     Control_software_v1_1_capi.obj
 0002:00007dc0       ??_C@_02JIGJGNGN@P3?$AA@   10081dc0     Control_software_v1_1_capi.obj
 0002:00007dc4       ??_C@_02NHCIPLKK@P4?$AA@   10081dc4     Control_software_v1_1_capi.obj
 0002:00007dc8       ??_C@_02MODDMKOL@P5?$AA@   10081dc8     Control_software_v1_1_capi.obj
 0002:00007dcc       ??_C@_02OFBOJJCI@P6?$AA@   10081dcc     Control_software_v1_1_capi.obj
 0002:00007dd0       ??_C@_02PMAFKIGJ@P7?$AA@   10081dd0     Control_software_v1_1_capi.obj
 0002:00007dd4       ??_C@_0BE@IHMMINGB@Outputs?1PCI?96221?5DA?$AA@ 10081dd4     Control_software_v1_1_capi.obj
 0002:00007dec       ??_C@_0BE@BJEPKAOP@Outputs?1PCI?96221?5DO?$AA@ 10081dec     Control_software_v1_1_capi.obj
 0002:00007e04       ??_C@_09HLCHFPPJ@Threshold?$AA@ 10081e04     Control_software_v1_1_capi.obj
 0002:00007e10       ??_C@_0O@KHJPNGBD@InitialStates?$AA@ 10081e10     Control_software_v1_1_capi.obj
 0002:00007e20       ??_C@_0M@KNNCJG@DelayLength?$AA@ 10081e20     Control_software_v1_1_capi.obj
 0002:00007e30       ??_C@_0CB@MFLOHPAN@Inputs?1Analog?5Inputs?1PCI?96221?5AD@ 10081e30     Control_software_v1_1_capi.obj
 0002:00007e58       ??_C@_0CC@KDEJCOJG@Inputs?1Digital?5Inputs?1PCI?96221?5D@ 10081e58     Control_software_v1_1_capi.obj
 0002:00007e80       ??_C@_0CE@NCNCGEBF@Logging?1Time_Scope_trigger?1Const@ 10081e80     Control_software_v1_1_capi.obj
 0002:00007eac       ??_C@_0CF@KLFCDBDN@Logging?1Time_Scope_trigger?1Const@ 10081eac     Control_software_v1_1_capi.obj
 0002:00007ed8       ??_C@_0CF@IAHPGCPO@Logging?1Time_Scope_trigger?1Const@ 10081ed8     Control_software_v1_1_capi.obj
 0002:00007f08       ??_C@_0EC@PKNCBHAM@Input?5conditioning?5and?5estimator@ 10081f08     Control_software_v1_1_capi.obj
 0002:00007f58       ??_C@_0EC@NBPPEEMP@Input?5conditioning?5and?5estimator@ 10081f58     Control_software_v1_1_capi.obj
 0002:00007fa8       ??_C@_0EC@KGGBJGDP@Input?5conditioning?5and?5estimator@ 10081fa8     Control_software_v1_1_capi.obj
 0002:00007ff8       ??_C@_02HLJNLEKG@P8?$AA@   10081ff8     Control_software_v1_1_capi.obj
 0002:00007ffc       ??_C@_0CI@PMDECOAC@Inputs?1RS232_read?1QSC?9100?5F?1Enab@ 10081ffc     Control_software_v1_1_capi.obj
 0002:0000802c       ??_C@_0CI@NHBJHNMB@Inputs?1RS232_read?1QSC?9100?5F?1Enab@ 1008202c     Control_software_v1_1_capi.obj
 0002:0000805c       ??_C@_0CI@MOACEMIA@Inputs?1RS232_read?1QSC?9100?5F?1Enab@ 1008205c     Control_software_v1_1_capi.obj
 0002:0000808c       ??_C@_0CI@IBEDNKEH@Inputs?1RS232_read?1QSC?9100?5F?1Enab@ 1008208c     Control_software_v1_1_capi.obj
 0002:000080bc       ??_C@_0CJ@FDEBJHNI@Inputs?1RS232_read?1QSC?9100?5F?1FIFO@ 100820bc     Control_software_v1_1_capi.obj
 0002:000080f0       ??_C@_0CJ@HIGMMEBL@Inputs?1RS232_read?1QSC?9100?5F?1FIFO@ 100820f0     Control_software_v1_1_capi.obj
 0002:00008124       ??_C@_0CJ@GBHHPFFK@Inputs?1RS232_read?1QSC?9100?5F?1FIFO@ 10082124     Control_software_v1_1_capi.obj
 0002:00008158       ??_C@_0CJ@CODGGDJN@Inputs?1RS232_read?1QSC?9100?5F?1FIFO@ 10082158     Control_software_v1_1_capi.obj
 0002:0000818c       ??_C@_0CD@FCDIMDFJ@Inputs?1RS232_read?1QSC?9100?5F?1Setu@ 1008218c     Control_software_v1_1_capi.obj
 0002:000081b8       ??_C@_02GCIGIFOH@P9?$AA@   100821b8     Control_software_v1_1_capi.obj
 0002:000081bc       ??_C@_03OPFJJGBF@P10?$AA@  100821bc     Control_software_v1_1_capi.obj
 0002:000081c0       ??_C@_0CD@HJBFJAJK@Inputs?1RS232_read?1QSC?9100?5F?1Setu@ 100821c0     Control_software_v1_1_capi.obj
 0002:000081ec       ??_C@_0CD@GAAOKBNL@Inputs?1RS232_read?1QSC?9100?5F?1Setu@ 100821ec     Control_software_v1_1_capi.obj
 0002:00008218       ??_C@_0CD@CPEPDHBM@Inputs?1RS232_read?1QSC?9100?5F?1Setu@ 10082218     Control_software_v1_1_capi.obj
 0002:00008244       ??_C@_0DK@BDNPHAHM@Inputs?1RS232_read?1IMU_read?1Data_@ 10082244     Control_software_v1_1_capi.obj
 0002:0000828c       ??_C@_0O@LILIEJBO@InitialOutput?$AA@ 1008228c     Control_software_v1_1_capi.obj
 0002:000082a0       ??_C@_0EJ@KMENFIKJ@Inputs?1RS232_read?1QSC?9100?5F?1RS23@ 100822a0     Control_software_v1_1_capi.obj
 0002:000082f8       ??_C@_07IMLPMLBM@BitMask?$AA@ 100822f8     Control_software_v1_1_capi.obj
 0002:00008308       ??_C@_0EL@PKJKDFDO@Inputs?1RS232_read?1QSC?9100?5F?1RS23@ 10082308     Control_software_v1_1_capi.obj
 0002:00008368       ??_C@_0EL@NBLHGGPN@Inputs?1RS232_read?1QSC?9100?5F?1RS23@ 10082368     Control_software_v1_1_capi.obj
 0002:000083c8       ??_C@_0EL@MIKMFHLM@Inputs?1RS232_read?1QSC?9100?5F?1RS23@ 100823c8     Control_software_v1_1_capi.obj
 0002:00008428       ??_C@_0EL@IHONMBHL@Inputs?1RS232_read?1QSC?9100?5F?1RS23@ 10082428     Control_software_v1_1_capi.obj
 0002:00008488       ??_C@_0EO@PKJBEHOD@Inputs?1RS232_read?1QSC?9100?5F?1RS23@ 10082488     Control_software_v1_1_capi.obj
 0002:000084e8       ??_C@_0EO@NBLMBECA@Inputs?1RS232_read?1QSC?9100?5F?1RS23@ 100824e8     Control_software_v1_1_capi.obj
 0002:00008548       ??_C@_0EO@MIKHCFGB@Inputs?1RS232_read?1QSC?9100?5F?1RS23@ 10082548     Control_software_v1_1_capi.obj
 0002:000085a8       ??_C@_0EO@IHOGLDKG@Inputs?1RS232_read?1QSC?9100?5F?1RS23@ 100825a8     Control_software_v1_1_capi.obj
 0002:00008608       ??_C@_09CLJNPGHO@HLC_Param?$AA@ 10082608     Control_software_v1_1_capi.obj
 0002:00008614       ??_C@_05CLFGFKJK@AOsat?$AA@ 10082614     Control_software_v1_1_capi.obj
 0002:0000861c       ??_C@_08JPANHOIH@Afilt_Sl?$AA@ 1008261c     Control_software_v1_1_capi.obj
 0002:00008628       ??_C@_0M@EEEKPMNP@Afilt_Winch?$AA@ 10082628     Control_software_v1_1_capi.obj
 0002:00008638       ??_C@_08KGIAECEC@Bfilt_Sl?$AA@ 10082638     Control_software_v1_1_capi.obj
 0002:00008644       ??_C@_0M@DDNECOCP@Bfilt_Winch?$AA@ 10082644     Control_software_v1_1_capi.obj
 0002:00008654       ??_C@_08LBPLFGAB@Cfilt_Sl?$AA@ 10082654     Control_software_v1_1_capi.obj
 0002:00008660       ??_C@_0M@KIHBGCEA@Cfilt_Winch?$AA@ 10082660     Control_software_v1_1_capi.obj
 0002:00008670       ??_C@_08NFJKDLMI@Dfilt_Sl?$AA@ 10082670     Control_software_v1_1_capi.obj
 0002:0000867c       ??_C@_0M@NMOJILMP@Dfilt_Winch?$AA@ 1008267c     Control_software_v1_1_capi.obj
 0002:0000868c       ??_C@_0L@PPNPOOPB@JoyFiltDen?$AA@ 1008268c     Control_software_v1_1_capi.obj
 0002:0000869c       ??_C@_0L@KHGJPOCG@JoyFiltNum?$AA@ 1008269c     Control_software_v1_1_capi.obj
 0002:000086ac       ??_C@_09FODNAAJL@JoyS_gain?$AA@ 100826ac     Control_software_v1_1_capi.obj
 0002:000086b8       ??_C@_09FCAGKPJO@JoyS_ofst?$AA@ 100826b8     Control_software_v1_1_capi.obj
 0002:000086c4       ??_C@_08GJOEHFPD@JoyS_sat?$AA@ 100826c4     Control_software_v1_1_capi.obj
 0002:000086d0       ??_C@_09KKHCCEII@JoyW_gain?$AA@ 100826d0     Control_software_v1_1_capi.obj
 0002:000086dc       ??_C@_09KGEJILIN@JoyW_ofst?$AA@ 100826dc     Control_software_v1_1_capi.obj
 0002:000086e8       ??_C@_08PCHFDHOF@JoyW_sat?$AA@ 100826e8     Control_software_v1_1_capi.obj
 0002:000086f4       ??_C@_04DKFIGHAO@Kpos?$AA@ 100826f4     Control_software_v1_1_capi.obj
 0002:000086fc       ??_C@_04DKBEKIDL@Kspd?$AA@ 100826fc     Control_software_v1_1_capi.obj
 0002:00008704       ??_C@_09NJENFEDN@KspdWinch?$AA@ 10082704     Control_software_v1_1_capi.obj
 0002:00008710       ??_C@_0L@MGBBMGDP@NPotSpdEst?$AA@ 10082710     Control_software_v1_1_capi.obj
 0002:00008720       ??_C@_0O@LFFAEOHG@PotPosFiltDen?$AA@ 10082720     Control_software_v1_1_capi.obj
 0002:00008730       ??_C@_0O@ONOGFOKB@PotPosFiltNum?$AA@ 10082730     Control_software_v1_1_capi.obj
 0002:00008740       ??_C@_08JDGANLJH@Pot_gain?$AA@ 10082740     Control_software_v1_1_capi.obj
 0002:0000874c       ??_C@_07PPEKIFKG@Pot_max?$AA@ 1008274c     Control_software_v1_1_capi.obj
 0002:00008758       ??_C@_07ONMBGBMJ@Pot_min?$AA@ 10082758     Control_software_v1_1_capi.obj
 0002:00008764       ??_C@_08JPFLHEJC@Pot_ofst?$AA@ 10082764     Control_software_v1_1_capi.obj
 0002:00008770       ??_C@_0P@DJLGLJBA@SlMotPosAIgain?$AA@ 10082770     Control_software_v1_1_capi.obj
 0002:00008784       ??_C@_0BC@JANEAMME@SlideMotTorqueMax?$AA@ 10082784     Control_software_v1_1_capi.obj
 0002:0000879c       ??_C@_0BA@BLPOEJLB@SlidePosFiltDen?$AA@ 1008279c     Control_software_v1_1_capi.obj
 0002:000087b0       ??_C@_0BA@EDEIFJGG@SlidePosFiltNum?$AA@ 100827b0     Control_software_v1_1_capi.obj
 0002:000087c4       ??_C@_0BD@FDALCIFK@SlideSpdEstFiltDen?$AA@ 100827c4     Control_software_v1_1_capi.obj
 0002:000087dc       ??_C@_0BD@LLNDIIN@SlideSpdEstFiltNum?$AA@ 100827dc     Control_software_v1_1_capi.obj
 0002:000087f4       ??_C@_06IOHGCHNC@Ts_1ms?$AA@ 100827f4     Control_software_v1_1_capi.obj
 0002:000087fc       ??_C@_05NFIFDEME@Ts_1s?$AA@ 100827fc     Control_software_v1_1_capi.obj
 0002:00008804       ??_C@_0N@CLKNBFDK@WinchDrumRad?$AA@ 10082804     Control_software_v1_1_capi.obj
 0002:00008814       ??_C@_0BC@CCOFNFJD@WinchMotPosAIgain?$AA@ 10082814     Control_software_v1_1_capi.obj
 0002:0000882c       ??_C@_0BC@LONALAHK@WinchMotTorqueMax?$AA@ 1008282c     Control_software_v1_1_capi.obj
 0002:00008844       ??_C@_0BA@HKFJBGML@WinchPosFiltDen?$AA@ 10082844     Control_software_v1_1_capi.obj
 0002:00008858       ??_C@_0BA@CCOPAGBM@WinchPosFiltNum?$AA@ 10082858     Control_software_v1_1_capi.obj
 0002:0000886c       ??_C@_0P@DCHABPPH@WinchRefSpdSup?$AA@ 1008286c     Control_software_v1_1_capi.obj
 0002:00008880       ??_C@_0BD@HPPMLCGN@WinchSpdEstFiltDen?$AA@ 10082880     Control_software_v1_1_capi.obj
 0002:00008898       ??_C@_0BD@CHEKKCLK@WinchSpdEstFiltNum?$AA@ 10082898     Control_software_v1_1_capi.obj
 0002:000088b0       ??_C@_0BB@ILCNEEJ@WinchTravelMin_m?$AA@ 100828b0     Control_software_v1_1_capi.obj
 0002:000088c4       ??_C@_0N@LEBOGCFG@WinchVoltMax?$AA@ 100828c4     Control_software_v1_1_capi.obj
 0002:000088d4       ??_C@_05DMLBMCMA@x0_Sl?$AA@ 100828d4     Control_software_v1_1_capi.obj
 0002:000088dc       ??_C@_08LLDIHJCK@x0_Winch?$AA@ 100828dc     Control_software_v1_1_capi.obj
 0002:000088e8       ??_C@_06BNJCAIGJ@double?$AA@ 100828e8     Control_software_v1_1_capi.obj
 0002:000088f0       ??_C@_06CNMIJIPB@real_T?$AA@ 100828f0     Control_software_v1_1_capi.obj
 0002:000088f8       ??_C@_0O@PPAIJIHF@unsigned?5char?$AA@ 100828f8     Control_software_v1_1_capi.obj
 0002:00008908       ??_C@_07NCEHLPOC@uint8_T?$AA@ 10082908     Control_software_v1_1_capi.obj
 0002:00008914       ??_C@_07MMLECJPG@numeric?$AA@ 10082914     Control_software_v1_1_capi.obj
 0002:00008920       ??_C@_0O@CEKHAEHG@serialfifoptr?$AA@ 10082920     Control_software_v1_1_capi.obj
 0002:00008930       ??_C@_09JBMFCIMO@boolean_T?$AA@ 10082930     Control_software_v1_1_capi.obj
 0002:0000893c       ??_C@_0N@OFHMGPAL@unsigned?5int?$AA@ 1008293c     Control_software_v1_1_capi.obj
 0002:0000894c       ??_C@_08CCMIKNJF@uint32_T?$AA@ 1008294c     Control_software_v1_1_capi.obj
 0002:00008958       ??_C@_06PBJBIPGK@struct?$AA@ 10082958     Control_software_v1_1_capi.obj
 0002:00008960       ??_C@_0BO@LEFPDHAD@struct_g4JHc2H3XRyVVgBupIhckB?$AA@ 10082960     Control_software_v1_1_capi.obj
 0002:00008984       ??_C@_0BO@MPDEEAKL@struct_nekeCBaUBwhMGZJyyesMPB?$AA@ 10082984     Control_software_v1_1_capi.obj
 0002:000089a8       ??_C@_0BO@KPPNDCKC@struct_H3iKTmzQIZmmrWuxBo9E9D?$AA@ 100829a8     Control_software_v1_1_capi.obj
 0002:000089cc       ??_C@_0BA@IANMKEDN@TakeoffTravel_V?$AA@ 100829cc     Control_software_v1_1_capi.obj
 0002:000089e0       ??_C@_0BB@MBLDEHIO@SlideTravelMax_V?$AA@ 100829e0     Control_software_v1_1_capi.obj
 0002:000089f4       ??_C@_0BD@CKGMJHJI@SlideTravelMax_rad?$AA@ 100829f4     Control_software_v1_1_capi.obj
 0002:00008a0c       ??_C@_08CFCNJIHL@JogSpeed?$AA@ 10082a0c     Control_software_v1_1_capi.obj
 0002:00008a18       ??_C@_0N@BAADMEP@TakeOffSpeed?$AA@ 10082a18     Control_software_v1_1_capi.obj
 0002:00008a28       ??_C@_06HPPEFFHJ@ErrTol?$AA@ 10082a28     Control_software_v1_1_capi.obj
 0002:00008a30       ??_C@_08EOCBDHDJ@WaitTime?$AA@ 10082a30     Control_software_v1_1_capi.obj
 0002:00008a3c       ??_C@_0BC@PLGECMAH@LandingLength_rad?$AA@ 10082a3c     Control_software_v1_1_capi.obj
 0002:00008a54       ??_C@_0BA@BLACJHOK@WinchSpdRefGain?$AA@ 10082a54     Control_software_v1_1_capi.obj
 0002:00008a68       ??_C@_0P@GANECGML@WinchTravelMax?$AA@ 10082a68     Control_software_v1_1_capi.obj
 0002:00008a7c       ??_C@_0P@HCFPMCKE@WinchTravelMin?$AA@ 10082a7c     Control_software_v1_1_capi.obj
 0002:00008a90       ??_C@_0BC@ECPENPHJ@WinchSpdMaxFlight?$AA@ 10082a90     Control_software_v1_1_capi.obj
 0002:00008aa8       ??_C@_0BC@EDPIEFMN@WinchSpdMinFlight?$AA@ 10082aa8     Control_software_v1_1_capi.obj
 0002:00008ac0       ??_C@_0BG@FGNDJAIF@WinchSpeedTakeOffMult?$AA@ 10082ac0     Control_software_v1_1_capi.obj
 0002:00008adc       ??_C@_0BD@JILGIE@WinchSpdMaxLanding?$AA@ 10082adc     Control_software_v1_1_capi.obj
 0002:00008af4       ??_C@_0BD@MMJFMNIL@WinchSpdMinLanding?$AA@ 10082af4     Control_software_v1_1_capi.obj
 0002:00008b0c       ??_C@_0M@PMLOONGN@WinchSpdMax?$AA@ 10082b0c     Control_software_v1_1_capi.obj
 0002:00008b1c       ??_C@_0M@OODFAJAC@WinchSpdMin?$AA@ 10082b1c     Control_software_v1_1_capi.obj
 0002:00008b2c       ??_C@_0BE@EPJIBAEO@PotPosKeepMinFlight?$AA@ 10082b2c     Control_software_v1_1_capi.obj
 0002:00008b44       ??_C@_0BE@EOJEIKPK@PotPosKeepMaxFlight?$AA@ 10082b44     Control_software_v1_1_capi.obj
 0002:00008b5c       ??_C@_0BF@LICIHPEE@PotPosKeepMinLanding?$AA@ 10082b5c     Control_software_v1_1_capi.obj
 0002:00008b78       ??_C@_0BF@HECFAEEL@PotPosKeepMaxLanding?$AA@ 10082b78     Control_software_v1_1_capi.obj
 0002:00008b94       ??_C@_0BA@LJGMNFBM@PotPivot2Flight?$AA@ 10082b94     Control_software_v1_1_capi.obj
 0002:00008ba8       ??_C@_0BA@PLEJNCGB@PotPivot0Flight?$AA@ 10082ba8     Control_software_v1_1_capi.obj
 0002:00008bbc       ??_C@_0BB@DNLLLLFJ@PotPivot2Landing?$AA@ 10082bbc     Control_software_v1_1_capi.obj
 0002:00008bd0       ??_C@_0BB@BDENJDNP@PotPivot0Landing?$AA@ 10082bd0     Control_software_v1_1_capi.obj
 0002:00008be4       ??_C@_0BG@OCJPDOMH@WinchSpdNormFlightOut?$AA@ 10082be4     Control_software_v1_1_capi.obj
 0002:00008c00       ??_C@_0BG@CGAJGHKF@WinchSpdNormLandingIn?$AA@ 10082c00     Control_software_v1_1_capi.obj
 0002:00008c1c       ??_C@_0BH@NINBPBLP@WinchSpdNormLandingOut?$AA@ 10082c1c     Control_software_v1_1_capi.obj
 0002:00008c38       ??_C@_0BM@JJLCIIAA@WinchSpeedSlopeReelInFlight?$AA@ 10082c38     Control_software_v1_1_capi.obj
 0002:00008c5c       ??_C@_0BN@GGMGPFND@WinchSpeedSlopeReelOutFlight?$AA@ 10082c5c     Control_software_v1_1_capi.obj
 0002:00008c80       ??_C@_0BN@CJJKDJEL@WinchSpeedSlopeReelInLanding?$AA@ 10082c80     Control_software_v1_1_capi.obj
 0002:00008ca4       ??_C@_0BO@DGLPMOFI@WinchSpeedSlopeReelOutLanding?$AA@ 10082ca4     Control_software_v1_1_capi.obj
 0002:00008cc8       ??_C@_0N@FFIGBLEK@PotPosSpdMin?$AA@ 10082cc8     Control_software_v1_1_capi.obj
 0002:00008cd8       ??_C@_09GFMBCHAG@DerivGain?$AA@ 10082cd8     Control_software_v1_1_capi.obj
 0002:00008ce4       ??_C@_0BB@IDCEDKLJ@TakeOffLatchTime?$AA@ 10082ce4     Control_software_v1_1_capi.obj
 0002:00008cf8       ??_C@_0P@KKGJNCMP@ReelTimer_wait?$AA@ 10082cf8     Control_software_v1_1_capi.obj
 0002:00008d0c       ??_C@_0BH@OECJOAAN@WinchSpdMinFlight_wait?$AA@ 10082d0c     Control_software_v1_1_capi.obj
 0002:00008d28       ??_C@_0CB@HHFBNPDP@WinchSpeedSlopeReelInFlight_wait@ 10082d28     Control_software_v1_1_capi.obj
 0002:00008d50       ??_C@_05IJJPPKNO@Slide?$AA@ 10082d50     Control_software_v1_1_capi.obj
 0002:00008d58       ??_C@_05PHNIGHMJ@Winch?$AA@ 10082d58     Control_software_v1_1_capi.obj
 0002:00008d60       ??_C@_05KNFBNCOH@float?$AA@ 10082d60     Control_software_v1_1_capi.obj
 0002:00008d68       ??_C@_0BI@DDEJKAKC@Auxiliary?5variables?1Sum?$AA@ 10082d68     Control_software_v1_1_capi.obj
 0002:00008d84       ??_C@_0BP@PAOGGCCM@Auxiliary?5variables?1Unit?5Delay?$AA@ 10082d84     Control_software_v1_1_capi.obj
 0002:00008dac       ??_C@_0CG@BHNPIAPH@High?9level?5control?1MATLAB?5Functi@ 10082dac     Control_software_v1_1_capi.obj
 0002:00008ddc       ??_C@_09JFJBIPMA@HLC_State?$AA@ 10082ddc     Control_software_v1_1_capi.obj
 0002:00008de8       ??_C@_0CG@DMPCNDDE@High?9level?5control?1MATLAB?5Functi@ 10082de8     Control_software_v1_1_capi.obj
 0002:00008e18       ??_C@_0BA@POCCOMC@HLC_SlidePosRef?$AA@ 10082e18     Control_software_v1_1_capi.obj
 0002:00008e2c       ??_C@_0CG@CFOJOCHF@High?9level?5control?1MATLAB?5Functi@ 10082e2c     Control_software_v1_1_capi.obj
 0002:00008e5c       ??_C@_0BA@HBKDDLNP@HLC_WinchSpdRef?$AA@ 10082e5c     Control_software_v1_1_capi.obj
 0002:00008e70       ??_C@_0CG@GKKIHELC@High?9level?5control?1MATLAB?5Functi@ 10082e70     Control_software_v1_1_capi.obj
 0002:00008ea0       ??_C@_0O@NGHOKFHP@PotZoneFlight?$AA@ 10082ea0     Control_software_v1_1_capi.obj
 0002:00008eb0       ??_C@_0CG@HDLDEFPD@High?9level?5control?1MATLAB?5Functi@ 10082eb0     Control_software_v1_1_capi.obj
 0002:00008ee0       ??_C@_0P@OJGPJJML@PotZoneLanding?$AA@ 10082ee0     Control_software_v1_1_capi.obj
 0002:00008ef4       ??_C@_0CG@FIJOBGDA@High?9level?5control?1MATLAB?5Functi@ 10082ef4     Control_software_v1_1_capi.obj
 0002:00008f24       ??_C@_0O@HDMKEPPG@HLC_WinchMode?$AA@ 10082f24     Control_software_v1_1_capi.obj
 0002:00008f34       ??_C@_0CG@EBIFCHHB@High?9level?5control?1MATLAB?5Functi@ 10082f34     Control_software_v1_1_capi.obj
 0002:00008f64       ??_C@_0CG@MGBNDLLO@High?9level?5control?1MATLAB?5Functi@ 10082f64     Control_software_v1_1_capi.obj
 0002:00008f94       ??_C@_05NHFJDMOA@Timer?$AA@ 10082f94     Control_software_v1_1_capi.obj
 0002:00008f9c       ??_C@_0CG@NPAGAKPP@High?9level?5control?1MATLAB?5Functi@ 10082f9c     Control_software_v1_1_capi.obj
 0002:00008fcc       ??_C@_09PKBJOPOF@ReelTimer?$AA@ 10082fcc     Control_software_v1_1_capi.obj
 0002:00008fd8       ??_C@_0BO@NOBLPPCM@High?9level?5control?1Unit?5Delay?$AA@ 10082fd8     Control_software_v1_1_capi.obj
 0002:00008ffc       ??_C@_0BP@PEFLHAKO@High?9level?5control?1Unit?5Delay1?$AA@ 10082ffc     Control_software_v1_1_capi.obj
 0002:00009024       ??_C@_0BP@NPHGCDGN@High?9level?5control?1Unit?5Delay2?$AA@ 10083024     Control_software_v1_1_capi.obj
 0002:0000904c       ??_C@_0BP@MGGNBCCM@High?9level?5control?1Unit?5Delay3?$AA@ 1008304c     Control_software_v1_1_capi.obj
 0002:00009074       ??_C@_0BP@IJCMIEOL@High?9level?5control?1Unit?5Delay4?$AA@ 10083074     Control_software_v1_1_capi.obj
 0002:0000909c       ??_C@_0BP@JADHLFKK@High?9level?5control?1Unit?5Delay5?$AA@ 1008309c     Control_software_v1_1_capi.obj
 0002:000090c4       ??_C@_0BP@LLBKOGGJ@High?9level?5control?1Unit?5Delay6?$AA@ 100830c4     Control_software_v1_1_capi.obj
 0002:000090ec       ??_C@_0BP@KCABNHCI@High?9level?5control?1Unit?5Delay7?$AA@ 100830ec     Control_software_v1_1_capi.obj
 0002:00009114       ??_C@_0BP@CFJJMLOH@High?9level?5control?1Unit?5Delay8?$AA@ 10083114     Control_software_v1_1_capi.obj
 0002:0000913c       ??_C@_0BC@IPDNNMJF@Outputs?1Constant1?$AA@ 1008313c     Control_software_v1_1_capi.obj
 0002:00009154       ??_C@_0BC@LNALLOBH@Outputs?1Constant3?$AA@ 10083154     Control_software_v1_1_capi.obj
 0002:0000916c       ??_C@_0N@CEIGJPC@Outputs?1Gain?$AA@ 1008316c     Control_software_v1_1_capi.obj
 0002:0000917c       ??_C@_0BD@LJPLBPMP@Outputs?1Saturation?$AA@ 1008317c     Control_software_v1_1_capi.obj
 0002:00009194       ??_C@_0P@NHICNBDP@AO_WinchDriver?$AA@ 10083194     Control_software_v1_1_capi.obj
 0002:000091a8       ??_C@_0BE@MNDPCDIM@Outputs?1Saturation1?$AA@ 100831a8     Control_software_v1_1_capi.obj
 0002:000091c0       ??_C@_0P@LIGLCFGD@AO_SlideDriver?$AA@ 100831c0     Control_software_v1_1_capi.obj
 0002:000091d4       ??_C@_0P@IMOLCCPN@Outputs?1Switch?$AA@ 100831d4     Control_software_v1_1_capi.obj
 0002:000091e8       ??_C@_0BA@FNNGCDB@Outputs?1Switch1?$AA@ 100831e8     Control_software_v1_1_capi.obj
 0002:000091fc       ??_C@_0DB@OMDCEFGE@Input?5conditioning?5and?5estimator@ 100831fc     Control_software_v1_1_capi.obj
 0002:00009238       ??_C@_0DC@IMGOJALG@Input?5conditioning?5and?5estimator@ 10083238     Control_software_v1_1_capi.obj
 0002:00009274       ??_C@_0DH@NBALJFMG@Input?5conditioning?5and?5estimator@ 10083274     Control_software_v1_1_capi.obj
 0002:000092b8       ??_C@_07KKDEJFOF@CI_JoyS?$AA@ 100832b8     Control_software_v1_1_capi.obj
 0002:000092c4       ??_C@_07MOFIFAOB@CI_JoyW?$AA@ 100832c4     Control_software_v1_1_capi.obj
 0002:000092d0       ??_C@_0DA@FLIFAAPO@Input?5conditioning?5and?5estimator@ 100832d0     Control_software_v1_1_capi.obj
 0002:0000930c       ??_C@_0DB@JMADFNKJ@Input?5conditioning?5and?5estimator@ 1008330c     Control_software_v1_1_capi.obj
 0002:00009348       ??_C@_0EC@KEBGAAFI@Input?5conditioning?5and?5estimator@ 10083348     Control_software_v1_1_capi.obj
 0002:00009398       ??_C@_0ED@KDEJMIHE@Input?5conditioning?5and?5estimator@ 10083398     Control_software_v1_1_capi.obj
 0002:000093e8       ??_C@_0EE@BNGPPKMJ@Input?5conditioning?5and?5estimator@ 100833e8     Control_software_v1_1_capi.obj
 0002:0000943c       ??_C@_0M@LKFLHLLF@CI_SlidePos?$AA@ 1008343c     Control_software_v1_1_capi.obj
 0002:0000944c       ??_C@_0DC@NNJJEFNK@Input?5conditioning?5and?5estimator@ 1008344c     Control_software_v1_1_capi.obj
 0002:00009488       ??_C@_0DD@KAIGKFDN@Input?5conditioning?5and?5estimator@ 10083488     Control_software_v1_1_capi.obj
 0002:000094c8       ??_C@_09MNDCALJE@CI_PotSpd?$AA@ 100834c8     Control_software_v1_1_capi.obj
 0002:000094d4       ??_C@_0DI@EOAIPGGA@Input?5conditioning?5and?5estimator@ 100834d4     Control_software_v1_1_capi.obj
 0002:00009518       ??_C@_09MNHOMEKB@CI_PotPos?$AA@ 10083518     Control_software_v1_1_capi.obj
 0002:00009524       ??_C@_0DB@JOALFBFA@Input?5conditioning?5and?5estimator@ 10083524     Control_software_v1_1_capi.obj
 0002:00009560       ??_C@_0DC@KNKIFNBH@Input?5conditioning?5and?5estimator@ 10083560     Control_software_v1_1_capi.obj
 0002:0000959c       ??_C@_0DD@NHLAADFB@Input?5conditioning?5and?5estimator@ 1008359c     Control_software_v1_1_capi.obj
 0002:000095e0       ??_C@_0EE@DKPBPFJ@Input?5conditioning?5and?5estimator@ 100835e0     Control_software_v1_1_capi.obj
 0002:00009634       ??_C@_0CE@OGFLLIKO@Inputs?1Analog?5Inputs?1PCI?96221?5AD@ 10083634     Control_software_v1_1_capi.obj
 0002:00009660       ??_C@_08CNMDIBD@AI_Joy_W?$AA@ 10083660     Control_software_v1_1_capi.obj
 0002:0000966c       ??_C@_0CE@MNHGOLGN@Inputs?1Analog?5Inputs?1PCI?96221?5AD@ 1008366c     Control_software_v1_1_capi.obj
 0002:00009698       ??_C@_08GGLAPNBH@AI_Joy_S?$AA@ 10083698     Control_software_v1_1_capi.obj
 0002:000096a4       ??_C@_0CE@NEGNNKCM@Inputs?1Analog?5Inputs?1PCI?96221?5AD@ 100836a4     Control_software_v1_1_capi.obj
 0002:000096d0       ??_C@_0BB@MCOCEDAE@AI_mot_slide_pos?$AA@ 100836d0     Control_software_v1_1_capi.obj
 0002:000096e4       ??_C@_0CE@JLCMEMOL@Inputs?1Analog?5Inputs?1PCI?96221?5AD@ 100836e4     Control_software_v1_1_capi.obj
 0002:00009710       ??_C@_0BB@PCGCICHI@AI_mot_winch_pos?$AA@ 10083710     Control_software_v1_1_capi.obj
 0002:00009724       ??_C@_0CE@ICDHHNKK@Inputs?1Analog?5Inputs?1PCI?96221?5AD@ 10083724     Control_software_v1_1_capi.obj
 0002:00009750       ??_C@_0L@JLACJGBE@AI_pot_pos?$AA@ 10083750     Control_software_v1_1_capi.obj
 0002:00009760       ??_C@_0CH@EKKGEFJM@Inputs?1Digital?5Inputs?1PCI?56221?5P@ 10083760     Control_software_v1_1_capi.obj
 0002:00009790       ??_C@_0P@BGIIHCNM@DI_SlideLimitB?$AA@ 10083790     Control_software_v1_1_capi.obj
 0002:000097a4       ??_C@_0CF@JHGEOEHD@Inputs?1Digital?5Inputs?1PCI?96221?5D@ 100837a4     Control_software_v1_1_capi.obj
 0002:000097d0       ??_C@_09DNOEJMEC@DI_Enable?$AA@ 100837d0     Control_software_v1_1_capi.obj
 0002:000097dc       ??_C@_0CF@LMEJLHLA@Inputs?1Digital?5Inputs?1PCI?96221?5D@ 100837dc     Control_software_v1_1_capi.obj
 0002:00009808       ??_C@_0N@GPNBKCHI@DI_WinchMode?$AA@ 10083808     Control_software_v1_1_capi.obj
 0002:00009818       ??_C@_0CF@KFFCIGPB@Inputs?1Digital?5Inputs?1PCI?96221?5D@ 10083818     Control_software_v1_1_capi.obj
 0002:00009844       ??_C@_0L@OOFJKHJM@DI_Takeoff?$AA@ 10083844     Control_software_v1_1_capi.obj
 0002:00009854       ??_C@_0CF@OKBDBADG@Inputs?1Digital?5Inputs?1PCI?96221?5D@ 10083854     Control_software_v1_1_capi.obj
 0002:00009880       ??_C@_0L@BOMJAKCE@DI_Landing?$AA@ 10083880     Control_software_v1_1_capi.obj
 0002:00009890       ??_C@_0CF@PDAICBHH@Inputs?1Digital?5Inputs?1PCI?96221?5D@ 10083890     Control_software_v1_1_capi.obj
 0002:000098bc       ??_C@_0M@HOMHCDCB@DI_Operator?$AA@ 100838bc     Control_software_v1_1_capi.obj
 0002:000098cc       ??_C@_0CF@NICFHCLE@Inputs?1Digital?5Inputs?1PCI?96221?5D@ 100838cc     Control_software_v1_1_capi.obj
 0002:000098f8       ??_C@_0O@LOCAJKGK@DI_GliderPres?$AA@ 100838f8     Control_software_v1_1_capi.obj
 0002:00009908       ??_C@_0CF@MBDOEDPF@Inputs?1Digital?5Inputs?1PCI?96221?5D@ 10083908     Control_software_v1_1_capi.obj
 0002:00009934       ??_C@_0P@HCOELHNI@DI_SlideLimitF?$AA@ 10083934     Control_software_v1_1_capi.obj
 0002:00009948       ??_C@_0BL@EAFAIOGN@Inputs?1RS232_read?1Constant?$AA@ 10083948     Control_software_v1_1_capi.obj
 0002:00009968       ??_C@_0BM@PFBOEKNJ@Inputs?1RS232_read?1Constant1?$AA@ 10083968     Control_software_v1_1_capi.obj
 0002:0000998c       ??_C@_0BM@NODDBJBK@Inputs?1RS232_read?1Constant2?$AA@ 1008398c     Control_software_v1_1_capi.obj
 0002:000099b0       ??_C@_0BM@MHCICIFL@Inputs?1RS232_read?1Constant3?$AA@ 100839b0     Control_software_v1_1_capi.obj
 0002:000099d4       ??_C@_0CJ@BCFOLFA@Logging?1Log_conditioning?1Rate?5Tr@ 100839d4     Control_software_v1_1_capi.obj
 0002:00009a08       ??_C@_0CC@EEAKFPKK@Logging?1Time_Scope_trigger?1Switc@ 10083a08     Control_software_v1_1_capi.obj
 0002:00009a30       ??_C@_0N@NNLEEMMA@Trigger_time?$AA@ 10083a30     Control_software_v1_1_capi.obj
 0002:00009a40       ??_C@_0DM@NFPGIDGN@Input?5conditioning?5and?5estimator@ 10083a40     Control_software_v1_1_capi.obj
 0002:00009a88       ??_C@_0DL@JMPAMLBN@Input?5conditioning?5and?5estimator@ 10083a88     Control_software_v1_1_capi.obj
 0002:00009ad0       ??_C@_0DM@KFMHJLKA@Input?5conditioning?5and?5estimator@ 10083ad0     Control_software_v1_1_capi.obj
 0002:00009b18       ??_C@_0EO@HNDCILK@Input?5conditioning?5and?5estimator@ 10083b18     Control_software_v1_1_capi.obj
 0002:00009b78       ??_C@_0M@IPGFOOFK@CI_WinchPos?$AA@ 10083b78     Control_software_v1_1_capi.obj
 0002:00009b88       ??_C@_0EN@LMCEHMKK@Input?5conditioning?5and?5estimator@ 10083b88     Control_software_v1_1_capi.obj
 0002:00009be4       ??_C@_0DN@JFJECDCF@Input?5conditioning?5and?5estimator@ 10083be4     Control_software_v1_1_capi.obj
 0002:00009c30       ??_C@_0DO@INMMEHNG@Input?5conditioning?5and?5estimator@ 10083c30     Control_software_v1_1_capi.obj
 0002:00009c7c       ??_C@_0DO@KGOBBEBF@Input?5conditioning?5and?5estimator@ 10083c7c     Control_software_v1_1_capi.obj
 0002:00009cc8       ??_C@_0M@IAKOOEEP@SlMotPosEst?$AA@ 10083cc8     Control_software_v1_1_capi.obj
 0002:00009cd8       ??_C@_0DO@LPPKCFFE@Input?5conditioning?5and?5estimator@ 10083cd8     Control_software_v1_1_capi.obj
 0002:00009d24       ??_C@_0DO@PALLLDJD@Input?5conditioning?5and?5estimator@ 10083d24     Control_software_v1_1_capi.obj
 0002:00009d70       ??_C@_0ED@DAFNNLOE@Input?5conditioning?5and?5estimator@ 10083d70     Control_software_v1_1_capi.obj
 0002:00009dc0       ??_C@_0DM@CBFLOFPH@Input?5conditioning?5and?5estimator@ 10083dc0     Control_software_v1_1_capi.obj
 0002:00009e08       ??_C@_0DN@OFKFDLOI@Input?5conditioning?5and?5estimator@ 10083e08     Control_software_v1_1_capi.obj
 0002:00009e54       ??_C@_0DN@MOIIGICL@Input?5conditioning?5and?5estimator@ 10083e54     Control_software_v1_1_capi.obj
 0002:00009ea0       ??_C@_0DP@NEJLEOHH@Input?5conditioning?5and?5estimator@ 10083ea0     Control_software_v1_1_capi.obj
 0002:00009eec       ??_C@_0BC@OGHHBMDJ@SlideMotTorqueEst?$AA@ 10083eec     Control_software_v1_1_capi.obj
 0002:00009f08       ??_C@_0EP@EKDKNMFN@Input?5conditioning?5and?5estimator@ 10083f08     Control_software_v1_1_capi.obj
 0002:00009f68       ??_C@_0O@MIIBPICI@SlMotSpeedEst?$AA@ 10083f68     Control_software_v1_1_capi.obj
 0002:00009f78       ??_C@_0EN@MKMBEFJH@Input?5conditioning?5and?5estimator@ 10083f78     Control_software_v1_1_capi.obj
 0002:00009fd4       ??_C@_0DN@KEHMDJLI@Input?5conditioning?5and?5estimator@ 10083fd4     Control_software_v1_1_capi.obj
 0002:0000a020       ??_C@_0DO@DEDEADF@Input?5conditioning?5and?5estimator@ 10084020     Control_software_v1_1_capi.obj
 0002:0000a070       ??_C@_0ED@INJHLHCK@Input?5conditioning?5and?5estimator@ 10084070     Control_software_v1_1_capi.obj
 0002:0000a0c0       ??_C@_0EE@BNGLFJND@Input?5conditioning?5and?5estimator@ 100840c0     Control_software_v1_1_capi.obj
 0002:0000a114       ??_C@_0DM@KHMPJHFJ@Input?5conditioning?5and?5estimator@ 10084114     Control_software_v1_1_capi.obj
 0002:0000a15c       ??_C@_0DN@NEENCBHF@Input?5conditioning?5and?5estimator@ 1008415c     Control_software_v1_1_capi.obj
 0002:0000a1a8       ??_C@_0DN@PPGAHCLG@Input?5conditioning?5and?5estimator@ 100841a8     Control_software_v1_1_capi.obj
 0002:0000a1f4       ??_C@_0DP@ONBGHCLC@Input?5conditioning?5and?5estimator@ 100841f4     Control_software_v1_1_capi.obj
 0002:0000a240       ??_C@_0BC@MIHDKAIH@WinchMotTorqueEst?$AA@ 10084240     Control_software_v1_1_capi.obj
 0002:0000a258       ??_C@_0EO@OMLJLFHG@Input?5conditioning?5and?5estimator@ 10084258     Control_software_v1_1_capi.obj
 0002:0000a2b8       ??_C@_0BB@JKEIAAHN@WinchMotSpeedEst?$AA@ 100842b8     Control_software_v1_1_capi.obj
 0002:0000a2cc       ??_C@_0DI@ONINGOLH@Inputs?1RS232_read?1Compass_read?1E@ 100842cc     Control_software_v1_1_capi.obj
 0002:0000a310       ??_C@_06JKFBKECG@GU_Yaw?$AA@ 10084310     Control_software_v1_1_capi.obj
 0002:0000a318       ??_C@_0DA@JFDLLEMA@Inputs?1RS232_read?1Compass_read?1R@ 10084318     Control_software_v1_1_capi.obj
 0002:0000a354       ??_C@_0DB@CCNGLEEH@Inputs?1RS232_read?1Compass_read?1F@ 10084354     Control_software_v1_1_capi.obj
 0002:0000a390       ??_C@_06NGLLFAEI@GU_Lat?$AA@ 10084390     Control_software_v1_1_capi.obj
 0002:0000a398       ??_C@_06GMAIIHJJ@GU_Lon?$AA@ 10084398     Control_software_v1_1_capi.obj
 0002:0000a3a0       ??_C@_04OFBJPLAJ@GU_h?$AA@ 100843a0     Control_software_v1_1_capi.obj
 0002:0000a3a8       ??_C@_08MHNOPBLL@Geo_Gu_h?$AA@ 100843a8     Control_software_v1_1_capi.obj
 0002:0000a3b4       ??_C@_0CM@EAFOCACO@Inputs?1RS232_read?1GPS_read?1Rate?5@ 100843b4     Control_software_v1_1_capi.obj
 0002:0000a3e8       ??_C@_0CN@GFLBBOKM@Inputs?1RS232_read?1GPS_read?1FIFO?5@ 100843e8     Control_software_v1_1_capi.obj
 0002:0000a420       ??_C@_0CM@LALOOMFP@Inputs?1RS232_read?1IMU_read?1Rate?5@ 10084420     Control_software_v1_1_capi.obj
 0002:0000a454       ??_C@_0CM@KAPJKGBD@Inputs?1RS232_read?1IMU_read?1FIFO?5@ 10084454     Control_software_v1_1_capi.obj
 0002:0000a488       ??_C@_0CM@BMOBFDD@Inputs?1RS232_read?1QSC?9100?5F?1Rate@ 10084488     Control_software_v1_1_capi.obj
 0002:0000a4bc       ??_C@_0CN@HJIMKILB@Inputs?1RS232_read?1QSC?9100?5F?1Rate@ 100844bc     Control_software_v1_1_capi.obj
 0002:0000a4f4       ??_C@_0CN@FCKBPLHC@Inputs?1RS232_read?1QSC?9100?5F?1Rate@ 100844f4     Control_software_v1_1_capi.obj
 0002:0000a52c       ??_C@_0CN@ELLKMKDD@Inputs?1RS232_read?1QSC?9100?5F?1Rate@ 1008452c     Control_software_v1_1_capi.obj
 0002:0000a564       ??_C@_0CN@EPLFMPE@Inputs?1RS232_read?1QSC?9100?5F?1Rate@ 10084564     Control_software_v1_1_capi.obj
 0002:0000a59c       ??_C@_0CN@BNOAGNLF@Inputs?1RS232_read?1QSC?9100?5F?1Rate@ 1008459c     Control_software_v1_1_capi.obj
 0002:0000a5d4       ??_C@_0CN@DGMNDOHG@Inputs?1RS232_read?1QSC?9100?5F?1Rate@ 100845d4     Control_software_v1_1_capi.obj
 0002:0000a60c       ??_C@_0CN@CPNGAPDH@Inputs?1RS232_read?1QSC?9100?5F?1Rate@ 1008460c     Control_software_v1_1_capi.obj
 0002:0000a644       ??_C@_0CM@NGLMNJIK@Inputs?1RS232_read?1QSC?9100?5F?1FIFO@ 10084644     Control_software_v1_1_capi.obj
 0002:0000a678       ??_C@_0CM@PNJBIKEJ@Inputs?1RS232_read?1QSC?9100?5F?1FIFO@ 10084678     Control_software_v1_1_capi.obj
 0002:0000a6ac       ??_C@_0CM@JBBMKDFK@Inputs?1RS232_read?1QSC?9100?5F?1FIFO@ 100846ac     Control_software_v1_1_capi.obj
 0002:0000a6e0       ??_C@_0CM@LKDBPAJJ@Inputs?1RS232_read?1QSC?9100?5F?1FIFO@ 100846e0     Control_software_v1_1_capi.obj
 0002:0000a714       ??_C@_0CM@KMHMIKOK@Inputs?1RS232_read?1QSC?9100?5F?1FIFO@ 10084714     Control_software_v1_1_capi.obj
 0002:0000a748       ??_C@_0CM@IHFBNJCJ@Inputs?1RS232_read?1QSC?9100?5F?1FIFO@ 10084748     Control_software_v1_1_capi.obj
 0002:0000a77c       ??_C@_0CM@BOFMFGPK@Inputs?1RS232_read?1QSC?9100?5F?1FIFO@ 1008477c     Control_software_v1_1_capi.obj
 0002:0000a7b0       ??_C@_0CM@DFHBAFDJ@Inputs?1RS232_read?1QSC?9100?5F?1FIFO@ 100847b0     Control_software_v1_1_capi.obj
 0002:0000a7e8       ??_C@_0ED@PNHKNHIN@Inputs?1RS232_read?1IMU_read?1Data_@ 100847e8     Control_software_v1_1_capi.obj
 0002:0000a838       ??_C@_0DE@EHBIOHBP@Inputs?1RS232_read?1IMU_read?1Data_@ 10084838     Control_software_v1_1_capi.obj
 0002:0000a878       ??_C@_0FA@IMFEHGGE@Inputs?1RS232_read?1IMU_read?1IMU_d@ 10084878     Control_software_v1_1_capi.obj
 0002:0000a8d8       ??_C@_04CLCEDBPF@time?$AA@ 100848d8     Control_software_v1_1_capi.obj
 0002:0000a8e0       ??_C@_0FB@IMAOPGIF@Inputs?1RS232_read?1IMU_read?1IMU_d@ 100848e0     Control_software_v1_1_capi.obj
 0002:0000a944       ??_C@_08KLMNJBLI@GPSFlags?$AA@ 10084944     Control_software_v1_1_capi.obj
 0002:0000a950       ??_C@_0FB@KHCDKFEG@Inputs?1RS232_read?1IMU_read?1IMU_d@ 10084950     Control_software_v1_1_capi.obj
 0002:0000a9b4       ??_C@_05EDGDKMME@NbSat?$AA@ 100849b4     Control_software_v1_1_capi.obj
 0002:0000a9c0       ??_C@_0FB@BMFHCCOJ@Inputs?1RS232_read?1IMU_read?1IMU_d@ 100849c0     Control_software_v1_1_capi.obj
 0002:0000aa24       ??_C@_02JPBKMLIA@Mx?$AA@   10084a24     Control_software_v1_1_capi.obj
 0002:0000aa28       ??_C@_0FC@BPJHAKEM@Inputs?1RS232_read?1IMU_read?1IMU_d@ 10084a28     Control_software_v1_1_capi.obj
 0002:0000aa8c       ??_C@_02IGABPKMB@My?$AA@   10084a8c     Control_software_v1_1_capi.obj
 0002:0000aa90       ??_C@_0FC@CNKBGIMO@Inputs?1RS232_read?1IMU_read?1IMU_d@ 10084a90     Control_software_v1_1_capi.obj
 0002:0000aaf4       ??_C@_02KNCMKJAC@Mz?$AA@   10084af4     Control_software_v1_1_capi.obj
 0002:0000aaf8       ??_C@_0FB@MBEPBEGL@Inputs?1RS232_read?1IMU_read?1IMU_d@ 10084af8     Control_software_v1_1_capi.obj
 0002:0000ab5c       ??_C@_04JFPLDHAO@year?$AA@ 10084b5c     Control_software_v1_1_capi.obj
 0002:0000ab68       ??_C@_0FC@BMPMPAHG@Inputs?1RS232_read?1IMU_read?1IMU_d@ 10084b68     Control_software_v1_1_capi.obj
 0002:0000abcc       ??_C@_0M@GGIBBEGI@nanoseconds?$AA@ 10084bcc     Control_software_v1_1_capi.obj
 0002:0000abe0       ??_C@_0FC@DHNBKDLF@Inputs?1RS232_read?1IMU_read?1IMU_d@ 10084be0     Control_software_v1_1_capi.obj
 0002:0000ac44       ??_C@_05MEBAADFH@month?$AA@ 10084c44     Control_software_v1_1_capi.obj
 0002:0000ac50       ??_C@_0FC@COMKJCPE@Inputs?1RS232_read?1IMU_read?1IMU_d@ 10084c50     Control_software_v1_1_capi.obj
 0002:0000acb4       ??_C@_03NNBHCDBP@day?$AA@  10084cb4     Control_software_v1_1_capi.obj
 0002:0000acb8       ??_C@_0FC@GBILAEDD@Inputs?1RS232_read?1IMU_read?1IMU_d@ 10084cb8     Control_software_v1_1_capi.obj
 0002:0000ad1c       ??_C@_04LMOJGCPE@hour?$AA@ 10084d1c     Control_software_v1_1_capi.obj
 0002:0000ad28       ??_C@_0FC@HIJADFHC@Inputs?1RS232_read?1IMU_read?1IMU_d@ 10084d28     Control_software_v1_1_capi.obj
 0002:0000ad8c       ??_C@_03KLIPLJLL@min?$AA@  10084d8c     Control_software_v1_1_capi.obj
 0002:0000ad90       ??_C@_0FC@FDLNGGLB@Inputs?1RS232_read?1IMU_read?1IMU_d@ 10084d90     Control_software_v1_1_capi.obj
 0002:0000adf4       ??_C@_03KHPNBODO@sec?$AA@  10084df4     Control_software_v1_1_capi.obj
 0002:0000adf8       ??_C@_0FB@HNBGEJKM@Inputs?1RS232_read?1IMU_read?1IMU_d@ 10084df8     Control_software_v1_1_capi.obj
 0002:0000ae5c       ??_C@_07GIPHOCKM@Time_sr?$AA@ 10084e5c     Control_software_v1_1_capi.obj
 0002:0000ae68       ??_C@_0FC@BIPFADCF@Inputs?1RS232_read?1IMU_read?1IMU_d@ 10084e68     Control_software_v1_1_capi.obj
 0002:0000aecc       ??_C@_09PHBIEJMN@longitude?$AA@ 10084ecc     Control_software_v1_1_capi.obj
 0002:0000aed8       ??_C@_0FC@DDNIFAOG@Inputs?1RS232_read?1IMU_read?1IMU_d@ 10084ed8     Control_software_v1_1_capi.obj
 0002:0000af3c       ??_C@_06LNLHEAAG@height?$AA@ 10084f3c     Control_software_v1_1_capi.obj
 0002:0000af48       ??_C@_0FC@CKMDGBKH@Inputs?1RS232_read?1IMU_read?1IMU_d@ 10084f48     Control_software_v1_1_capi.obj
 0002:0000afac       ??_C@_08IPNLHJNB@latitude?$AA@ 10084fac     Control_software_v1_1_capi.obj
 0002:0000afb8       ??_C@_0FC@BKCLAEAC@Inputs?1RS232_read?1IMU_read?1IMU_d@ 10084fb8     Control_software_v1_1_capi.obj
 0002:0000b01c       ??_C@_06NPFPHNBC@v_east?$AA@ 1008501c     Control_software_v1_1_capi.obj
 0002:0000b028       ??_C@_0FC@DBAGFHMB@Inputs?1RS232_read?1IMU_read?1IMU_d@ 10085028     Control_software_v1_1_capi.obj
 0002:0000b08c       ??_C@_07DDAJOGFN@v_north?$AA@ 1008508c     Control_software_v1_1_capi.obj
 0002:0000b098       ??_C@_0FC@CIBNGGIA@Inputs?1RS232_read?1IMU_read?1IMU_d@ 10085098     Control_software_v1_1_capi.obj
 0002:0000b0fc       ??_C@_06LFMEHBJG@v_down?$AA@ 100850fc     Control_software_v1_1_capi.obj
 0002:0000b108       ??_C@_0FC@GHFMPAEH@Inputs?1RS232_read?1IMU_read?1IMU_d@ 10085108     Control_software_v1_1_capi.obj
 0002:0000b16c       ??_C@_07MBJMFGGL@heading?$AA@ 1008516c     Control_software_v1_1_capi.obj
 0002:0000b178       ??_C@_0FC@DALDKKNM@Inputs?1RS232_read?1IMU_read?1IMU_d@ 10085178     Control_software_v1_1_capi.obj
 0002:0000b1dc       ??_C@_08GHGAAJPE@Altitude?$AA@ 100851dc     Control_software_v1_1_capi.obj
 0002:0000b1e8       ??_C@_0FB@NONFPEGD@Inputs?1RS232_read?1IMU_read?1IMU_d@ 100851e8     Control_software_v1_1_capi.obj
 0002:0000b24c       ??_C@_08NNMDAM@lat_filt?$AA@ 1008524c     Control_software_v1_1_capi.obj
 0002:0000b258       ??_C@_0FC@BCDIOCKE@Inputs?1RS232_read?1IMU_read?1IMU_d@ 10085258     Control_software_v1_1_capi.obj
 0002:0000b2bc       ??_C@_09HIBOPDBA@long_filt?$AA@ 100852bc     Control_software_v1_1_capi.obj
 0002:0000b2c8       ??_C@_0FC@DJBFLBGH@Inputs?1RS232_read?1IMU_read?1IMU_d@ 100852c8     Control_software_v1_1_capi.obj
 0002:0000b32c       ??_C@_0M@CCDEJLAN@height_filt?$AA@ 1008532c     Control_software_v1_1_capi.obj
 0002:0000b33c       ??_C@_0CJ@GGPBKPNK@Could?5not?5start?5ToAsyncQueue?5app@ 1008533c     Control_software_v1_1_tgtconn.obj
 0002:0000bbd0       ??_C@_0DJ@FHKINPLE@Unexpected?5itemKind?5?$DN?5DATA_ITEM?5@ 10085bd0     rt_logging.obj
 0002:0000bc14       ??_C@_0DA@IEHFPFCJ@Unexpected?5itemKind?$DN?$CFd?5in?5rt_Pro@ 10085c14     rt_logging.obj
 0002:0000bc50       ??_C@_0DA@IFLHJPBO@Unexpected?5itemKind?$DN?$CFd?5in?5rt_Pro@ 10085c50     rt_logging.obj
 0002:0000bc8c       ??_C@_0DA@IAPIIJJL@Unexpected?5itemKind?$DN?$CFd?5in?5rt_Pro@ 10085c8c     rt_logging.obj
 0002:0000bcc8       ??_C@_0BE@LCIGPJIG@MATLAB?55?40?5MAT?9file?$AA@ 10085cc8     rt_logging.obj
 0002:0000bce0       ??_C@_0FB@PCJEAJIB@?$CK?$CK?$CK?5Log?5variable?5?$CFs?5has?5wrapped?5@ 10085ce0     rt_logging.obj
 0002:0000bd48       ??_C@_0MG@NKMLMOGF@?$CK?$CK?$CK?5To?5avoid?5wrapping?0?5explicitl@ 10085d48     rt_logging.obj
 0002:0000be38       ??_C@_0N@IPAEOLLP@_rtw_tmw?4tmw?$AA@ 10085e38     rt_logging.obj
 0002:0000be48       ??_C@_04HDOCAJNK@?$CFs?$CFs?$AA@ 10085e48     rt_logging.obj
 0002:0000be50       ??_C@_03ELIABIOC@w?$CLb?$AA@ 10085e50     rt_logging.obj
 0002:0000be54       ??_C@_0BF@JPILDDFA@?$CK?$CK?$CK?5Error?5opening?5?$CFs?$AA@ 10085e54     rt_logging.obj
 0002:0000be70       ??_C@_0BK@EEMDELA@unable?5to?5open?5data?5file?6?$AA@ 10085e70     rt_logging.obj
 0002:0000be90       ??_C@_04CGFJFPFD@none?$AA@ 10085e90     rt_logging.obj
 0002:0000be98       ??_C@_0EE@LCGFPNON@?$CK?$CK?$CK?5Error?5creating?5signals?5struc@ 10085e98     rt_logging.obj
 0002:0000beec       ??_C@_0CE@NHECEDMK@?$CK?$CK?$CK?5Error?5creating?5log?5variable?5@ 10085eec     rt_logging.obj
 0002:0000bf18       ??_C@_0DB@IOCGKAGH@?$CK?$CK?$CK?5Errors?5occurred?5when?5startin@ 10085f18     rt_logging.obj
 0002:0000bf54       ??_C@_0BO@BBLOGEBK@?$CK?$CK?$CK?5Memory?5allocation?5error?4?6?$AA@ 10085f54     rt_logging.obj
 0002:0000bf78       ??_C@_0N@LGFBAGEL@?5?$CIreal?5part?$CJ?$AA@ 10085f78     rt_logging.obj
 0002:0000bf88       ??_C@_0KH@CGNMHNFE@?5?5?5?5varName?5?5?5?5?5?5?5?5?5?5?$DN?5?$CFs?$CFs?6?5?5?5?5@ 10085f88     rt_logging.obj
 0002:0000c050       ??_C@_0LE@OALKKEFM@?5?5?5?5varName?5?5?5?5?5?5?5?5?5?5?$DN?5?$CFs?5?$CIcompl@ 10086050     rt_logging.obj
 0002:0000c128       ??_C@_0KF@JDDLEOKO@?5?5?5?5varName?5?5?5?5?5?5?5?5?5?5?$DN?5?$CFs?6?5?5?5?5nR@ 10086128     rt_logging.obj
 0002:0000c1f0       ??_C@_0DP@HPDMIOFM@?$CK?$CK?$CK?5Using?5a?5default?5buffer?5of?5si@ 100861f0     rt_logging.obj
 0002:0000c240       ??_C@_0KE@JEFOLKNF@?6?$CK?$CK?$CK?5Memory?5required?5to?5log?5vari@ 10086240     rt_logging.obj
 0002:0000c308       ??_C@_0JP@DKLMHCBI@?$CK?$CK?$CK?5Details?3?6?5?5?5?5?5?5?5varName?5?5?5?5?5@ 10086308     rt_logging.obj
 0002:0000c3c8       ??_C@_0CM@CAMILBED@?$CK?$CK?$CK?5Error?5allocating?5memory?5for?5@ 100863c8     rt_logging.obj
 0002:0000c3fc       ??_C@_0DF@BBCNMOPM@?$CK?$CK?$CK?5Error?5allocating?5memory?5for?5@ 100863fc     rt_logging.obj
 0002:0000c440       ??_C@_0JP@DBCLPCCI@?$CK?$CK?$CK?5Details?3?6?5?5?5?5?5?5?5varName?5?5?5?5?5@ 10086440     rt_logging.obj
 0002:0000c500       ??_C@_0FK@DPGAOBGA@?$CK?$CK?$CK?5Error?5allocating?5memory?5for?5@ 10086500     rt_logging.obj
 0002:0000c56c       ??_C@_0BI@GGDNPHLJ@?$CK?$CK?$CK?5Error?5writing?5to?5?$CFs?$AA@ 1008656c     rt_logging.obj
 0002:0000c588       ??_C@_0CB@IBGJGELG@?$CK?$CK?$CK?5Error?5writing?5?$CFs?5due?5to?3?5?$CFs?6@ 10086588     rt_logging.obj
 0002:0000c5b0       ??_C@_0CN@FLMCHCPB@?$CK?$CK?$CK?5Error?5writing?5log?5variable?5?$CF@ 100865b0     rt_logging.obj
 0002:0000c5e8       ??_C@_0DH@GAJCNOJP@?$CK?$CK?$CK?5Error?5writing?5structure?5log?5@ 100865e8     rt_logging.obj
 0002:0000c62c       ??_C@_0BD@POEALECL@?$CK?$CK?5created?5?$CFs?5?$CK?$CK?6?6?$AA@ 1008662c     rt_logging.obj
 0002:0000c648       __real@41dfffffffc00000    10086648     rt_logging.obj
 0002:0000c658       __real@41efffffffe00000    10086658     rt_logging.obj
 0002:0000c668       __real@bfbf9add3afd2773    10086668     rt_logging.obj
 0002:0000c680       __xmm@20202020202020202020202020202020 10086680     rt_logging.obj
 0002:0000c6b0       __real@3cb0000000000000    100866b0     rt_matrx.obj
 0002:0000c6bc       ??_C@_0BI@INNPNFJN@Memory?5Allocation?5Error?$AA@ 100866bc     rtw_modelmap_utils.obj
 0002:0000c6d8       ??_C@_1HC@OAPLBLFC@?$AAC?$AA?3?$AA?2?$AAP?$AAR?$AAO?$AAG?$AAR?$AAA?$AA?$HO?$AA1?$AA?2?$AAM?$AAA?$AAT?$AAL?$AAA?$AAB?$AA?2?$AAR?$AA2?$AA0?$AA1?$AA6?$AAa?$AA?2?$AAr?$AAt?$AAw?$AA?2?$AAc?$AA?2@ 100866d8     rtw_modelmap_utils.obj
 0002:0000c760       ??_C@_1CI@OEAJCJND@?$AAj?$AA?5?$AA?$DN?$AA?$DN?$AA?5?$AAe?$AAn?$AAc?$AAo?$AAd?$AAe?$AAd?$AAP?$AAa?$AAt?$AAh?$AAL?$AAe?$AAn?$AA?$AA@ 10086760     rtw_modelmap_utils.obj
 0002:0000c790       ??_C@_1DC@NFAOIFKB@?$AAe?$AAn?$AAc?$AAo?$AAd?$AAe?$AAd?$AAP?$AAa?$AAt?$AAh?$AA?$FL?$AAj?$AA?9?$AA1?$AA?$FN?$AA?5?$AA?$DN?$AA?$DN?$AA?5?$AA?8?$AA?2?$AA0?$AA?8?$AA?$AA@ 10086790     rtw_modelmap_utils.obj
 0002:0000c7cc       ??_C@_1DI@FLNJGPEE@?$AAs?$AAi?$AAg?$AAC?$AAo?$AAm?$AAp?$AAl?$AAe?$AAx?$AAi?$AAt?$AAy?$AA?$FL?$AA?$CK?$AAs?$AAi?$AAg?$AAI?$AAd?$AAx?$AA?$FN?$AA?5?$AA?$CB?$AA?$DN?$AA?5?$AA1?$AA?$AA@ 100867cc     rtw_modelmap_utils.obj
 0002:0000c810       ??_C@_1KI@OFELMGBG@?$AA?$CI?$AA?$CI?$AA?$CI?$AAd?$AAa?$AAt?$AAa?$AAT?$AAy?$AAp?$AAe?$AAM?$AAa?$AAp?$AA?$CJ?$AA?$FL?$AA?$CI?$AA?$CI?$AA?$CI?$AAs?$AAt?$AAa?$AAt?$AAe?$AAs?$AA?$CJ?$AA?$FL?$AA?$CI?$AAi?$AA?$CJ?$AA?$FN?$AA?4@ 10086810     rtw_modelmap_utils.obj
 0002:0000c8dc       ??_C@_1DA@ILCMPHNE@?$AAf?$AAu?$AAl?$AAl?$AAP?$AAa?$AAt?$AAh?$AA?5?$AA?$CB?$AA?$DN?$AA?5?$AA?$CI?$AA?$CI?$AAv?$AAo?$AAi?$AAd?$AA?5?$AA?$CK?$AA?$CJ?$AA0?$AA?$CJ?$AA?$AA@ 100868dc     rtw_modelmap_utils.obj
 0002:0000c918       ??_C@_1CI@OEPPFCCA@?$AAp?$AAa?$AAt?$AAh?$AA?5?$AA?$CB?$AA?$DN?$AA?5?$AA?$CI?$AA?$CI?$AAv?$AAo?$AAi?$AAd?$AA?5?$AA?$CK?$AA?$CJ?$AA0?$AA?$CJ?$AA?$AA@ 10086918     rtw_modelmap_utils.obj
 0002:0000c948       ??_C@_1FK@GLJIMFHB@?$AA?$CI?$AA?$CI?$AAm?$AAm?$AAi?$AA?$CJ?$AA?9?$AA?$DO?$AAI?$AAn?$AAs?$AAt?$AAa?$AAn?$AAc?$AAe?$AAM?$AAa?$AAp?$AA?4?$AAf?$AAu?$AAl?$AAl?$AAP?$AAa?$AAt?$AAh?$AA?$CJ?$AA?5?$AA?$DN?$AA?$DN@ 10086948     rtw_modelmap_utils.obj
 0002:0000c9b4       ??_C@_1DG@HPCJGNCE@?$AAm?$AAm?$AAi?$AAP?$AAa?$AAt?$AAh?$AA?$FL?$AAp?$AAa?$AAt?$AAh?$AAL?$AAe?$AAn?$AA?9?$AA1?$AA?$FN?$AA?5?$AA?$DN?$AA?$DN?$AA?5?$AA?8?$AA?2?$AA0?$AA?8?$AA?$AA@ 100869b4     rtw_modelmap_utils.obj
 0002:0000c9f4       ??_C@_1DM@DBAOGGOO@?$AAm?$AAm?$AAi?$AAP?$AAa?$AAt?$AAh?$AA?$FL?$AAm?$AAm?$AAi?$AAP?$AAa?$AAt?$AAh?$AAL?$AAe?$AAn?$AA?9?$AA1?$AA?$FN?$AA?5?$AA?$DN?$AA?$DN?$AA?5?$AA?8?$AA?2?$AA0?$AA?8?$AA?$AA@ 100869f4     rtw_modelmap_utils.obj
 0002:0000ca3c       ??_C@_1DC@LHIAKAFE@?$AAb?$AAl?$AAo?$AAc?$AAk?$AAP?$AAa?$AAt?$AAh?$AA?5?$AA?$CB?$AA?$DN?$AA?5?$AA?$CI?$AA?$CI?$AAv?$AAo?$AAi?$AAd?$AA?5?$AA?$CK?$AA?$CJ?$AA0?$AA?$CJ?$AA?$AA@ 10086a3c     rtw_modelmap_utils.obj
 0002:0000ca78       ??_C@_1GI@KIEJKPGC@?$AAf?$AAu?$AAl?$AAl?$AAS?$AAt?$AAa?$AAt?$AAe?$AAB?$AAl?$AAo?$AAc?$AAk?$AAP?$AAa?$AAt?$AAh?$AA?$FL?$AAf?$AAu?$AAl?$AAl?$AAS?$AAt?$AAa?$AAt?$AAe?$AAB?$AAl?$AAo?$AAc@ 10086a78     rtw_modelmap_utils.obj
 0002:0000caf8       ??_C@_1EE@DNPIBJHC@?$AA?$CI?$AA?$CI?$AAd?$AAi?$AAm?$AAM?$AAa?$AAp?$AA?$CJ?$AA?$FL?$AA?$CI?$AAm?$AAa?$AAp?$AAI?$AAd?$AAx?$AA?$CJ?$AA?$FN?$AA?4?$AAn?$AAu?$AAm?$AAD?$AAi?$AAm?$AAs?$AA?$CJ?$AA?5?$AA?$DN?$AA?$DN?$AA?5@ 10086af8     rtw_modelmap_utils.obj
 0002:0000cb4c       ??_C@_06JFOKFOED@CSTATE?$AA@ 10086b4c     rtw_modelmap_utils.obj
 0002:0000cb54       ??_C@_06FAENGAMN@DSTATE?$AA@ 10086b54     rtw_modelmap_utils.obj
 0002:0000cb5c       ??_C@_1BI@LEBJNOGG@?$AAc?$AAs?$AAv?$AAI?$AAd?$AAx?$AA?5?$AA?$DO?$AA?$DN?$AA?5?$AA0?$AA?$AA@ 10086b5c     rtw_modelmap_utils.obj
 0002:0000cb78       ??_C@_1BA@KDMGHCHP@?$AAT?$AAI?$AAD?$AA?$DN?$AA?$DN?$AA?9?$AA1?$AA?$AA@ 10086b78     rtw_modelmap_utils.obj
 0002:0000cb8c       ??_C@_1DM@DHGKBPCE@?$AAs?$AAi?$AAg?$AAP?$AAa?$AAt?$AAh?$AA?$FL?$AAs?$AAi?$AAg?$AAP?$AAa?$AAt?$AAh?$AAL?$AAe?$AAn?$AA?9?$AA1?$AA?$FN?$AA?5?$AA?$DN?$AA?$DN?$AA?5?$AA?8?$AA?2?$AA0?$AA?8?$AA?$AA@ 10086b8c     rtw_modelmap_utils.obj
 0002:0000cbd4       _serialfifoground          10086bd4     xpc_datatype_ground.obj
 0002:0000cbe0       _bcmsg1553ground           10086be0     xpc_datatype_ground.obj
 0002:0000cbf0       _bcstatground              10086bf0     xpc_datatype_ground.obj
 0002:0000cc08       _bmmsg1553ground           10086c08     xpc_datatype_ground.obj
 0002:0000cc28       ??_C@_0BG@CNCAADLC@Control_software_v1_1?$AA@ 10086c28     xpctarget.obj
 0002:0000cc44       _ptsetfilename             10086c44     xpctarget.obj
 0002:0000cc48       _xmlfile                   10086c48     xpctarget.obj
 0002:0000cc50       ??_C@_0L@CHBJKKFC@xpceSetVar?$AA@ 10086c50     xpctarget.obj
 0002:0000cc60       ??_C@_03ICACBPID@6?44?$AA@ 10086c60     xpctarget.obj
 0002:0000cc68       _Control_software_v1_1_BIOMAP 10086c68     appmappingData.obj
 0002:0000d548       _Control_software_v1_1_LBLMAP 10087548     appmappingData.obj
 0002:0000de28       _Control_software_v1_1_SIDMAP 10087e28     appmappingData.obj
 0002:0000e708       _Control_software_v1_1_SBIO 10088708     appmappingData.obj
 0002:0000ea00       _Control_software_v1_1_SLBL 10088a00     appmappingData.obj
 0002:0000ecf8       _Control_software_v1_1_PTIDSMAP 10088cf8     appmappingData.obj
 0002:0000f778       _Control_software_v1_1_PTNAMESMAP 10089778     appmappingData.obj
 0002:000101f8       _Control_software_v1_1_SPTMAP 1008a1f8     appmappingData.obj
 0002:00010740       _Control_software_v1_1_dtmap 1008a740     appmappingData.obj
 0002:000107a0       _appInfo                   1008a7a0     appmappingData.obj
 0002:000113d8       ??_C@_0ED@LKHIFFLC@Wrong?5number?5of?5input?5arguments?5@ 1008b3d8     iqueryqua.obj
 0002:00011428       ??_C@_0CD@JOLOIMLC@Iqueryqua?3?5Unknown?5board?5type?3?5?$CF@ 1008b428     iqueryqua.obj
 0002:00011454       ??_C@_0CF@PLHDIPPP@Port?5number?5exceeds?5input?5port?5c@ 1008b454     filterqua.obj
 0002:00011480       ??_C@_0DC@CECGIJCE@Attempted?5write?5to?5hardware?5fifo@ 1008b480     serwritequa.obj
 0002:000114bc       ??_C@_0BP@DPILOFE@Can?8t?5allocate?5memory?5for?5fifo?$AA@ 1008b4bc     fifowrite.obj
 0002:000114e4       ??_C@_0BC@LNAFOLHA@FIFO?5overflow?3?5?$CFs?$AA@ 1008b4e4     fifowrite.obj
 0002:000114fc       ??_C@_0DM@NHDMCGKF@Input?5port?5width?5is?5less?5than?5th@ 1008b4fc     fifowrite.obj
 0002:00011544       ??_C@_0CI@FOFDKLAN@NI?5?$CFs?3?5Can?8t?5allocate?5temporary?5@ 1008b544     adnipcim.obj
 0002:00011574       ??_C@_0CK@PIIIKEIH@NI?5M?5series?3?5Channel?5?$CFf?5out?5of?5r@ 1008b574     adnipcim.obj
 0002:000115a8       ??_C@_0CF@LKNEFAOG@NI?5M?5series?3?5Timeout?5waiting?5for@ 1008b5a8     adnipcim.obj
 0002:000115d8       __real@417312d000000000    1008b5d8     adnipcim.obj
 0002:000115e8       ??_C@_0EL@INKCMHEI@Number?5of?5header?5lengths?5is?5not?5@ 1008b5e8     fiforeadhdr.obj
 0002:00011644       ??_C@_0BL@KDJMFPJE@Malloc?5error?3?5fstr?5?$DN?50x?$CFx?6?$AA@ 1008b644     fiforeadhdr.obj
 0002:00011664       ??_C@_0CJ@JOABIDGM@String?5is?5too?5large?5for?5output?5v@ 1008b664     fiforeadhdr.obj
 0002:00011698       ??_C@_0BG@IFAFGHNA@Header?5?$CFd?0?5length?5?$CFd?6?$AA@ 1008b698     fiforeadhdr.obj
 0002:000116b4       ??_C@_02HAOIJKIC@?$CFc?$AA@ 1008b6b4     fiforeadhdr.obj
 0002:000116b8       ??_C@_0CN@GIADDCOF@Quatech?5modemcontrol?3?5Unknown?5bo@ 1008b6b8     setupqua.obj
 0002:000116f0       ??_C@_0BN@JIEFLHEB@?$CFs?3?5Too?5many?5M?5series?5boards?$AA@ 1008b6f0     pfidonipcim.obj
 0002:00011714       ??_C@_0DB@HFHLNKLE@Channel?5?$CFd?5exceeds?5the?5max?5DA?5ch@ 1008b714     danipcim.obj
 0002:00011750       ??_C@_0CL@GCJHHCMG@Output?5range?5?$CFd?5is?5not?5supported@ 1008b750     danipcim.obj
 0002:00011784       ??_C@_0BA@JKKBADJB@Quatech?5QSC?9100?$AA@ 1008b784     quatechinit.obj
 0002:00011798       ??_C@_0BA@GCFADMEA@Quatech?5ESC?9100?$AA@ 1008b798     quatechinit.obj
 0002:000117ac       ??_C@_0BE@HENBPEHA@Quatech?5QSC?9200?1300?$AA@ 1008b7ac     quatechinit.obj
 0002:000117c4       ??_C@_0BF@FBNBGCCE@Quatech?5DSCP?9200?1300?$AA@ 1008b7c4     quatechinit.obj
 0002:000117e0       ??_C@_0CH@MBGHNPGI@?$CFs?5?$CIbus?5?$CFd?0slot?5?$CFd?$CJ?3?5board?5not?5p@ 1008b7e0     quatechinit.obj
 0002:00011810       ??_C@_0M@IMCLKBPP@NI?5PCI?96220?$AA@ 1008b810     xpcionim.obj
 0002:00011820       ??_C@_0M@JFDAJALO@NI?5PCI?96221?$AA@ 1008b820     xpcionim.obj
 0002:00011830       ??_C@_0P@NGCDCNKM@NI?5PCI?96221?137?$AA@ 1008b830     xpcionim.obj
 0002:00011844       ??_C@_0M@OIEHGEPL@NI?5PCI?96224?$AA@ 1008b844     xpcionim.obj
 0002:00011854       ??_C@_0M@PBFMFFLK@NI?5PCI?96225?$AA@ 1008b854     xpcionim.obj
 0002:00011864       ??_C@_0M@FNOJBKLG@NI?5PCI?96229?$AA@ 1008b864     xpcionim.obj
 0002:00011874       ??_C@_0M@INOJMLMI@NI?5PCI?96230?$AA@ 1008b874     xpcionim.obj
 0002:00011884       ??_C@_0M@LPNPKJEK@NI?5PCI?96232?$AA@ 1008b884     xpcionim.obj
 0002:00011894       ??_C@_0M@KGMEJIAL@NI?5PCI?96233?$AA@ 1008b894     xpcionim.obj
 0002:000118a4       ??_C@_0M@NLLDGMEO@NI?5PCI?96236?$AA@ 1008b8a4     xpcionim.obj
 0002:000118b4       ??_C@_0M@EFDAEBMA@NI?5PCI?96238?$AA@ 1008b8b4     xpcionim.obj
 0002:000118c4       ??_C@_0M@FMCLHAIB@NI?5PCI?96239?$AA@ 1008b8c4     xpcionim.obj
 0002:000118d4       ??_C@_0M@IJGELHHK@NI?5PCI?96250?$AA@ 1008b8d4     xpcionim.obj
 0002:000118e4       ??_C@_0M@JAHPIGDL@NI?5PCI?96251?$AA@ 1008b8e4     xpcionim.obj
 0002:000118f4       ??_C@_0M@ONAIHCHO@NI?5PCI?96254?$AA@ 1008b8f4     xpcionim.obj
 0002:00011904       ??_C@_0M@PEBDEDDP@NI?5PCI?96255?$AA@ 1008b904     xpcionim.obj
 0002:00011914       ??_C@_0M@FIKGAMDD@NI?5PCI?96259?$AA@ 1008b914     xpcionim.obj
 0002:00011924       ??_C@_0M@IBLMCECJ@NI?5PCI?96280?$AA@ 1008b924     xpcionim.obj
 0002:00011934       ??_C@_0M@JIKHBFGI@NI?5PCI?96281?$AA@ 1008b934     xpcionim.obj
 0002:00011944       ??_C@_0M@OFNAOBCN@NI?5PCI?96284?$AA@ 1008b944     xpcionim.obj
 0002:00011954       ??_C@_0M@FAHOJPGA@NI?5PCI?96289?$AA@ 1008b954     xpcionim.obj
 0002:00011964       ??_C@_0CI@NFFNBHJA@?$CFs?5?$CIbus?5?$CFd?0?5slot?5?$CFd?$CJ?3?5board?5not?5@ 1008b964     xpcionim.obj
 0002:00011994       ??_C@_0CD@MBDNCLAI@NI?5M?5series?3?5Unknown?5board?5type?5@ 1008b994     xpcionim.obj
 0002:000119c0       ??_C@_0CC@DMFKNLL@VendorId?5?$DN?50x?$CFx?0?5DeviceId?5?$DN?50x?$CFx@ 1008b9c0     xpcruntime:xpcimports.obj
 0002:000119e8       ??_C@_0DH@OHCBLNMG@Subsystem?5Device?5ID?5?$DN?50x?$CFx?6Subsy@ 1008b9e8     xpcruntime:xpcimports.obj
 0002:00011a2c       ??_C@_0BD@MMMMEFCM@Class?5Code?5?$DN?50x?$CFx?6?$AA@ 1008ba2c     xpcruntime:xpcimports.obj
 0002:00011a44       ??_C@_0BE@OLDDDNHM@InterruptLine?5?$DN?5?$CFd?6?$AA@ 1008ba44     xpcruntime:xpcimports.obj
 0002:00011a5c       ??_C@_0BF@OLKLEKBD@bus?5?$DN?5?$CFd?0?5slot?5?$DN?5?$CFd?6?$AA@ 1008ba5c     xpcruntime:xpcimports.obj
 0002:00011a78       ??_C@_0CE@DGLLGDFH@?5?5?5?5Phys?5?5?5Virtual?5?5?5Length?5IO?1M@ 1008ba78     xpcruntime:xpcimports.obj
 0002:00011aa4       ??_C@_0BI@FEOPLEMG@?$CF08x?5?$CF08x?5?$CF08x?5?5?5?5?5?5?$CFc?6?$AA@ 1008baa4     xpcruntime:xpcimports.obj
 0002:00011ac0       ??_C@_0BB@BNNCEDPC@rl32eScopeExists?$AA@ 1008bac0     xpcruntime:xpcimports.obj
 0002:00011ad4       ??_C@_0BM@FJBFEGFG@rl32eScopeExists?5not?5found?6?$AA@ 1008bad4     xpcruntime:xpcimports.obj
 0002:00011af8       ??_C@_0O@BNNGKJEA@rl32eDefScope?$AA@ 1008baf8     xpcruntime:xpcimports.obj
 0002:00011b08       ??_C@_0BJ@CDNOENKA@rl32eDefScope?5not?5found?6?$AA@ 1008bb08     xpcruntime:xpcimports.obj
 0002:00011b28       ??_C@_0P@CKNKILDP@rl32eAddSignal?$AA@ 1008bb28     xpcruntime:xpcimports.obj
 0002:00011b3c       ??_C@_0BK@GMJAJBAI@rl32eAddSignal?5not?5found?6?$AA@ 1008bb3c     xpcruntime:xpcimports.obj
 0002:00011b5c       ??_C@_0BB@LDMIHGCE@rl32eGetSignalNo?$AA@ 1008bb5c     xpcruntime:xpcimports.obj
 0002:00011b70       ??_C@_0BM@LGAMBAID@rl32eGetSignalNo?5not?5found?6?$AA@ 1008bb70     xpcruntime:xpcimports.obj
 0002:00011b94       ??_C@_0O@CFDGALBP@rl32eSetScope?$AA@ 1008bb94     xpcruntime:xpcimports.obj
 0002:00011ba4       ??_C@_0BJ@JCLHHIN@rl32eSetScope?5not?5found?6?$AA@ 1008bba4     xpcruntime:xpcimports.obj
 0002:00011bc4       ??_C@_0P@IKMCBMHH@xpceFSScopeSet?$AA@ 1008bbc4     xpcruntime:xpcimports.obj
 0002:00011bd8       ??_C@_0BK@JODJPNNH@xpceFSScopeSet?5not?5found?6?$AA@ 1008bbd8     xpcruntime:xpcimports.obj
 0002:00011bf8       ??_C@_0BE@DLACEEJM@rl32eSetTargetScope?$AA@ 1008bbf8     xpcruntime:xpcimports.obj
 0002:00011c10       ??_C@_0BP@JCHFMKPJ@rl32eSetTargetScope?5not?5found?6?$AA@ 1008bc10     xpcruntime:xpcimports.obj
 0002:00011c38       ??_C@_0BJ@LIDLNDHC@rl32eSetTargetScopeSigFt?$AA@ 1008bc38     xpcruntime:xpcimports.obj
 0002:00011c58       ??_C@_0CE@JLGHCFHI@rl32eSetTargetScopeSigFt?5not?5fou@ 1008bc58     xpcruntime:xpcimports.obj
 0002:00011c84       ??_C@_0BI@JAPOIDNG@rl32eRestartAcquisition?$AA@ 1008bc84     xpcruntime:xpcimports.obj
 0002:00011ca0       ??_C@_0CD@LLBEFFBO@rl32eRestartAcquisition?5not?5foun@ 1008bca0     xpcruntime:xpcimports.obj
 0002:00011ccc       ??_C@_0P@IEIIADJB@xpceScopeAcqOK?$AA@ 1008bccc     xpcruntime:xpcimports.obj
 0002:00011ce0       ??_C@_0BK@NJCKNFPN@xpceScopeAcqOK?5not?5found?6?$AA@ 1008bce0     xpcruntime:xpcimports.obj
 0002:00011d00       ??_C@_0BA@IJINKAHF@xpceRegisterISR?$AA@ 1008bd00     xpcruntime:xpcimports.obj
 0002:00011d14       ??_C@_0BL@NNDLOEJE@xpceRegisterISR?5not?5found?6?$AA@ 1008bd14     xpcruntime:xpcimports.obj
 0002:00011d34       ??_C@_0BC@NLBADGKF@xpceDeRegisterISR?$AA@ 1008bd34     xpcruntime:xpcimports.obj
 0002:00011d4c       ??_C@_0BN@DCAIKFFD@xpceDeRegisterISR?5not?5found?6?$AA@ 1008bd4c     xpcruntime:xpcimports.obj
 0002:00011d70       ??_C@_0P@CPGPNKEB@xpceFTReadTime?$AA@ 1008bd70     xpcruntime:xpcimports.obj
 0002:00011d84       ??_C@_0BK@NMABIODN@xpceFTReadTime?5not?5found?6?$AA@ 1008bd84     xpcruntime:xpcimports.obj
 0002:00011da4       ??_C@_09PHNHCHFH@xpceFTAdd?$AA@ 1008bda4     xpcruntime:xpcimports.obj
 0002:00011db0       ??_C@_0BF@FJLEIILA@xpceFTAdd?5not?5found?6?$AA@ 1008bdb0     xpcruntime:xpcimports.obj
 0002:00011dcc       ??_C@_0P@KEODBLHO@xpceFTSubtract?$AA@ 1008bdcc     xpcruntime:xpcimports.obj
 0002:00011de0       ??_C@_0BK@HONODOKP@xpceFTSubtract?5not?5found?6?$AA@ 1008bde0     xpcruntime:xpcimports.obj
 0002:00011e00       ??_C@_07JPMEPILD@xpcInpB?$AA@ 1008be00     xpcruntime:xpcimports.obj
 0002:00011e0c       ??_C@_0BD@PGABEJOL@xpcInpB?5not?5found?6?$AA@ 1008be0c     xpcruntime:xpcimports.obj
 0002:00011e24       ??_C@_07KIHBBOKH@xpcInpW?$AA@ 1008be24     xpcruntime:xpcimports.obj
 0002:00011e30       ??_C@_0BD@FPCJFMCC@xpcInpW?5not?5found?6?$AA@ 1008be30     xpcruntime:xpcimports.obj
 0002:00011e48       ??_C@_08KDIAJBOP@xpcInpDW?$AA@ 1008be48     xpcruntime:xpcimports.obj
 0002:00011e54       ??_C@_0BE@PIELDNIL@xpcInpDW?5not?5found?6?$AA@ 1008be54     xpcruntime:xpcimports.obj
 0002:00011e6c       ??_C@_08PJFMOIGO@xpcOutpB?$AA@ 1008be6c     xpcruntime:xpcimports.obj
 0002:00011e78       ??_C@_0BE@HCKNCEKF@xpcOutpB?5not?5found?6?$AA@ 1008be78     xpcruntime:xpcimports.obj
 0002:00011e90       ??_C@_08MOOJAOHK@xpcOutpW?$AA@ 1008be90     xpcruntime:xpcimports.obj
 0002:00011e9c       ??_C@_0BE@NLIFDBGM@xpcOutpW?5not?5found?6?$AA@ 1008be9c     xpcruntime:xpcimports.obj
 0002:00011eb4       ??_C@_09FLIEKHJG@xpcOutpDW?$AA@ 1008beb4     xpcruntime:xpcimports.obj
 0002:00011ec0       ??_C@_0BF@GJKLPNHB@xpcOutpDW?5not?5found?6?$AA@ 1008bec0     xpcruntime:xpcimports.obj
 0002:00011edc       ??_C@_0BH@EHOLELHH@xpcReserveMemoryRegion?$AA@ 1008bedc     xpcruntime:xpcimports.obj
 0002:00011ef8       ??_C@_0CC@KAAAGPI@xpcReserveMemoryRegion?5not?5found@ 1008bef8     xpcruntime:xpcimports.obj
 0002:00011f20       ??_C@_0BA@JGPMHGAF@rl32eShowPCIDev?$AA@ 1008bf20     xpcruntime:xpcimports.obj
 0002:00011f34       ??_C@_0BL@DDFFLNHI@rl32eShowPCIDev?5not?5found?6?$AA@ 1008bf34     xpcruntime:xpcimports.obj
 0002:00011f54       ??_C@_0BB@KBCOJPFB@rl32eShowPCIInfo?$AA@ 1008bf54     xpcruntime:xpcimports.obj
 0002:00011f68       ??_C@_0BM@IFDMAGLO@rl32eShowPCIInfo?5not?5found?6?$AA@ 1008bf68     xpcruntime:xpcimports.obj
 0002:00011f8c       ??_C@_0BA@BGPAADB@rl32eGetPCIInfo?$AA@ 1008bf8c     xpcruntime:xpcimports.obj
 0002:00011fa0       ??_C@_0BL@IGOMLDCK@rl32eGetPCIInfo?5not?5found?6?$AA@ 1008bfa0     xpcruntime:xpcimports.obj
 0002:00011fc0       ??_C@_0BG@NJPFKFDP@rl32eGetPCIInfoAtSlot?$AA@ 1008bfc0     xpcruntime:xpcimports.obj
 0002:00011fdc       ??_C@_0CB@BBKIPMLA@rl32eGetPCIInfoAtSlot?5not?5found?6@ 1008bfdc     xpcruntime:xpcimports.obj
 0002:00012004       ??_C@_0BH@OKBOPNFG@xpceAssignPCIInterrupt?$AA@ 1008c004     xpcruntime:xpcimports.obj
 0002:00012020       ??_C@_0CC@CDNDNJBJ@xpceAssignPCIInterrupt?5not?5found@ 1008c020     xpcruntime:xpcimports.obj
 0002:00012048       ??_C@_0BB@FCHHFAAH@rl32eInitCOMPort?$AA@ 1008c048     xpcruntime:xpcimports.obj
 0002:0001205c       ??_C@_0BM@DDJGKAHB@rl32eInitCOMPort?5not?5found?6?$AA@ 1008c05c     xpcruntime:xpcimports.obj
 0002:00012080       ??_C@_0BC@CHEEFCP@rl32eCloseCOMPort?$AA@ 1008c080     xpcruntime:xpcimports.obj
 0002:00012098       ??_C@_0BN@KCOFELEM@rl32eCloseCOMPort?5not?5found?6?$AA@ 1008c098     xpcruntime:xpcimports.obj
 0002:000120bc       ??_C@_0O@LLJGKFOG@rl32eSendChar?$AA@ 1008c0bc     xpcruntime:xpcimports.obj
 0002:000120cc       ??_C@_0BJ@JCJKDACJ@rl32eSendChar?5not?5found?6?$AA@ 1008c0cc     xpcruntime:xpcimports.obj
 0002:000120ec       ??_C@_0BB@OMFKCOEK@rl32eReceiveChar?$AA@ 1008c0ec     xpcruntime:xpcimports.obj
 0002:00012100       ??_C@_0BM@HGAIOAND@rl32eReceiveChar?5not?5found?6?$AA@ 1008c100     xpcruntime:xpcimports.obj
 0002:00012124       ??_C@_0BI@PKEJFHMJ@rl32eReceiveBufferCount?$AA@ 1008c124     xpcruntime:xpcimports.obj
 0002:00012140       ??_C@_0CD@LNMOFLAH@rl32eReceiveBufferCount?5not?5foun@ 1008c140     xpcruntime:xpcimports.obj
 0002:0001216c       ??_C@_0BA@CFIJOJPK@rl32eLineStatus?$AA@ 1008c16c     xpcruntime:xpcimports.obj
 0002:00012180       ??_C@_0BL@PLIDKKGI@rl32eLineStatus?5not?5found?6?$AA@ 1008c180     xpcruntime:xpcimports.obj
 0002:000121a0       ??_C@_0P@MDMKIJF@rl32eSendBlock?$AA@ 1008c1a0     xpcruntime:xpcimports.obj
 0002:000121b4       ??_C@_0BK@KNBNFIKH@rl32eSendBlock?5not?5found?6?$AA@ 1008c1b4     xpcruntime:xpcimports.obj
 0002:000121d4       ??_C@_0BD@PCKOKHO@xpceGetSignalValue?$AA@ 1008c1d4     xpcruntime:xpcimports.obj
 0002:000121ec       ??_C@_0BO@GCBDJHMB@xpceGetSignalValue?5not?5found?6?$AA@ 1008c1ec     xpcruntime:xpcimports.obj
 0002:00012210       ??_C@_0BB@BJONJAGA@xpceSetParameter?$AA@ 1008c210     xpcruntime:xpcimports.obj
 0002:00012224       ??_C@_0BM@BJIKDLHA@xpceSetParameter?5not?5found?6?$AA@ 1008c224     xpcruntime:xpcimports.obj
 0002:00012248       ??_C@_0BB@GNFDFMCM@xpceGetParameter?$AA@ 1008c248     xpcruntime:xpcimports.obj
 0002:0001225c       ??_C@_0BM@POHNKBC@xpceGetParameter?5not?5found?6?$AA@ 1008c25c     xpcruntime:xpcimports.obj
 0002:00012280       ??_C@_0BB@CEIJLFCD@xpceGetParamDims?$AA@ 1008c280     xpcruntime:xpcimports.obj
 0002:00012294       ??_C@_0BM@OABDBKAO@xpceGetParamDims?5not?5found?6?$AA@ 1008c294     xpcruntime:xpcimports.obj
 0002:000122b8       ??_C@_0L@OCBLLHBM@xpceGetTET?$AA@ 1008c2b8     xpcruntime:xpcimports.obj
 0002:000122c8       ??_C@_0BG@HNOFBOB@xpceGetTET?5not?5found?6?$AA@ 1008c2c8     xpcruntime:xpcimports.obj
 0002:000122e4       ??_C@_0BA@FHMIOKFL@xpceUDPOpenSend?$AA@ 1008c2e4     xpcruntime:xpcimports.obj
 0002:000122f8       ??_C@_0BL@HNLPFEK@xpceUDPOpenSend?5not?5found?6?$AA@ 1008c2f8     xpcruntime:xpcimports.obj
 0002:00012318       ??_C@_0BD@BCELJJJL@xpceUDPOpenReceive?$AA@ 1008c318     xpcruntime:xpcimports.obj
 0002:00012330       ??_C@_0BO@IFKJBHKC@xpceUDPOpenReceive?5not?5found?6?$AA@ 1008c330     xpcruntime:xpcimports.obj
 0002:00012354       ??_C@_0M@OFPFLJGN@xpceUDPSend?$AA@ 1008c354     xpcruntime:xpcimports.obj
 0002:00012364       ??_C@_0BH@NOIKLPAB@xpceUDPSend?5not?5found?6?$AA@ 1008c364     xpcruntime:xpcimports.obj
 0002:00012380       ??_C@_0P@PLFDECIN@xpceUDPReceive?$AA@ 1008c380     xpcruntime:xpcimports.obj
 0002:00012394       ??_C@_0BK@OPJMLDLH@xpceUDPReceive?5not?5found?6?$AA@ 1008c394     xpcruntime:xpcimports.obj
 0002:000123b4       ??_C@_0N@IEHPMFME@xpceUDPClose?$AA@ 1008c3b4     xpcruntime:xpcimports.obj
 0002:000123c4       ??_C@_0BI@FHPFHECO@xpceUDPClose?5not?5found?6?$AA@ 1008c3c4     xpcruntime:xpcimports.obj
 0002:000123e0       ??_C@_0P@OKGNGAGH@xpcIsModelInit?$AA@ 1008c3e0     xpcruntime:xpcimports.obj
 0002:000123f4       ??_C@_0BK@DHEMLBIM@xpcIsModelInit?5not?5found?6?$AA@ 1008c3f4     xpcruntime:xpcimports.obj
 0002:00012414       ??_C@_0BH@KJJLCAOJ@xpcAllocPhysicalMemory?$AA@ 1008c414     xpcruntime:xpcimports.obj
 0002:00012430       ??_C@_0CC@MOJPNHKL@xpcAllocPhysicalMemory?5not?5found@ 1008c430     xpcruntime:xpcimports.obj
 0002:00012458       ??_C@_0BG@CBNPGAEL@xpcFreePhysicalMemory?$AA@ 1008c458     xpcruntime:xpcimports.obj
 0002:00012474       ??_C@_0CB@PKJEBPOG@xpcFreePhysicalMemory?5not?5found?6@ 1008c474     xpcruntime:xpcimports.obj
 0002:0001249c       ??_C@_0BC@JGKNLICL@xpcGetElapsedTime?$AA@ 1008c49c     xpcruntime:xpcimports.obj
 0002:000124b4       ??_C@_0BN@OEOAHCIO@xpcGetElapsedTime?5not?5found?6?$AA@ 1008c4b4     xpcruntime:xpcimports.obj
 0002:000124d8       ??_C@_0M@ICBLMODA@xpcBusyWait?$AA@ 1008c4d8     xpcruntime:xpcimports.obj
 0002:000124e8       ??_C@_0BH@FBOPECBI@xpcBusyWait?5not?5found?6?$AA@ 1008c4e8     xpcruntime:xpcimports.obj
 0002:00012504       ??_C@_0N@LKKJEKKA@TBCreateSpin?$AA@ 1008c504     xpcruntime:xpcimports.obj
 0002:00012514       ??_C@_0BI@FHKMLKOE@TBCreateSpin?5not?5found?6?$AA@ 1008c514     xpcruntime:xpcimports.obj
 0002:00012530       ??_C@_0N@HOAJHNBD@TBDeleteSpin?$AA@ 1008c530     xpcruntime:xpcimports.obj
 0002:00012540       ??_C@_0BI@BKCPAAG@TBDeleteSpin?5not?5found?6?$AA@ 1008c540     xpcruntime:xpcimports.obj
 0002:0001255c       ??_C@_0P@DAHDDBJG@TBTakeSpinFast?$AA@ 1008c55c     xpcruntime:xpcimports.obj
 0002:00012570       ??_C@_0BK@NKAIBHGB@TBTakeSpinFast?5not?5found?6?$AA@ 1008c570     xpcruntime:xpcimports.obj
 0002:00012590       ??_C@_0P@FKNAAELA@TBGiveSpinFast?$AA@ 1008c590     xpcruntime:xpcimports.obj
 0002:000125a4       ??_C@_0BK@KGPJBJND@TBGiveSpinFast?5not?5found?6?$AA@ 1008c5a4     xpcruntime:xpcimports.obj
 0002:000125c4       ??_C@_0BE@IIGBFDHK@xpceCreateSemaphore?$AA@ 1008c5c4     xpcruntime:xpcimports.obj
 0002:000125dc       ??_C@_0BP@KFBAFFKJ@xpceCreateSemaphore?5not?5found?6?$AA@ 1008c5dc     xpcruntime:xpcimports.obj
 0002:00012604       ??_C@_0BC@IFNIONKJ@xpceWaitSemaphore?$AA@ 1008c604     xpcruntime:xpcimports.obj
 0002:0001261c       ??_C@_0BN@NMFAADIO@xpceWaitSemaphore?5not?5found?6?$AA@ 1008c61c     xpcruntime:xpcimports.obj
 0002:00012640       ??_C@_0BE@NNDIOBKE@xpceSignalSemaphore?$AA@ 1008c640     xpcruntime:xpcimports.obj
 0002:00012658       ??_C@_0BP@LBANMHJP@xpceSignalSemaphore?5not?5found?6?$AA@ 1008c658     xpcruntime:xpcimports.obj
 0002:00012680       ??_C@_0BE@MEBEKOIM@xpceDeleteSemaphore?$AA@ 1008c680     xpcruntime:xpcimports.obj
 0002:00012698       ??_C@_0BP@OFNCKOJH@xpceDeleteSemaphore?5not?5found?6?$AA@ 1008c698     xpcruntime:xpcimports.obj
 0002:000126c0       ??_C@_0BD@MFNDMBOF@FindUsbVideoDevice?$AA@ 1008c6c0     xpcruntime:xpcimports.obj
 0002:000126d8       ??_C@_0BO@POKLDHMI@FindUsbVideoDevice?5not?5found?6?$AA@ 1008c6d8     xpcruntime:xpcimports.obj
 0002:000126fc       ??_C@_0BA@PLPAPNAB@GetVideoConfigs?$AA@ 1008c6fc     xpcruntime:xpcimports.obj
 0002:00012710       ??_C@_0BL@DALDHKHC@GetVideoConfigs?5not?5found?6?$AA@ 1008c710     xpcruntime:xpcimports.obj
 0002:00012730       ??_C@_0L@GBAEMHMH@StartVideo?$AA@ 1008c730     xpcruntime:xpcimports.obj
 0002:00012740       ??_C@_0BG@HDCELEBP@StartVideo?5not?5found?6?$AA@ 1008c740     xpcruntime:xpcimports.obj
 0002:0001275c       ??_C@_0BA@FDNPOCLN@ReadFrameBuffer?$AA@ 1008c75c     xpcruntime:xpcimports.obj
 0002:00012770       ??_C@_0BL@JHGHPNBI@ReadFrameBuffer?5not?5found?6?$AA@ 1008c770     xpcruntime:xpcimports.obj
 0002:00012790       ??_C@_09FAHCLKAG@StopVideo?$AA@ 1008c790     xpcruntime:xpcimports.obj
 0002:0001279c       ??_C@_0BF@NKGKKADL@StopVideo?5not?5found?6?$AA@ 1008c79c     xpcruntime:xpcimports.obj
 0002:000127b8       ??_C@_0O@MCPKDLLL@ConvertUImage?$AA@ 1008c7b8     xpcruntime:xpcimports.obj
 0002:000127c8       ??_C@_0BJ@PHJKOAFL@ConvertUImage?5not?5found?6?$AA@ 1008c7c8     xpcruntime:xpcimports.obj
 0002:000127e8       ??_C@_0BD@NKCBPBJJ@CreateVideoDisplay?$AA@ 1008c7e8     xpcruntime:xpcimports.obj
 0002:00012800       ??_C@_0BO@HPPLLNFP@CreateVideoDisplay?5not?5found?6?$AA@ 1008c800     xpcruntime:xpcimports.obj
 0002:00012824       ??_C@_0BE@KJCKGPHA@DestroyVideoDisplay?$AA@ 1008c824     xpcruntime:xpcimports.obj
 0002:0001283c       ??_C@_0BP@FMGLJAIJ@DestroyVideoDisplay?5not?5found?6?$AA@ 1008c83c     xpcruntime:xpcimports.obj
 0002:00012864       ??_C@_0BC@HCMIMIDN@StartVideoDisplay?$AA@ 1008c864     xpcruntime:xpcimports.obj
 0002:0001287c       ??_C@_0BN@EFIEBGOO@StartVideoDisplay?5not?5found?6?$AA@ 1008c87c     xpcruntime:xpcimports.obj
 0002:000128a0       ??_C@_0BB@JBBLMILG@StopVideoDisplay?$AA@ 1008c8a0     xpcruntime:xpcimports.obj
 0002:000128b4       ??_C@_0BM@DBJBPLEL@StopVideoDisplay?5not?5found?6?$AA@ 1008c8b4     xpcruntime:xpcimports.obj
 0002:000128d8       ??_C@_0M@MFJEGMHC@StreamVideo?$AA@ 1008c8d8     xpcruntime:xpcimports.obj
 0002:000128e8       ??_C@_0BH@OINCDMLA@StreamVideo?5not?5found?6?$AA@ 1008c8e8     xpcruntime:xpcimports.obj
 0002:00012904       ??_C@_0N@IGGLCIGE@xpceaddEvent?$AA@ 1008c904     xpcruntime:xpcimports.obj
 0002:00012914       ??_C@_0BI@NHJNFMKH@xpceaddEvent?5not?5found?6?$AA@ 1008c914     xpcruntime:xpcimports.obj
 0002:00012930       ??_C@_0BB@LCMHHHFN@getMemoryService?$AA@ 1008c930     xpcruntime:xpcimports.obj
 0002:00012944       ??_C@_0BM@MPLCNIIE@getMemoryService?5not?5found?6?$AA@ 1008c944     xpcruntime:xpcimports.obj
 0002:00012968       ??_C@_0P@KIKONDKK@getCommService?$AA@ 1008c968     xpcruntime:xpcimports.obj
 0002:0001297c       ??_C@_0BK@NCECBKNM@getCommService?5not?5found?6?$AA@ 1008c97c     xpcruntime:xpcimports.obj
 0002:0001299c       ??_C@_0P@GDLHFECE@getStatusFlags?$AA@ 1008c99c     xpcruntime:xpcimports.obj
 0002:000129b0       ??_C@_0BK@NEKDLJHG@getStatusFlags?5not?5found?6?$AA@ 1008c9b0     xpcruntime:xpcimports.obj
 0002:000129d0       ??_C@_0BL@CDFCLKOL@startToAsyncQueueTgtAppSvc?$AA@ 1008c9d0     xpcruntime:xpcimports.obj
 0002:000129f0       ??_C@_0CG@JGOFFKEL@startToAsyncQueueTgtAppSvc?5not?5f@ 1008c9f0     xpcruntime:xpcimports.obj
 0002:00012a20       ??_C@_0BP@IJNGPPPE@terminateToAsyncQueueTgtAppSvc?$AA@ 1008ca20     xpcruntime:xpcimports.obj
 0002:00012a48       ??_C@_0CK@NDEMAMKF@terminateToAsyncQueueTgtAppSvc?5n@ 1008ca48     xpcruntime:xpcimports.obj
 0002:00012a7c       ??_C@_0BK@IDACEHAO@sendToAsyncQueueTgtAppSvc?$AA@ 1008ca7c     xpcruntime:xpcimports.obj
 0002:00012a9c       ??_C@_0CF@PNCKPEHN@sendToAsyncQueueTgtAppSvc?5not?5fo@ 1008ca9c     xpcruntime:xpcimports.obj
 0002:00012ac8       ??_C@_0BN@HJOHIFOM@xpceGetIntTimerGranularityNS?$AA@ 1008cac8     xpcruntime:xpcimports.obj
 0002:00012aec       ??_C@_0CI@OADDPMKB@xpceGetIntTimerGranularityNS?5not@ 1008caec     xpcruntime:xpcimports.obj
 0002:00012b1c       ??_C@_0BG@CCHICKPN@slrteSetStepSizeDelta?$AA@ 1008cb1c     xpcruntime:xpcimports.obj
 0002:00012b38       ??_C@_0CB@MKHINEIJ@slrteSetStepSizeDelta?5not?5found?6@ 1008cb38     xpcruntime:xpcimports.obj
 0002:00012b60       ??_C@_0BI@CLNBLDKJ@slrteGetCurrentStepSize?$AA@ 1008cb60     xpcruntime:xpcimports.obj
 0002:00012b7c       ??_C@_0CD@GIOJPGJA@slrteGetCurrentStepSize?5not?5foun@ 1008cb7c     xpcruntime:xpcimports.obj
 0002:00012ba8       ??_C@_0BE@FCLCBOC@registerPTPTimeRead?$AA@ 1008cba8     xpcruntime:xpcimports.obj
 0002:00012bc0       ??_C@_0BP@LHPKAJIP@registerPTPTimeRead?5not?5found?6?$AA@ 1008cbc0     xpcruntime:xpcimports.obj
 0002:00012be8       ??_C@_0BG@KIGCDDJI@unRegisterPTPTimeRead?$AA@ 1008cbe8     xpcruntime:xpcimports.obj
 0002:00012c04       ??_C@_0CB@MLFFBFCM@unRegisterPTPTimeRead?5not?5found?6@ 1008cc04     xpcruntime:xpcimports.obj
 0002:00012c2c       ??_C@_0BB@IPMDDBHK@slTestInitialize?$AA@ 1008cc2c     xpcruntime:xpcimports.obj
 0002:00012c40       ??_C@_0BM@LAJFCCJH@slTestInitialize?5not?5found?6?$AA@ 1008cc40     xpcruntime:xpcimports.obj
 0002:00012c64       ??_C@_0BF@OOMPMEBC@slTestLogAssessments?$AA@ 1008cc64     xpcruntime:xpcimports.obj
 0002:00012c80       ??_C@_0CA@FGJCEBAG@slTestLogAssessments?5not?5found?6?$AA@ 1008cc80     xpcruntime:xpcimports.obj
 0002:00012ca8       ??_C@_0BB@HJHKONHO@slTestEvalOnFail?$AA@ 1008cca8     xpcruntime:xpcimports.obj
 0002:00012cbc       ??_C@_0BM@JIKCFFNJ@slTestEvalOnFail?5not?5found?6?$AA@ 1008ccbc     xpcruntime:xpcimports.obj
 0002:00012ce0       ??_C@_0BA@LBHLABFP@slTestTerminate?$AA@ 1008cce0     xpcruntime:xpcimports.obj
 0002:00012cf4       ??_C@_0BL@EMFGKAPA@slTestTerminate?5not?5found?6?$AA@ 1008ccf4     xpcruntime:xpcimports.obj
 0002:00012d14       ??_C@_0BE@JPNPBBEO@slTestRegAssessment?$AA@ 1008cd14     xpcruntime:xpcimports.obj
 0002:00012d2c       ??_C@_0BP@FBDEJJJH@slTestRegAssessment?5not?5found?6?$AA@ 1008cd2c     xpcruntime:xpcimports.obj
 0002:00012dfc       __pRawDllMain              1008cdfc     LIBCMT:dll_dllmain.obj
 0002:00012dfc       __pDefaultRawDllMain       1008cdfc     LIBCMT:dll_dllmain.obj
 0002:00012e00       __Microsoft_CRTProvider    1008ce00     libvcruntime:telemetry.obj
 0002:00012e04       ??_C@_11LOCGONAA@?$AA?$AA@ 1008ce04     libvcruntime:telemetry.obj
 0002:00012e08       ??_C@_0O@JEOPJOMI@Main?5Invoked?4?$AA@ 1008ce08     libvcruntime:telemetry.obj
 0002:00012e18       ??_C@_0P@NEAEIBDO@Main?5Returned?4?$AA@ 1008ce18     libvcruntime:telemetry.obj
 0002:00012e40       ??_C@_1BC@DNHGCMLG@?$AAa?$AAd?$AAv?$AAa?$AAp?$AAi?$AA3?$AA2?$AA?$AA@ 1008ce40     libvcruntime:winapi_downlevel.obj
 0002:00012e58       ??_C@_1DM@KHCHBNEB@?$AAa?$AAp?$AAi?$AA?9?$AAm?$AAs?$AA?9?$AAw?$AAi?$AAn?$AA?9?$AAc?$AAo?$AAr?$AAe?$AA?9?$AAf?$AAi?$AAb?$AAe?$AAr?$AAs?$AA?9?$AAl?$AA1?$AA?9?$AA1?$AA?9?$AA1?$AA?$AA@ 1008ce58     libvcruntime:winapi_downlevel.obj
 0002:00012ea0       ??_C@_1DK@LPPGFMPP@?$AAa?$AAp?$AAi?$AA?9?$AAm?$AAs?$AA?9?$AAw?$AAi?$AAn?$AA?9?$AAc?$AAo?$AAr?$AAe?$AA?9?$AAs?$AAy?$AAn?$AAc?$AAh?$AA?9?$AAl?$AA1?$AA?9?$AA2?$AA?9?$AA0?$AA?$AA@ 1008cea0     libvcruntime:winapi_downlevel.obj
 0002:00012ee8       ??_C@_1BC@GDMECMAK@?$AAk?$AAe?$AAr?$AAn?$AAe?$AAl?$AA3?$AA2?$AA?$AA@ 1008cee8     libvcruntime:winapi_downlevel.obj
 0002:00012f04       ??_C@_0O@BAMBGLIE@EventRegister?$AA@ 1008cf04     libvcruntime:winapi_downlevel.obj
 0002:00012f18       ??_C@_0BE@BJEEGHGK@EventSetInformation?$AA@ 1008cf18     libvcruntime:winapi_downlevel.obj
 0002:00012f34       ??_C@_0BA@FAKLIPIC@EventUnregister?$AA@ 1008cf34     libvcruntime:winapi_downlevel.obj
 0002:00012f4c       ??_C@_0BD@PKLHJPHD@EventWriteTransfer?$AA@ 1008cf4c     libvcruntime:winapi_downlevel.obj
 0002:00012f70       ??_C@_08KNHFBNJ@FlsAlloc?$AA@ 1008cf70     libvcruntime:winapi_downlevel.obj
 0002:00012f88       ??_C@_07PEJMOBNF@FlsFree?$AA@ 1008cf88     libvcruntime:winapi_downlevel.obj
 0002:00012fa0       ??_C@_0M@GDNOONDI@FlsGetValue?$AA@ 1008cfa0     libvcruntime:winapi_downlevel.obj
 0002:00012fbc       ??_C@_0M@JCPCPOEF@FlsSetValue?$AA@ 1008cfbc     libvcruntime:winapi_downlevel.obj
 0002:00012fd8       ??_C@_0BM@HCFOFFN@InitializeCriticalSectionEx?$AA@ 1008cfd8     libvcruntime:winapi_downlevel.obj
 0002:000131e0       ??_C@_08EHJDFFNH@__based?$CI?$AA@ 1008d1e0     libvcruntime:undname.obj
 0002:000131ec       ??_C@_07KOLFKCDI@__cdecl?$AA@ 1008d1ec     libvcruntime:undname.obj
 0002:000131f8       ??_C@_08GHMPAG@__pascal?$AA@ 1008d1f8     libvcruntime:undname.obj
 0002:00013204       ??_C@_09IFJBGAPI@__stdcall?$AA@ 1008d204     libvcruntime:undname.obj
 0002:00013210       ??_C@_0L@NPHFGOKO@__thiscall?$AA@ 1008d210     libvcruntime:undname.obj
 0002:00013220       ??_C@_0L@JMKHOMEK@__fastcall?$AA@ 1008d220     libvcruntime:undname.obj
 0002:00013230       ??_C@_0N@BCKKPABJ@__vectorcall?$AA@ 1008d230     libvcruntime:undname.obj
 0002:00013240       ??_C@_09HIJEGCPM@__clrcall?$AA@ 1008d240     libvcruntime:undname.obj
 0002:0001324c       ??_C@_06GHPCKEAG@__eabi?$AA@ 1008d24c     libvcruntime:undname.obj
 0002:00013254       ??_C@_07JOMMBBKO@__ptr64?$AA@ 1008d254     libvcruntime:undname.obj
 0002:00013260       ??_C@_0L@PILCLIHE@__restrict?$AA@ 1008d260     libvcruntime:undname.obj
 0002:00013270       ??_C@_0M@GFIIJFMG@__unaligned?$AA@ 1008d270     libvcruntime:undname.obj
 0002:00013280       ??_C@_09DHDLOLLB@restrict?$CI?$AA@ 1008d280     libvcruntime:undname.obj
 0002:0001328c       ??_C@_04NIHEBCM@?5new?$AA@ 1008d28c     libvcruntime:undname.obj
 0002:00013294       ??_C@_07FPCDHGMM@?5delete?$AA@ 1008d294     libvcruntime:undname.obj
 0002:000132a0       ??_C@_01NEMOKFLO@?$DN?$AA@ 1008d2a0     libvcruntime:undname.obj
 0002:000132a4       ??_C@_02GPIOPFAK@?$DO?$DO?$AA@ 1008d2a4     libvcruntime:undname.obj
 0002:000132a8       ??_C@_02FODMEDOG@?$DM?$DM?$AA@ 1008d2a8     libvcruntime:undname.obj
 0002:000132ac       ??_C@_01DCLJPIOD@?$CB?$AA@ 1008d2ac     libvcruntime:undname.obj
 0002:000132b0       ??_C@_02EGOFBIJA@?$DN?$DN?$AA@ 1008d2b0     libvcruntime:undname.obj
 0002:000132b4       ??_C@_02FDNJECIE@?$CB?$DN?$AA@ 1008d2b4     libvcruntime:undname.obj
 0002:000132b8       ??_C@_02GPECMEKF@?$FL?$FN?$AA@ 1008d2b8     libvcruntime:undname.obj
 0002:000132bc       ??_C@_08LHJFAFGD@operator?$AA@ 1008d2bc     libvcruntime:undname.obj
 0002:000132c8       ??_C@_02HBOOOICD@?9?$DO?$AA@ 1008d2c8     libvcruntime:undname.obj
 0002:000132cc       ??_C@_01NBENCBCI@?$CK?$AA@ 1008d2cc     libvcruntime:undname.obj
 0002:000132d0       ??_C@_02ECNGHCIF@?$CL?$CL?$AA@ 1008d2d0     libvcruntime:undname.obj
 0002:000132d4       ??_C@_02BAABKJLB@?9?9?$AA@ 1008d2d4     libvcruntime:undname.obj
 0002:000132d8       ??_C@_01JOAMLHOP@?9?$AA@   1008d2d8     libvcruntime:undname.obj
 0002:000132dc       ??_C@_01MIFGBAGJ@?$CL?$AA@ 1008d2dc     libvcruntime:undname.obj
 0002:000132e0       ??_C@_01HNPIGOCE@?$CG?$AA@ 1008d2e0     libvcruntime:undname.obj
 0002:000132e4       ??_C@_03MNHNFDLC@?9?$DO?$CK?$AA@ 1008d2e4     libvcruntime:undname.obj
 0002:000132e8       ??_C@_01KMDKNFGN@?1?$AA@   1008d2e8     libvcruntime:undname.obj
 0002:000132ec       ??_C@_01FGNFDNOH@?$CF?$AA@ 1008d2ec     libvcruntime:undname.obj
 0002:000132f0       ??_C@_01MNNFJEPP@?$DM?$AA@ 1008d2f0     libvcruntime:undname.obj
 0002:000132f4       ??_C@_02EHCHHCKH@?$DM?$DN?$AA@ 1008d2f4     libvcruntime:undname.obj
 0002:000132f8       ??_C@_01PPODPGHN@?$DO?$AA@ 1008d2f8     libvcruntime:undname.obj
 0002:000132fc       ??_C@_02EEKDKGMJ@?$DO?$DN?$AA@ 1008d2fc     libvcruntime:undname.obj
 0002:00013300       ??_C@_01IHBHIGKO@?0?$AA@   1008d300     libvcruntime:undname.obj
 0002:00013304       ??_C@_02HCKGKOFO@?$CI?$CJ?$AA@ 1008d304     libvcruntime:undname.obj
 0002:00013308       ??_C@_01PJKLJHI@?$HO?$AA@  1008d308     libvcruntime:undname.obj
 0002:0001330c       ??_C@_01JKBOJNNK@?$FO?$AA@ 1008d30c     libvcruntime:undname.obj
 0002:00013310       ??_C@_01DNKMNLPK@?$HM?$AA@ 1008d310     libvcruntime:undname.obj
 0002:00013314       ??_C@_02PPKAJPJL@?$CG?$CG?$AA@ 1008d314     libvcruntime:undname.obj
 0002:00013318       ??_C@_02NONPIBCD@?$HM?$HM?$AA@ 1008d318     libvcruntime:undname.obj
 0002:0001331c       ??_C@_02FPIMKNGF@?$CK?$DN?$AA@ 1008d31c     libvcruntime:undname.obj
 0002:00013320       ??_C@_02FOEOMHFC@?$CL?$DN?$AA@ 1008d320     libvcruntime:undname.obj
 0002:00013324       ??_C@_02FKMDLLOA@?9?$DN?$AA@ 1008d324     libvcruntime:undname.obj
 0002:00013328       ??_C@_02FJEHGPIO@?1?$DN?$AA@ 1008d328     libvcruntime:undname.obj
 0002:0001332c       ??_C@_02FENAOKFI@?$CF?$DN?$AA@ 1008d32c     libvcruntime:undname.obj
 0002:00013330       ??_C@_03IKFCCPFF@?$DO?$DO?$DN?$AA@ 1008d330     libvcruntime:undname.obj
 0002:00013334       ??_C@_03CDNPDDLA@?$DM?$DM?$DN?$AA@ 1008d334     libvcruntime:undname.obj
 0002:00013338       ??_C@_02FGJGFEAB@?$CG?$DN?$AA@ 1008d338     libvcruntime:undname.obj
 0002:0001333c       ??_C@_02DHLNPPGH@?$HM?$DN?$AA@ 1008d33c     libvcruntime:undname.obj
 0002:00013340       ??_C@_02MHEGNOJ@?$FO?$DN?$AA@ 1008d340     libvcruntime:undname.obj
 0002:00013344       ??_C@_09IFPLHPGF@?$GAvftable?8?$AA@ 1008d344     libvcruntime:undname.obj
 0002:00013350       ??_C@_09BLBHBJP@?$GAvbtable?8?$AA@ 1008d350     libvcruntime:undname.obj
 0002:0001335c       ??_C@_07FEEIOKP@?$GAvcall?8?$AA@ 1008d35c     libvcruntime:undname.obj
 0002:00013368       ??_C@_08LLFFHHDJ@?$GAtypeof?8?$AA@ 1008d368     libvcruntime:undname.obj
 0002:00013374       ??_C@_0BF@KDPPACIK@?$GAlocal?5static?5guard?8?$AA@ 1008d374     libvcruntime:undname.obj
 0002:00013390       ??_C@_08OBABFOLI@?$GAstring?8?$AA@ 1008d390     libvcruntime:undname.obj
 0002:0001339c       ??_C@_0BD@JDLKDPAB@?$GAvbase?5destructor?8?$AA@ 1008d39c     libvcruntime:undname.obj
 0002:000133b4       ??_C@_0BN@DEGPLNFK@?$GAvector?5deleting?5destructor?8?$AA@ 1008d3b4     libvcruntime:undname.obj
 0002:000133d8       ??_C@_0BO@OBMKPJIG@?$GAdefault?5constructor?5closure?8?$AA@ 1008d3d8     libvcruntime:undname.obj
 0002:000133fc       ??_C@_0BN@IMDCHIKM@?$GAscalar?5deleting?5destructor?8?$AA@ 1008d3fc     libvcruntime:undname.obj
 0002:00013420       ??_C@_0BO@PFGOCPJJ@?$GAvector?5constructor?5iterator?8?$AA@ 1008d420     libvcruntime:undname.obj
 0002:00013444       ??_C@_0BN@LFPFMEDL@?$GAvector?5destructor?5iterator?8?$AA@ 1008d444     libvcruntime:undname.obj
 0002:00013468       ??_C@_0CE@IKBNEHA@?$GAvector?5vbase?5constructor?5iterat@ 1008d468     libvcruntime:undname.obj
 0002:00013494       ??_C@_0BL@NILFHHPC@?$GAvirtual?5displacement?5map?8?$AA@ 1008d494     libvcruntime:undname.obj
 0002:000134b4       ??_C@_0CB@JONCMFFK@?$GAeh?5vector?5constructor?5iterator?8@ 1008d4b4     libvcruntime:undname.obj
 0002:000134dc       ??_C@_0CA@GCEOPDGL@?$GAeh?5vector?5destructor?5iterator?8?$AA@ 1008d4dc     libvcruntime:undname.obj
 0002:00013504       ??_C@_0CH@OOJPLCPH@?$GAeh?5vector?5vbase?5constructor?5ite@ 1008d504     libvcruntime:undname.obj
 0002:00013534       ??_C@_0BL@LLKPOHJI@?$GAcopy?5constructor?5closure?8?$AA@ 1008d534     libvcruntime:undname.obj
 0002:00013554       ??_C@_0BA@KBCDOMBN@?$GAudt?5returning?8?$AA@ 1008d554     libvcruntime:undname.obj
 0002:00013568       ??_C@_03KLGMFNMG@?$GAEH?$AA@ 1008d568     libvcruntime:undname.obj
 0002:0001356c       ??_C@_05KHLCHHI@?$GARTTI?$AA@ 1008d56c     libvcruntime:undname.obj
 0002:00013574       ??_C@_0BA@KKLDJDLB@?$GAlocal?5vftable?8?$AA@ 1008d574     libvcruntime:undname.obj
 0002:00013588       ??_C@_0CE@IIHCMGGL@?$GAlocal?5vftable?5constructor?5closu@ 1008d588     libvcruntime:undname.obj
 0002:000135b4       ??_C@_06FHBGPFGH@?5new?$FL?$FN?$AA@ 1008d5b4     libvcruntime:undname.obj
 0002:000135bc       ??_C@_09LBNFPBCA@?5delete?$FL?$FN?$AA@ 1008d5bc     libvcruntime:undname.obj
 0002:000135c8       ??_C@_0P@HJKNJFNN@?$GAomni?5callsig?8?$AA@ 1008d5c8     libvcruntime:undname.obj
 0002:000135dc       ??_C@_0BL@CNOONJFP@?$GAplacement?5delete?5closure?8?$AA@ 1008d5dc     libvcruntime:undname.obj
 0002:000135fc       ??_C@_0BN@CKNJLHMB@?$GAplacement?5delete?$FL?$FN?5closure?8?$AA@ 1008d5fc     libvcruntime:undname.obj
 0002:00013620       ??_C@_0CG@CFDHKGGD@?$GAmanaged?5vector?5constructor?5iter@ 1008d620     libvcruntime:undname.obj
 0002:00013650       ??_C@_0CF@IMGKMJNO@?$GAmanaged?5vector?5destructor?5itera@ 1008d650     libvcruntime:undname.obj
 0002:0001367c       ??_C@_0CG@HLDDJMAG@?$GAeh?5vector?5copy?5constructor?5iter@ 1008d67c     libvcruntime:undname.obj
 0002:000136ac       ??_C@_0CM@FCBBDIGB@?$GAeh?5vector?5vbase?5copy?5constructo@ 1008d6ac     libvcruntime:undname.obj
 0002:000136e0       ??_C@_0BL@CLIPGLGB@?$GAdynamic?5initializer?5for?5?8?$AA@ 1008d6e0     libvcruntime:undname.obj
 0002:00013700       ??_C@_0CB@PDBIFEP@?$GAdynamic?5atexit?5destructor?5for?5?8@ 1008d700     libvcruntime:undname.obj
 0002:00013728       ??_C@_0CD@CGAJBKEJ@?$GAvector?5copy?5constructor?5iterato@ 1008d728     libvcruntime:undname.obj
 0002:00013754       ??_C@_0CJ@GJELGAMM@?$GAvector?5vbase?5copy?5constructor?5i@ 1008d754     libvcruntime:undname.obj
 0002:00013788       ??_C@_0CL@FGIJHLCE@?$GAmanaged?5vector?5copy?5constructor@ 1008d788     libvcruntime:undname.obj
 0002:000137bc       ??_C@_0BM@PMGGMLDN@?$GAlocal?5static?5thread?5guard?8?$AA@ 1008d7bc     libvcruntime:undname.obj
 0002:000137e0       ??_C@_0N@BDNMDMOL@operator?5?$CC?$CC?5?$AA@ 1008d7e0     libvcruntime:undname.obj
 0002:000137f0       ??_C@_0BC@DAFEJGAK@?5Type?5Descriptor?8?$AA@ 1008d7f0     libvcruntime:undname.obj
 0002:00013808       ??_C@_0BM@LDKODKLH@?5Base?5Class?5Descriptor?5at?5?$CI?$AA@ 1008d808     libvcruntime:undname.obj
 0002:0001382c       ??_C@_0BD@LGICGFMM@?5Base?5Class?5Array?8?$AA@ 1008d82c     libvcruntime:undname.obj
 0002:00013844       ??_C@_0BN@MECKDCOJ@?5Class?5Hierarchy?5Descriptor?8?$AA@ 1008d844     libvcruntime:undname.obj
 0002:00013868       ??_C@_0BK@CFCOFLF@?5Complete?5Object?5Locator?8?$AA@ 1008d868     libvcruntime:undname.obj
 0002:00013888       ??_C@_04HEJADOOB@CV?3?5?$AA@ 1008d888     libvcruntime:undname.obj
 0002:00013890       ??_C@_02MOLJINC@?3?3?$AA@  1008d890     libvcruntime:undname.obj
 0002:00013894       ??_C@_0BE@JAEOCHPE@template?9parameter?9?$AA@ 1008d894     libvcruntime:undname.obj
 0002:000138ac       ??_C@_0O@KHGCOMHP@generic?9type?9?$AA@ 1008d8ac     libvcruntime:undname.obj
 0002:000138bc       ??_C@_01NLNLIGKH@?$GA?$AA@ 1008d8bc     libvcruntime:undname.obj
 0002:000138c0       ??_C@_01GEODFPGF@?8?$AA@   1008d8c0     libvcruntime:undname.obj
 0002:000138c4       ??_C@_0BG@JNJLAMPM@?$GAanonymous?5namespace?8?$AA@ 1008d8c4     libvcruntime:undname.obj
 0002:000138e0       ??_C@_02OHHJMEON@?8?8?$AA@ 1008d8e0     libvcruntime:undname.obj
 0002:000138e4       ??_C@_0BN@IBLMMFAP@?$GAnon?9type?9template?9parameter?$AA@ 1008d8e4     libvcruntime:undname.obj
 0002:00013908       ??_C@_04GKJNKENE@void?$AA@ 1008d908     libvcruntime:undname.obj
 0002:00013910       ??_C@_0BE@EODMJLIF@?$GAtemplate?9parameter?$AA@ 1008d910     libvcruntime:undname.obj
 0002:00013928       ??_C@_03KHICJKCI@?4?4?4?$AA@ 1008d928     libvcruntime:undname.obj
 0002:0001392c       ??_C@_04HIBGFPH@NULL?$AA@  1008d92c     libvcruntime:undname.obj
 0002:00013934       ??_C@_02DPKJAMEF@?$CFd?$AA@ 1008d934     libvcruntime:undname.obj
 0002:00013938       ??_C@_0BK@IHCCFNEL@?$GAtemplate?9type?9parameter?9?$AA@ 1008d938     libvcruntime:undname.obj
 0002:00013958       ??_C@_0BK@OFCNNNKO@?$GAgeneric?9class?9parameter?9?$AA@ 1008d958     libvcruntime:undname.obj
 0002:00013978       ??_C@_0BL@NGJBLFIL@?$GAgeneric?9method?9parameter?9?$AA@ 1008d978     libvcruntime:undname.obj
 0002:00013998       ??_C@_03OPGICMGF@?$HN?8?5?$AA@ 1008d998     libvcruntime:undname.obj
 0002:0001399c       ??_C@_02IGFCGPIL@?$HN?8?$AA@ 1008d99c     libvcruntime:undname.obj
 0002:000139a0       ??_C@_01CLKCMJKC@?5?$AA@   1008d9a0     libvcruntime:undname.obj
 0002:000139a4       ??_C@_0N@CBHHHENL@?$GAvtordispex?$HL?$AA@ 1008d9a4     libvcruntime:undname.obj
 0002:000139b4       ??_C@_0L@GHPFDFH@?$GAvtordisp?$HL?$AA@ 1008d9b4     libvcruntime:undname.obj
 0002:000139c4       ??_C@_0L@HNGCOGAE@?$GAadjustor?$HL?$AA@ 1008d9c4     libvcruntime:undname.obj
 0002:000139d4       ??_C@_0CB@KJDOOODE@?$GAlocal?5static?5destructor?5helper?8@ 1008d9d4     libvcruntime:undname.obj
 0002:000139fc       ??_C@_0DB@ILEFOCIJ@?$GAtemplate?5static?5data?5member?5con@ 1008d9fc     libvcruntime:undname.obj
 0002:00013a38       ??_C@_0DA@HGFJFBBE@?$GAtemplate?5static?5data?5member?5des@ 1008da38     libvcruntime:undname.obj
 0002:00013a74       ??_C@_07PGOEDBHP@static?5?$AA@ 1008da74     libvcruntime:undname.obj
 0002:00013a80       ??_C@_08NIEOINHE@virtual?5?$AA@ 1008da80     libvcruntime:undname.obj
 0002:00013a8c       ??_C@_09LAPHOOG@private?3?5?$AA@ 1008da8c     libvcruntime:undname.obj
 0002:00013a98       ??_C@_0M@GAIFPFIP@protected?3?5?$AA@ 1008da98     libvcruntime:undname.obj
 0002:00013aa8       ??_C@_08GPDDCMKI@public?3?5?$AA@ 1008daa8     libvcruntime:undname.obj
 0002:00013ab4       ??_C@_08KJLFOPNE@?$FLthunk?$FN?3?$AA@ 1008dab4     libvcruntime:undname.obj
 0002:00013ac0       ??_C@_0M@DHNBOJMP@extern?5?$CCC?$CC?5?$AA@ 1008dac0     libvcruntime:undname.obj
 0002:00013ad0       ??_C@_02KCKGHPCA@?$CJ?5?$AA@ 1008dad0     libvcruntime:undname.obj
 0002:00013ad4       ??_C@_05CIHEBHNO@char?5?$AA@ 1008dad4     libvcruntime:undname.obj
 0002:00013adc       ??_C@_06EHJMALKF@short?5?$AA@ 1008dadc     libvcruntime:undname.obj
 0002:00013ae4       ??_C@_04LAHKHJMA@int?5?$AA@ 1008dae4     libvcruntime:undname.obj
 0002:00013aec       ??_C@_05CJIMAING@long?5?$AA@ 1008daec     libvcruntime:undname.obj
 0002:00013af4       ??_C@_09EBBEKKIH@unsigned?5?$AA@ 1008daf4     libvcruntime:undname.obj
 0002:00013b00       ??_C@_05BEFAKPML@void?5?$AA@ 1008db00     libvcruntime:undname.obj
 0002:00013b08       ??_C@_08PABEKFH@volatile?$AA@ 1008db08     libvcruntime:undname.obj
 0002:00013b14       ??_C@_0P@GCOCNKDM@std?3?3nullptr_t?$AA@ 1008db14     libvcruntime:undname.obj
 0002:00013b28       ??_C@_0L@EGPHHEKN@?$DMellipsis?$DO?$AA@ 1008db28     libvcruntime:undname.obj
 0002:00013b38       ??_C@_04EENFHACM@?0?4?4?4?$AA@ 1008db38     libvcruntime:undname.obj
 0002:00013b40       ??_C@_0M@ELJOJFFH@?0?$DMellipsis?$DO?$AA@ 1008db40     libvcruntime:undname.obj
 0002:00013b50       ??_C@_07HDJPLPEK@?5throw?$CI?$AA@ 1008db50     libvcruntime:undname.obj
 0002:00013b5c       ??_C@_03PBJBJNON@cpu?$AA@  1008db5c     libvcruntime:undname.obj
 0002:00013b60       ??_C@_03DCBBJBAA@amp?$AA@  1008db60     libvcruntime:undname.obj
 0002:00013b64       ??_C@_02KEGNLNML@?0?5?$AA@ 1008db64     libvcruntime:undname.obj
 0002:00013b68       ??_C@_04ENMBGAPA@char?$AA@ 1008db68     libvcruntime:undname.obj
 0002:00013b70       ??_C@_05BFKKPKCG@short?$AA@ 1008db70     libvcruntime:undname.obj
 0002:00013b78       ??_C@_03JBIPMCLC@int?$AA@  1008db78     libvcruntime:undname.obj
 0002:00013b7c       ??_C@_04GOKPGOLB@long?$AA@ 1008db7c     libvcruntime:undname.obj
 0002:00013b84       ??_C@_04DDKJGDCM@bool?$AA@ 1008db84     libvcruntime:undname.obj
 0002:00013b8c       ??_C@_06EBGKOKIG@__int8?$AA@ 1008db8c     libvcruntime:undname.obj
 0002:00013b94       ??_C@_07ICFHOGAF@__int16?$AA@ 1008db94     libvcruntime:undname.obj
 0002:00013ba0       ??_C@_07OFLPPHGP@__int32?$AA@ 1008dba0     libvcruntime:undname.obj
 0002:00013bac       ??_C@_07LFCOJCAC@__int64?$AA@ 1008dbac     libvcruntime:undname.obj
 0002:00013bb8       ??_C@_08GAHOLHEO@__int128?$AA@ 1008dbb8     libvcruntime:undname.obj
 0002:00013bc4       ??_C@_09EEKGDCPH@?$DMunknown?$DO?$AA@ 1008dbc4     libvcruntime:undname.obj
 0002:00013bd0       ??_C@_08HBIPOFJB@char16_t?$AA@ 1008dbd0     libvcruntime:undname.obj
 0002:00013bdc       ??_C@_08IECNCBKG@char32_t?$AA@ 1008dbdc     libvcruntime:undname.obj
 0002:00013be8       ??_C@_07CLGGIAMF@wchar_t?$AA@ 1008dbe8     libvcruntime:undname.obj
 0002:00013bf4       ??_C@_06GCICPBLB@__w64?5?$AA@ 1008dbf4     libvcruntime:undname.obj
 0002:00013bfc       ??_C@_07NFANNNEC@UNKNOWN?$AA@ 1008dbfc     libvcruntime:undname.obj
 0002:00013c08       ??_C@_07EDHNAJHC@signed?5?$AA@ 1008dc08     libvcruntime:undname.obj
 0002:00013c14       ??_C@_05BNCCCJPP@const?$AA@ 1008dc14     libvcruntime:undname.obj
 0002:00013c1c       ??_C@_09EFNPDFFP@?5volatile?$AA@ 1008dc1c     libvcruntime:undname.obj
 0002:00013c28       ??_C@_0P@GCIFDJCJ@?$GAunknown?5ecsu?8?$AA@ 1008dc28     libvcruntime:undname.obj
 0002:00013c3c       ??_C@_06MOJHIBMG@union?5?$AA@ 1008dc3c     libvcruntime:undname.obj
 0002:00013c44       ??_C@_07DIBCDNGL@struct?5?$AA@ 1008dc44     libvcruntime:undname.obj
 0002:00013c50       ??_C@_06LJBABKPM@class?5?$AA@ 1008dc50     libvcruntime:undname.obj
 0002:00013c58       ??_C@_08KOFANOFK@coclass?5?$AA@ 1008dc58     libvcruntime:undname.obj
 0002:00013c64       ??_C@_0N@DLIEFKNA@cointerface?5?$AA@ 1008dc64     libvcruntime:undname.obj
 0002:00013c74       ??_C@_05LJGMCFOG@enum?5?$AA@ 1008dc74     libvcruntime:undname.obj
 0002:00013c7c       ??_C@_09GAIEOBLP@volatile?5?$AA@ 1008dc7c     libvcruntime:undname.obj
 0002:00013c88       ??_C@_06LIJLOJAG@const?5?$AA@ 1008dc88     libvcruntime:undname.obj
 0002:00013c90       ??_C@_02KJPKDIBN@?$CG?5?$AA@ 1008dc90     libvcruntime:undname.obj
 0002:00013c94       ??_C@_03PCKGMOPB@?$CG?$CG?5?$AA@ 1008dc94     libvcruntime:undname.obj
 0002:00013c98       ??_C@_0M@EALIELKG@cli?3?3array?$DM?$AA@ 1008dc98     libvcruntime:undname.obj
 0002:00013ca8       ??_C@_0O@GKABPPIF@cli?3?3pin_ptr?$DM?$AA@ 1008dca8     libvcruntime:undname.obj
 0002:00013cb8       ??_C@_02GOGNNPBN@?$CJ?$FL?$AA@ 1008dcb8     libvcruntime:undname.obj
 0002:00013cbc       ??_C@_06EEGAIFAK@?$HLflat?$HN?$AA@ 1008dcbc     libvcruntime:undname.obj
 0002:00013cc4       ??_C@_05JIBOFOHK@?$HLfor?5?$AA@ 1008dcc4     libvcruntime:undname.obj
 0002:00013ccc       ??_C@_02MDINNEEG@s?5?$AA@  1008dccc     libvcruntime:undname.obj
 0002:00013cd4       ??_7DNameNode@@6B@         1008dcd4     libvcruntime:undname.obj
 0002:00013ce8       ??_7charNode@@6B@          1008dce8     libvcruntime:undname.obj
 0002:00013cfc       ??_7pcharNode@@6B@         1008dcfc     libvcruntime:undname.obj
 0002:00013d10       ??_7pDNameNode@@6B@        1008dd10     libvcruntime:undname.obj
 0002:00013d24       ??_7DNameStatusNode@@6B@   1008dd24     libvcruntime:undname.obj
 0002:00013d38       ??_7pairNode@@6B@          1008dd38     libvcruntime:undname.obj
 0002:00013d48       ??_C@_04OKOHEJBO@?5?$DP?$DP?5?$AA@ 1008dd48     libvcruntime:undname.obj
 0002:00013d50       _standard_lookup_table     1008dd50     libucrt:output.obj
 0002:00013dc0       _format_validation_lookup_table 1008ddc0     libucrt:output.obj
 0002:00013e30       ??_C@_06OJHGLDPL@?$CInull?$CJ?$AA@ 1008de30     libucrt:output.obj
 0002:00013e38       ??_C@_1O@CEDCILHN@?$AA?$CI?$AAn?$AAu?$AAl?$AAl?$AA?$CJ?$AA?$AA@ 1008de38     libucrt:output.obj
 0002:00013f5c       _RtlNtPathSeperatorString  1008df5c     libucrt:exit.obj
 0002:00013f68       ??_C@_13FPGAJAPJ@?$AA?2?$AA?$AA@ 1008df68     libucrt:exit.obj
 0002:00013f6c       _RtlDosPathSeperatorsString 1008df6c     libucrt:exit.obj
 0002:00013f78       ??_C@_15MNCACJLI@?$AA?2?$AA?1?$AA?$AA@ 1008df78     libucrt:exit.obj
 0002:00013f80       _RtlAlternateDosPathSeperatorString 1008df80     libucrt:exit.obj
 0002:00013f8c       ??_C@_13CGOKJPIL@?$AA?1?$AA?$AA@ 1008df8c     libucrt:exit.obj
 0002:00013f90       ??_C@_1BI@BGOHAHKC@?$AAm?$AAs?$AAc?$AAo?$AAr?$AAe?$AAe?$AA?4?$AAd?$AAl?$AAl?$AA?$AA@ 1008df90     libucrt:exit.obj
 0002:00013fac       ??_C@_0P@MIGLKIOC@CorExitProcess?$AA@ 1008dfac     libucrt:exit.obj
 0002:00013fc0       ??_C@_0CF@GOGNBNAK@Microsoft?5Visual?5C?$CL?$CL?5Runtime?5Lib@ 1008dfc0     libucrt:assert.obj
 0002:00013ff0       ??_C@_1EK@MBDPDCGA@?$AAM?$AAi?$AAc?$AAr?$AAo?$AAs?$AAo?$AAf?$AAt?$AA?5?$AAV?$AAi?$AAs?$AAu?$AAa?$AAl?$AA?5?$AAC?$AA?$CL?$AA?$CL?$AA?5?$AAR?$AAu?$AAn?$AAt?$AAi?$AAm?$AAe?$AA?5?$AAL?$AAi?$AAb@ 1008dff0     libucrt:assert.obj
 0002:00014048       ??_C@_0CK@CFPGFGGO@Assertion?5failed?3?5?$CFTs?0?5file?5?$CFTs?0@ 1008e048     libucrt:assert.obj
 0002:00014080       ??_C@_1FE@LHBLIKM@?$AAA?$AAs?$AAs?$AAe?$AAr?$AAt?$AAi?$AAo?$AAn?$AA?5?$AAf?$AAa?$AAi?$AAl?$AAe?$AAd?$AA?3?$AA?5?$AA?$CF?$AAT?$AAs?$AA?0?$AA?5?$AAf?$AAi?$AAl?$AAe?$AA?5?$AA?$CF?$AAT?$AAs?$AA?0@ 1008e080     libucrt:assert.obj
 0002:000140e4       ??_C@_0BC@LAIDCHCH@Assertion?5failed?$CB?$AA@ 1008e0e4     libucrt:assert.obj
 0002:000140fc       ??_C@_1CE@OJBNHDMO@?$AAA?$AAs?$AAs?$AAe?$AAr?$AAt?$AAi?$AAo?$AAn?$AA?5?$AAf?$AAa?$AAi?$AAl?$AAe?$AAd?$AA?$CB?$AA?$AA@ 1008e0fc     libucrt:assert.obj
 0002:00014128       ??_C@_09KLGCKDOD@Program?3?5?$AA@ 1008e128     libucrt:assert.obj
 0002:00014134       ??_C@_1BE@PHKBBGE@?$AAP?$AAr?$AAo?$AAg?$AAr?$AAa?$AAm?$AA?3?$AA?5?$AA?$AA@ 1008e134     libucrt:assert.obj
 0002:0001414c       ??_C@_06IGPBOHMJ@File?3?5?$AA@ 1008e14c     libucrt:assert.obj
 0002:00014154       ??_C@_1O@HEMHKNDC@?$AAF?$AAi?$AAl?$AAe?$AA?3?$AA?5?$AA?$AA@ 1008e154     libucrt:assert.obj
 0002:00014164       ??_C@_06FIEBOLOH@Line?3?5?$AA@ 1008e164     libucrt:assert.obj
 0002:0001416c       ??_C@_1O@KCAFKHJE@?$AAL?$AAi?$AAn?$AAe?$AA?3?$AA?5?$AA?$AA@ 1008e16c     libucrt:assert.obj
 0002:0001417c       ??_C@_0N@MEECIJGN@Expression?3?5?$AA@ 1008e17c     libucrt:assert.obj
 0002:0001418c       ??_C@_1BK@PEDCIPMA@?$AAE?$AAx?$AAp?$AAr?$AAe?$AAs?$AAs?$AAi?$AAo?$AAn?$AA?3?$AA?5?$AA?$AA@ 1008e18c     libucrt:assert.obj
 0002:000141b0       ??_C@_0HA@OJHAGA@For?5information?5on?5how?5your?5prog@ 1008e1b0     libucrt:assert.obj
 0002:00014238       ??_C@_1OA@EGMLFBHJ@?$AAF?$AAo?$AAr?$AA?5?$AAi?$AAn?$AAf?$AAo?$AAr?$AAm?$AAa?$AAt?$AAi?$AAo?$AAn?$AA?5?$AAo?$AAn?$AA?5?$AAh?$AAo?$AAw?$AA?5?$AAy?$AAo?$AAu?$AAr?$AA?5?$AAp?$AAr?$AAo?$AAg@ 1008e238     libucrt:assert.obj
 0002:00014344       ??_C@_0DN@EBBNMLME@?$CIPress?5Retry?5to?5debug?5the?5applic@ 1008e344     libucrt:assert.obj
 0002:00014390       ??_C@_1HK@POCJMFGK@?$AA?$CI?$AAP?$AAr?$AAe?$AAs?$AAs?$AA?5?$AAR?$AAe?$AAt?$AAr?$AAy?$AA?5?$AAt?$AAo?$AA?5?$AAd?$AAe?$AAb?$AAu?$AAg?$AA?5?$AAt?$AAh?$AAe?$AA?5?$AAa?$AAp?$AAp?$AAl?$AAi?$AAc@ 1008e390     libucrt:assert.obj
 0002:00014424       ??_C@_17LGKOMLJ@?$AA?4?$AA?4?$AA?4?$AA?$AA@ 1008e424     libucrt:assert.obj
 0002:00014430       ??_C@_01EEMJAFIK@?6?$AA@   1008e430     libucrt:assert.obj
 0002:00014434       ??_C@_13LBAGMAIH@?$AA?6?$AA?$AA@ 1008e434     libucrt:assert.obj
 0002:00014438       ??_C@_02PHMGELLB@?6?6?$AA@ 1008e438     libucrt:assert.obj
 0002:0001443c       ??_C@_15IABLJNFO@?$AA?6?$AA?6?$AA?$AA@ 1008e43c     libucrt:assert.obj
 0002:00014444       ??_C@_0BH@DNAGHKFM@?$DMprogram?5name?5unknown?$DO?$AA@ 1008e444     libucrt:assert.obj
 0002:00014460       ??_C@_1CO@EAEJAADC@?$AA?$DM?$AAp?$AAr?$AAo?$AAg?$AAr?$AAa?$AAm?$AA?5?$AAn?$AAa?$AAm?$AAe?$AA?5?$AAu?$AAn?$AAk?$AAn?$AAo?$AAw?$AAn?$AA?$DO?$AA?$AA@ 1008e460     libucrt:assert.obj
 0002:00014498       ??_C@_04FJHINJAO@tanh?$AA@ 1008e498     libucrt:fpexcept.obj
 0002:000144a0       ??_C@_04FIHNOPOL@asin?$AA@ 1008e4a0     libucrt:fpexcept.obj
 0002:000144a8       ??_C@_04PDIFKINK@acos?$AA@ 1008e4a8     libucrt:fpexcept.obj
 0002:000144b0       ??_C@_04MLLJIGOK@atan?$AA@ 1008e4b0     libucrt:fpexcept.obj
 0002:000144b8       ??_C@_05KNGEOGJB@atan2?$AA@ 1008e4b8     libucrt:fpexcept.obj
 0002:000144c0       ??_C@_04EIAKFFMI@sqrt?$AA@ 1008e4c0     libucrt:fpexcept.obj
 0002:000144c8       ??_C@_03BLEJJJBH@sin?$AA@  1008e4c8     libucrt:fpexcept.obj
 0002:000144cc       ??_C@_03LALBNOCG@cos?$AA@  1008e4cc     libucrt:fpexcept.obj
 0002:000144d0       ??_C@_03IIINPABG@tan?$AA@  1008e4d0     libucrt:fpexcept.obj
