 speedgoat_test_SN2593_R2016b_slrt

 Timestamp is 58eb93d4 (Mon Apr 10 16:16:52 2017)

 Preferred load address is 10000000

 Start         Length     Name                   Class
 0001:00000000 00006862H .text                   CODE
 0001:00006870 0006db49H .text$mn                CODE
 0002:00000000 00000104H .CRT$XCA                DATA
 0002:00000104 00000104H .CRT$XCZ                DATA
 0002:00000208 00000104H .CRT$XIA                DATA
 0002:0000030c 0000010eH .CRT$XIC                DATA
 0002:0000041c 00000104H .CRT$XIZ                DATA
 0002:00000520 00000104H .CRT$XPA                DATA
 0002:00000624 00000109H .CRT$XPX                DATA
 0002:00000730 00000104H .CRT$XPXA               DATA
 0002:00000834 00000104H .CRT$XPZ                DATA
 0002:00000938 00000104H .CRT$XTA                DATA
 0002:00000a3c 00000104H .CRT$XTZ                DATA
 0002:00000b40 0001178aH .rdata                  DATA
 0002:000122cc 0000038aH .rdata$r                DATA
 0002:00012660 0000010eH .rdata$sxdata           DATA
 0002:00012770 00000113H .rdata$zETW0            DATA
 0002:00012883 0000018eH .rdata$zETW1            DATA
 0002:00012a11 00000134H .rdata$zETW2            DATA
 0002:00012b45 00000101H .rdata$zETW9            DATA
 0002:00012c48 000001e1H .rdata$zzzdbg           DATA
 0002:00012e2c 00000104H .rtc$IAA                DATA
 0002:00012f30 00000104H .rtc$IZZ                DATA
 0002:00013034 00000104H .rtc$TAA                DATA
 0002:00013138 00000104H .rtc$TZZ                DATA
 0002:00013240 00000b2cH .xdata$x                DATA
 0002:00013d70 000001f9H .edata                  DATA
 0003:00000000 000017a2H .data                   DATA
 0003:000017a4 000001d4H .data$r                 DATA
 0003:00001980 00042a44H .bss                    DATA
 0004:00000000 000001fcH .idata$5                DATA
 0004:000001fc 00000028H .idata$2                DATA
 0004:00000224 00000014H .idata$3                DATA
 0004:00000238 000001fcH .idata$4                DATA
 0004:00000434 00000849H .idata$6                DATA
 0005:00000000 00000104H .00cfg                  DATA

  Address         Publics by Value              Rva+Base       Lib:Object

 0000:00000000       ___guard_fids_table        00000000     <absolute>
 0000:00000000       __except_list              00000000     <absolute>
 0000:00000000       ___guard_fids_count        00000000     <absolute>
 0000:00000003       ___safe_se_handler_count   00000003     <absolute>
 0000:00000100       ___guard_flags             00000100     <absolute>
 0000:00000000       ___ImageBase               10000000     <linker-defined>
 0001:0000656d       ?TraceLoggingRegister@__vcrt_trace_logging_provider@@YAJPBU_TlgProvider_t@1@PBU_GUID@@P6GX1KE_K2PAU_EVENT_FILTER_DESCRIPTOR@@PAX@Z4@Z 1000756d f i libvcruntime:telemetry.obj
 0001:000065e1       ?TraceLoggingSetInformation@__vcrt_trace_logging_provider@@YAJPBU_TlgProvider_t@1@W4_EVENT_INFO_CLASS@@PAXK@Z 100075e1 f i libvcruntime:telemetry.obj
 0001:00006616       ?TraceLoggingUnregister@__vcrt_trace_logging_provider@@YAXPBU_TlgProvider_t@1@@Z 10007616 f i libvcruntime:telemetry.obj
 0001:0000663c       ?_TlgCreateSz@__vcrt_trace_logging_provider@@YAXPAU_EVENT_DATA_DESCRIPTOR@@PBD@Z 1000763c f i libvcruntime:telemetry.obj
 0001:00006682       ?_TlgCreateWsz@__vcrt_trace_logging_provider@@YAXPAU_EVENT_DATA_DESCRIPTOR@@PB_W@Z 10007682 f i libvcruntime:telemetry.obj
 0001:000066d7       ?_TlgEnableCallback@__vcrt_trace_logging_provider@@YGXPBU_GUID@@KE_K1PAU_EVENT_FILTER_DESCRIPTOR@@PAX@Z 100076d7 f i libvcruntime:telemetry.obj
 0001:0000676d       ?_TlgKeywordOn@__vcrt_trace_logging_provider@@YAEPBU_TlgProvider_t@1@_K@Z 1000776d f i libvcruntime:telemetry.obj
 0001:000067b8       ?_TlgWrite@__vcrt_trace_logging_provider@@YAJPBU_TlgProvider_t@1@PBXPBU_GUID@@2IPAU_EVENT_DATA_DESCRIPTOR@@@Z 100077b8 f i libvcruntime:telemetry.obj
 0001:00006870       _MdlInitialize             10007870 f   speedgoat_test_SN2593_R2016b.obj
 0001:00006880       _MdlInitializeSampleTimes  10007880 f   speedgoat_test_SN2593_R2016b.obj
 0001:00006890       _MdlInitializeSizes        10007890 f   speedgoat_test_SN2593_R2016b.obj
 0001:000068a0       _MdlOutputs                100078a0 f   speedgoat_test_SN2593_R2016b.obj
 0001:000068b0       _MdlStart                  100078b0 f   speedgoat_test_SN2593_R2016b.obj
 0001:000068c0       _MdlTerminate              100078c0 f   speedgoat_test_SN2593_R2016b.obj
 0001:00006910       _MdlUpdate                 10007910 f   speedgoat_test_SN2593_R2016b.obj
 0001:00006920       ___local_stdio_printf_options 10007920 f i speedgoat_test_SN2593_R2016b.obj
 0001:00006930       __vfprintf_l               10007930 f i speedgoat_test_SN2593_R2016b.obj
 0001:00006960       _printf                    10007960 f i speedgoat_test_SN2593_R2016b.obj
 0001:000069a0       _speedgoat_test_SN2593_R2016b 100079a0 f   speedgoat_test_SN2593_R2016b.obj
 0001:00007b00       _rt_mxCreateCharMatrixFromStrings 10008b00 f   rt_matrx.obj
 0001:00007c60       _rt_mxCreateDoubleMatrix   10008c60 f   rt_matrx.obj
 0001:00007cc0       _rt_mxCreateNumericArray   10008cc0 f   rt_matrx.obj
 0001:00007d40       _rt_mxCreateString         10008d40 f   rt_matrx.obj
 0001:00007dd0       _rt_mxDuplicateArray       10008dd0 f   rt_matrx.obj
 0001:00007e30       _rt_mxGetDimensions        10008e30 f   rt_matrx.obj
 0001:00007e70       _rt_mxGetEps               10008e70 f   rt_matrx.obj
 0001:00007e80       _rt_mxGetString            10008e80 f   rt_matrx.obj
 0001:00007f00       _rtPrintfNoOp              10008f00 f   rt_printf.obj
 0001:00007f10       _rtGetInf                  10008f10 f   rtGetInf.obj
 0001:00007f40       _rtGetInfF                 10008f40 f   rtGetInf.obj
 0001:00007f60       _rtGetMinusInf             10008f60 f   rtGetInf.obj
 0001:00007f90       _rtGetMinusInfF            10008f90 f   rtGetInf.obj
 0001:00007fb0       _rtGetNaN                  10008fb0 f   rtGetNaN.obj
 0001:00007fe0       _rtGetNaNF                 10008fe0 f   rtGetNaN.obj
 0001:00008000       _rtIsInf                   10009000 f   rt_nonfinite.obj
 0001:00008040       _rtIsInfF                  10009040 f   rt_nonfinite.obj
 0001:00008080       _rtIsNaN                   10009080 f   rt_nonfinite.obj
 0001:000080a0       _rtIsNaNF                  100090a0 f   rt_nonfinite.obj
 0001:000080c0       _rt_InitInfAndNaN          100090c0 f   rt_nonfinite.obj
 0001:00008120       _speedgoat_test_SN2593_R2016b_GetCAPIStaticMap 10009120 f   speedgoat_test_SN2593_R2016b_capi.obj
 0001:00008130       _speedgoat_test_SN2593_R2016b_InitializeDataMapInfo 10009130 f   speedgoat_test_SN2593_R2016b_capi.obj
 0001:000081c0       _rt_CleanUpForStateLogWithMMI 100091c0 f   rt_logging_mmi.obj
 0001:000082d0       _rt_FillStateSigInfoFromMMI 100092d0 f   rt_logging_mmi.obj
 0001:00008670       _rtwCAPI_CountSysRan       10009670 f   rtw_modelmap_utils.obj
 0001:00008710       _rtwCAPI_EncodePath        10009710 f   rtw_modelmap_utils.obj
 0001:00008810       _rtwCAPI_FillSysRan        10009810 f   rtw_modelmap_utils.obj
 0001:00008900       _rtwCAPI_FreeFullPaths     10009900 f   rtw_modelmap_utils.obj
 0001:00008990       _rtwCAPI_GetFullStateBlockPath 10009990 f   rtw_modelmap_utils.obj
 0001:00008b40       _rtwCAPI_GetNumContStateRecords 10009b40 f   rtw_modelmap_utils.obj
 0001:00008c00       _rtwCAPI_GetNumSigLogRecords 10009c00 f   rtw_modelmap_utils.obj
 0001:00008c50       _rtwCAPI_GetNumSigLogRecordsForRTWLogging 10009c50 f   rtw_modelmap_utils.obj
 0001:00008ce0       _rtwCAPI_GetNumStateRecords 10009ce0 f   rtw_modelmap_utils.obj
 0001:00008d30       _rtwCAPI_GetNumStateRecordsForRTWLogging 10009d30 f   rtw_modelmap_utils.obj
 0001:00008dc0       _rtwCAPI_GetSigAddrFromMap 10009dc0 f   rtw_modelmap_utils.obj
 0001:00008e80       _rtwCAPI_GetSigLogRecordInfo 10009e80 f   rtw_modelmap_utils.obj
 0001:000092b0       _rtwCAPI_GetStateRecordInfo 1000a2b0 f   rtw_modelmap_utils.obj
 0001:00009760       _rtwCAPI_GetStateWidth     1000a760 f   rtw_modelmap_utils.obj
 0001:000097c0       _rtwCAPI_HasStates         1000a7c0 f   rtw_modelmap_utils.obj
 0001:00009830       _rtwCAPI_UpdateFullPaths   1000a830 f   rtw_modelmap_utils.obj
 0001:00009a10       __vsnprintf_l              1000aa10 f i rt_logging.obj
 0001:00009a50       __vsprintf_l               1000aa50 f i rt_logging.obj
 0001:00009a90       _fprintf                   1000aa90 f i rt_logging.obj
 0001:0000a390       _rt_CreateLogVar           1000b390 f   rt_logging.obj
 0001:0000a420       _rt_CreateLogVarWithConvert 1000b420 f   rt_logging.obj
 0001:0000ad70       _rt_CreateStructLogVar     1000bd70 f   rt_logging.obj
 0001:0000bad0       _rt_GetMxIdFromDTypeId     1000cad0 f   rt_logging.obj
 0001:0000bb00       _rt_GetMxIdFromDTypeIdForRSim 1000cb00 f   rt_logging.obj
 0001:0000e3d0       _rt_StartDataLogging       1000f3d0 f   rt_logging.obj
 0001:0000e890       _rt_StartDataLoggingWithStartTime 1000f890 f   rt_logging.obj
 0001:0000f1e0       _rt_StopDataLogging        100101e0 f   rt_logging.obj
 0001:0000f200       _rt_StopDataLoggingImpl    10010200 f   rt_logging.obj
 0001:0000f530       _rt_UpdateLogVar           10010530 f   rt_logging.obj
 0001:00010650       _rt_UpdateStructLogVar     10011650 f   rt_logging.obj
 0001:000106e0       _rt_UpdateTXXFYLogVars     100116e0 f   rt_logging.obj
 0001:00010a20       _rt_UpdateTXYLogVars       10011a20 f   rt_logging.obj
 0001:00010c70       _sprintf                   10011c70 f i rt_logging.obj
 0001:00010cb0       _DllMain@12                10011cb0 f   xpctarget.obj
 0001:00010cc0       _SLRTSetErrorStatus        10011cc0 f   xpctarget.obj
 0001:00010ce0       _changeStepSize            10011ce0 f   xpctarget.obj
 0001:00010d50       _getDLMVersion             10011d50 f   xpctarget.obj
 0001:00010d60       _getRefMdlPath             10011d60 f   xpctarget.obj
 0001:00010de0       _getRefMdlSignalNumber     10011de0 f   xpctarget.obj
 0001:00010e90       _getrlmdlinfo              10011e90 f   xpctarget.obj
 0001:00011070       _speedgoat_test_SN2593_R2016b_ChangeStepSize 10012070 f   xpctarget.obj
 0001:000110e0       _updateDiscreteEvents      100120e0 f   xpctarget.obj
 0001:000110f0       _getNumRef                 100120f0 f   appmappingData.obj
 0001:00011100       _vprintf                   10012100 f i legacy_stdio.obj
 0001:000114e0       _sg_IO751_receive_s        100124e0 f   sg_IO751_receive_s.obj
 0001:000118b0       _sg_IO751_send_s           100128b0 f   sg_IO751_send_s.obj
 0001:00011f70       _sg_IO751_setup_s          10012f70 f   sg_IO751_setup_s.obj
 0001:00011fc0       _GetNetworkAddress         10012fc0 f   sg_netxLib_MSVC140_vc:sg_cifx_ext_fcn.obj
 0001:00012050       _sg_cifx_DSR_handler       10013050 f   sg_netxLib_MSVC140_vc:sg_cifx_ext_fcn.obj
 0001:00012090       _sg_cifx_config_data       10013090 f   sg_netxLib_MSVC140_vc:sg_cifx_ext_fcn.obj
 0001:000120f0       _sg_cifx_cyclictimer       100130f0 f   sg_netxLib_MSVC140_vc:sg_cifx_ext_fcn.obj
 0001:00012130       _sg_cifx_deinit            10013130 f   sg_netxLib_MSVC140_vc:sg_cifx_ext_fcn.obj
 0001:00012140       _sg_cifx_getstate          10013140 f   sg_netxLib_MSVC140_vc:sg_cifx_ext_fcn.obj
 0001:00012190       _sg_cifx_init              10013190 f   sg_netxLib_MSVC140_vc:sg_cifx_ext_fcn.obj
 0001:00012810       _sg_cifx_init_modbus       10013810 f   sg_netxLib_MSVC140_vc:sg_cifx_ext_fcn.obj
 0001:00012e80       _sg_cifx_interrupt_handler 10013e80 f   sg_netxLib_MSVC140_vc:sg_cifx_ext_fcn.obj
 0001:00012ec0       _sg_cifx_interrupt_init    10013ec0 f   sg_netxLib_MSVC140_vc:sg_cifx_ext_fcn.obj
 0001:00012f50       _sg_cifx_read              10013f50 f   sg_netxLib_MSVC140_vc:sg_cifx_ext_fcn.obj
 0001:00013080       _sg_cifx_setstate          10014080 f   sg_netxLib_MSVC140_vc:sg_cifx_ext_fcn.obj
 0001:000130e0       _sg_cifx_startComm         100140e0 f   sg_netxLib_MSVC140_vc:sg_cifx_ext_fcn.obj
 0001:00013140       _sg_cifx_stopComm          10014140 f   sg_netxLib_MSVC140_vc:sg_cifx_ext_fcn.obj
 0001:000131a0       _sg_cifx_write             100141a0 f   sg_netxLib_MSVC140_vc:sg_cifx_ext_fcn.obj
 0001:00013290       _sprintf_s                 10014290 f i sg_netxLib_MSVC140_vc:sg_cifx_ext_fcn.obj
 0001:000132d0       _CheckWorkingDirectory     100142d0 f   sg_netxLib_MSVC140_vc:GeneralCifxData.obj
 0001:00013370       _GetDataLengthByDataType   10014370 f   sg_netxLib_MSVC140_vc:GeneralCifxData.obj
 0001:000133d0       _SetCommunicationValues    100143d0 f   sg_netxLib_MSVC140_vc:GeneralCifxData.obj
 0001:000134c0       _SetHelpArrayForObjectDictionary 100144c0 f   sg_netxLib_MSVC140_vc:GeneralCifxData.obj
 0001:00013540       _SetProcessValuesForCyclicAndAcyclicCommunication 10014540 f   sg_netxLib_MSVC140_vc:GeneralCifxData.obj
 0001:00013590       _CreateAcylicObjectBuffer  10014590 f   sg_netxLib_MSVC140_vc:AcyclicCommunication.obj
 0001:00013620       _DoUnregisterApplication   10014620 f   sg_netxLib_MSVC140_vc:AcyclicCommunication.obj
 0001:00013770       _ReceiveAcyclicPacket      10014770 f   sg_netxLib_MSVC140_vc:AcyclicCommunication.obj
 0001:00013860       _RegisterApplication       10014860 f   sg_netxLib_MSVC140_vc:AcyclicCommunication.obj
 0001:00013940       _RegisterApplicationConfirmation 10014940 f   sg_netxLib_MSVC140_vc:AcyclicCommunication.obj
 0001:00013a00       _RegisterApplicationRequest 10014a00 f   sg_netxLib_MSVC140_vc:AcyclicCommunication.obj
 0001:00013ab0       _SendAcyclicPacket         10014ab0 f   sg_netxLib_MSVC140_vc:AcyclicCommunication.obj
 0001:00013c60       _SetAcyclicBufferPosition  10014c60 f   sg_netxLib_MSVC140_vc:AcyclicCommunication.obj
 0001:00013ca0       _OS_CreateEvent            10014ca0 f   sg_netxLib_MSVC140_vc:OS_Custom.obj
 0001:00013cb0       _OS_CreateLock             10014cb0 f   sg_netxLib_MSVC140_vc:OS_Custom.obj
 0001:00013cc0       _OS_CreateMutex            10014cc0 f   sg_netxLib_MSVC140_vc:OS_Custom.obj
 0001:00013cd0       _OS_Deinit                 10014cd0 f   sg_netxLib_MSVC140_vc:OS_Custom.obj
 0001:00013ce0       _OS_DeleteEvent            10014ce0 f   sg_netxLib_MSVC140_vc:OS_Custom.obj
 0001:00013cf0       _OS_DeleteLock             10014cf0 f   sg_netxLib_MSVC140_vc:OS_Custom.obj
 0001:00013d00       _OS_DeleteMutex            10014d00 f   sg_netxLib_MSVC140_vc:OS_Custom.obj
 0001:00013d10       _OS_DisableInterrupts      10014d10 f   sg_netxLib_MSVC140_vc:OS_Custom.obj
 0001:00013d20       _OS_EnableInterrupts       10014d20 f   sg_netxLib_MSVC140_vc:OS_Custom.obj
 0001:00013d30       _OS_EnterLock              10014d30 f   sg_netxLib_MSVC140_vc:OS_Custom.obj
 0001:00013d40       _OS_FileClose              10014d40 f   sg_netxLib_MSVC140_vc:OS_Custom.obj
 0001:00013d50       _OS_FileOpen               10014d50 f   sg_netxLib_MSVC140_vc:OS_Custom.obj
 0001:00013d90       _OS_FileRead               10014d90 f   sg_netxLib_MSVC140_vc:OS_Custom.obj
 0001:00013dc0       _OS_GetCurrentDirectory    10014dc0 f   sg_netxLib_MSVC140_vc:OS_Custom.obj
 0001:00013df0       _OS_GetMilliSecCounter     10014df0 f   sg_netxLib_MSVC140_vc:OS_Custom.obj
 0001:00013e20       _OS_Init                   10014e20 f   sg_netxLib_MSVC140_vc:OS_Custom.obj
 0001:00013e30       _OS_LeaveLock              10014e30 f   sg_netxLib_MSVC140_vc:OS_Custom.obj
 0001:00013e40       _OS_MapUserPointer         10014e40 f   sg_netxLib_MSVC140_vc:OS_Custom.obj
 0001:00013e50       _OS_Memalloc               10014e50 f   sg_netxLib_MSVC140_vc:OS_Custom.obj
 0001:00013e60       _OS_Memcmp                 10014e60 f   sg_netxLib_MSVC140_vc:OS_Custom.obj
 0001:00013ee0       _OS_Memcpy                 10014ee0 f   sg_netxLib_MSVC140_vc:OS_Custom.obj
 0001:00013ef0       _OS_Memfree                10014ef0 f   sg_netxLib_MSVC140_vc:OS_Custom.obj
 0001:00013f00       _OS_Memmove                10014f00 f   sg_netxLib_MSVC140_vc:OS_Custom.obj
 0001:00013f10       _OS_Memrealloc             10014f10 f   sg_netxLib_MSVC140_vc:OS_Custom.obj
 0001:00013f20       _OS_Memset                 10014f20 f   sg_netxLib_MSVC140_vc:OS_Custom.obj
 0001:00013f40       _OS_ReadPCIConfig          10014f40 f   sg_netxLib_MSVC140_vc:OS_Custom.obj
 0001:00014040       _OS_ReleaseMutex           10015040 f   sg_netxLib_MSVC140_vc:OS_Custom.obj
 0001:00014050       _OS_ResetEvent             10015050 f   sg_netxLib_MSVC140_vc:OS_Custom.obj
 0001:00014060       _OS_SetEvent               10015060 f   sg_netxLib_MSVC140_vc:OS_Custom.obj
 0001:00014070       _OS_SetWorkingDirectory    10015070 f   sg_netxLib_MSVC140_vc:OS_Custom.obj
 0001:00014090       _OS_Sleep                  10015090 f   sg_netxLib_MSVC140_vc:OS_Custom.obj
 0001:000140b0       _OS_Strcmp                 100150b0 f   sg_netxLib_MSVC140_vc:OS_Custom.obj
 0001:00014100       _OS_Strlen                 10015100 f   sg_netxLib_MSVC140_vc:OS_Custom.obj
 0001:00014130       _OS_Strncpy                10015130 f   sg_netxLib_MSVC140_vc:OS_Custom.obj
 0001:00014140       _OS_Strnicmp               10015140 f   sg_netxLib_MSVC140_vc:OS_Custom.obj
 0001:00014150       _OS_UnmapUserPointer       10015150 f   sg_netxLib_MSVC140_vc:OS_Custom.obj
 0001:00014160       _OS_WaitEvent              10015160 f   sg_netxLib_MSVC140_vc:OS_Custom.obj
 0001:00014170       _OS_WaitMutex              10015170 f   sg_netxLib_MSVC140_vc:OS_Custom.obj
 0001:00014180       _OS_WritePCIConfig         10015180 f   sg_netxLib_MSVC140_vc:OS_Custom.obj
 0001:00014360       _cifXTKitDSRHandler        10015360 f   sg_netxLib_MSVC140_vc:cifXInterrupt.obj
 0001:00014850       _cifXTKitISRHandler        10015850 f   sg_netxLib_MSVC140_vc:cifXInterrupt.obj
 0001:000149e0       _DEV_BusState              100159e0 f   sg_netxLib_MSVC140_vc:cifXHWFunctions.obj
 0001:00014c50       _DEV_CheckCOSFlags         10015c50 f   sg_netxLib_MSVC140_vc:cifXHWFunctions.obj
 0001:00014e20       _DEV_DoChannelInit         10015e20 f   sg_netxLib_MSVC140_vc:cifXHWFunctions.obj
 0001:00014fc0       _DEV_DoHostCOSChange       10015fc0 f   sg_netxLib_MSVC140_vc:cifXHWFunctions.obj
 0001:00015110       _DEV_DoSystemBootstart     10016110 f   sg_netxLib_MSVC140_vc:cifXHWFunctions.obj
 0001:00015660       _DEV_DoSystemStart         10016660 f   sg_netxLib_MSVC140_vc:cifXHWFunctions.obj
 0001:00015b00       _DEV_GetHandshakeBitState  10016b00 f   sg_netxLib_MSVC140_vc:cifXHWFunctions.obj
 0001:00015b60       _DEV_GetHostState          10016b60 f   sg_netxLib_MSVC140_vc:cifXHWFunctions.obj
 0001:00015bd0       _DEV_GetIOBitstate         10016bd0 f   sg_netxLib_MSVC140_vc:cifXHWFunctions.obj
 0001:00015c30       _DEV_GetMBXState           10016c30 f   sg_netxLib_MSVC140_vc:cifXHWFunctions.obj
 0001:00015ca0       _DEV_GetPacket             10016ca0 f   sg_netxLib_MSVC140_vc:cifXHWFunctions.obj
 0001:00015de0       _DEV_IsCommunicating       10016de0 f   sg_netxLib_MSVC140_vc:cifXHWFunctions.obj
 0001:00015eb0       _DEV_IsReady               10016eb0 f   sg_netxLib_MSVC140_vc:cifXHWFunctions.obj
 0001:00015f10       _DEV_IsRunning             10016f10 f   sg_netxLib_MSVC140_vc:cifXHWFunctions.obj
 0001:00015f60       _DEV_PutPacket             10016f60 f   sg_netxLib_MSVC140_vc:cifXHWFunctions.obj
 0001:00016060       _DEV_ReadHandshakeFlags    10017060 f   sg_netxLib_MSVC140_vc:cifXHWFunctions.obj
 0001:00016180       _DEV_ReadHostFlags         10017180 f   sg_netxLib_MSVC140_vc:cifXHWFunctions.obj
 0001:000161f0       _DEV_ReadWriteBlock        100171f0 f   sg_netxLib_MSVC140_vc:cifXHWFunctions.obj
 0001:000162a0       _DEV_SetHostState          100172a0 f   sg_netxLib_MSVC140_vc:cifXHWFunctions.obj
 0001:000163b0       _DEV_ToggleBit             100173b0 f   sg_netxLib_MSVC140_vc:cifXHWFunctions.obj
 0001:00016400       _DEV_ToggleSyncBit         10017400 f   sg_netxLib_MSVC140_vc:cifXHWFunctions.obj
 0001:00016450       _DEV_TransferPacket        10017450 f   sg_netxLib_MSVC140_vc:cifXHWFunctions.obj
 0001:00016500       _DEV_TriggerWatchdog       10017500 f   sg_netxLib_MSVC140_vc:cifXHWFunctions.obj
 0001:000165b0       _DEV_WaitForBitState       100175b0 f   sg_netxLib_MSVC140_vc:cifXHWFunctions.obj
 0001:00016900       _DEV_WaitForNotReady_Poll  10017900 f   sg_netxLib_MSVC140_vc:cifXHWFunctions.obj
 0001:00016a20       _DEV_WaitForNotRunning_Poll 10017a20 f   sg_netxLib_MSVC140_vc:cifXHWFunctions.obj
 0001:00016ae0       _DEV_WaitForReady_Poll     10017ae0 f   sg_netxLib_MSVC140_vc:cifXHWFunctions.obj
 0001:00016c90       _DEV_WaitForRunning_Poll   10017c90 f   sg_netxLib_MSVC140_vc:cifXHWFunctions.obj
 0001:00016d70       _DEV_WaitForSyncState      10017d70 f   sg_netxLib_MSVC140_vc:cifXHWFunctions.obj
 0001:00017040       _DEV_WriteHandshakeFlags   10018040 f   sg_netxLib_MSVC140_vc:cifXHWFunctions.obj
 0001:00019490       _cifXReadFirmwareIdent     1001a490 f   sg_netxLib_MSVC140_vc:cifXInit.obj
 0001:0001a430       _cifXStartModule           1001b430 f   sg_netxLib_MSVC140_vc:cifXInit.obj
 0001:0001add0       _cifXTKitAddDevice         1001bdd0 f   sg_netxLib_MSVC140_vc:cifXInit.obj
 0001:0001aea0       _cifXTKitCyclicTimer       1001bea0 f   sg_netxLib_MSVC140_vc:cifXInit.obj
 0001:0001af10       _cifXTKitDeinit            1001bf10 f   sg_netxLib_MSVC140_vc:cifXInit.obj
 0001:0001b350       _cifXTKitDisableHWInterrupt 1001c350 f   sg_netxLib_MSVC140_vc:cifXInit.obj
 0001:0001b390       _cifXTKitEnableHWInterrupt 1001c390 f   sg_netxLib_MSVC140_vc:cifXInit.obj
 0001:0001b3d0       _cifXTKitInit              1001c3d0 f   sg_netxLib_MSVC140_vc:cifXInit.obj
 0001:0001b420       _cifXTKitRemoveDevice      1001c420 f   sg_netxLib_MSVC140_vc:cifXInit.obj
 0001:0001b6f0       _sg_cifx_device            1001c6f0 f   sg_netxLib_MSVC140_vc:sg_cifx_int_fcn.obj
 0001:0001b730       _Cifx_ChkBLDir             1001c730 f   sg_netxLib_MSVC140_vc:Cifx_DriverManager.obj
 0001:0001b800       _Cifx_ChkCngDir            1001c800 f   sg_netxLib_MSVC140_vc:Cifx_DriverManager.obj
 0001:0001b8d0       _Cifx_ChkFWDir             1001c8d0 f   sg_netxLib_MSVC140_vc:Cifx_DriverManager.obj
 0001:0001b9a0       _Cifx_ChkFileExist         1001c9a0 f   sg_netxLib_MSVC140_vc:Cifx_DriverManager.obj
 0001:0001b9e0       _Cifx_ChkLoadedFW          1001c9e0 f   sg_netxLib_MSVC140_vc:Cifx_DriverManager.obj
 0001:0001bb20       _Cifx_GetFWDataForCmp      1001cb20 f   sg_netxLib_MSVC140_vc:Cifx_DriverManager.obj
 0001:0001be10       _GetApsConfiguration       1001ce10 f   sg_netxLib_MSVC140_vc:ProfibusSlaveAcyclic.obj
 0001:0001bfc0       _PbsAddAcyclicObjectToObjectBuffer 1001cfc0 f   sg_netxLib_MSVC140_vc:ProfibusSlaveAcyclic.obj
 0001:0001c0a0       _PbsChangeParameterSettingsIm0 1001d0a0 f   sg_netxLib_MSVC140_vc:ProfibusSlaveAcyclic.obj
 0001:0001c240       _PbsCreateAcyclicReadIndicationRequest 1001d240 f   sg_netxLib_MSVC140_vc:ProfibusSlaveAcyclic.obj
 0001:0001c2c0       _PbsCreateAcyclicWriteIndicationRequest 1001d2c0 f   sg_netxLib_MSVC140_vc:ProfibusSlaveAcyclic.obj
 0001:0001c310       _PbsFindObjectAndGetData   1001d310 f   sg_netxLib_MSVC140_vc:ProfibusSlaveAcyclic.obj
 0001:0001c390       _PbsProcessApsCheckConfigurationData 1001d390 f   sg_netxLib_MSVC140_vc:ProfibusSlaveAcyclic.obj
 0001:0001c410       _PbsProcessApsCheckUserParameterIndication 1001d410 f   sg_netxLib_MSVC140_vc:ProfibusSlaveAcyclic.obj
 0001:0001c490       _PbsProcessReadIndicationPacket 1001d490 f   sg_netxLib_MSVC140_vc:ProfibusSlaveAcyclic.obj
 0001:0001c5a0       _PbsProcessWriteIndicationPacket 1001d5a0 f   sg_netxLib_MSVC140_vc:ProfibusSlaveAcyclic.obj
 0001:0001c6d0       _PbsValidationOfAssumedConfigurationData 1001d6d0 f   sg_netxLib_MSVC140_vc:ProfibusSlaveAcyclic.obj
 0001:0001c7e0       _USER_GetAliasName         1001d7e0 f   sg_netxLib_MSVC140_vc:TKitUser_Custom.obj
 0001:0001c810       _USER_GetBootloaderFile    1001d810 f   sg_netxLib_MSVC140_vc:TKitUser_Custom.obj
 0001:0001c900       _USER_GetConfigurationFile 1001d900 f   sg_netxLib_MSVC140_vc:TKitUser_Custom.obj
 0001:0001ca60       _USER_GetConfigurationFileCount 1001da60 f   sg_netxLib_MSVC140_vc:TKitUser_Custom.obj
 0001:0001cb10       _USER_GetFirmwareFile      1001db10 f   sg_netxLib_MSVC140_vc:TKitUser_Custom.obj
 0001:0001cbf0       _USER_GetFirmwareFileCount 1001dbf0 f   sg_netxLib_MSVC140_vc:TKitUser_Custom.obj
 0001:0001cc10       _USER_GetInterruptEnable   1001dc10 f   sg_netxLib_MSVC140_vc:TKitUser_Custom.obj
 0001:0001cc70       _USER_GetOSFile            1001dc70 f   sg_netxLib_MSVC140_vc:TKitUser_Custom.obj
 0001:0001cc80       _USER_GetWarmstartParameters 1001dc80 f   sg_netxLib_MSVC140_vc:TKitUser_Custom.obj
 0001:0001cf80       _USER_Trace                1001df80 f   sg_netxLib_MSVC140_vc:TKitUser_Custom.obj
 0001:0001cf90       _xChannelBusState          1001df90 f   sg_netxLib_MSVC140_vc:cifXFunctions.obj
 0001:0001cfa0       _xChannelClose             1001dfa0 f   sg_netxLib_MSVC140_vc:cifXFunctions.obj
 0001:0001cfb0       _xChannelCommonStatusBlock 1001dfb0 f   sg_netxLib_MSVC140_vc:cifXFunctions.obj
 0001:0001d030       _xChannelConfigLock        1001e030 f   sg_netxLib_MSVC140_vc:cifXFunctions.obj
 0001:0001d130       _xChannelControlBlock      1001e130 f   sg_netxLib_MSVC140_vc:cifXFunctions.obj
 0001:0001d1b0       _xChannelDownload          1001e1b0 f   sg_netxLib_MSVC140_vc:cifXFunctions.obj
 0001:0001d270       _xChannelExtendedStatusBlock 1001e270 f   sg_netxLib_MSVC140_vc:cifXFunctions.obj
 0001:0001d2d0       _xChannelFindFirstFile     1001e2d0 f   sg_netxLib_MSVC140_vc:cifXFunctions.obj
 0001:0001d300       _xChannelFindNextFile      1001e300 f   sg_netxLib_MSVC140_vc:cifXFunctions.obj
 0001:0001d330       _xChannelGetMBXState       1001e330 f   sg_netxLib_MSVC140_vc:cifXFunctions.obj
 0001:0001d340       _xChannelGetPacket         1001e340 f   sg_netxLib_MSVC140_vc:cifXFunctions.obj
 0001:0001d3a0       _xChannelGetSendPacket     1001e3a0 f   sg_netxLib_MSVC140_vc:cifXFunctions.obj
 0001:0001d3f0       _xChannelHostState         1001e3f0 f   sg_netxLib_MSVC140_vc:cifXFunctions.obj
 0001:0001d440       _xChannelIOInfo            1001e440 f   sg_netxLib_MSVC140_vc:cifXFunctions.obj
 0001:0001d570       _xChannelIORead            1001e570 f   sg_netxLib_MSVC140_vc:cifXFunctions.obj
 0001:0001d6e0       _xChannelIOReadSendData    1001e6e0 f   sg_netxLib_MSVC140_vc:cifXFunctions.obj
 0001:0001d750       _xChannelIOWrite           1001e750 f   sg_netxLib_MSVC140_vc:cifXFunctions.obj
 0001:0001d8c0       _xChannelInfo              1001e8c0 f   sg_netxLib_MSVC140_vc:cifXFunctions.obj
 0001:0001da60       _xChannelOpen              1001ea60 f   sg_netxLib_MSVC140_vc:cifXFunctions.obj
 0001:0001db30       _xChannelPLCActivateRead   1001eb30 f   sg_netxLib_MSVC140_vc:cifXFunctions.obj
 0001:0001dbf0       _xChannelPLCActivateWrite  1001ebf0 f   sg_netxLib_MSVC140_vc:cifXFunctions.obj
 0001:0001dcb0       _xChannelPLCIsReadReady    1001ecb0 f   sg_netxLib_MSVC140_vc:cifXFunctions.obj
 0001:0001dd90       _xChannelPLCIsWriteReady   1001ed90 f   sg_netxLib_MSVC140_vc:cifXFunctions.obj
 0001:0001de70       _xChannelPLCMemoryPtr      1001ee70 f   sg_netxLib_MSVC140_vc:cifXFunctions.obj
 0001:0001dff0       _xChannelPutPacket         1001eff0 f   sg_netxLib_MSVC140_vc:cifXFunctions.obj
 0001:0001e050       _xChannelRegisterNotification 1001f050 f   sg_netxLib_MSVC140_vc:cifXFunctions.obj
 0001:0001e410       _xChannelReset             1001f410 f   sg_netxLib_MSVC140_vc:cifXFunctions.obj
 0001:0001e460       _xChannelSyncState         1001f460 f   sg_netxLib_MSVC140_vc:cifXFunctions.obj
 0001:0001e5c0       _xChannelUnregisterNotification 1001f5c0 f   sg_netxLib_MSVC140_vc:cifXFunctions.obj
 0001:0001e760       _xChannelUpload            1001f760 f   sg_netxLib_MSVC140_vc:cifXFunctions.obj
 0001:0001e7a0       _xChannelUserBlock         1001f7a0 f   sg_netxLib_MSVC140_vc:cifXFunctions.obj
 0001:0001e810       _xChannelWatchdog          1001f810 f   sg_netxLib_MSVC140_vc:cifXFunctions.obj
 0001:0001e820       _xDriverClose              1001f820 f   sg_netxLib_MSVC140_vc:cifXFunctions.obj
 0001:0001e850       _xDriverEnumBoards         1001f850 f   sg_netxLib_MSVC140_vc:cifXFunctions.obj
 0001:0001e940       _xDriverEnumChannels       1001f940 f   sg_netxLib_MSVC140_vc:cifXFunctions.obj
 0001:0001e9d0       _xDriverGetErrorDescription 1001f9d0 f   sg_netxLib_MSVC140_vc:cifXFunctions.obj
 0001:0001ea20       _xDriverGetInformation     1001fa20 f   sg_netxLib_MSVC140_vc:cifXFunctions.obj
 0001:0001ea70       _xDriverMemoryPointer      1001fa70 f   sg_netxLib_MSVC140_vc:cifXFunctions.obj
 0001:0001ebf0       _xDriverOpen               1001fbf0 f   sg_netxLib_MSVC140_vc:cifXFunctions.obj
 0001:0001ec20       _xSysdeviceBootstart       1001fc20 f   sg_netxLib_MSVC140_vc:cifXFunctions.obj
 0001:0001ec30       _xSysdeviceClose           1001fc30 f   sg_netxLib_MSVC140_vc:cifXFunctions.obj
 0001:0001ec40       _xSysdeviceDownload        1001fc40 f   sg_netxLib_MSVC140_vc:cifXFunctions.obj
 0001:0001ee60       _xSysdeviceExtendedMemory  1001fe60 f   sg_netxLib_MSVC140_vc:cifXFunctions.obj
 0001:0001f040       _xSysdeviceFindFirstFile   10020040 f   sg_netxLib_MSVC140_vc:cifXFunctions.obj
 0001:0001f1b0       _xSysdeviceFindNextFile    100201b0 f   sg_netxLib_MSVC140_vc:cifXFunctions.obj
 0001:0001f350       _xSysdeviceGetMBXState     10020350 f   sg_netxLib_MSVC140_vc:cifXFunctions.obj
 0001:0001f360       _xSysdeviceGetPacket       10020360 f   sg_netxLib_MSVC140_vc:cifXFunctions.obj
 0001:0001f3c0       _xSysdeviceInfo            100203c0 f   sg_netxLib_MSVC140_vc:cifXFunctions.obj
 0001:0001f600       _xSysdeviceOpen            10020600 f   sg_netxLib_MSVC140_vc:cifXFunctions.obj
 0001:0001f6d0       _xSysdevicePutPacket       100206d0 f   sg_netxLib_MSVC140_vc:cifXFunctions.obj
 0001:0001f730       _xSysdeviceReset           10020730 f   sg_netxLib_MSVC140_vc:cifXFunctions.obj
 0001:0001f740       _xSysdeviceUpload          10020740 f   sg_netxLib_MSVC140_vc:cifXFunctions.obj
 0001:0001f830       _DEV_CheckForDownload      10020830 f   sg_netxLib_MSVC140_vc:cifXDownload.obj
 0001:0001fb00       _DEV_DeleteFile            10020b00 f   sg_netxLib_MSVC140_vc:cifXDownload.obj
 0001:0001fc50       _DEV_DownloadFile          10020c50 f   sg_netxLib_MSVC140_vc:cifXDownload.obj
 0001:00020310       _DEV_GetFWTransferTypeFromFileName 10021310 f   sg_netxLib_MSVC140_vc:cifXDownload.obj
 0001:000203d0       _DEV_IsFWFile              100213d0 f   sg_netxLib_MSVC140_vc:cifXDownload.obj
 0001:00020470       _DEV_IsNXFFile             10021470 f   sg_netxLib_MSVC140_vc:cifXDownload.obj
 0001:000204c0       _DEV_IsNXOFile             100214c0 f   sg_netxLib_MSVC140_vc:cifXDownload.obj
 0001:00020510       _DEV_ProcessFWDownload     10021510 f   sg_netxLib_MSVC140_vc:cifXDownload.obj
 0001:00020980       _DEV_RemoveChannelFiles    10021980 f   sg_netxLib_MSVC140_vc:cifXDownload.obj
 0001:00020b60       _DEV_RemoveFWFiles         10021b60 f   sg_netxLib_MSVC140_vc:cifXDownload.obj
 0001:00020da0       _DEV_UploadFile            10021da0 f   sg_netxLib_MSVC140_vc:cifXDownload.obj
 0001:000213b0       _cifXConvertEndianess      100223b0 f   sg_netxLib_MSVC140_vc:cifXEndianess.obj
 0001:000213c0       _WarmstartParam_ECS        100223c0 f   sg_netxLib_MSVC140_vc:sg_cifx_int_ecs.obj
 0001:00021520       _MbsCoilsHandling          10022520 f   sg_netxLib_MSVC140_vc:sg_cifx_int_mbs.obj
 0001:00021670       _MbsRegisterActivate       10022670 f   sg_netxLib_MSVC140_vc:sg_cifx_int_mbs.obj
 0001:000217b0       _WarmstartParam_MBS        100227b0 f   sg_netxLib_MSVC140_vc:sg_cifx_int_mbs.obj
 0001:00021930       _WarmstartParam_PLS        10022930 f   sg_netxLib_MSVC140_vc:sg_cifx_int_pls.obj
 0001:00021ad0       _WarmstartParam_EIS        10022ad0 f   sg_netxLib_MSVC140_vc:sg_cifx_int_eis.obj
 0001:00021e20       _WarmstartParam_PBS        10022e20 f   sg_netxLib_MSVC140_vc:sg_cifx_int_pbs.obj
 0001:00021ff0       _md5_append                10022ff0 f   sg_netxLib_MSVC140_vc:md5.obj
 0001:00022120       _md5_finish                10023120 f   sg_netxLib_MSVC140_vc:md5.obj
 0001:00022300       _md5_init                  10023300 f   sg_netxLib_MSVC140_vc:md5.obj
 0001:00022340       _md5_memcpy                10023340 f   sg_netxLib_MSVC140_vc:md5.obj
 0001:00022d20       _sg_cifx_ecs_data          10023d20 f   sg_netxLib_MSVC140_vc:sg_cifx_ext_ecs.obj
 0001:00022da0       _MbsStartStopBusCommunication 10023da0 f   sg_netxLib_MSVC140_vc:sg_cifx_ext_mbs.obj
 0001:00022ef0       _sg_cifx_mbs_data          10023ef0 f   sg_netxLib_MSVC140_vc:sg_cifx_ext_mbs.obj
 0001:00022fd0       _sg_cifx_pls_data          10023fd0 f   sg_netxLib_MSVC140_vc:sg_cifx_ext_pls.obj
 0001:00023030       _EIS_RegisterInputAssembly 10024030 f   sg_netxLib_MSVC140_vc:sg_cifx_ext_eis.obj
 0001:00023100       _EIS_RegisterOutputAssembly 10024100 f   sg_netxLib_MSVC140_vc:sg_cifx_ext_eis.obj
 0001:000231d0       _sg_cifx_eis_assembly      100241d0 f   sg_netxLib_MSVC140_vc:sg_cifx_ext_eis.obj
 0001:00023330       _sg_cifx_eis_data          10024330 f   sg_netxLib_MSVC140_vc:sg_cifx_ext_eis.obj
 0001:000233e0       _sg_cifx_pbs_data          100243e0 f   sg_netxLib_MSVC140_vc:sg_cifx_ext_pbs.obj
 0001:00023440       _GetPCIDeviceFull          10024440 f   xpcruntime:xpcimports.obj
 0001:00023480       _ShowPCIDevice             10024480 f   xpcruntime:xpcimports.obj
 0001:00023c80       _xpcGetPciConfigAtSlot     10024c80 f   xpcruntime:xpcimports.obj
 0001:00023fa0       _xpcInitProcs              10024fa0 f   xpcruntime:xpcimports.obj
 0001:00025300       _xpceuploadevent           10026300 f   xpcruntime:xpcimports.obj
 0001:00025310       _restoreInterrupts         10026310 f   xpcruntime:xpcPCFunctions.obj
 0001:00025320       _rl32eGetTicksDouble       10026320 f   xpcruntime:xpcPCFunctions.obj
 0001:000253b0       _saveAndDisableInterrupts  100263b0 f   xpcruntime:xpcPCFunctions.obj
 0001:000253d0       _xPCSubtractTime           100263d0 f   xpcruntime:xpcPCFunctions.obj
 0001:00025400       _xpcSubtractTime           10026400 f   xpcruntime:xpcPCFunctions.obj
 0001:000254e0       __ftoui3                   100264e0 f   LIBCMT:_ftol3_.obj
 0001:000254ef       __ftoul3                   100264ef f   LIBCMT:_ftol3_.obj
 0001:000254fe       __ftol3                    100264fe f   LIBCMT:_ftol3_.obj
 0001:0002550b       __ftol3_NaN                1002650b f   LIBCMT:_ftol3_.obj
 0001:00025523       __ftol3_work               10026523 f   LIBCMT:_ftol3_.obj
 0001:000255a9       __ftol3_common             100265a9 f   LIBCMT:_ftol3_.obj
 0001:0002566b       __ftol3_arg_error          1002666b f   LIBCMT:_ftol3_.obj
 0001:0002567d       __ftol3_except             1002667d f   LIBCMT:_ftol3_.obj
 0001:000256c1       __dtoui3                   100266c1 f   LIBCMT:_ftol3_.obj
 0001:000256d0       __dtoul3                   100266d0 f   LIBCMT:_ftol3_.obj
 0001:000256df       __dtol3                    100266df f   LIBCMT:_ftol3_.obj
 0001:000256ec       __dtol3_NaN                100266ec f   LIBCMT:_ftol3_.obj
 0001:00025709       __dtol3_work               10026709 f   LIBCMT:_ftol3_.obj
 0001:000257f0       __ultod3                   100267f0 f   LIBCMT:_ftol3_.obj
 0001:00025830       __ltod3                    10026830 f   LIBCMT:_ftol3_.obj
 0001:00025934       ___raise_securityfailure   10026934 f   LIBCMT:gs_report.obj
 0001:00025966       ___report_gsfailure        10026966 f   LIBCMT:gs_report.obj
 0001:00025a9f       ___report_rangecheckfailure 10026a9f f   LIBCMT:gs_report.obj
 0001:00025aae       ___report_securityfailure  10026aae f   LIBCMT:gs_report.obj
 0001:00025bb2       ___report_securityfailureEx 10026bb2 f   LIBCMT:gs_report.obj
 0001:00025d0d       @__security_check_cookie@4 10026d0d f   LIBCMT:_secchk_.obj
 0001:00025d22       ___isa_available_init      10026d22 f   LIBCMT:_cpu_disp_.obj
 0001:00026303       __CRT_INIT@12              10027303 f   LIBCMT:dll_dllmain.obj
 0001:0002630e       __DllMainCRTStartup@12     1002730e f   LIBCMT:dll_dllmain.obj
 0001:00026339       ??$__crt_fast_decode_pointer@PAP6AXXZ@@YAPAP6AXXZQAP6AXXZ@Z 10027339 f i LIBCMT:utility.obj
 0001:00026352       ??$__crt_fast_encode_pointer@PAP6AXXZ@@YAPAP6AXXZQAP6AXXZ@Z 10027352 f i LIBCMT:utility.obj
 0001:00026376       ?__crt_rotate_pointer_value@@YAIIH@Z 10027376 f i LIBCMT:utility.obj
 0001:0002641a       _NtCurrentTeb              1002741a f i LIBCMT:utility.obj
 0001:00026421       ___scrt_acquire_startup_lock 10027421 f   LIBCMT:utility.obj
 0001:00026463       ___scrt_dllmain_after_initialize_c 10027463 f   LIBCMT:utility.obj
 0001:00026481       ___scrt_dllmain_before_initialize_c 10027481 f   LIBCMT:utility.obj
 0001:00026492       ___scrt_dllmain_crt_thread_attach 10027492 f   LIBCMT:utility.obj
 0001:000264b8       ___scrt_dllmain_crt_thread_detach 100274b8 f   LIBCMT:utility.obj
 0001:000264c8       ___scrt_dllmain_exception_filter 100274c8 f   LIBCMT:utility.obj
 0001:00026507       ___scrt_dllmain_uninitialize_c 10027507 f   LIBCMT:utility.obj
 0001:00026532       ___scrt_dllmain_uninitialize_critical 10027532 f   LIBCMT:utility.obj
 0001:00026542       ___scrt_initialize_crt     10027542 f   LIBCMT:utility.obj
 0001:00026589       ___scrt_initialize_onexit_tables 10027589 f   LIBCMT:utility.obj
 0001:00026645       ___scrt_is_nonwritable_in_current_image 10027645 f   LIBCMT:utility.obj
 0001:000266f5       ___scrt_release_startup_lock 100276f5 f   LIBCMT:utility.obj
 0001:00026719       ___scrt_uninitialize_crt   10027719 f   LIBCMT:utility.obj
 0001:0002674b       __onexit                   1002774b f   LIBCMT:utility.obj
 0001:00026794       _at_quick_exit             10027794 f   LIBCMT:utility.obj
 0001:000267d1       _atexit                    100277d1 f   LIBCMT:utility.obj
 0001:000267eb       ___security_init_cookie    100277eb f   LIBCMT:gs_support.obj
 0001:000268ae       ?__scrt_initialize_type_info@@YAXXZ 100278ae f   LIBCMT:tncleanup.obj
 0001:000268bd       ?__scrt_uninitialize_type_info@@YAXXZ 100278bd f   LIBCMT:tncleanup.obj
 0001:000268cc       ___local_stdio_scanf_options 100278cc f i LIBCMT:default_local_stdio_options.obj
 0001:000268d2       ___scrt_initialize_default_local_stdio_options 100278d2 f   LIBCMT:default_local_stdio_options.obj
 0001:000268f6       ___scrt_get_dyn_tls_init_callback 100278f6 f   LIBCMT:dyn_tls_init.obj
 0001:000268fc       ___scrt_fastfail           100278fc f   LIBCMT:utility_desktop.obj
 0001:00026a5d       ___scrt_get_show_window_mode 10027a5d f   LIBCMT:utility_desktop.obj
 0001:00026a9c       ___scrt_initialize_winrt   10027a9c f   LIBCMT:utility_desktop.obj
 0001:00026a9f       ___scrt_is_managed_app     10027a9f f   LIBCMT:utility_desktop.obj
 0001:00026af4       ___scrt_set_unhandled_exception_filter 10027af4 f   LIBCMT:utility_desktop.obj
 0001:00026b03       ___scrt_unhandled_exception_filter@4 10027b03 f   LIBCMT:utility_desktop.obj
 0001:00026b54       __crt_debugger_hook        10027b54 f   LIBCMT:utility_desktop.obj
 0001:00026b5e       __RTC_Initialize           10027b5e f   LIBCMT:_initsect_.obj
 0001:00026b93       __RTC_Terminate            10027b93 f   LIBCMT:_initsect_.obj
 0001:00026bc8       @_guard_check_icall@4      10027bc8 f i LIBCMT:checkcfg.obj
 0001:00026bd0       __SEH_prolog4              10027bd0 f   LIBCMT:_sehprolg4_.obj
 0001:00026c16       __SEH_epilog4              10027c16 f   LIBCMT:_sehprolg4_.obj
 0001:00026c41       ___scrt_is_ucrt_dll_in_use 10027c41 f   LIBCMT:ucrt_detection.obj
 0001:00026c50       @_guard_check_icall_nop@4  10027c50 f i LIBCMT:guard_support.obj
 0001:00026c51       __guard_icall_checks_enforced 10027c51 f i LIBCMT:guard_support.obj
 0001:00026c68       _GetModuleHandleA@4        10027c68 f   kernel32:KERNEL32.dll
 0001:00026c6e       _GetProcAddress@8          10027c6e f   kernel32:KERNEL32.dll
 0001:00026c74       _SetCurrentDirectoryA@4    10027c74 f   kernel32:KERNEL32.dll
 0001:00026c7a       _GetCurrentDirectoryA@8    10027c7a f   kernel32:KERNEL32.dll
 0001:00026c80       _Sleep@4                   10027c80 f   kernel32:KERNEL32.dll
 0001:00026c86       _UnhandledExceptionFilter@4 10027c86 f   kernel32:KERNEL32.dll
 0001:00026c8c       _SetUnhandledExceptionFilter@4 10027c8c f   kernel32:KERNEL32.dll
 0001:00026c92       _GetCurrentProcess@0       10027c92 f   kernel32:KERNEL32.dll
 0001:00026c98       _TerminateProcess@8        10027c98 f   kernel32:KERNEL32.dll
 0001:00026c9e       _IsProcessorFeaturePresent@4 10027c9e f   kernel32:KERNEL32.dll
 0001:00026ca4       _QueryPerformanceCounter@4 10027ca4 f   kernel32:KERNEL32.dll
 0001:00026caa       _GetCurrentProcessId@0     10027caa f   kernel32:KERNEL32.dll
 0001:00026cb0       _GetCurrentThreadId@0      10027cb0 f   kernel32:KERNEL32.dll
 0001:00026cb6       _GetSystemTimeAsFileTime@4 10027cb6 f   kernel32:KERNEL32.dll
 0001:00026cbc       _InitializeSListHead@4     10027cbc f   kernel32:KERNEL32.dll
 0001:00026cc2       _IsDebuggerPresent@0       10027cc2 f   kernel32:KERNEL32.dll
 0001:00026cc8       _GetStartupInfoW@4         10027cc8 f   kernel32:KERNEL32.dll
 0001:00026cce       _GetModuleHandleW@4        10027cce f   kernel32:KERNEL32.dll
 0001:00026ce0       _memset                    10027ce0 f   libvcruntime:memset.obj
 0001:00026e90       _memcpy                    10027e90 f   libvcruntime:memcpy.obj
 0001:00027570       _memmove                   10028570 f   libvcruntime:memmove.obj
 0001:00027c50       _strchr                    10028c50 f   libvcruntime:strchr.obj
 0001:00027cbe       ___from_strstr_to_strchr   10028cbe     libvcruntime:strchr.obj
 0001:00027e0e       _EventDataDescCreate       10028e0e f i libvcruntime:telemetry.obj
 0001:00027e2f       _HRESULT_FROM_WIN32        10028e2f f i libvcruntime:telemetry.obj
 0001:00027e48       ___telemetry_main_invoke_trigger 10028e48 f   libvcruntime:telemetry.obj
 0001:00027f0b       ___telemetry_main_return_trigger 10028f0b f   libvcruntime:telemetry.obj
 0001:00027fce       ___vcrt_initialize_telemetry_provider 10028fce f   libvcruntime:telemetry.obj
 0001:00027fe5       ___vcrt_uninitialize_telemetry_provider 10028fe5 f   libvcruntime:telemetry.obj
 0001:00028040       __except_handler4          10029040 f   libvcruntime:_chandler4_.obj
 0001:000281f0       ___vcrt_initialize         100291f0 f   libvcruntime:initialization.obj
 0001:00028229       ___vcrt_thread_attach      10029229 f   libvcruntime:initialization.obj
 0001:00028236       ___vcrt_thread_detach      10029236 f   libvcruntime:initialization.obj
 0001:00028243       ___vcrt_uninitialize       10029243 f   libvcruntime:initialization.obj
 0001:00028270       ___vcrt_uninitialize_critical 10029270 f   libvcruntime:initialization.obj
 0001:0002828b       ??$?RD@__crt_internal_free_policy@@QBEXQBD@Z 1002928b f i libvcruntime:std_type_info.obj
 0001:0002829f       ??$?RX@__crt_internal_free_policy@@QBEXQBX@Z 1002929f f i libvcruntime:std_type_info.obj
 0001:000282b3       ??$__crt_interlocked_compare_exchange_pointer@$$CBD$$T$$T@@YAPBDPDSBD$$T1@Z 100292b3 f i libvcruntime:std_type_info.obj
 0001:000282c9       ??$__crt_interlocked_compare_exchange_pointer@$$CBDPAD$$T@@YAPBDPDSBDQAD$$T@Z 100292c9 f i libvcruntime:std_type_info.obj
 0001:000282df       ??$__crt_interlocked_read_pointer@$$CBD@@YAPBDPDSBD@Z 100292df f i libvcruntime:std_type_info.obj
 0001:000282f3       ??0?$__crt_unique_heap_ptr@DU__crt_internal_free_policy@@@@QAE@QAD@Z 100292f3 f i libvcruntime:std_type_info.obj
 0001:00028304       ??0?$__crt_unique_heap_ptr@XU__crt_internal_free_policy@@@@QAE@QAX@Z 10029304 f i libvcruntime:std_type_info.obj
 0001:00028315       ??1?$__crt_unique_heap_ptr@DU__crt_internal_free_policy@@@@QAE@XZ 10029315 f i libvcruntime:std_type_info.obj
 0001:00028329       ??1?$__crt_unique_heap_ptr@XU__crt_internal_free_policy@@@@QAE@XZ 10029329 f i libvcruntime:std_type_info.obj
 0001:00028349       ??B?$__crt_unique_heap_ptr@DU__crt_internal_free_policy@@@@QBE_NXZ 10029349 f i libvcruntime:std_type_info.obj
 0001:00028353       ??B?$__crt_unique_heap_ptr@XU__crt_internal_free_policy@@@@QBE_NXZ 10029353 f i libvcruntime:std_type_info.obj
 0001:00028385       ?detach@?$__crt_unique_heap_ptr@XU__crt_internal_free_policy@@@@QAEPAXXZ 10029385 f i libvcruntime:std_type_info.obj
 0001:0002838b       ?get@?$__crt_unique_heap_ptr@DU__crt_internal_free_policy@@@@QBEPADXZ 1002938b f i libvcruntime:std_type_info.obj
 0001:0002838e       ?get@?$__crt_unique_heap_ptr@XU__crt_internal_free_policy@@@@QBEPAXXZ 1002938e f i libvcruntime:std_type_info.obj
 0001:00028391       ?is_valid@?$__crt_unique_heap_ptr@DU__crt_internal_free_policy@@@@QBE_NXZ 10029391 f i libvcruntime:std_type_info.obj
 0001:0002839b       ?is_valid@?$__crt_unique_heap_ptr@XU__crt_internal_free_policy@@@@QBE_NXZ 1002939b f i libvcruntime:std_type_info.obj
 0001:000283a5       ?release@?$__crt_unique_heap_ptr@DU__crt_internal_free_policy@@@@QAEXXZ 100293a5 f i libvcruntime:std_type_info.obj
 0001:000283b9       ?release@?$__crt_unique_heap_ptr@XU__crt_internal_free_policy@@@@QAEXXZ 100293b9 f i libvcruntime:std_type_info.obj
 0001:000283cd       ___std_type_info_compare   100293cd f   libvcruntime:std_type_info.obj
 0001:00028418       ___std_type_info_destroy_list 10029418 f   libvcruntime:std_type_info.obj
 0001:00028443       ___std_type_info_hash      10029443 f   libvcruntime:std_type_info.obj
 0001:00028472       ___std_type_info_name      10029472 f   libvcruntime:std_type_info.obj
 0001:0002856f       ??$?BX@__crt_fast_encoded_nullptr_t@@QBEPAXXZ 1002956f f i libvcruntime:winapi_downlevel.obj
 0001:0002858d       ??$__crt_fast_decode_pointer@PAX@@YAPAXQAX@Z 1002958d f i libvcruntime:winapi_downlevel.obj
 0001:000285a6       ??$__crt_fast_encode_pointer@PAX@@YAPAXQAX@Z 100295a6 f i libvcruntime:winapi_downlevel.obj
 0001:000285ca       ??$__crt_interlocked_compare_exchange_pointer@UHINSTANCE__@@$$T$$T@@YAPAUHINSTANCE__@@PDSAU0@$$T1@Z 100295ca f i libvcruntime:winapi_downlevel.obj
 0001:000285e0       ??$__crt_interlocked_compare_exchange_pointer@X$$T$$T@@YAPAXPDSAX$$T1@Z 100295e0 f i libvcruntime:winapi_downlevel.obj
 0001:000285f6       ??$__crt_interlocked_exchange_pointer@UHINSTANCE__@@PAU1@@@YAPAUHINSTANCE__@@PDSAU0@QAU0@@Z 100295f6 f i libvcruntime:winapi_downlevel.obj
 0001:00028606       ??$__crt_interlocked_exchange_pointer@UHINSTANCE__@@PAX@@YAPAUHINSTANCE__@@PDSAU0@QAX@Z 10029606 f i libvcruntime:winapi_downlevel.obj
 0001:00028616       ??$__crt_interlocked_exchange_pointer@XPAX@@YAPAXPDSAXQAX@Z 10029616 f i libvcruntime:winapi_downlevel.obj
 0001:00028626       ??$__crt_interlocked_read_pointer@UHINSTANCE__@@@@YAPAUHINSTANCE__@@PDSAU0@@Z 10029626 f i libvcruntime:winapi_downlevel.obj
 0001:0002863a       ??$__crt_interlocked_read_pointer@X@@YAPAXPDSAX@Z 1002963a f i libvcruntime:winapi_downlevel.obj
 0001:0002864e       ?__crt_fast_encode_pointer@@YA?AU__crt_fast_encoded_nullptr_t@@$$T@Z 1002964e f i libvcruntime:winapi_downlevel.obj
 0001:00028992       ___vcrt_EventRegister      10029992 f   libvcruntime:winapi_downlevel.obj
 0001:000289e2       ___vcrt_EventSetInformation 100299e2 f   libvcruntime:winapi_downlevel.obj
 0001:00028a35       ___vcrt_EventUnregister    10029a35 f   libvcruntime:winapi_downlevel.obj
 0001:00028a7d       ___vcrt_EventWriteTransfer 10029a7d f   libvcruntime:winapi_downlevel.obj
 0001:00028ad8       ___vcrt_FlsAlloc           10029ad8 f   libvcruntime:winapi_downlevel.obj
 0001:00028b20       ___vcrt_FlsFree            10029b20 f   libvcruntime:winapi_downlevel.obj
 0001:00028b68       ___vcrt_FlsGetValue        10029b68 f   libvcruntime:winapi_downlevel.obj
 0001:00028bb0       ___vcrt_FlsSetValue        10029bb0 f   libvcruntime:winapi_downlevel.obj
 0001:00028bfc       ___vcrt_InitializeCriticalSectionEx 10029bfc f   libvcruntime:winapi_downlevel.obj
 0001:00028c53       ___vcrt_initialize_winapi_thunks 10029c53 f   libvcruntime:winapi_downlevel.obj
 0001:00028c80       ___vcrt_uninitialize_winapi_thunks 10029c80 f   libvcruntime:winapi_downlevel.obj
 0001:00028cc0       __local_unwind4            10029cc0 f   libvcruntime:_exsup4_.obj
 0001:00028d96       __seh_longjmp_unwind4@4    10029d96 f   libvcruntime:_exsup4_.obj
 0001:00028dbe       @_EH4_CallFilterFunc@8     10029dbe f   libvcruntime:_exsup4_.obj
 0001:00028dd5       @_EH4_TransferToHandler@8  10029dd5 f   libvcruntime:_exsup4_.obj
 0001:00028dee       @_EH4_GlobalUnwind2@8      10029dee f   libvcruntime:_exsup4_.obj
 0001:00028e07       @_EH4_LocalUnwind@16       10029e07 f   libvcruntime:_exsup4_.obj
 0001:00028e75       ___except_validate_context_record 10029e75 f   libvcruntime:jbcxrval.obj
 0001:00028e76       ___except_validate_jump_buffer 10029e76 f   libvcruntime:jbcxrval.obj
 0001:00028e77       ??$?RU__vcrt_ptd@@@__crt_internal_free_policy@@QBEXQBU__vcrt_ptd@@@Z 10029e77 f i libvcruntime:per_thread_data.obj
 0001:00028e8b       ??0?$__crt_unique_heap_ptr@U__vcrt_ptd@@U__crt_internal_free_policy@@@@QAE@QAU__vcrt_ptd@@@Z 10029e8b f i libvcruntime:per_thread_data.obj
 0001:00028e9c       ??1?$__crt_unique_heap_ptr@U__vcrt_ptd@@U__crt_internal_free_policy@@@@QAE@XZ 10029e9c f i libvcruntime:per_thread_data.obj
 0001:00028eb0       ??B?$__crt_unique_heap_ptr@U__vcrt_ptd@@U__crt_internal_free_policy@@@@QBE_NXZ 10029eb0 f i libvcruntime:per_thread_data.obj
 0001:00028eba       ?detach@?$__crt_unique_heap_ptr@U__vcrt_ptd@@U__crt_internal_free_policy@@@@QAEPAU__vcrt_ptd@@XZ 10029eba f i libvcruntime:per_thread_data.obj
 0001:00028ec0       ?get@?$__crt_unique_heap_ptr@U__vcrt_ptd@@U__crt_internal_free_policy@@@@QBEPAU__vcrt_ptd@@XZ 10029ec0 f i libvcruntime:per_thread_data.obj
 0001:00028ec3       ?is_valid@?$__crt_unique_heap_ptr@U__vcrt_ptd@@U__crt_internal_free_policy@@@@QBE_NXZ 10029ec3 f i libvcruntime:per_thread_data.obj
 0001:00028ecd       ?release@?$__crt_unique_heap_ptr@U__vcrt_ptd@@U__crt_internal_free_policy@@@@QAEXXZ 10029ecd f i libvcruntime:per_thread_data.obj
 0001:00028f01       ___vcrt_freefls@4          10029f01 f   libvcruntime:per_thread_data.obj
 0001:00028f24       ___vcrt_freeptd            10029f24 f   libvcruntime:per_thread_data.obj
 0001:00028f67       ___vcrt_getptd             10029f67 f   libvcruntime:per_thread_data.obj
 0001:00028f78       ___vcrt_getptd_noexit      10029f78 f   libvcruntime:per_thread_data.obj
 0001:0002900e       ___vcrt_initialize_ptd     1002a00e f   libvcruntime:per_thread_data.obj
 0001:0002904d       ___vcrt_uninitialize_ptd   1002a04d f   libvcruntime:per_thread_data.obj
 0001:0002906e       ___vcrt_initialize_locks   1002a06e f   libvcruntime:locks.obj
 0001:000290b9       ___vcrt_lock               1002a0b9 f   libvcruntime:locks.obj
 0001:000290d3       ___vcrt_uninitialize_locks 1002a0d3 f   libvcruntime:locks.obj
 0001:0002910d       ___vcrt_unlock             1002a10d f   libvcruntime:locks.obj
 0001:00029127       ??$?B$$A6AXXZ@__crt_fast_encoded_nullptr_t@@QBEP6AXXZXZ 1002a127 f i libvcruntime:purevirt_data.obj
 0001:00029145       ??$__crt_fast_encode_pointer@P6AXXZ@@YAP6AXXZQ6AXXZ@Z 1002a145 f i libvcruntime:purevirt_data.obj
 0001:00029169       ___vcrt_initialize_pure_virtual_call_handler 1002a169 f   libvcruntime:purevirt_data.obj
 0001:0002918d       ??$__vcrt_va_start_verify_argument_type@QBD@@YAXXZ 1002a18d f i libvcruntime:undname.obj
 0001:0002918e       ??0Block@_HeapManager@@QAE@XZ 1002a18e f i libvcruntime:undname.obj
 0001:00029194       ??0DName@@QAE@AAPBDD@Z     1002a194 f   libvcruntime:undname.obj
 0001:0002927b       ??0DName@@QAE@ABV0@@Z      1002a27b f i libvcruntime:undname.obj
 0001:00029296       ??0DName@@QAE@D@Z          1002a296 f   libvcruntime:undname.obj
 0001:000292cd       ??0DName@@QAE@PAV0@@Z      1002a2cd f   libvcruntime:undname.obj
 0001:0002932d       ??0DName@@QAE@PBD@Z        1002a32d f   libvcruntime:undname.obj
 0001:00029375       ??0DName@@QAE@W4DNameStatus@@@Z 1002a375 f   libvcruntime:undname.obj
 0001:000293c8       ??0DName@@QAE@XZ           1002a3c8 f i libvcruntime:undname.obj
 0001:000293dd       ??0DName@@QAE@_J@Z         1002a3dd f   libvcruntime:undname.obj
 0001:00029497       ??0DName@@QAE@_K@Z         1002a497 f   libvcruntime:undname.obj
 0001:00029521       ??0DNameNode@@IAE@XZ       1002a521 f   libvcruntime:undname.obj
 0001:0002952c       ??0DNameStatusNode@@AAE@W4DNameStatus@@@Z 1002a52c f   libvcruntime:undname.obj
 0001:00029557       ??0Replicator@@QAE@XZ      1002a557 f i libvcruntime:undname.obj
 0001:0002955d       ??0UnDecorator@@QAE@PADPBDHP6APADJ@ZK@Z 1002a55d f i libvcruntime:undname.obj
 0001:000295e0       ??0charNode@@QAE@D@Z       1002a5e0 f   libvcruntime:undname.obj
 0001:000295fa       ??0pDNameNode@@QAE@PAVDName@@@Z 1002a5fa f   libvcruntime:undname.obj
 0001:0002962c       ??0pairNode@@QAE@PAVDNameNode@@0@Z 1002a62c f   libvcruntime:undname.obj
 0001:00029652       ??0pcharNode@@QAE@PBDH@Z   1002a652 f   libvcruntime:undname.obj
 0001:000296c1       ??2@YAPAXIAAV_HeapManager@@H@Z 1002a6c1 f i libvcruntime:undname.obj
 0001:000296db       ??4DName@@QAEAAV0@ABV0@@Z  1002a6db f   libvcruntime:undname.obj
 0001:000296f6       ??4DName@@QAEAAV0@D@Z      1002a6f6 f i libvcruntime:undname.obj
 0001:0002972d       ??4DName@@QAEAAV0@PAV0@@Z  1002a72d f   libvcruntime:undname.obj
 0001:00029788       ??4DName@@QAEAAV0@PBD@Z    1002a788 f   libvcruntime:undname.obj
 0001:000297c6       ??4DName@@QAEAAV0@W4DNameStatus@@@Z 1002a7c6 f   libvcruntime:undname.obj
 0001:00029808       ??AReplicator@@QBE?AVDName@@H@Z 1002a808 f   libvcruntime:undname.obj
 0001:00029853       ??BUnDecorator@@QAEPADXZ   1002a853 f i libvcruntime:undname.obj
 0001:00029a2c       ??H@YA?AVDName@@DABV0@@Z   1002aa2c f i libvcruntime:undname.obj
 0001:00029a59       ??H@YA?AVDName@@PBDABV0@@Z 1002aa59 f i libvcruntime:undname.obj
 0001:00029a86       ??H@YA?AVDName@@W4DNameStatus@@ABV0@@Z 1002aa86 f i libvcruntime:undname.obj
 0001:00029ab3       ??HDName@@QBE?AV0@ABV0@@Z  1002aab3 f   libvcruntime:undname.obj
 0001:00029add       ??HDName@@QBE?AV0@D@Z      1002aadd f   libvcruntime:undname.obj
 0001:00029b07       ??HDName@@QBE?AV0@PAV0@@Z  1002ab07 f   libvcruntime:undname.obj
 0001:00029b31       ??HDName@@QBE?AV0@PBD@Z    1002ab31 f   libvcruntime:undname.obj
 0001:00029b5b       ??HDName@@QBE?AV0@W4DNameStatus@@@Z 1002ab5b f   libvcruntime:undname.obj
 0001:00029b85       ??YDName@@QAEAAV0@ABV0@@Z  1002ab85 f   libvcruntime:undname.obj
 0001:00029bd8       ??YDName@@QAEAAV0@D@Z      1002abd8 f   libvcruntime:undname.obj
 0001:00029c3c       ??YDName@@QAEAAV0@PAV0@@Z  1002ac3c f   libvcruntime:undname.obj
 0001:00029cba       ??YDName@@QAEAAV0@PBD@Z    1002acba f   libvcruntime:undname.obj
 0001:00029d33       ??YDName@@QAEAAV0@W4DNameStatus@@@Z 1002ad33 f   libvcruntime:undname.obj
 0001:00029d83       ??YReplicator@@QAEAAV0@ABVDName@@@Z 1002ad83 f   libvcruntime:undname.obj
 0001:00029ddf       ??_5DName@@QAEAAV0@ABV0@@Z 1002addf f   libvcruntime:undname.obj
 0001:00029e02       ?Constructor@_HeapManager@@QAEXP6APAXI@ZP6AXPAX@Z@Z 1002ae02 f i libvcruntime:undname.obj
 0001:00029e26       ?Destructor@_HeapManager@@QAEXXZ 1002ae26 f i libvcruntime:undname.obj
 0001:00029e6d       ?UScore@UnDecorator@@SAPBDW4Tokens@@@Z 1002ae6d f   libvcruntime:undname.obj
 0001:00029e91       ?append@DName@@AAEXPAVDNameNode@@@Z 1002ae91 f   libvcruntime:undname.obj
 0001:00029ee8       ?composeDeclaration@UnDecorator@@CA?AVDName@@ABV2@@Z 1002aee8 f i libvcruntime:undname.obj
 0001:0002af52       ?doAccessSpecifiers@UnDecorator@@SAHXZ 1002bf52 f i libvcruntime:undname.obj
 0001:0002af63       ?doAllocationLanguage@UnDecorator@@SAHXZ 1002bf63 f i libvcruntime:undname.obj
 0001:0002af74       ?doAllocationModel@UnDecorator@@SAHXZ 1002bf74 f i libvcruntime:undname.obj
 0001:0002af85       ?doEcsu@UnDecorator@@SAHXZ 1002bf85 f i libvcruntime:undname.obj
 0001:0002af96       ?doEllipsis@UnDecorator@@SAHXZ 1002bf96 f i libvcruntime:undname.obj
 0001:0002afa7       ?doFunctionReturns@UnDecorator@@SAHXZ 1002bfa7 f i libvcruntime:undname.obj
 0001:0002afb8       ?doMSKeywords@UnDecorator@@SAHXZ 1002bfb8 f i libvcruntime:undname.obj
 0001:0002afc8       ?doMemberTypes@UnDecorator@@SAHXZ 1002bfc8 f i libvcruntime:undname.obj
 0001:0002afd9       ?doNameOnly@UnDecorator@@SAHXZ 1002bfd9 f i libvcruntime:undname.obj
 0001:0002afe6       ?doNoIdentCharCheck@UnDecorator@@SAHXZ 1002bfe6 f i libvcruntime:undname.obj
 0001:0002aff3       ?doPchar@DName@@AAEXPBDH@Z 1002bff3 f   libvcruntime:undname.obj
 0001:0002b09f       ?doPtr64@UnDecorator@@SAHXZ 1002c09f f i libvcruntime:undname.obj
 0001:0002b0b0       ?doRestrictionSpec@UnDecorator@@SAHXZ 1002c0b0 f i libvcruntime:undname.obj
 0001:0002b0c1       ?doThisTypes@UnDecorator@@SAHXZ 1002c0c1 f i libvcruntime:undname.obj
 0001:0002b0d7       ?doThrowTypes@UnDecorator@@SAHXZ 1002c0d7 f i libvcruntime:undname.obj
 0001:0002b0e8       ?doTypeOnly@UnDecorator@@SAHXZ 1002c0e8 f i libvcruntime:undname.obj
 0001:0002b0f5       ?doUnderScore@UnDecorator@@SAHXZ 1002c0f5 f i libvcruntime:undname.obj
 0001:0002b102       ?getArgumentList@UnDecorator@@CA?AVDName@@XZ 1002c102 f   libvcruntime:undname.obj
 0001:0002b251       ?getArgumentTypes@UnDecorator@@CA?AVDName@@XZ 1002c251 f   libvcruntime:undname.obj
 0001:0002b369       ?getArrayType@UnDecorator@@CA?AVDName@@ABV2@@Z 1002c369 f i libvcruntime:undname.obj
 0001:0002b5eb       ?getBasedType@UnDecorator@@CA?AVDName@@XZ 1002c5eb f   libvcruntime:undname.obj
 0001:0002b6aa       ?getBasicDataType@UnDecorator@@CA?AVDName@@ABV2@@Z 1002c6aa f   libvcruntime:undname.obj
 0001:0002bb8f       ?getCallIndex@UnDecorator@@CA?AVDName@@XZ 1002cb8f f i libvcruntime:undname.obj
 0001:0002bba8       ?getCallingConvention@UnDecorator@@CA?AVDName@@XZ 1002cba8 f   libvcruntime:undname.obj
 0001:0002bc96       ?getDataIndirectType@UnDecorator@@CA?AVDName@@ABV2@PBD0H@Z 1002cc96 f   libvcruntime:undname.obj
 0001:0002c440       ?getDataIndirectType@UnDecorator@@CA?AVDName@@XZ 1002d440 f i libvcruntime:undname.obj
 0001:0002c487       ?getDataType@UnDecorator@@CA?AVDName@@PAV2@@Z 1002d487 f   libvcruntime:undname.obj
 0001:0002c58d       ?getDecoratedName@UnDecorator@@CA?AVDName@@XZ 1002d58d f   libvcruntime:undname.obj
 0001:0002c86c       ?getDimension@UnDecorator@@CA?AVDName@@_N@Z 1002d86c f   libvcruntime:undname.obj
 0001:0002c9f0       ?getDispatchTarget@UnDecorator@@CA?AVDName@@XZ 1002d9f0 f   libvcruntime:undname.obj
 0001:0002ca61       ?getDisplacement@UnDecorator@@CA?AVDName@@XZ 1002da61 f i libvcruntime:undname.obj
 0001:0002ca7a       ?getECSUDataType@UnDecorator@@CA?AVDName@@XZ 1002da7a f   libvcruntime:undname.obj
 0001:0002cbde       ?getECSUName@UnDecorator@@CA?AVDName@@XZ 1002dbde f i libvcruntime:undname.obj
 0001:0002cbf3       ?getEnumType@UnDecorator@@CA?AVDName@@XZ 1002dbf3 f i libvcruntime:undname.obj
 0001:0002cd1a       ?getExtendedDataIndirectType@UnDecorator@@CA?AVDName@@AAPBDAA_NH@Z 1002dd1a f   libvcruntime:undname.obj
 0001:0002cf2d       ?getExternalDataType@UnDecorator@@CA?AVDName@@ABV2@@Z 1002df2d f i libvcruntime:undname.obj
 0001:0002cfc4       ?getFunctionIndirectType@UnDecorator@@CA?AVDName@@ABV2@@Z 1002dfc4 f   libvcruntime:undname.obj
 0001:0002d4cf       ?getGuardNumber@UnDecorator@@CA?AVDName@@XZ 1002e4cf f i libvcruntime:undname.obj
 0001:0002d4e8       ?getLastChar@DName@@QBEDXZ 1002e4e8 f i libvcruntime:undname.obj
 0001:0002d50e       ?getLastChar@DNameStatusNode@@UBEDXZ 1002e50e f i libvcruntime:undname.obj
 0001:0002d51d       ?getLastChar@charNode@@UBEDXZ 1002e51d f i libvcruntime:undname.obj
 0001:0002d521       ?getLastChar@pDNameNode@@UBEDXZ 1002e521 f i libvcruntime:undname.obj
 0001:0002d532       ?getLastChar@pairNode@@UBEDXZ 1002e532 f i libvcruntime:undname.obj
 0001:0002d571       ?getLastChar@pcharNode@@UBEDXZ 1002e571 f i libvcruntime:undname.obj
 0001:0002d587       ?getLexicalFrame@UnDecorator@@CA?AVDName@@XZ 1002e587 f i libvcruntime:undname.obj
 0001:0002d5d3       ?getMemory@_HeapManager@@QAEPAXIH@Z 1002e5d3 f   libvcruntime:undname.obj
 0001:0002d684       ?getNumberOfDimensions@UnDecorator@@CAHXZ 1002e684 f   libvcruntime:undname.obj
 0001:0002d6fd       ?getOperatorName@UnDecorator@@CA?AVDName@@_NPA_N@Z 1002e6fd f i libvcruntime:undname.obj
 0001:0002deac       ?getPointerType@UnDecorator@@CA?AVDName@@ABV2@0@Z 1002eeac f i libvcruntime:undname.obj
 0001:0002ded1       ?getPointerTypeArray@UnDecorator@@CA?AVDName@@ABV2@0@Z 1002eed1 f i libvcruntime:undname.obj
 0001:0002def6       ?getPrimaryDataType@UnDecorator@@CA?AVDName@@ABV2@@Z 1002eef6 f   libvcruntime:undname.obj
 0001:0002e147       ?getPtrRefDataType@UnDecorator@@CA?AVDName@@ABV2@H@Z 1002f147 f   libvcruntime:undname.obj
 0001:0002e289       ?getPtrRefType@UnDecorator@@CA?AVDName@@ABV2@0PBD@Z 1002f289 f   libvcruntime:undname.obj
 0001:0002e3c4       ?getReferenceType@UnDecorator@@CA?AVDName@@ABV2@0PBD@Z 1002f3c4 f i libvcruntime:undname.obj
 0001:0002e3e7       ?getRestrictionSpec@UnDecorator@@CA?AVDName@@XZ 1002f3e7 f   libvcruntime:undname.obj
 0001:0002e515       ?getReturnType@UnDecorator@@CA?AVDName@@PAV2@@Z 1002f515 f   libvcruntime:undname.obj
 0001:0002e54f       ?getScope@UnDecorator@@CA?AVDName@@XZ 1002f54f f   libvcruntime:undname.obj
 0001:0002ea24       ?getScopedName@UnDecorator@@CA?AVDName@@XZ 1002fa24 f   libvcruntime:undname.obj
 0001:0002eb5d       ?getSignedDimension@UnDecorator@@CA?AVDName@@XZ 1002fb5d f   libvcruntime:undname.obj
 0001:0002ebc4       ?getStorageConvention@UnDecorator@@CA?AVDName@@XZ 1002fbc4 f i libvcruntime:undname.obj
 0001:0002ebd9       ?getString@DName@@QBEPADPAD0@Z 1002fbd9 f i libvcruntime:undname.obj
 0001:0002ec10       ?getString@DName@@QBEPADPADH@Z 1002fc10 f i libvcruntime:undname.obj
 0001:0002ec7b       ?getString@DNameStatusNode@@UBEPADPAD0@Z 1002fc7b f i libvcruntime:undname.obj
 0001:0002ecab       ?getString@charNode@@UBEPADPAD0@Z 1002fcab f i libvcruntime:undname.obj
 0001:0002ecc5       ?getString@pDNameNode@@UBEPADPAD0@Z 1002fcc5 f i libvcruntime:undname.obj
 0001:0002ece1       ?getString@pairNode@@UBEPADPAD0@Z 1002fce1 f i libvcruntime:undname.obj
 0001:0002ed36       ?getString@pcharNode@@UBEPADPAD0@Z 1002fd36 f i libvcruntime:undname.obj
 0001:0002ed57       ?getStringEncoding@UnDecorator@@CA?AVDName@@PADH@Z 1002fd57 f   libvcruntime:undname.obj
 0001:0002ee22       ?getStringHelper@@YAPADPAD00H@Z 1002fe22 f i libvcruntime:undname.obj
 0001:0002ee66       ?getSymbolName@UnDecorator@@CA?AVDName@@XZ 1002fe66 f i libvcruntime:undname.obj
 0001:0002eec0       ?getTemplateArgumentList@UnDecorator@@CA?AVDName@@XZ 1002fec0 f   libvcruntime:undname.obj
 0001:0002f218       ?getTemplateConstant@UnDecorator@@CA?AVDName@@XZ 10030218 f   libvcruntime:undname.obj
 0001:0002f62d       ?getTemplateName@UnDecorator@@CA?AVDName@@_N@Z 1003062d f   libvcruntime:undname.obj
 0001:0002f7d8       ?getThisType@UnDecorator@@CA?AVDName@@XZ 100307d8 f i libvcruntime:undname.obj
 0001:0002f820       ?getThrowTypes@UnDecorator@@CA?AVDName@@XZ 10030820 f   libvcruntime:undname.obj
 0001:0002f8cc       ?getTypeEncoding@UnDecorator@@CAHXZ 100308cc f i libvcruntime:undname.obj
 0001:0002ff0c       ?getVCallThunkType@UnDecorator@@CA?AVDName@@XZ 10030f0c f i libvcruntime:undname.obj
 0001:0002ff55       ?getVbTableType@UnDecorator@@CA?AVDName@@ABV2@@Z 10030f55 f i libvcruntime:undname.obj
 0001:0002ff6f       ?getVdispMapType@UnDecorator@@CA?AVDName@@ABV2@@Z 10030f6f f i libvcruntime:undname.obj
 0001:0002ffda       ?getVfTableType@UnDecorator@@CA?AVDName@@ABV2@@Z 10030fda f i libvcruntime:undname.obj
 0001:00030198       ?getZName@UnDecorator@@CA?AVDName@@_N0@Z 10031198 f   libvcruntime:undname.obj
 0001:00030468       ?haveTemplateParameters@UnDecorator@@SAHXZ 10031468 f i libvcruntime:undname.obj
 0001:00030475       ?isArray@DName@@QBEHXZ     10031475 f i libvcruntime:undname.obj
 0001:00030481       ?isComArray@DName@@QBEHXZ  10031481 f i libvcruntime:undname.obj
 0001:0003048d       ?isEmpty@DName@@QBEHXZ     1003148d f i libvcruntime:undname.obj
 0001:00030497       ?isFull@Replicator@@QBEHXZ 10031497 f i libvcruntime:undname.obj
 0001:000304a2       ?isNoTE@DName@@QBEHXZ      100314a2 f i libvcruntime:undname.obj
 0001:000304ae       ?isPinPtr@DName@@QBEHXZ    100314ae f i libvcruntime:undname.obj
 0001:000304ba       ?isPtrRef@DName@@QBEHXZ    100314ba f i libvcruntime:undname.obj
 0001:000304c6       ?isUDC@DName@@QBEHXZ       100314c6 f i libvcruntime:undname.obj
 0001:000304db       ?isUDTThunk@DName@@QBEHXZ  100314db f i libvcruntime:undname.obj
 0001:000304f0       ?isVCallThunk@DName@@QBEHXZ 100314f0 f i libvcruntime:undname.obj
 0001:000304fc       ?isValid@DName@@QBEHXZ     100314fc f i libvcruntime:undname.obj
 0001:00030508       ?length@DName@@QBEHXZ      10031508 f i libvcruntime:undname.obj
 0001:0003052d       ?length@DNameStatusNode@@UBEHXZ 1003152d f i libvcruntime:undname.obj
 0001:00030531       ?length@charNode@@UBEHXZ   10031531 f i libvcruntime:undname.obj
 0001:00030535       ?length@pDNameNode@@UBEHXZ 10031535 f i libvcruntime:undname.obj
 0001:00030546       ?length@pairNode@@UBEHXZ   10031546 f i libvcruntime:undname.obj
 0001:000305a2       ?length@pcharNode@@UBEHXZ  100315a2 f i libvcruntime:undname.obj
 0001:000305a6       ?make@DNameStatusNode@@SAPAV1@W4DNameStatus@@@Z 100315a6 f i libvcruntime:undname.obj
 0001:0003064d       ?setIsArray@DName@@QAEXXZ  1003164d f i libvcruntime:undname.obj
 0001:00030657       ?setIsComArray@DName@@QAEXXZ 10031657 f i libvcruntime:undname.obj
 0001:00030661       ?setIsNoTE@DName@@QAEXXZ   10031661 f i libvcruntime:undname.obj
 0001:0003066b       ?setIsPinPtr@DName@@QAEXXZ 1003166b f i libvcruntime:undname.obj
 0001:00030675       ?setIsUDC@DName@@QAEXXZ    10031675 f i libvcruntime:undname.obj
 0001:00030685       ?setIsVCallThunk@DName@@QAEXXZ 10031685 f i libvcruntime:undname.obj
 0001:0003068f       ?setPtrRef@DName@@QAEAAV1@XZ 1003168f f i libvcruntime:undname.obj
 0001:0003069b       ?status@DName@@QBE?AW4DNameStatus@@XZ 1003169b f i libvcruntime:undname.obj
 0001:00030720       ___unDName                 10031720 f   libvcruntime:undname.obj
 0001:000307da       ___unDNameEx               100317da f   libvcruntime:undname.obj
 0001:00030894       __vsprintf_s_l             10031894 f i libvcruntime:undname.obj
 0001:000308d0       __global_unwind2           100318d0 f   libvcruntime:_exsup_.obj
 0001:00030935       __local_unwind2            10031935 f   libvcruntime:_exsup_.obj
 0001:000309b9       __abnormal_termination     100319b9 f   libvcruntime:_exsup_.obj
 0001:000309dc       __NLG_Notify1              100319dc f   libvcruntime:_exsup_.obj
 0001:000309e5       __NLG_Notify               100319e5 f   libvcruntime:_exsup_.obj
 0001:000309fc       __NLG_Dispatch2            100319fc     libvcruntime:_exsup_.obj
 0001:000309fc       __NLG_Dispatch             100319fc     libvcruntime:_exsup_.obj
 0001:00030a04       __NLG_Call                 10031a04 f   libvcruntime:_exsup_.obj
 0001:00030a06       __NLG_Return2              10031a06     libvcruntime:_exsup_.obj
 0001:00030a54       ??$__crt_fast_decode_pointer@P6AXXZ@@YAP6AXXZQ6AXXZ@Z 10031a54 f i libvcruntime:purevirt.obj
 0001:00030a6d       ??$__crt_interlocked_compare_exchange_pointer@$$A6AXXZ$$T$$T@@YAP6AXXZPDS6AXXZ$$T1@Z 10031a6d f i libvcruntime:purevirt.obj
 0001:00030a83       ??$__crt_interlocked_exchange_pointer@$$A6AXXZP6AXXZ@@YAP6AXXZPDS6AXXZQ6AXXZ@Z 10031a83 f i libvcruntime:purevirt.obj
 0001:00030a93       ??$__crt_interlocked_read_pointer@$$A6AXXZ@@YAP6AXXZPDS6AXXZ@Z 10031a93 f i libvcruntime:purevirt.obj
 0001:00030aa7       __get_purecall_handler     10031aa7 f   libvcruntime:purevirt.obj
 0001:00030acd       __purecall                 10031acd f   libvcruntime:purevirt.obj
 0001:00030aee       __set_purecall_handler     10031aee f   libvcruntime:purevirt.obj
 0001:00030b1c       _malloc                    10031b1c f   libucrt:malloc.obj
 0001:00030b29       ??$?RPAU__crt_stdio_stream_data@@@__crt_internal_free_policy@@QBEXQBQAU__crt_stdio_stream_data@@@Z 10031b29 f i libucrt:_file.obj
 0001:00030b3f       ??0?$__crt_unique_heap_ptr@PAU__crt_stdio_stream_data@@U__crt_internal_free_policy@@@@QAE@QAPAU__crt_stdio_stream_data@@@Z 10031b3f f i libucrt:_file.obj
 0001:00030b53       ??0__crt_stdio_stream@@QAE@QAU_iobuf@@@Z 10031b53 f i libucrt:_file.obj
 0001:00030b67       ??1?$__crt_unique_heap_ptr@PAU__crt_stdio_stream_data@@U__crt_internal_free_policy@@@@QAE@XZ 10031b67 f i libucrt:_file.obj
 0001:00030b7d       ??C__crt_stdio_stream@@QBEPAU__crt_stdio_stream_data@@XZ 10031b7d f i libucrt:_file.obj
 0001:00030b80       ?detach@?$__crt_unique_heap_ptr@PAU__crt_stdio_stream_data@@U__crt_internal_free_policy@@@@QAEPAPAU__crt_stdio_stream_data@@XZ 10031b80 f i libucrt:_file.obj
 0001:00030b86       ?release@?$__crt_unique_heap_ptr@PAU__crt_stdio_stream_data@@U__crt_internal_free_policy@@@@QAEXXZ 10031b86 f i libucrt:_file.obj
 0001:00030b9c       ___acrt_initialize_stdio   10031b9c f   libucrt:_file.obj
 0001:00030c96       ___acrt_iob_func           10031c96 f   libucrt:_file.obj
 0001:00030caa       ___acrt_uninitialize_stdio 10031caa f   libucrt:_file.obj
 0001:00030d09       __get_stream_buffer_pointers 10031d09 f   libucrt:_file.obj
 0001:00030d60       __lock_file                10031d60 f   libucrt:_file.obj
 0001:00030d79       __unlock_file              10031d79 f   libucrt:_file.obj
 0001:00030d92       ??$?0ABV?$stream_output_adapter@D@__crt_stdio_output@@AB_KABQBDABQAU__crt_locale_pointers@@ABQAD@?$format_validation_base@DV?$stream_output_adapter@D@__crt_stdio_output@@@__crt_stdio_output@@IAE@ABV?$stream_output_adapter@D@1@AB_KABQBDABQAU__crt_locale_pointers@@ABQAD@Z 10031d92 f i libucrt:output.obj
 0001:00030dbd       ??$?0ABV?$stream_output_adapter@D@__crt_stdio_output@@AB_KABQBDABQAU__crt_locale_pointers@@ABQAD@?$positional_parameter_base@DV?$stream_output_adapter@D@__crt_stdio_output@@@__crt_stdio_output@@IAE@ABV?$stream_output_adapter@D@1@AB_KABQBDABQAU__crt_locale_pointers@@ABQAD@Z 10031dbd f i libucrt:output.obj
 0001:00030e17       ??$?0ABV?$stream_output_adapter@D@__crt_stdio_output@@AB_KABQBDABQAU__crt_locale_pointers@@ABQAD@?$standard_base@DV?$stream_output_adapter@D@__crt_stdio_output@@@__crt_stdio_output@@IAE@ABV?$stream_output_adapter@D@1@AB_KABQBDABQAU__crt_locale_pointers@@ABQAD@Z 10031e17 f i libucrt:output.obj
 0001:00030e59       ??$?0ABV?$stream_output_adapter@_W@__crt_stdio_output@@AB_KABQB_WABQAU__crt_locale_pointers@@ABQAD@?$format_validation_base@_WV?$stream_output_adapter@_W@__crt_stdio_output@@@__crt_stdio_output@@IAE@ABV?$stream_output_adapter@_W@1@AB_KABQB_WABQAU__crt_locale_pointers@@ABQAD@Z 10031e59 f i libucrt:output.obj
 0001:00030e84       ??$?0ABV?$stream_output_adapter@_W@__crt_stdio_output@@AB_KABQB_WABQAU__crt_locale_pointers@@ABQAD@?$positional_parameter_base@_WV?$stream_output_adapter@_W@__crt_stdio_output@@@__crt_stdio_output@@IAE@ABV?$stream_output_adapter@_W@1@AB_KABQB_WABQAU__crt_locale_pointers@@ABQAD@Z 10031e84 f i libucrt:output.obj
 0001:00030ede       ??$?0ABV?$stream_output_adapter@_W@__crt_stdio_output@@AB_KABQB_WABQAU__crt_locale_pointers@@ABQAD@?$standard_base@_WV?$stream_output_adapter@_W@__crt_stdio_output@@@__crt_stdio_output@@IAE@ABV?$stream_output_adapter@_W@1@AB_KABQB_WABQAU__crt_locale_pointers@@ABQAD@Z 10031ede f i libucrt:output.obj
 0001:00030f20       ??$?0ABV?$string_output_adapter@D@__crt_stdio_output@@AB_KABQBDABQAU__crt_locale_pointers@@ABQAD@?$format_validation_base@DV?$string_output_adapter@D@__crt_stdio_output@@@__crt_stdio_output@@IAE@ABV?$string_output_adapter@D@1@AB_KABQBDABQAU__crt_locale_pointers@@ABQAD@Z 10031f20 f i libucrt:output.obj
 0001:00030f4b       ??$?0ABV?$string_output_adapter@D@__crt_stdio_output@@AB_KABQBDABQAU__crt_locale_pointers@@ABQAD@?$positional_parameter_base@DV?$string_output_adapter@D@__crt_stdio_output@@@__crt_stdio_output@@IAE@ABV?$string_output_adapter@D@1@AB_KABQBDABQAU__crt_locale_pointers@@ABQAD@Z 10031f4b f i libucrt:output.obj
 0001:00030fa5       ??$?0ABV?$string_output_adapter@D@__crt_stdio_output@@AB_KABQBDABQAU__crt_locale_pointers@@ABQAD@?$standard_base@DV?$string_output_adapter@D@__crt_stdio_output@@@__crt_stdio_output@@IAE@ABV?$string_output_adapter@D@1@AB_KABQBDABQAU__crt_locale_pointers@@ABQAD@Z 10031fa5 f i libucrt:output.obj
 0001:00030fe7       ??$?0ABV?$string_output_adapter@_W@__crt_stdio_output@@AB_KABQB_WABQAU__crt_locale_pointers@@ABQAD@?$format_validation_base@_WV?$string_output_adapter@_W@__crt_stdio_output@@@__crt_stdio_output@@IAE@ABV?$string_output_adapter@_W@1@AB_KABQB_WABQAU__crt_locale_pointers@@ABQAD@Z 10031fe7 f i libucrt:output.obj
 0001:00031012       ??$?0ABV?$string_output_adapter@_W@__crt_stdio_output@@AB_KABQB_WABQAU__crt_locale_pointers@@ABQAD@?$positional_parameter_base@_WV?$string_output_adapter@_W@__crt_stdio_output@@@__crt_stdio_output@@IAE@ABV?$string_output_adapter@_W@1@AB_KABQB_WABQAU__crt_locale_pointers@@ABQAD@Z 10032012 f i libucrt:output.obj
 0001:0003106c       ??$?0ABV?$string_output_adapter@_W@__crt_stdio_output@@AB_KABQB_WABQAU__crt_locale_pointers@@ABQAD@?$standard_base@_WV?$string_output_adapter@_W@__crt_stdio_output@@@__crt_stdio_output@@IAE@ABV?$string_output_adapter@_W@1@AB_KABQB_WABQAU__crt_locale_pointers@@ABQAD@Z 1003206c f i libucrt:output.obj
 0001:000310ae       ??$?RV<lambda_2293f24e3ce1ad6fe22ccfb9dec07671>@@AAV<lambda_2565fc715a641e539f44ad02d6823606>@@V<lambda_d3217f279b832965d9ca670dc2993570>@@@?$__crt_seh_guarded_call@H@@QAEH$$QAV<lambda_2293f24e3ce1ad6fe22ccfb9dec07671>@@AAV<lambda_2565fc715a641e539f44ad02d6823606>@@$$QAV<lambda_d3217f279b832965d9ca670dc2993570>@@@Z 100320ae f i libucrt:output.obj
 0001:00031113       ??$?RV<lambda_4d4ac866be0fa3c441830420fabdd2cb>@@AAV<lambda_63a10c2dc8dbb9e4dd1890be52af7c93>@@V<lambda_002af9fa0f8fe472b648c51882d4fc32>@@@?$__crt_seh_guarded_call@H@@QAEH$$QAV<lambda_4d4ac866be0fa3c441830420fabdd2cb>@@AAV<lambda_63a10c2dc8dbb9e4dd1890be52af7c93>@@$$QAV<lambda_002af9fa0f8fe472b648c51882d4fc32>@@@Z 10032113 f i libucrt:output.obj
 0001:00031178       ??$?RV<lambda_5be909dfbae0a631386585770cd7b676>@@AAV<lambda_e516058a9c289d98c8ca9fea99247804>@@V<lambda_afe2e0cdc5e0ecf6f0d6f5e2f8985e38>@@@?$__crt_seh_guarded_call@H@@QAEH$$QAV<lambda_5be909dfbae0a631386585770cd7b676>@@AAV<lambda_e516058a9c289d98c8ca9fea99247804>@@$$QAV<lambda_afe2e0cdc5e0ecf6f0d6f5e2f8985e38>@@@Z 10032178 f i libucrt:output.obj
 0001:000311dd       ??$?RV<lambda_823d65812123d985753d53e2a8c25d20>@@AAV<lambda_0a97c9e57da7be065955385c79108ff2>@@V<lambda_4d2973f3ad2d226f00468307185dca1b>@@@?$__crt_seh_guarded_call@H@@QAEH$$QAV<lambda_823d65812123d985753d53e2a8c25d20>@@AAV<lambda_0a97c9e57da7be065955385c79108ff2>@@$$QAV<lambda_4d2973f3ad2d226f00468307185dca1b>@@@Z 100321dd f i libucrt:output.obj
 0001:00031242       ??$?RV<lambda_ab9923ffb5d694ec0d78876dd103e44f>@@AAV<lambda_481dd5778c961fbcd3b60b650e9b9dc4>@@V<lambda_7923d86c9e3f319b415918ec4b39749c>@@@?$__crt_seh_guarded_call@H@@QAEH$$QAV<lambda_ab9923ffb5d694ec0d78876dd103e44f>@@AAV<lambda_481dd5778c961fbcd3b60b650e9b9dc4>@@$$QAV<lambda_7923d86c9e3f319b415918ec4b39749c>@@@Z 10032242 f i libucrt:output.obj
 0001:000312a7       ??$?RV<lambda_db08b09ef7aa9d4f8620ce68402612bc>@@AAV<lambda_4f2c1eaeead2a5fc776db5b62ea0fb9b>@@V<lambda_3ae262bc35d4ba6a3825c4f6bcaaf95c>@@@?$__crt_seh_guarded_call@H@@QAEH$$QAV<lambda_db08b09ef7aa9d4f8620ce68402612bc>@@AAV<lambda_4f2c1eaeead2a5fc776db5b62ea0fb9b>@@$$QAV<lambda_3ae262bc35d4ba6a3825c4f6bcaaf95c>@@@Z 100322a7 f i libucrt:output.obj
 0001:0003130c       ??$__acrt_lock_stream_and_call@V<lambda_0a97c9e57da7be065955385c79108ff2>@@@@YAHQAU_iobuf@@$$QAV<lambda_0a97c9e57da7be065955385c79108ff2>@@@Z 1003230c f i libucrt:output.obj
 0001:0003133e       ??$__acrt_lock_stream_and_call@V<lambda_2565fc715a641e539f44ad02d6823606>@@@@YAHQAU_iobuf@@$$QAV<lambda_2565fc715a641e539f44ad02d6823606>@@@Z 1003233e f i libucrt:output.obj
 0001:00031370       ??$__acrt_lock_stream_and_call@V<lambda_481dd5778c961fbcd3b60b650e9b9dc4>@@@@YAHQAU_iobuf@@$$QAV<lambda_481dd5778c961fbcd3b60b650e9b9dc4>@@@Z 10032370 f i libucrt:output.obj
 0001:000313a2       ??$__acrt_lock_stream_and_call@V<lambda_4f2c1eaeead2a5fc776db5b62ea0fb9b>@@@@YAHQAU_iobuf@@$$QAV<lambda_4f2c1eaeead2a5fc776db5b62ea0fb9b>@@@Z 100323a2 f i libucrt:output.obj
 0001:000313d4       ??$__acrt_lock_stream_and_call@V<lambda_63a10c2dc8dbb9e4dd1890be52af7c93>@@@@YAHQAU_iobuf@@$$QAV<lambda_63a10c2dc8dbb9e4dd1890be52af7c93>@@@Z 100323d4 f i libucrt:output.obj
 0001:00031406       ??$__acrt_lock_stream_and_call@V<lambda_e516058a9c289d98c8ca9fea99247804>@@@@YAHQAU_iobuf@@$$QAV<lambda_e516058a9c289d98c8ca9fea99247804>@@@Z 10032406 f i libucrt:output.obj
 0001:00031438       ??$__crt_interlocked_read@J@@YAJPDJ@Z 10032438 f i libucrt:output.obj
 0001:00032683       ??$count@D@formatting_buffer@__crt_stdio_output@@QBEIXZ 10033683 f i libucrt:output.obj
 0001:000326a1       ??$data@D@formatting_buffer@__crt_stdio_output@@QAEPADXZ 100336a1 f i libucrt:output.obj
 0001:000326b1       ??$data@_W@formatting_buffer@__crt_stdio_output@@QAEPA_WXZ 100336b1 f i libucrt:output.obj
 0001:000326c1       ??$ensure_buffer_is_big_enough@D@formatting_buffer@__crt_stdio_output@@QAE_NI@Z 100336c1 f i libucrt:output.obj
 0001:00032768       ??$extract_argument_from_va_list@C_J@?$positional_parameter_base@DV?$stream_output_adapter@D@__crt_stdio_output@@@__crt_stdio_output@@IAE_NAA_J@Z 10033768 f i libucrt:output.obj
 0001:00032806       ??$extract_argument_from_va_list@C_J@?$positional_parameter_base@DV?$string_output_adapter@D@__crt_stdio_output@@@__crt_stdio_output@@IAE_NAA_J@Z 10033806 f i libucrt:output.obj
 0001:000328a4       ??$extract_argument_from_va_list@C_J@?$positional_parameter_base@_WV?$stream_output_adapter@_W@__crt_stdio_output@@@__crt_stdio_output@@IAE_NAA_J@Z 100338a4 f i libucrt:output.obj
 0001:00032942       ??$extract_argument_from_va_list@C_J@?$positional_parameter_base@_WV?$string_output_adapter@_W@__crt_stdio_output@@@__crt_stdio_output@@IAE_NAA_J@Z 10033942 f i libucrt:output.obj
 0001:000329e0       ??$extract_argument_from_va_list@C_J@?$standard_base@DV?$stream_output_adapter@D@__crt_stdio_output@@@__crt_stdio_output@@IAE_NAA_J@Z 100339e0 f i libucrt:output.obj
 0001:00032a06       ??$extract_argument_from_va_list@C_J@?$standard_base@DV?$string_output_adapter@D@__crt_stdio_output@@@__crt_stdio_output@@IAE_NAA_J@Z 10033a06 f i libucrt:output.obj
 0001:00032a2c       ??$extract_argument_from_va_list@C_J@?$standard_base@_WV?$stream_output_adapter@_W@__crt_stdio_output@@@__crt_stdio_output@@IAE_NAA_J@Z 10033a2c f i libucrt:output.obj
 0001:00032a52       ??$extract_argument_from_va_list@C_J@?$standard_base@_WV?$string_output_adapter@_W@__crt_stdio_output@@@__crt_stdio_output@@IAE_NAA_J@Z 10033a52 f i libucrt:output.obj
 0001:00032a78       ??$extract_argument_from_va_list@E_J@?$positional_parameter_base@DV?$stream_output_adapter@D@__crt_stdio_output@@@__crt_stdio_output@@IAE_NAA_J@Z 10033a78 f i libucrt:output.obj
 0001:00032b16       ??$extract_argument_from_va_list@E_J@?$positional_parameter_base@DV?$string_output_adapter@D@__crt_stdio_output@@@__crt_stdio_output@@IAE_NAA_J@Z 10033b16 f i libucrt:output.obj
 0001:00032bb4       ??$extract_argument_from_va_list@E_J@?$positional_parameter_base@_WV?$stream_output_adapter@_W@__crt_stdio_output@@@__crt_stdio_output@@IAE_NAA_J@Z 10033bb4 f i libucrt:output.obj
 0001:00032c52       ??$extract_argument_from_va_list@E_J@?$positional_parameter_base@_WV?$string_output_adapter@_W@__crt_stdio_output@@@__crt_stdio_output@@IAE_NAA_J@Z 10033c52 f i libucrt:output.obj
 0001:00032cf0       ??$extract_argument_from_va_list@E_J@?$standard_base@DV?$stream_output_adapter@D@__crt_stdio_output@@@__crt_stdio_output@@IAE_NAA_J@Z 10033cf0 f i libucrt:output.obj
 0001:00032d16       ??$extract_argument_from_va_list@E_J@?$standard_base@DV?$string_output_adapter@D@__crt_stdio_output@@@__crt_stdio_output@@IAE_NAA_J@Z 10033d16 f i libucrt:output.obj
 0001:00032d3c       ??$extract_argument_from_va_list@E_J@?$standard_base@_WV?$stream_output_adapter@_W@__crt_stdio_output@@@__crt_stdio_output@@IAE_NAA_J@Z 10033d3c f i libucrt:output.obj
 0001:00032d62       ??$extract_argument_from_va_list@E_J@?$standard_base@_WV?$string_output_adapter@_W@__crt_stdio_output@@@__crt_stdio_output@@IAE_NAA_J@Z 10033d62 f i libucrt:output.obj
 0001:00032d88       ??$extract_argument_from_va_list@F_J@?$positional_parameter_base@DV?$stream_output_adapter@D@__crt_stdio_output@@@__crt_stdio_output@@IAE_NAA_J@Z 10033d88 f i libucrt:output.obj
 0001:00032e26       ??$extract_argument_from_va_list@F_J@?$positional_parameter_base@DV?$string_output_adapter@D@__crt_stdio_output@@@__crt_stdio_output@@IAE_NAA_J@Z 10033e26 f i libucrt:output.obj
 0001:00032ec4       ??$extract_argument_from_va_list@F_J@?$positional_parameter_base@_WV?$stream_output_adapter@_W@__crt_stdio_output@@@__crt_stdio_output@@IAE_NAA_J@Z 10033ec4 f i libucrt:output.obj
 0001:00032f62       ??$extract_argument_from_va_list@F_J@?$positional_parameter_base@_WV?$string_output_adapter@_W@__crt_stdio_output@@@__crt_stdio_output@@IAE_NAA_J@Z 10033f62 f i libucrt:output.obj
 0001:00033000       ??$extract_argument_from_va_list@F_J@?$standard_base@DV?$stream_output_adapter@D@__crt_stdio_output@@@__crt_stdio_output@@IAE_NAA_J@Z 10034000 f i libucrt:output.obj
 0001:00033026       ??$extract_argument_from_va_list@F_J@?$standard_base@DV?$string_output_adapter@D@__crt_stdio_output@@@__crt_stdio_output@@IAE_NAA_J@Z 10034026 f i libucrt:output.obj
 0001:0003304c       ??$extract_argument_from_va_list@F_J@?$standard_base@_WV?$stream_output_adapter@_W@__crt_stdio_output@@@__crt_stdio_output@@IAE_NAA_J@Z 1003404c f i libucrt:output.obj
 0001:00033072       ??$extract_argument_from_va_list@F_J@?$standard_base@_WV?$string_output_adapter@_W@__crt_stdio_output@@@__crt_stdio_output@@IAE_NAA_J@Z 10034072 f i libucrt:output.obj
 0001:00033098       ??$extract_argument_from_va_list@GD@?$positional_parameter_base@DV?$stream_output_adapter@D@__crt_stdio_output@@@__crt_stdio_output@@IAE_NAAD@Z 10034098 f i libucrt:output.obj
 0001:00033135       ??$extract_argument_from_va_list@GD@?$positional_parameter_base@DV?$string_output_adapter@D@__crt_stdio_output@@@__crt_stdio_output@@IAE_NAAD@Z 10034135 f i libucrt:output.obj
 0001:000331d2       ??$extract_argument_from_va_list@GD@?$standard_base@DV?$stream_output_adapter@D@__crt_stdio_output@@@__crt_stdio_output@@IAE_NAAD@Z 100341d2 f i libucrt:output.obj
 0001:000331f2       ??$extract_argument_from_va_list@GD@?$standard_base@DV?$string_output_adapter@D@__crt_stdio_output@@@__crt_stdio_output@@IAE_NAAD@Z 100341f2 f i libucrt:output.obj
 0001:00033212       ??$extract_argument_from_va_list@G_J@?$positional_parameter_base@DV?$stream_output_adapter@D@__crt_stdio_output@@@__crt_stdio_output@@IAE_NAA_J@Z 10034212 f i libucrt:output.obj
 0001:000332b0       ??$extract_argument_from_va_list@G_J@?$positional_parameter_base@DV?$string_output_adapter@D@__crt_stdio_output@@@__crt_stdio_output@@IAE_NAA_J@Z 100342b0 f i libucrt:output.obj
 0001:0003334e       ??$extract_argument_from_va_list@G_J@?$positional_parameter_base@_WV?$stream_output_adapter@_W@__crt_stdio_output@@@__crt_stdio_output@@IAE_NAA_J@Z 1003434e f i libucrt:output.obj
 0001:000333ec       ??$extract_argument_from_va_list@G_J@?$positional_parameter_base@_WV?$string_output_adapter@_W@__crt_stdio_output@@@__crt_stdio_output@@IAE_NAA_J@Z 100343ec f i libucrt:output.obj
 0001:0003348a       ??$extract_argument_from_va_list@G_J@?$standard_base@DV?$stream_output_adapter@D@__crt_stdio_output@@@__crt_stdio_output@@IAE_NAA_J@Z 1003448a f i libucrt:output.obj
 0001:000334b0       ??$extract_argument_from_va_list@G_J@?$standard_base@DV?$string_output_adapter@D@__crt_stdio_output@@@__crt_stdio_output@@IAE_NAA_J@Z 100344b0 f i libucrt:output.obj
 0001:000334d6       ??$extract_argument_from_va_list@G_J@?$standard_base@_WV?$stream_output_adapter@_W@__crt_stdio_output@@@__crt_stdio_output@@IAE_NAA_J@Z 100344d6 f i libucrt:output.obj
 0001:000334fc       ??$extract_argument_from_va_list@G_J@?$standard_base@_WV?$string_output_adapter@_W@__crt_stdio_output@@@__crt_stdio_output@@IAE_NAA_J@Z 100344fc f i libucrt:output.obj
 0001:00033522       ??$extract_argument_from_va_list@H_J@?$positional_parameter_base@DV?$stream_output_adapter@D@__crt_stdio_output@@@__crt_stdio_output@@IAE_NAA_J@Z 10034522 f i libucrt:output.obj
 0001:000335be       ??$extract_argument_from_va_list@H_J@?$positional_parameter_base@DV?$string_output_adapter@D@__crt_stdio_output@@@__crt_stdio_output@@IAE_NAA_J@Z 100345be f i libucrt:output.obj
 0001:0003365a       ??$extract_argument_from_va_list@H_J@?$positional_parameter_base@_WV?$stream_output_adapter@_W@__crt_stdio_output@@@__crt_stdio_output@@IAE_NAA_J@Z 1003465a f i libucrt:output.obj
 0001:000336f6       ??$extract_argument_from_va_list@H_J@?$positional_parameter_base@_WV?$string_output_adapter@_W@__crt_stdio_output@@@__crt_stdio_output@@IAE_NAA_J@Z 100346f6 f i libucrt:output.obj
 0001:00033792       ??$extract_argument_from_va_list@H_J@?$standard_base@DV?$stream_output_adapter@D@__crt_stdio_output@@@__crt_stdio_output@@IAE_NAA_J@Z 10034792 f i libucrt:output.obj
 0001:000337b7       ??$extract_argument_from_va_list@H_J@?$standard_base@DV?$string_output_adapter@D@__crt_stdio_output@@@__crt_stdio_output@@IAE_NAA_J@Z 100347b7 f i libucrt:output.obj
 0001:000337dc       ??$extract_argument_from_va_list@H_J@?$standard_base@_WV?$stream_output_adapter@_W@__crt_stdio_output@@@__crt_stdio_output@@IAE_NAA_J@Z 100347dc f i libucrt:output.obj
 0001:00033801       ??$extract_argument_from_va_list@H_J@?$standard_base@_WV?$string_output_adapter@_W@__crt_stdio_output@@@__crt_stdio_output@@IAE_NAA_J@Z 10034801 f i libucrt:output.obj
 0001:00033826       ??$extract_argument_from_va_list@I_J@?$positional_parameter_base@DV?$stream_output_adapter@D@__crt_stdio_output@@@__crt_stdio_output@@IAE_NAA_J@Z 10034826 f i libucrt:output.obj
 0001:000338cd       ??$extract_argument_from_va_list@I_J@?$positional_parameter_base@DV?$string_output_adapter@D@__crt_stdio_output@@@__crt_stdio_output@@IAE_NAA_J@Z 100348cd f i libucrt:output.obj
 0001:00033974       ??$extract_argument_from_va_list@I_J@?$positional_parameter_base@_WV?$stream_output_adapter@_W@__crt_stdio_output@@@__crt_stdio_output@@IAE_NAA_J@Z 10034974 f i libucrt:output.obj
 0001:00033a1b       ??$extract_argument_from_va_list@I_J@?$positional_parameter_base@_WV?$string_output_adapter@_W@__crt_stdio_output@@@__crt_stdio_output@@IAE_NAA_J@Z 10034a1b f i libucrt:output.obj
 0001:00033ac2       ??$extract_argument_from_va_list@I_J@?$standard_base@DV?$stream_output_adapter@D@__crt_stdio_output@@@__crt_stdio_output@@IAE_NAA_J@Z 10034ac2 f i libucrt:output.obj
 0001:00033ae7       ??$extract_argument_from_va_list@I_J@?$standard_base@DV?$string_output_adapter@D@__crt_stdio_output@@@__crt_stdio_output@@IAE_NAA_J@Z 10034ae7 f i libucrt:output.obj
 0001:00033b0c       ??$extract_argument_from_va_list@I_J@?$standard_base@_WV?$stream_output_adapter@_W@__crt_stdio_output@@@__crt_stdio_output@@IAE_NAA_J@Z 10034b0c f i libucrt:output.obj
 0001:00033b31       ??$extract_argument_from_va_list@I_J@?$standard_base@_WV?$string_output_adapter@_W@__crt_stdio_output@@@__crt_stdio_output@@IAE_NAA_J@Z 10034b31 f i libucrt:output.obj
 0001:00033b56       ??$extract_argument_from_va_list@PADPAD@?$positional_parameter_base@DV?$stream_output_adapter@D@__crt_stdio_output@@@__crt_stdio_output@@IAE_NAAPAD@Z 10034b56 f i libucrt:output.obj
 0001:00033bf3       ??$extract_argument_from_va_list@PADPAD@?$positional_parameter_base@DV?$string_output_adapter@D@__crt_stdio_output@@@__crt_stdio_output@@IAE_NAAPAD@Z 10034bf3 f i libucrt:output.obj
 0001:00033c90       ??$extract_argument_from_va_list@PADPAD@?$positional_parameter_base@_WV?$stream_output_adapter@_W@__crt_stdio_output@@@__crt_stdio_output@@IAE_NAAPAD@Z 10034c90 f i libucrt:output.obj
 0001:00033d2d       ??$extract_argument_from_va_list@PADPAD@?$positional_parameter_base@_WV?$string_output_adapter@_W@__crt_stdio_output@@@__crt_stdio_output@@IAE_NAAPAD@Z 10034d2d f i libucrt:output.obj
 0001:00033dca       ??$extract_argument_from_va_list@PADPAD@?$standard_base@DV?$stream_output_adapter@D@__crt_stdio_output@@@__crt_stdio_output@@IAE_NAAPAD@Z 10034dca f i libucrt:output.obj
 0001:00033dea       ??$extract_argument_from_va_list@PADPAD@?$standard_base@DV?$string_output_adapter@D@__crt_stdio_output@@@__crt_stdio_output@@IAE_NAAPAD@Z 10034dea f i libucrt:output.obj
 0001:00033e0a       ??$extract_argument_from_va_list@PADPAD@?$standard_base@_WV?$stream_output_adapter@_W@__crt_stdio_output@@@__crt_stdio_output@@IAE_NAAPAD@Z 10034e0a f i libucrt:output.obj
 0001:00033e2a       ??$extract_argument_from_va_list@PADPAD@?$standard_base@_WV?$string_output_adapter@_W@__crt_stdio_output@@@__crt_stdio_output@@IAE_NAAPAD@Z 10034e2a f i libucrt:output.obj
 0001:00033e4a       ??$extract_argument_from_va_list@PAUansi_string@?1??type_case_Z@?$output_processor@DV?$stream_output_adapter@D@__crt_stdio_output@@V?$format_validation_base@DV?$stream_output_adapter@D@__crt_stdio_output@@@2@@__crt_stdio_output@@AAE_NXZ@PAU1?1??234@AAE_NXZ@@?$standard_base@DV?$stream_output_adapter@D@__crt_stdio_output@@@__crt_stdio_output@@IAE_NAAPAUansi_string@?1??type_case_Z@?$output_processor@DV?$stream_output_adapter@D@__crt_stdio_output@@V?$format_validation_base@DV?$stream_output_adapter@D@__crt_stdio_output@@@2@@1@AAE_NXZ@@Z 10034e4a f i libucrt:output.obj
 0001:00033e6a       ??$extract_argument_from_va_list@PAUansi_string@?1??type_case_Z@?$output_processor@DV?$stream_output_adapter@D@__crt_stdio_output@@V?$positional_parameter_base@DV?$stream_output_adapter@D@__crt_stdio_output@@@2@@__crt_stdio_output@@AAE_NXZ@PAU1?1??234@AAE_NXZ@@?$positional_parameter_base@DV?$stream_output_adapter@D@__crt_stdio_output@@@__crt_stdio_output@@IAE_NAAPAUansi_string@?1??type_case_Z@?$output_processor@DV?$stream_output_adapter@D@__crt_stdio_output@@V?$positional_parameter_base@DV?$stream_output_adapter@D@__crt_stdio_output@@@2@@1@AAE_NXZ@@Z 10034e6a f i libucrt:output.obj
 0001:00033f07       ??$extract_argument_from_va_list@PAUansi_string@?1??type_case_Z@?$output_processor@DV?$stream_output_adapter@D@__crt_stdio_output@@V?$positional_parameter_base@DV?$stream_output_adapter@D@__crt_stdio_output@@@2@@__crt_stdio_output@@AAE_NXZ@PAU1?1??234@AAE_NXZ@@?$standard_base@DV?$stream_output_adapter@D@__crt_stdio_output@@@__crt_stdio_output@@IAE_NAAPAUansi_string@?1??type_case_Z@?$output_processor@DV?$stream_output_adapter@D@__crt_stdio_output@@V?$positional_parameter_base@DV?$stream_output_adapter@D@__crt_stdio_output@@@2@@1@AAE_NXZ@@Z 10034f07 f i libucrt:output.obj
 0001:00033f27       ??$extract_argument_from_va_list@PAUansi_string@?1??type_case_Z@?$output_processor@DV?$stream_output_adapter@D@__crt_stdio_output@@V?$standard_base@DV?$stream_output_adapter@D@__crt_stdio_output@@@2@@__crt_stdio_output@@AAE_NXZ@PAU1?1??234@AAE_NXZ@@?$standard_base@DV?$stream_output_adapter@D@__crt_stdio_output@@@__crt_stdio_output@@IAE_NAAPAUansi_string@?1??type_case_Z@?$output_processor@DV?$stream_output_adapter@D@__crt_stdio_output@@V?$standard_base@DV?$stream_output_adapter@D@__crt_stdio_output@@@2@@1@AAE_NXZ@@Z 10034f27 f i libucrt:output.obj
 0001:00033f47       ??$extract_argument_from_va_list@PAUansi_string@?1??type_case_Z@?$output_processor@DV?$string_output_adapter@D@__crt_stdio_output@@V?$format_validation_base@DV?$string_output_adapter@D@__crt_stdio_output@@@2@@__crt_stdio_output@@AAE_NXZ@PAU1?1??234@AAE_NXZ@@?$standard_base@DV?$string_output_adapter@D@__crt_stdio_output@@@__crt_stdio_output@@IAE_NAAPAUansi_string@?1??type_case_Z@?$output_processor@DV?$string_output_adapter@D@__crt_stdio_output@@V?$format_validation_base@DV?$string_output_adapter@D@__crt_stdio_output@@@2@@1@AAE_NXZ@@Z 10034f47 f i libucrt:output.obj
 0001:00033f67       ??$extract_argument_from_va_list@PAUansi_string@?1??type_case_Z@?$output_processor@DV?$string_output_adapter@D@__crt_stdio_output@@V?$positional_parameter_base@DV?$string_output_adapter@D@__crt_stdio_output@@@2@@__crt_stdio_output@@AAE_NXZ@PAU1?1??234@AAE_NXZ@@?$positional_parameter_base@DV?$string_output_adapter@D@__crt_stdio_output@@@__crt_stdio_output@@IAE_NAAPAUansi_string@?1??type_case_Z@?$output_processor@DV?$string_output_adapter@D@__crt_stdio_output@@V?$positional_parameter_base@DV?$string_output_adapter@D@__crt_stdio_output@@@2@@1@AAE_NXZ@@Z 10034f67 f i libucrt:output.obj
 0001:00034004       ??$extract_argument_from_va_list@PAUansi_string@?1??type_case_Z@?$output_processor@DV?$string_output_adapter@D@__crt_stdio_output@@V?$positional_parameter_base@DV?$string_output_adapter@D@__crt_stdio_output@@@2@@__crt_stdio_output@@AAE_NXZ@PAU1?1??234@AAE_NXZ@@?$standard_base@DV?$string_output_adapter@D@__crt_stdio_output@@@__crt_stdio_output@@IAE_NAAPAUansi_string@?1??type_case_Z@?$output_processor@DV?$string_output_adapter@D@__crt_stdio_output@@V?$positional_parameter_base@DV?$string_output_adapter@D@__crt_stdio_output@@@2@@1@AAE_NXZ@@Z 10035004 f i libucrt:output.obj
 0001:00034024       ??$extract_argument_from_va_list@PAUansi_string@?1??type_case_Z@?$output_processor@DV?$string_output_adapter@D@__crt_stdio_output@@V?$standard_base@DV?$string_output_adapter@D@__crt_stdio_output@@@2@@__crt_stdio_output@@AAE_NXZ@PAU1?1??234@AAE_NXZ@@?$standard_base@DV?$string_output_adapter@D@__crt_stdio_output@@@__crt_stdio_output@@IAE_NAAPAUansi_string@?1??type_case_Z@?$output_processor@DV?$string_output_adapter@D@__crt_stdio_output@@V?$standard_base@DV?$string_output_adapter@D@__crt_stdio_output@@@2@@1@AAE_NXZ@@Z 10035024 f i libucrt:output.obj
 0001:00034044       ??$extract_argument_from_va_list@PAUansi_string@?1??type_case_Z@?$output_processor@_WV?$stream_output_adapter@_W@__crt_stdio_output@@V?$format_validation_base@_WV?$stream_output_adapter@_W@__crt_stdio_output@@@2@@__crt_stdio_output@@AAE_NXZ@PAU1?1??234@AAE_NXZ@@?$standard_base@_WV?$stream_output_adapter@_W@__crt_stdio_output@@@__crt_stdio_output@@IAE_NAAPAUansi_string@?1??type_case_Z@?$output_processor@_WV?$stream_output_adapter@_W@__crt_stdio_output@@V?$format_validation_base@_WV?$stream_output_adapter@_W@__crt_stdio_output@@@2@@1@AAE_NXZ@@Z 10035044 f i libucrt:output.obj
 0001:00034064       ??$extract_argument_from_va_list@PAUansi_string@?1??type_case_Z@?$output_processor@_WV?$stream_output_adapter@_W@__crt_stdio_output@@V?$positional_parameter_base@_WV?$stream_output_adapter@_W@__crt_stdio_output@@@2@@__crt_stdio_output@@AAE_NXZ@PAU1?1??234@AAE_NXZ@@?$positional_parameter_base@_WV?$stream_output_adapter@_W@__crt_stdio_output@@@__crt_stdio_output@@IAE_NAAPAUansi_string@?1??type_case_Z@?$output_processor@_WV?$stream_output_adapter@_W@__crt_stdio_output@@V?$positional_parameter_base@_WV?$stream_output_adapter@_W@__crt_stdio_output@@@2@@1@AAE_NXZ@@Z 10035064 f i libucrt:output.obj
 0001:00034101       ??$extract_argument_from_va_list@PAUansi_string@?1??type_case_Z@?$output_processor@_WV?$stream_output_adapter@_W@__crt_stdio_output@@V?$positional_parameter_base@_WV?$stream_output_adapter@_W@__crt_stdio_output@@@2@@__crt_stdio_output@@AAE_NXZ@PAU1?1??234@AAE_NXZ@@?$standard_base@_WV?$stream_output_adapter@_W@__crt_stdio_output@@@__crt_stdio_output@@IAE_NAAPAUansi_string@?1??type_case_Z@?$output_processor@_WV?$stream_output_adapter@_W@__crt_stdio_output@@V?$positional_parameter_base@_WV?$stream_output_adapter@_W@__crt_stdio_output@@@2@@1@AAE_NXZ@@Z 10035101 f i libucrt:output.obj
 0001:00034121       ??$extract_argument_from_va_list@PAUansi_string@?1??type_case_Z@?$output_processor@_WV?$stream_output_adapter@_W@__crt_stdio_output@@V?$standard_base@_WV?$stream_output_adapter@_W@__crt_stdio_output@@@2@@__crt_stdio_output@@AAE_NXZ@PAU1?1??234@AAE_NXZ@@?$standard_base@_WV?$stream_output_adapter@_W@__crt_stdio_output@@@__crt_stdio_output@@IAE_NAAPAUansi_string@?1??type_case_Z@?$output_processor@_WV?$stream_output_adapter@_W@__crt_stdio_output@@V?$standard_base@_WV?$stream_output_adapter@_W@__crt_stdio_output@@@2@@1@AAE_NXZ@@Z 10035121 f i libucrt:output.obj
 0001:00034141       ??$extract_argument_from_va_list@PAUansi_string@?1??type_case_Z@?$output_processor@_WV?$string_output_adapter@_W@__crt_stdio_output@@V?$format_validation_base@_WV?$string_output_adapter@_W@__crt_stdio_output@@@2@@__crt_stdio_output@@AAE_NXZ@PAU1?1??234@AAE_NXZ@@?$standard_base@_WV?$string_output_adapter@_W@__crt_stdio_output@@@__crt_stdio_output@@IAE_NAAPAUansi_string@?1??type_case_Z@?$output_processor@_WV?$string_output_adapter@_W@__crt_stdio_output@@V?$format_validation_base@_WV?$string_output_adapter@_W@__crt_stdio_output@@@2@@1@AAE_NXZ@@Z 10035141 f i libucrt:output.obj
 0001:00034161       ??$extract_argument_from_va_list@PAUansi_string@?1??type_case_Z@?$output_processor@_WV?$string_output_adapter@_W@__crt_stdio_output@@V?$positional_parameter_base@_WV?$string_output_adapter@_W@__crt_stdio_output@@@2@@__crt_stdio_output@@AAE_NXZ@PAU1?1??234@AAE_NXZ@@?$positional_parameter_base@_WV?$string_output_adapter@_W@__crt_stdio_output@@@__crt_stdio_output@@IAE_NAAPAUansi_string@?1??type_case_Z@?$output_processor@_WV?$string_output_adapter@_W@__crt_stdio_output@@V?$positional_parameter_base@_WV?$string_output_adapter@_W@__crt_stdio_output@@@2@@1@AAE_NXZ@@Z 10035161 f i libucrt:output.obj
 0001:000341fe       ??$extract_argument_from_va_list@PAUansi_string@?1??type_case_Z@?$output_processor@_WV?$string_output_adapter@_W@__crt_stdio_output@@V?$positional_parameter_base@_WV?$string_output_adapter@_W@__crt_stdio_output@@@2@@__crt_stdio_output@@AAE_NXZ@PAU1?1??234@AAE_NXZ@@?$standard_base@_WV?$string_output_adapter@_W@__crt_stdio_output@@@__crt_stdio_output@@IAE_NAAPAUansi_string@?1??type_case_Z@?$output_processor@_WV?$string_output_adapter@_W@__crt_stdio_output@@V?$positional_parameter_base@_WV?$string_output_adapter@_W@__crt_stdio_output@@@2@@1@AAE_NXZ@@Z 100351fe f i libucrt:output.obj
 0001:0003421e       ??$extract_argument_from_va_list@PAUansi_string@?1??type_case_Z@?$output_processor@_WV?$string_output_adapter@_W@__crt_stdio_output@@V?$standard_base@_WV?$string_output_adapter@_W@__crt_stdio_output@@@2@@__crt_stdio_output@@AAE_NXZ@PAU1?1??234@AAE_NXZ@@?$standard_base@_WV?$string_output_adapter@_W@__crt_stdio_output@@@__crt_stdio_output@@IAE_NAAPAUansi_string@?1??type_case_Z@?$output_processor@_WV?$string_output_adapter@_W@__crt_stdio_output@@V?$standard_base@_WV?$string_output_adapter@_W@__crt_stdio_output@@@2@@1@AAE_NXZ@@Z 1003521e f i libucrt:output.obj
 0001:0003423e       ??$extract_argument_from_va_list@PAXPAX@?$positional_parameter_base@DV?$stream_output_adapter@D@__crt_stdio_output@@@__crt_stdio_output@@IAE_NAAPAX@Z 1003523e f i libucrt:output.obj
 0001:000342db       ??$extract_argument_from_va_list@PAXPAX@?$positional_parameter_base@DV?$string_output_adapter@D@__crt_stdio_output@@@__crt_stdio_output@@IAE_NAAPAX@Z 100352db f i libucrt:output.obj
 0001:00034378       ??$extract_argument_from_va_list@PAXPAX@?$positional_parameter_base@_WV?$stream_output_adapter@_W@__crt_stdio_output@@@__crt_stdio_output@@IAE_NAAPAX@Z 10035378 f i libucrt:output.obj
 0001:00034415       ??$extract_argument_from_va_list@PAXPAX@?$positional_parameter_base@_WV?$string_output_adapter@_W@__crt_stdio_output@@@__crt_stdio_output@@IAE_NAAPAX@Z 10035415 f i libucrt:output.obj
 0001:000344b2       ??$extract_argument_from_va_list@PAXPAX@?$standard_base@DV?$stream_output_adapter@D@__crt_stdio_output@@@__crt_stdio_output@@IAE_NAAPAX@Z 100354b2 f i libucrt:output.obj
 0001:000344d2       ??$extract_argument_from_va_list@PAXPAX@?$standard_base@DV?$string_output_adapter@D@__crt_stdio_output@@@__crt_stdio_output@@IAE_NAAPAX@Z 100354d2 f i libucrt:output.obj
 0001:000344f2       ??$extract_argument_from_va_list@PAXPAX@?$standard_base@_WV?$stream_output_adapter@_W@__crt_stdio_output@@@__crt_stdio_output@@IAE_NAAPAX@Z 100354f2 f i libucrt:output.obj
 0001:00034512       ??$extract_argument_from_va_list@PAXPAX@?$standard_base@_WV?$string_output_adapter@_W@__crt_stdio_output@@@__crt_stdio_output@@IAE_NAAPAX@Z 10035512 f i libucrt:output.obj
 0001:00034532       ??$extract_argument_from_va_list@U_CRT_DOUBLE@@U1@@?$positional_parameter_base@DV?$stream_output_adapter@D@__crt_stdio_output@@@__crt_stdio_output@@IAE_NAAU_CRT_DOUBLE@@@Z 10035532 f i libucrt:output.obj
 0001:000345e3       ??$extract_argument_from_va_list@U_CRT_DOUBLE@@U1@@?$positional_parameter_base@DV?$string_output_adapter@D@__crt_stdio_output@@@__crt_stdio_output@@IAE_NAAU_CRT_DOUBLE@@@Z 100355e3 f i libucrt:output.obj
 0001:00034694       ??$extract_argument_from_va_list@U_CRT_DOUBLE@@U1@@?$positional_parameter_base@_WV?$stream_output_adapter@_W@__crt_stdio_output@@@__crt_stdio_output@@IAE_NAAU_CRT_DOUBLE@@@Z 10035694 f i libucrt:output.obj
 0001:00034745       ??$extract_argument_from_va_list@U_CRT_DOUBLE@@U1@@?$positional_parameter_base@_WV?$string_output_adapter@_W@__crt_stdio_output@@@__crt_stdio_output@@IAE_NAAU_CRT_DOUBLE@@@Z 10035745 f i libucrt:output.obj
 0001:000347f6       ??$extract_argument_from_va_list@U_CRT_DOUBLE@@U1@@?$standard_base@DV?$stream_output_adapter@D@__crt_stdio_output@@@__crt_stdio_output@@IAE_NAAU_CRT_DOUBLE@@@Z 100357f6 f i libucrt:output.obj
 0001:0003481e       ??$extract_argument_from_va_list@U_CRT_DOUBLE@@U1@@?$standard_base@DV?$string_output_adapter@D@__crt_stdio_output@@@__crt_stdio_output@@IAE_NAAU_CRT_DOUBLE@@@Z 1003581e f i libucrt:output.obj
 0001:00034846       ??$extract_argument_from_va_list@U_CRT_DOUBLE@@U1@@?$standard_base@_WV?$stream_output_adapter@_W@__crt_stdio_output@@@__crt_stdio_output@@IAE_NAAU_CRT_DOUBLE@@@Z 10035846 f i libucrt:output.obj
 0001:0003486e       ??$extract_argument_from_va_list@U_CRT_DOUBLE@@U1@@?$standard_base@_WV?$string_output_adapter@_W@__crt_stdio_output@@@__crt_stdio_output@@IAE_NAAU_CRT_DOUBLE@@@Z 1003586e f i libucrt:output.obj
 0001:00034896       ??$extract_argument_from_va_list@_J_J@?$positional_parameter_base@DV?$stream_output_adapter@D@__crt_stdio_output@@@__crt_stdio_output@@IAE_NAA_J@Z 10035896 f i libucrt:output.obj
 0001:00034947       ??$extract_argument_from_va_list@_J_J@?$positional_parameter_base@DV?$string_output_adapter@D@__crt_stdio_output@@@__crt_stdio_output@@IAE_NAA_J@Z 10035947 f i libucrt:output.obj
 0001:000349f8       ??$extract_argument_from_va_list@_J_J@?$positional_parameter_base@_WV?$stream_output_adapter@_W@__crt_stdio_output@@@__crt_stdio_output@@IAE_NAA_J@Z 100359f8 f i libucrt:output.obj
 0001:00034aa9       ??$extract_argument_from_va_list@_J_J@?$positional_parameter_base@_WV?$string_output_adapter@_W@__crt_stdio_output@@@__crt_stdio_output@@IAE_NAA_J@Z 10035aa9 f i libucrt:output.obj
 0001:00034b5a       ??$extract_argument_from_va_list@_J_J@?$standard_base@DV?$stream_output_adapter@D@__crt_stdio_output@@@__crt_stdio_output@@IAE_NAA_J@Z 10035b5a f i libucrt:output.obj
 0001:00034b82       ??$extract_argument_from_va_list@_J_J@?$standard_base@DV?$string_output_adapter@D@__crt_stdio_output@@@__crt_stdio_output@@IAE_NAA_J@Z 10035b82 f i libucrt:output.obj
 0001:00034baa       ??$extract_argument_from_va_list@_J_J@?$standard_base@_WV?$stream_output_adapter@_W@__crt_stdio_output@@@__crt_stdio_output@@IAE_NAA_J@Z 10035baa f i libucrt:output.obj
 0001:00034bd2       ??$extract_argument_from_va_list@_J_J@?$standard_base@_WV?$string_output_adapter@_W@__crt_stdio_output@@@__crt_stdio_output@@IAE_NAA_J@Z 10035bd2 f i libucrt:output.obj
 0001:00034bfa       ??$extract_argument_from_va_list@_K_J@?$positional_parameter_base@DV?$stream_output_adapter@D@__crt_stdio_output@@@__crt_stdio_output@@IAE_NAA_J@Z 10035bfa f i libucrt:output.obj
 0001:00034cab       ??$extract_argument_from_va_list@_K_J@?$positional_parameter_base@DV?$string_output_adapter@D@__crt_stdio_output@@@__crt_stdio_output@@IAE_NAA_J@Z 10035cab f i libucrt:output.obj
 0001:00034d5c       ??$extract_argument_from_va_list@_K_J@?$positional_parameter_base@_WV?$stream_output_adapter@_W@__crt_stdio_output@@@__crt_stdio_output@@IAE_NAA_J@Z 10035d5c f i libucrt:output.obj
 0001:00034e0d       ??$extract_argument_from_va_list@_K_J@?$positional_parameter_base@_WV?$string_output_adapter@_W@__crt_stdio_output@@@__crt_stdio_output@@IAE_NAA_J@Z 10035e0d f i libucrt:output.obj
 0001:00034ebe       ??$extract_argument_from_va_list@_K_J@?$standard_base@DV?$stream_output_adapter@D@__crt_stdio_output@@@__crt_stdio_output@@IAE_NAA_J@Z 10035ebe f i libucrt:output.obj
 0001:00034ee6       ??$extract_argument_from_va_list@_K_J@?$standard_base@DV?$string_output_adapter@D@__crt_stdio_output@@@__crt_stdio_output@@IAE_NAA_J@Z 10035ee6 f i libucrt:output.obj
 0001:00034f0e       ??$extract_argument_from_va_list@_K_J@?$standard_base@_WV?$stream_output_adapter@_W@__crt_stdio_output@@@__crt_stdio_output@@IAE_NAA_J@Z 10035f0e f i libucrt:output.obj
 0001:00034f36       ??$extract_argument_from_va_list@_K_J@?$standard_base@_WV?$string_output_adapter@_W@__crt_stdio_output@@@__crt_stdio_output@@IAE_NAA_J@Z 10035f36 f i libucrt:output.obj
 0001:00034f5e       ??$extract_argument_from_va_list@_W_W@?$positional_parameter_base@DV?$stream_output_adapter@D@__crt_stdio_output@@@__crt_stdio_output@@IAE_NAA_W@Z 10035f5e f i libucrt:output.obj
 0001:00035000       ??$extract_argument_from_va_list@_W_W@?$positional_parameter_base@DV?$string_output_adapter@D@__crt_stdio_output@@@__crt_stdio_output@@IAE_NAA_W@Z 10036000 f i libucrt:output.obj
 0001:000350a2       ??$extract_argument_from_va_list@_W_W@?$positional_parameter_base@_WV?$stream_output_adapter@_W@__crt_stdio_output@@@__crt_stdio_output@@IAE_NAA_W@Z 100360a2 f i libucrt:output.obj
 0001:00035144       ??$extract_argument_from_va_list@_W_W@?$positional_parameter_base@_WV?$string_output_adapter@_W@__crt_stdio_output@@@__crt_stdio_output@@IAE_NAA_W@Z 10036144 f i libucrt:output.obj
 0001:000351e6       ??$extract_argument_from_va_list@_W_W@?$standard_base@DV?$stream_output_adapter@D@__crt_stdio_output@@@__crt_stdio_output@@IAE_NAA_W@Z 100361e6 f i libucrt:output.obj
 0001:00035209       ??$extract_argument_from_va_list@_W_W@?$standard_base@DV?$string_output_adapter@D@__crt_stdio_output@@@__crt_stdio_output@@IAE_NAA_W@Z 10036209 f i libucrt:output.obj
 0001:0003522c       ??$extract_argument_from_va_list@_W_W@?$standard_base@_WV?$stream_output_adapter@_W@__crt_stdio_output@@@__crt_stdio_output@@IAE_NAA_W@Z 1003622c f i libucrt:output.obj
 0001:0003524f       ??$extract_argument_from_va_list@_W_W@?$standard_base@_WV?$string_output_adapter@_W@__crt_stdio_output@@@__crt_stdio_output@@IAE_NAA_W@Z 1003624f f i libucrt:output.obj
 0001:00035272       ??$get_parameter_type@D@?$positional_parameter_base@DV?$stream_output_adapter@D@__crt_stdio_output@@@__crt_stdio_output@@CA?AW4parameter_type@01@PAD@Z 10036272 f i libucrt:output.obj
 0001:00035276       ??$get_parameter_type@D@?$positional_parameter_base@DV?$string_output_adapter@D@__crt_stdio_output@@@__crt_stdio_output@@CA?AW4parameter_type@01@PAD@Z 10036276 f i libucrt:output.obj
 0001:0003527a       ??$get_parameter_type@D@?$positional_parameter_base@_WV?$stream_output_adapter@_W@__crt_stdio_output@@@__crt_stdio_output@@CA?AW4parameter_type@01@PAD@Z 1003627a f i libucrt:output.obj
 0001:0003527e       ??$get_parameter_type@D@?$positional_parameter_base@_WV?$string_output_adapter@_W@__crt_stdio_output@@@__crt_stdio_output@@CA?AW4parameter_type@01@PAD@Z 1003627e f i libucrt:output.obj
 0001:00035282       ??$get_parameter_type@Uansi_string@?1??type_case_Z@?$output_processor@DV?$stream_output_adapter@D@__crt_stdio_output@@V?$positional_parameter_base@DV?$stream_output_adapter@D@__crt_stdio_output@@@2@@__crt_stdio_output@@AAE_NXZ@@?$positional_parameter_base@DV?$stream_output_adapter@D@__crt_stdio_output@@@__crt_stdio_output@@CA?AW4parameter_type@01@PAUansi_string@?1??type_case_Z@?$output_processor@DV?$stream_output_adapter@D@__crt_stdio_output@@V?$positional_parameter_base@DV?$stream_output_adapter@D@__crt_stdio_output@@@2@@1@AAE_NXZ@@Z 10036282 f i libucrt:output.obj
 0001:00035286       ??$get_parameter_type@Uansi_string@?1??type_case_Z@?$output_processor@DV?$string_output_adapter@D@__crt_stdio_output@@V?$positional_parameter_base@DV?$string_output_adapter@D@__crt_stdio_output@@@2@@__crt_stdio_output@@AAE_NXZ@@?$positional_parameter_base@DV?$string_output_adapter@D@__crt_stdio_output@@@__crt_stdio_output@@CA?AW4parameter_type@01@PAUansi_string@?1??type_case_Z@?$output_processor@DV?$string_output_adapter@D@__crt_stdio_output@@V?$positional_parameter_base@DV?$string_output_adapter@D@__crt_stdio_output@@@2@@1@AAE_NXZ@@Z 10036286 f i libucrt:output.obj
 0001:0003528a       ??$get_parameter_type@Uansi_string@?1??type_case_Z@?$output_processor@_WV?$stream_output_adapter@_W@__crt_stdio_output@@V?$positional_parameter_base@_WV?$stream_output_adapter@_W@__crt_stdio_output@@@2@@__crt_stdio_output@@AAE_NXZ@@?$positional_parameter_base@_WV?$stream_output_adapter@_W@__crt_stdio_output@@@__crt_stdio_output@@CA?AW4parameter_type@01@PAUansi_string@?1??type_case_Z@?$output_processor@_WV?$stream_output_adapter@_W@__crt_stdio_output@@V?$positional_parameter_base@_WV?$stream_output_adapter@_W@__crt_stdio_output@@@2@@1@AAE_NXZ@@Z 1003628a f i libucrt:output.obj
 0001:0003528e       ??$get_parameter_type@Uansi_string@?1??type_case_Z@?$output_processor@_WV?$string_output_adapter@_W@__crt_stdio_output@@V?$positional_parameter_base@_WV?$string_output_adapter@_W@__crt_stdio_output@@@2@@__crt_stdio_output@@AAE_NXZ@@?$positional_parameter_base@_WV?$string_output_adapter@_W@__crt_stdio_output@@@__crt_stdio_output@@CA?AW4parameter_type@01@PAUansi_string@?1??type_case_Z@?$output_processor@_WV?$string_output_adapter@_W@__crt_stdio_output@@V?$positional_parameter_base@_WV?$string_output_adapter@_W@__crt_stdio_output@@@2@@1@AAE_NXZ@@Z 1003628e f i libucrt:output.obj
 0001:00035292       ??$get_parameter_type@X@?$positional_parameter_base@DV?$stream_output_adapter@D@__crt_stdio_output@@@__crt_stdio_output@@CA?AW4parameter_type@01@PAX@Z 10036292 f i libucrt:output.obj
 0001:00035296       ??$get_parameter_type@X@?$positional_parameter_base@DV?$string_output_adapter@D@__crt_stdio_output@@@__crt_stdio_output@@CA?AW4parameter_type@01@PAX@Z 10036296 f i libucrt:output.obj
 0001:0003529a       ??$get_parameter_type@X@?$positional_parameter_base@_WV?$stream_output_adapter@_W@__crt_stdio_output@@@__crt_stdio_output@@CA?AW4parameter_type@01@PAX@Z 1003629a f i libucrt:output.obj
 0001:0003529e       ??$get_parameter_type@X@?$positional_parameter_base@_WV?$string_output_adapter@_W@__crt_stdio_output@@@__crt_stdio_output@@CA?AW4parameter_type@01@PAX@Z 1003629e f i libucrt:output.obj
 0001:000352a2       ??$is_character_specifier@D@?$positional_parameter_base@DV?$stream_output_adapter@D@__crt_stdio_output@@@__crt_stdio_output@@CA_ND@Z 100362a2 f i libucrt:output.obj
 0001:000352c1       ??$is_character_specifier@D@?$positional_parameter_base@DV?$string_output_adapter@D@__crt_stdio_output@@@__crt_stdio_output@@CA_ND@Z 100362c1 f i libucrt:output.obj
 0001:000352e0       ??$is_character_specifier@_W@?$positional_parameter_base@_WV?$stream_output_adapter@_W@__crt_stdio_output@@@__crt_stdio_output@@CA_N_W@Z 100362e0 f i libucrt:output.obj
 0001:00035303       ??$is_character_specifier@_W@?$positional_parameter_base@_WV?$string_output_adapter@_W@__crt_stdio_output@@@__crt_stdio_output@@CA_N_W@Z 10036303 f i libucrt:output.obj
 0001:00035326       ??$is_integral_specifier@D@?$positional_parameter_base@DV?$stream_output_adapter@D@__crt_stdio_output@@@__crt_stdio_output@@CA_ND@Z 10036326 f i libucrt:output.obj
 0001:0003535e       ??$is_integral_specifier@D@?$positional_parameter_base@DV?$string_output_adapter@D@__crt_stdio_output@@@__crt_stdio_output@@CA_ND@Z 1003635e f i libucrt:output.obj
 0001:00035396       ??$is_integral_specifier@_W@?$positional_parameter_base@_WV?$stream_output_adapter@_W@__crt_stdio_output@@@__crt_stdio_output@@CA_N_W@Z 10036396 f i libucrt:output.obj
 0001:000353e1       ??$is_integral_specifier@_W@?$positional_parameter_base@_WV?$string_output_adapter@_W@__crt_stdio_output@@@__crt_stdio_output@@CA_N_W@Z 100363e1 f i libucrt:output.obj
 0001:0003542c       ??$is_pointer_specifier@D@?$positional_parameter_base@DV?$stream_output_adapter@D@__crt_stdio_output@@@__crt_stdio_output@@CA_ND@Z 1003642c f i libucrt:output.obj
 0001:00035440       ??$is_pointer_specifier@D@?$positional_parameter_base@DV?$string_output_adapter@D@__crt_stdio_output@@@__crt_stdio_output@@CA_ND@Z 10036440 f i libucrt:output.obj
 0001:00035454       ??$is_pointer_specifier@_W@?$positional_parameter_base@_WV?$stream_output_adapter@_W@__crt_stdio_output@@@__crt_stdio_output@@CA_N_W@Z 10036454 f i libucrt:output.obj
 0001:00035469       ??$is_pointer_specifier@_W@?$positional_parameter_base@_WV?$string_output_adapter@_W@__crt_stdio_output@@@__crt_stdio_output@@CA_N_W@Z 10036469 f i libucrt:output.obj
 0001:0003547e       ??$is_string_specifier@D@?$positional_parameter_base@DV?$stream_output_adapter@D@__crt_stdio_output@@@__crt_stdio_output@@CA_ND@Z 1003647e f i libucrt:output.obj
 0001:0003549d       ??$is_string_specifier@D@?$positional_parameter_base@DV?$string_output_adapter@D@__crt_stdio_output@@@__crt_stdio_output@@CA_ND@Z 1003649d f i libucrt:output.obj
 0001:000354bc       ??$is_string_specifier@_W@?$positional_parameter_base@_WV?$stream_output_adapter@_W@__crt_stdio_output@@@__crt_stdio_output@@CA_N_W@Z 100364bc f i libucrt:output.obj
 0001:000354df       ??$is_string_specifier@_W@?$positional_parameter_base@_WV?$string_output_adapter@_W@__crt_stdio_output@@@__crt_stdio_output@@CA_N_W@Z 100364df f i libucrt:output.obj
 0001:00035502       ??$is_wide_character_specifier@D@__crt_stdio_output@@YA_N_KDW4length_modifier@0@@Z 10036502 f i libucrt:output.obj
 0001:00035552       ??$is_wide_character_specifier@_W@__crt_stdio_output@@YA_N_K_WW4length_modifier@0@@Z 10036552 f i libucrt:output.obj
 0001:000355b4       ??$peek_va_arg@C@__crt_stdio_output@@YACPAD@Z 100365b4 f i libucrt:output.obj
 0001:000355c3       ??$peek_va_arg@E@__crt_stdio_output@@YAEPAD@Z 100365c3 f i libucrt:output.obj
 0001:000355d2       ??$peek_va_arg@F@__crt_stdio_output@@YAFPAD@Z 100365d2 f i libucrt:output.obj
 0001:000355e2       ??$peek_va_arg@G@__crt_stdio_output@@YAGPAD@Z 100365e2 f i libucrt:output.obj
 0001:000355f2       ??$peek_va_arg@H@__crt_stdio_output@@YAHPAD@Z 100365f2 f i libucrt:output.obj
 0001:00035601       ??$peek_va_arg@I@__crt_stdio_output@@YAIPAD@Z 10036601 f i libucrt:output.obj
 0001:00035610       ??$peek_va_arg@PAD@__crt_stdio_output@@YAPADPAD@Z 10036610 f i libucrt:output.obj
 0001:0003561f       ??$peek_va_arg@PAUansi_string@?1??type_case_Z@?$output_processor@DV?$stream_output_adapter@D@__crt_stdio_output@@V?$positional_parameter_base@DV?$stream_output_adapter@D@__crt_stdio_output@@@2@@__crt_stdio_output@@AAE_NXZ@@__crt_stdio_output@@YAPAUansi_string@?1??type_case_Z@?$output_processor@DV?$stream_output_adapter@D@__crt_stdio_output@@V?$positional_parameter_base@DV?$stream_output_adapter@D@__crt_stdio_output@@@2@@0@AAE_NXZ@PAD@Z 1003661f f i libucrt:output.obj
 0001:0003562e       ??$peek_va_arg@PAUansi_string@?1??type_case_Z@?$output_processor@DV?$string_output_adapter@D@__crt_stdio_output@@V?$positional_parameter_base@DV?$string_output_adapter@D@__crt_stdio_output@@@2@@__crt_stdio_output@@AAE_NXZ@@__crt_stdio_output@@YAPAUansi_string@?1??type_case_Z@?$output_processor@DV?$string_output_adapter@D@__crt_stdio_output@@V?$positional_parameter_base@DV?$string_output_adapter@D@__crt_stdio_output@@@2@@0@AAE_NXZ@PAD@Z 1003662e f i libucrt:output.obj
 0001:0003563d       ??$peek_va_arg@PAUansi_string@?1??type_case_Z@?$output_processor@_WV?$stream_output_adapter@_W@__crt_stdio_output@@V?$positional_parameter_base@_WV?$stream_output_adapter@_W@__crt_stdio_output@@@2@@__crt_stdio_output@@AAE_NXZ@@__crt_stdio_output@@YAPAUansi_string@?1??type_case_Z@?$output_processor@_WV?$stream_output_adapter@_W@__crt_stdio_output@@V?$positional_parameter_base@_WV?$stream_output_adapter@_W@__crt_stdio_output@@@2@@0@AAE_NXZ@PAD@Z 1003663d f i libucrt:output.obj
 0001:0003564c       ??$peek_va_arg@PAUansi_string@?1??type_case_Z@?$output_processor@_WV?$string_output_adapter@_W@__crt_stdio_output@@V?$positional_parameter_base@_WV?$string_output_adapter@_W@__crt_stdio_output@@@2@@__crt_stdio_output@@AAE_NXZ@@__crt_stdio_output@@YAPAUansi_string@?1??type_case_Z@?$output_processor@_WV?$string_output_adapter@_W@__crt_stdio_output@@V?$positional_parameter_base@_WV?$string_output_adapter@_W@__crt_stdio_output@@@2@@0@AAE_NXZ@PAD@Z 1003664c f i libucrt:output.obj
 0001:0003565b       ??$peek_va_arg@PAX@__crt_stdio_output@@YAPAXPAD@Z 1003665b f i libucrt:output.obj
 0001:0003566a       ??$peek_va_arg@U_CRT_DOUBLE@@@__crt_stdio_output@@YA?AU_CRT_DOUBLE@@PAD@Z 1003666a f i libucrt:output.obj
 0001:0003567c       ??$peek_va_arg@_J@__crt_stdio_output@@YA_JPAD@Z 1003667c f i libucrt:output.obj
 0001:0003568e       ??$peek_va_arg@_K@__crt_stdio_output@@YA_KPAD@Z 1003668e f i libucrt:output.obj
 0001:000356a0       ??$peek_va_arg@_W@__crt_stdio_output@@YA_WPAD@Z 100366a0 f i libucrt:output.obj
 0001:000356b0       ??$puttc_nolock@ABDPAU_iobuf@@@?$__crt_char_traits@D@@SAHABD$$QAPAU_iobuf@@@Z 100366b0 f i libucrt:output.obj
 0001:000356d0       ??$puttc_nolock@AB_WPAU_iobuf@@@?$__crt_char_traits@_W@@SAGAB_W$$QAPAU_iobuf@@@Z 100366d0 f i libucrt:output.obj
 0001:000356f0       ??$read_va_arg@C@__crt_stdio_output@@YACAAPAD@Z 100366f0 f i libucrt:output.obj
 0001:00035706       ??$read_va_arg@E@__crt_stdio_output@@YAEAAPAD@Z 10036706 f i libucrt:output.obj
 0001:0003571c       ??$read_va_arg@F@__crt_stdio_output@@YAFAAPAD@Z 1003671c f i libucrt:output.obj
 0001:00035733       ??$read_va_arg@G@__crt_stdio_output@@YAGAAPAD@Z 10036733 f i libucrt:output.obj
 0001:0003574a       ??$read_va_arg@H@__crt_stdio_output@@YAHAAPAD@Z 1003674a f i libucrt:output.obj
 0001:00035760       ??$read_va_arg@I@__crt_stdio_output@@YAIAAPAD@Z 10036760 f i libucrt:output.obj
 0001:00035776       ??$read_va_arg@PAD@__crt_stdio_output@@YAPADAAPAD@Z 10036776 f i libucrt:output.obj
 0001:0003578c       ??$read_va_arg@PAUansi_string@?1??type_case_Z@?$output_processor@DV?$stream_output_adapter@D@__crt_stdio_output@@V?$format_validation_base@DV?$stream_output_adapter@D@__crt_stdio_output@@@2@@__crt_stdio_output@@AAE_NXZ@@__crt_stdio_output@@YAPAUansi_string@?1??type_case_Z@?$output_processor@DV?$stream_output_adapter@D@__crt_stdio_output@@V?$format_validation_base@DV?$stream_output_adapter@D@__crt_stdio_output@@@2@@0@AAE_NXZ@AAPAD@Z 1003678c f i libucrt:output.obj
 0001:000357a2       ??$read_va_arg@PAUansi_string@?1??type_case_Z@?$output_processor@DV?$stream_output_adapter@D@__crt_stdio_output@@V?$positional_parameter_base@DV?$stream_output_adapter@D@__crt_stdio_output@@@2@@__crt_stdio_output@@AAE_NXZ@@__crt_stdio_output@@YAPAUansi_string@?1??type_case_Z@?$output_processor@DV?$stream_output_adapter@D@__crt_stdio_output@@V?$positional_parameter_base@DV?$stream_output_adapter@D@__crt_stdio_output@@@2@@0@AAE_NXZ@AAPAD@Z 100367a2 f i libucrt:output.obj
 0001:000357b8       ??$read_va_arg@PAUansi_string@?1??type_case_Z@?$output_processor@DV?$stream_output_adapter@D@__crt_stdio_output@@V?$standard_base@DV?$stream_output_adapter@D@__crt_stdio_output@@@2@@__crt_stdio_output@@AAE_NXZ@@__crt_stdio_output@@YAPAUansi_string@?1??type_case_Z@?$output_processor@DV?$stream_output_adapter@D@__crt_stdio_output@@V?$standard_base@DV?$stream_output_adapter@D@__crt_stdio_output@@@2@@0@AAE_NXZ@AAPAD@Z 100367b8 f i libucrt:output.obj
 0001:000357ce       ??$read_va_arg@PAUansi_string@?1??type_case_Z@?$output_processor@DV?$string_output_adapter@D@__crt_stdio_output@@V?$format_validation_base@DV?$string_output_adapter@D@__crt_stdio_output@@@2@@__crt_stdio_output@@AAE_NXZ@@__crt_stdio_output@@YAPAUansi_string@?1??type_case_Z@?$output_processor@DV?$string_output_adapter@D@__crt_stdio_output@@V?$format_validation_base@DV?$string_output_adapter@D@__crt_stdio_output@@@2@@0@AAE_NXZ@AAPAD@Z 100367ce f i libucrt:output.obj
 0001:000357e4       ??$read_va_arg@PAUansi_string@?1??type_case_Z@?$output_processor@DV?$string_output_adapter@D@__crt_stdio_output@@V?$positional_parameter_base@DV?$string_output_adapter@D@__crt_stdio_output@@@2@@__crt_stdio_output@@AAE_NXZ@@__crt_stdio_output@@YAPAUansi_string@?1??type_case_Z@?$output_processor@DV?$string_output_adapter@D@__crt_stdio_output@@V?$positional_parameter_base@DV?$string_output_adapter@D@__crt_stdio_output@@@2@@0@AAE_NXZ@AAPAD@Z 100367e4 f i libucrt:output.obj
 0001:000357fa       ??$read_va_arg@PAUansi_string@?1??type_case_Z@?$output_processor@DV?$string_output_adapter@D@__crt_stdio_output@@V?$standard_base@DV?$string_output_adapter@D@__crt_stdio_output@@@2@@__crt_stdio_output@@AAE_NXZ@@__crt_stdio_output@@YAPAUansi_string@?1??type_case_Z@?$output_processor@DV?$string_output_adapter@D@__crt_stdio_output@@V?$standard_base@DV?$string_output_adapter@D@__crt_stdio_output@@@2@@0@AAE_NXZ@AAPAD@Z 100367fa f i libucrt:output.obj
 0001:00035810       ??$read_va_arg@PAUansi_string@?1??type_case_Z@?$output_processor@_WV?$stream_output_adapter@_W@__crt_stdio_output@@V?$format_validation_base@_WV?$stream_output_adapter@_W@__crt_stdio_output@@@2@@__crt_stdio_output@@AAE_NXZ@@__crt_stdio_output@@YAPAUansi_string@?1??type_case_Z@?$output_processor@_WV?$stream_output_adapter@_W@__crt_stdio_output@@V?$format_validation_base@_WV?$stream_output_adapter@_W@__crt_stdio_output@@@2@@0@AAE_NXZ@AAPAD@Z 10036810 f i libucrt:output.obj
 0001:00035826       ??$read_va_arg@PAUansi_string@?1??type_case_Z@?$output_processor@_WV?$stream_output_adapter@_W@__crt_stdio_output@@V?$positional_parameter_base@_WV?$stream_output_adapter@_W@__crt_stdio_output@@@2@@__crt_stdio_output@@AAE_NXZ@@__crt_stdio_output@@YAPAUansi_string@?1??type_case_Z@?$output_processor@_WV?$stream_output_adapter@_W@__crt_stdio_output@@V?$positional_parameter_base@_WV?$stream_output_adapter@_W@__crt_stdio_output@@@2@@0@AAE_NXZ@AAPAD@Z 10036826 f i libucrt:output.obj
 0001:0003583c       ??$read_va_arg@PAUansi_string@?1??type_case_Z@?$output_processor@_WV?$stream_output_adapter@_W@__crt_stdio_output@@V?$standard_base@_WV?$stream_output_adapter@_W@__crt_stdio_output@@@2@@__crt_stdio_output@@AAE_NXZ@@__crt_stdio_output@@YAPAUansi_string@?1??type_case_Z@?$output_processor@_WV?$stream_output_adapter@_W@__crt_stdio_output@@V?$standard_base@_WV?$stream_output_adapter@_W@__crt_stdio_output@@@2@@0@AAE_NXZ@AAPAD@Z 1003683c f i libucrt:output.obj
 0001:00035852       ??$read_va_arg@PAUansi_string@?1??type_case_Z@?$output_processor@_WV?$string_output_adapter@_W@__crt_stdio_output@@V?$format_validation_base@_WV?$string_output_adapter@_W@__crt_stdio_output@@@2@@__crt_stdio_output@@AAE_NXZ@@__crt_stdio_output@@YAPAUansi_string@?1??type_case_Z@?$output_processor@_WV?$string_output_adapter@_W@__crt_stdio_output@@V?$format_validation_base@_WV?$string_output_adapter@_W@__crt_stdio_output@@@2@@0@AAE_NXZ@AAPAD@Z 10036852 f i libucrt:output.obj
 0001:00035868       ??$read_va_arg@PAUansi_string@?1??type_case_Z@?$output_processor@_WV?$string_output_adapter@_W@__crt_stdio_output@@V?$positional_parameter_base@_WV?$string_output_adapter@_W@__crt_stdio_output@@@2@@__crt_stdio_output@@AAE_NXZ@@__crt_stdio_output@@YAPAUansi_string@?1??type_case_Z@?$output_processor@_WV?$string_output_adapter@_W@__crt_stdio_output@@V?$positional_parameter_base@_WV?$string_output_adapter@_W@__crt_stdio_output@@@2@@0@AAE_NXZ@AAPAD@Z 10036868 f i libucrt:output.obj
 0001:0003587e       ??$read_va_arg@PAUansi_string@?1??type_case_Z@?$output_processor@_WV?$string_output_adapter@_W@__crt_stdio_output@@V?$standard_base@_WV?$string_output_adapter@_W@__crt_stdio_output@@@2@@__crt_stdio_output@@AAE_NXZ@@__crt_stdio_output@@YAPAUansi_string@?1??type_case_Z@?$output_processor@_WV?$string_output_adapter@_W@__crt_stdio_output@@V?$standard_base@_WV?$string_output_adapter@_W@__crt_stdio_output@@@2@@0@AAE_NXZ@AAPAD@Z 1003687e f i libucrt:output.obj
 0001:00035894       ??$read_va_arg@PAX@__crt_stdio_output@@YAPAXAAPAD@Z 10036894 f i libucrt:output.obj
 0001:000358aa       ??$read_va_arg@U_CRT_DOUBLE@@@__crt_stdio_output@@YA?AU_CRT_DOUBLE@@AAPAD@Z 100368aa f i libucrt:output.obj
 0001:000358c4       ??$read_va_arg@_J@__crt_stdio_output@@YA_JAAPAD@Z 100368c4 f i libucrt:output.obj
 0001:000358de       ??$read_va_arg@_K@__crt_stdio_output@@YA_KAAPAD@Z 100368de f i libucrt:output.obj
 0001:000358f8       ??$read_va_arg@_W@__crt_stdio_output@@YA_WAAPAD@Z 100368f8 f i libucrt:output.obj
 0001:0003590f       ??$scratch_count@D@formatting_buffer@__crt_stdio_output@@QBEIXZ 1003690f f i libucrt:output.obj
 0001:00035914       ??$scratch_data@D@formatting_buffer@__crt_stdio_output@@QAEPADXZ 10036914 f i libucrt:output.obj
 0001:00035939       ??$tcstol@AAPBDPAPADH@?$__crt_char_traits@D@@SAJAAPBD$$QAPAPAD$$QAH@Z 10036939 f i libucrt:output.obj
 0001:0003595e       ??$tcstol@AAPB_WPAPA_WH@?$__crt_char_traits@_W@@SAJAAPB_W$$QAPAPA_W$$QAH@Z 1003695e f i libucrt:output.obj
 0001:00035983       ??$tcstol@PBDPAPADH@?$__crt_char_traits@D@@SAJ$$QAPBD$$QAPAPAD$$QAH@Z 10036983 f i libucrt:output.obj
 0001:000359a8       ??$tcstol@PB_WPAPA_WH@?$__crt_char_traits@_W@@SAJ$$QAPB_W$$QAPAPA_W$$QAH@Z 100369a8 f i libucrt:output.obj
 0001:000359cd       ??$type_case_integer_parse_into_buffer@I@?$output_processor@DV?$stream_output_adapter@D@__crt_stdio_output@@V?$format_validation_base@DV?$stream_output_adapter@D@__crt_stdio_output@@@2@@__crt_stdio_output@@AAEXII_N@Z 100369cd f i libucrt:output.obj
 0001:00035a5f       ??$type_case_integer_parse_into_buffer@I@?$output_processor@DV?$stream_output_adapter@D@__crt_stdio_output@@V?$positional_parameter_base@DV?$stream_output_adapter@D@__crt_stdio_output@@@2@@__crt_stdio_output@@AAEXII_N@Z 10036a5f f i libucrt:output.obj
 0001:00035af1       ??$type_case_integer_parse_into_buffer@I@?$output_processor@DV?$stream_output_adapter@D@__crt_stdio_output@@V?$standard_base@DV?$stream_output_adapter@D@__crt_stdio_output@@@2@@__crt_stdio_output@@AAEXII_N@Z 10036af1 f i libucrt:output.obj
 0001:00035b83       ??$type_case_integer_parse_into_buffer@I@?$output_processor@DV?$string_output_adapter@D@__crt_stdio_output@@V?$format_validation_base@DV?$string_output_adapter@D@__crt_stdio_output@@@2@@__crt_stdio_output@@AAEXII_N@Z 10036b83 f i libucrt:output.obj
 0001:00035c15       ??$type_case_integer_parse_into_buffer@I@?$output_processor@DV?$string_output_adapter@D@__crt_stdio_output@@V?$positional_parameter_base@DV?$string_output_adapter@D@__crt_stdio_output@@@2@@__crt_stdio_output@@AAEXII_N@Z 10036c15 f i libucrt:output.obj
 0001:00035ca7       ??$type_case_integer_parse_into_buffer@I@?$output_processor@DV?$string_output_adapter@D@__crt_stdio_output@@V?$standard_base@DV?$string_output_adapter@D@__crt_stdio_output@@@2@@__crt_stdio_output@@AAEXII_N@Z 10036ca7 f i libucrt:output.obj
 0001:00035d39       ??$type_case_integer_parse_into_buffer@I@?$output_processor@_WV?$stream_output_adapter@_W@__crt_stdio_output@@V?$format_validation_base@_WV?$stream_output_adapter@_W@__crt_stdio_output@@@2@@__crt_stdio_output@@AAEXII_N@Z 10036d39 f i libucrt:output.obj
 0001:00035dcb       ??$type_case_integer_parse_into_buffer@I@?$output_processor@_WV?$stream_output_adapter@_W@__crt_stdio_output@@V?$positional_parameter_base@_WV?$stream_output_adapter@_W@__crt_stdio_output@@@2@@__crt_stdio_output@@AAEXII_N@Z 10036dcb f i libucrt:output.obj
 0001:00035e5d       ??$type_case_integer_parse_into_buffer@I@?$output_processor@_WV?$stream_output_adapter@_W@__crt_stdio_output@@V?$standard_base@_WV?$stream_output_adapter@_W@__crt_stdio_output@@@2@@__crt_stdio_output@@AAEXII_N@Z 10036e5d f i libucrt:output.obj
 0001:00035eef       ??$type_case_integer_parse_into_buffer@I@?$output_processor@_WV?$string_output_adapter@_W@__crt_stdio_output@@V?$format_validation_base@_WV?$string_output_adapter@_W@__crt_stdio_output@@@2@@__crt_stdio_output@@AAEXII_N@Z 10036eef f i libucrt:output.obj
 0001:00035f81       ??$type_case_integer_parse_into_buffer@I@?$output_processor@_WV?$string_output_adapter@_W@__crt_stdio_output@@V?$positional_parameter_base@_WV?$string_output_adapter@_W@__crt_stdio_output@@@2@@__crt_stdio_output@@AAEXII_N@Z 10036f81 f i libucrt:output.obj
 0001:00036013       ??$type_case_integer_parse_into_buffer@I@?$output_processor@_WV?$string_output_adapter@_W@__crt_stdio_output@@V?$standard_base@_WV?$string_output_adapter@_W@__crt_stdio_output@@@2@@__crt_stdio_output@@AAEXII_N@Z 10037013 f i libucrt:output.obj
 0001:000360a5       ??$type_case_integer_parse_into_buffer@_K@?$output_processor@DV?$stream_output_adapter@D@__crt_stdio_output@@V?$format_validation_base@DV?$stream_output_adapter@D@__crt_stdio_output@@@2@@__crt_stdio_output@@AAEX_KI_N@Z 100370a5 f i libucrt:output.obj
 0001:0003614f       ??$type_case_integer_parse_into_buffer@_K@?$output_processor@DV?$stream_output_adapter@D@__crt_stdio_output@@V?$positional_parameter_base@DV?$stream_output_adapter@D@__crt_stdio_output@@@2@@__crt_stdio_output@@AAEX_KI_N@Z 1003714f f i libucrt:output.obj
 0001:000361f9       ??$type_case_integer_parse_into_buffer@_K@?$output_processor@DV?$stream_output_adapter@D@__crt_stdio_output@@V?$standard_base@DV?$stream_output_adapter@D@__crt_stdio_output@@@2@@__crt_stdio_output@@AAEX_KI_N@Z 100371f9 f i libucrt:output.obj
 0001:000362a3       ??$type_case_integer_parse_into_buffer@_K@?$output_processor@DV?$string_output_adapter@D@__crt_stdio_output@@V?$format_validation_base@DV?$string_output_adapter@D@__crt_stdio_output@@@2@@__crt_stdio_output@@AAEX_KI_N@Z 100372a3 f i libucrt:output.obj
 0001:0003634d       ??$type_case_integer_parse_into_buffer@_K@?$output_processor@DV?$string_output_adapter@D@__crt_stdio_output@@V?$positional_parameter_base@DV?$string_output_adapter@D@__crt_stdio_output@@@2@@__crt_stdio_output@@AAEX_KI_N@Z 1003734d f i libucrt:output.obj
 0001:000363f7       ??$type_case_integer_parse_into_buffer@_K@?$output_processor@DV?$string_output_adapter@D@__crt_stdio_output@@V?$standard_base@DV?$string_output_adapter@D@__crt_stdio_output@@@2@@__crt_stdio_output@@AAEX_KI_N@Z 100373f7 f i libucrt:output.obj
 0001:000364a1       ??$type_case_integer_parse_into_buffer@_K@?$output_processor@_WV?$stream_output_adapter@_W@__crt_stdio_output@@V?$format_validation_base@_WV?$stream_output_adapter@_W@__crt_stdio_output@@@2@@__crt_stdio_output@@AAEX_KI_N@Z 100374a1 f i libucrt:output.obj
 0001:0003654b       ??$type_case_integer_parse_into_buffer@_K@?$output_processor@_WV?$stream_output_adapter@_W@__crt_stdio_output@@V?$positional_parameter_base@_WV?$stream_output_adapter@_W@__crt_stdio_output@@@2@@__crt_stdio_output@@AAEX_KI_N@Z 1003754b f i libucrt:output.obj
 0001:000365f5       ??$type_case_integer_parse_into_buffer@_K@?$output_processor@_WV?$stream_output_adapter@_W@__crt_stdio_output@@V?$standard_base@_WV?$stream_output_adapter@_W@__crt_stdio_output@@@2@@__crt_stdio_output@@AAEX_KI_N@Z 100375f5 f i libucrt:output.obj
 0001:0003669f       ??$type_case_integer_parse_into_buffer@_K@?$output_processor@_WV?$string_output_adapter@_W@__crt_stdio_output@@V?$format_validation_base@_WV?$string_output_adapter@_W@__crt_stdio_output@@@2@@__crt_stdio_output@@AAEX_KI_N@Z 1003769f f i libucrt:output.obj
 0001:00036749       ??$type_case_integer_parse_into_buffer@_K@?$output_processor@_WV?$string_output_adapter@_W@__crt_stdio_output@@V?$positional_parameter_base@_WV?$string_output_adapter@_W@__crt_stdio_output@@@2@@__crt_stdio_output@@AAEX_KI_N@Z 10037749 f i libucrt:output.obj
 0001:000367f3       ??$type_case_integer_parse_into_buffer@_K@?$output_processor@_WV?$string_output_adapter@_W@__crt_stdio_output@@V?$standard_base@_WV?$string_output_adapter@_W@__crt_stdio_output@@@2@@__crt_stdio_output@@AAEX_KI_N@Z 100377f3 f i libucrt:output.obj
 0001:0003689d       ??$write_multiple_characters@V?$stream_output_adapter@D@__crt_stdio_output@@D@__crt_stdio_output@@YAXABV?$stream_output_adapter@D@0@DHQAH@Z 1003789d f i libucrt:output.obj
 0001:000368d4       ??$write_multiple_characters@V?$stream_output_adapter@_W@__crt_stdio_output@@D@__crt_stdio_output@@YAXABV?$stream_output_adapter@_W@0@DHQAH@Z 100378d4 f i libucrt:output.obj
 0001:00036911       ??$write_multiple_characters@V?$string_output_adapter@D@__crt_stdio_output@@D@__crt_stdio_output@@YAXABV?$string_output_adapter@D@0@DHQAH@Z 10037911 f i libucrt:output.obj
 0001:00036948       ??$write_multiple_characters@V?$string_output_adapter@_W@__crt_stdio_output@@D@__crt_stdio_output@@YAXABV?$string_output_adapter@_W@0@DHQAH@Z 10037948 f i libucrt:output.obj
 0001:00036bb9       ??0?$common_data@D@__crt_stdio_output@@IAE@XZ 10037bb9 f i libucrt:output.obj
 0001:00036c11       ??0?$common_data@_W@__crt_stdio_output@@IAE@XZ 10037c11 f i libucrt:output.obj
 0001:00036c70       ??0?$output_adapter_data@DV?$stream_output_adapter@D@__crt_stdio_output@@@__crt_stdio_output@@IAE@ABV?$stream_output_adapter@D@1@_KQBDQAU__crt_locale_pointers@@QAD@Z 10037c70 f i libucrt:output.obj
 0001:00036cbb       ??0?$output_adapter_data@DV?$string_output_adapter@D@__crt_stdio_output@@@__crt_stdio_output@@IAE@ABV?$string_output_adapter@D@1@_KQBDQAU__crt_locale_pointers@@QAD@Z 10037cbb f i libucrt:output.obj
 0001:00036d06       ??0?$output_adapter_data@_WV?$stream_output_adapter@_W@__crt_stdio_output@@@__crt_stdio_output@@IAE@ABV?$stream_output_adapter@_W@1@_KQB_WQAU__crt_locale_pointers@@QAD@Z 10037d06 f i libucrt:output.obj
 0001:00036d51       ??0?$output_adapter_data@_WV?$string_output_adapter@_W@__crt_stdio_output@@@__crt_stdio_output@@IAE@ABV?$string_output_adapter@_W@1@_KQB_WQAU__crt_locale_pointers@@QAD@Z 10037d51 f i libucrt:output.obj
 0001:00036d9c       ??0?$output_processor@DV?$stream_output_adapter@D@__crt_stdio_output@@V?$format_validation_base@DV?$stream_output_adapter@D@__crt_stdio_output@@@2@@__crt_stdio_output@@QAE@ABV?$stream_output_adapter@D@1@_KQBDQAU__crt_locale_pointers@@QAD@Z 10037d9c f i libucrt:output.obj
 0001:00036dde       ??0?$output_processor@DV?$stream_output_adapter@D@__crt_stdio_output@@V?$positional_parameter_base@DV?$stream_output_adapter@D@__crt_stdio_output@@@2@@__crt_stdio_output@@QAE@ABV?$stream_output_adapter@D@1@_KQBDQAU__crt_locale_pointers@@QAD@Z 10037dde f i libucrt:output.obj
 0001:00036e18       ??0?$output_processor@DV?$stream_output_adapter@D@__crt_stdio_output@@V?$standard_base@DV?$stream_output_adapter@D@__crt_stdio_output@@@2@@__crt_stdio_output@@QAE@ABV?$stream_output_adapter@D@1@_KQBDQAU__crt_locale_pointers@@QAD@Z 10037e18 f i libucrt:output.obj
 0001:00036e5a       ??0?$output_processor@DV?$string_output_adapter@D@__crt_stdio_output@@V?$format_validation_base@DV?$string_output_adapter@D@__crt_stdio_output@@@2@@__crt_stdio_output@@QAE@ABV?$string_output_adapter@D@1@_KQBDQAU__crt_locale_pointers@@QAD@Z 10037e5a f i libucrt:output.obj
 0001:00036e9c       ??0?$output_processor@DV?$string_output_adapter@D@__crt_stdio_output@@V?$positional_parameter_base@DV?$string_output_adapter@D@__crt_stdio_output@@@2@@__crt_stdio_output@@QAE@ABV?$string_output_adapter@D@1@_KQBDQAU__crt_locale_pointers@@QAD@Z 10037e9c f i libucrt:output.obj
 0001:00036ed6       ??0?$output_processor@DV?$string_output_adapter@D@__crt_stdio_output@@V?$standard_base@DV?$string_output_adapter@D@__crt_stdio_output@@@2@@__crt_stdio_output@@QAE@ABV?$string_output_adapter@D@1@_KQBDQAU__crt_locale_pointers@@QAD@Z 10037ed6 f i libucrt:output.obj
 0001:00036f18       ??0?$output_processor@_WV?$stream_output_adapter@_W@__crt_stdio_output@@V?$format_validation_base@_WV?$stream_output_adapter@_W@__crt_stdio_output@@@2@@__crt_stdio_output@@QAE@ABV?$stream_output_adapter@_W@1@_KQB_WQAU__crt_locale_pointers@@QAD@Z 10037f18 f i libucrt:output.obj
 0001:00036f5a       ??0?$output_processor@_WV?$stream_output_adapter@_W@__crt_stdio_output@@V?$positional_parameter_base@_WV?$stream_output_adapter@_W@__crt_stdio_output@@@2@@__crt_stdio_output@@QAE@ABV?$stream_output_adapter@_W@1@_KQB_WQAU__crt_locale_pointers@@QAD@Z 10037f5a f i libucrt:output.obj
 0001:00036f94       ??0?$output_processor@_WV?$stream_output_adapter@_W@__crt_stdio_output@@V?$standard_base@_WV?$stream_output_adapter@_W@__crt_stdio_output@@@2@@__crt_stdio_output@@QAE@ABV?$stream_output_adapter@_W@1@_KQB_WQAU__crt_locale_pointers@@QAD@Z 10037f94 f i libucrt:output.obj
 0001:00036fd6       ??0?$output_processor@_WV?$string_output_adapter@_W@__crt_stdio_output@@V?$format_validation_base@_WV?$string_output_adapter@_W@__crt_stdio_output@@@2@@__crt_stdio_output@@QAE@ABV?$string_output_adapter@_W@1@_KQB_WQAU__crt_locale_pointers@@QAD@Z 10037fd6 f i libucrt:output.obj
 0001:00037018       ??0?$output_processor@_WV?$string_output_adapter@_W@__crt_stdio_output@@V?$positional_parameter_base@_WV?$string_output_adapter@_W@__crt_stdio_output@@@2@@__crt_stdio_output@@QAE@ABV?$string_output_adapter@_W@1@_KQB_WQAU__crt_locale_pointers@@QAD@Z 10038018 f i libucrt:output.obj
 0001:00037052       ??0?$output_processor@_WV?$string_output_adapter@_W@__crt_stdio_output@@V?$standard_base@_WV?$string_output_adapter@_W@__crt_stdio_output@@@2@@__crt_stdio_output@@QAE@ABV?$string_output_adapter@_W@1@_KQB_WQAU__crt_locale_pointers@@QAD@Z 10038052 f i libucrt:output.obj
 0001:00037094       ??0?$stream_output_adapter@D@__crt_stdio_output@@QAE@QAU_iobuf@@@Z 10038094 f i libucrt:output.obj
 0001:000370a8       ??0?$stream_output_adapter@_W@__crt_stdio_output@@QAE@QAU_iobuf@@@Z 100380a8 f i libucrt:output.obj
 0001:000370bc       ??0?$string_output_adapter@D@__crt_stdio_output@@QAE@QAU?$string_output_adapter_context@D@1@@Z 100380bc f i libucrt:output.obj
 0001:000370d0       ??0?$string_output_adapter@_W@__crt_stdio_output@@QAE@QAU?$string_output_adapter_context@_W@1@@Z 100380d0 f i libucrt:output.obj
 0001:000370e4       ??0_LocaleUpdate@@QAE@QAU__crt_locale_pointers@@@Z 100380e4 f i libucrt:output.obj
 0001:00037187       ??0__acrt_stdio_temporary_buffering_guard@@QAE@QAU_iobuf@@@Z 10038187 f i libucrt:output.obj
 0001:000371ac       ??0__crt_errno_guard@@QAE@QAH@Z 100381ac f i libucrt:output.obj
 0001:000371ca       ??0formatting_buffer@__crt_stdio_output@@QAE@XZ 100381ca f i libucrt:output.obj
 0001:000371df       ??1?$common_data@D@__crt_stdio_output@@QAE@XZ 100381df f i libucrt:output.obj
 0001:000371e9       ??1?$common_data@_W@__crt_stdio_output@@QAE@XZ 100381e9 f i libucrt:output.obj
 0001:000371f3       ??1?$format_validation_base@DV?$stream_output_adapter@D@__crt_stdio_output@@@__crt_stdio_output@@QAE@XZ 100381f3 f i libucrt:output.obj
 0001:000371fd       ??1?$format_validation_base@DV?$string_output_adapter@D@__crt_stdio_output@@@__crt_stdio_output@@QAE@XZ 100381fd f i libucrt:output.obj
 0001:00037207       ??1?$format_validation_base@_WV?$stream_output_adapter@_W@__crt_stdio_output@@@__crt_stdio_output@@QAE@XZ 10038207 f i libucrt:output.obj
 0001:00037211       ??1?$format_validation_base@_WV?$string_output_adapter@_W@__crt_stdio_output@@@__crt_stdio_output@@QAE@XZ 10038211 f i libucrt:output.obj
 0001:0003721b       ??1?$output_adapter_data@DV?$stream_output_adapter@D@__crt_stdio_output@@@__crt_stdio_output@@QAE@XZ 1003821b f i libucrt:output.obj
 0001:00037225       ??1?$output_adapter_data@DV?$string_output_adapter@D@__crt_stdio_output@@@__crt_stdio_output@@QAE@XZ 10038225 f i libucrt:output.obj
 0001:0003722f       ??1?$output_adapter_data@_WV?$stream_output_adapter@_W@__crt_stdio_output@@@__crt_stdio_output@@QAE@XZ 1003822f f i libucrt:output.obj
 0001:00037239       ??1?$output_adapter_data@_WV?$string_output_adapter@_W@__crt_stdio_output@@@__crt_stdio_output@@QAE@XZ 10038239 f i libucrt:output.obj
 0001:00037243       ??1?$output_processor@DV?$stream_output_adapter@D@__crt_stdio_output@@V?$format_validation_base@DV?$stream_output_adapter@D@__crt_stdio_output@@@2@@__crt_stdio_output@@QAE@XZ 10038243 f i libucrt:output.obj
 0001:0003724d       ??1?$output_processor@DV?$stream_output_adapter@D@__crt_stdio_output@@V?$positional_parameter_base@DV?$stream_output_adapter@D@__crt_stdio_output@@@2@@__crt_stdio_output@@QAE@XZ 1003824d f i libucrt:output.obj
 0001:00037257       ??1?$output_processor@DV?$stream_output_adapter@D@__crt_stdio_output@@V?$standard_base@DV?$stream_output_adapter@D@__crt_stdio_output@@@2@@__crt_stdio_output@@QAE@XZ 10038257 f i libucrt:output.obj
 0001:00037261       ??1?$output_processor@DV?$string_output_adapter@D@__crt_stdio_output@@V?$format_validation_base@DV?$string_output_adapter@D@__crt_stdio_output@@@2@@__crt_stdio_output@@QAE@XZ 10038261 f i libucrt:output.obj
 0001:0003726b       ??1?$output_processor@DV?$string_output_adapter@D@__crt_stdio_output@@V?$positional_parameter_base@DV?$string_output_adapter@D@__crt_stdio_output@@@2@@__crt_stdio_output@@QAE@XZ 1003826b f i libucrt:output.obj
 0001:00037275       ??1?$output_processor@DV?$string_output_adapter@D@__crt_stdio_output@@V?$standard_base@DV?$string_output_adapter@D@__crt_stdio_output@@@2@@__crt_stdio_output@@QAE@XZ 10038275 f i libucrt:output.obj
 0001:0003727f       ??1?$output_processor@_WV?$stream_output_adapter@_W@__crt_stdio_output@@V?$format_validation_base@_WV?$stream_output_adapter@_W@__crt_stdio_output@@@2@@__crt_stdio_output@@QAE@XZ 1003827f f i libucrt:output.obj
 0001:00037289       ??1?$output_processor@_WV?$stream_output_adapter@_W@__crt_stdio_output@@V?$positional_parameter_base@_WV?$stream_output_adapter@_W@__crt_stdio_output@@@2@@__crt_stdio_output@@QAE@XZ 10038289 f i libucrt:output.obj
 0001:00037293       ??1?$output_processor@_WV?$stream_output_adapter@_W@__crt_stdio_output@@V?$standard_base@_WV?$stream_output_adapter@_W@__crt_stdio_output@@@2@@__crt_stdio_output@@QAE@XZ 10038293 f i libucrt:output.obj
 0001:0003729d       ??1?$output_processor@_WV?$string_output_adapter@_W@__crt_stdio_output@@V?$format_validation_base@_WV?$string_output_adapter@_W@__crt_stdio_output@@@2@@__crt_stdio_output@@QAE@XZ 1003829d f i libucrt:output.obj
 0001:000372a7       ??1?$output_processor@_WV?$string_output_adapter@_W@__crt_stdio_output@@V?$positional_parameter_base@_WV?$string_output_adapter@_W@__crt_stdio_output@@@2@@__crt_stdio_output@@QAE@XZ 100382a7 f i libucrt:output.obj
 0001:000372b1       ??1?$output_processor@_WV?$string_output_adapter@_W@__crt_stdio_output@@V?$standard_base@_WV?$string_output_adapter@_W@__crt_stdio_output@@@2@@__crt_stdio_output@@QAE@XZ 100382b1 f i libucrt:output.obj
 0001:000372bb       ??1?$positional_parameter_base@DV?$stream_output_adapter@D@__crt_stdio_output@@@__crt_stdio_output@@QAE@XZ 100382bb f i libucrt:output.obj
 0001:000372c5       ??1?$positional_parameter_base@DV?$string_output_adapter@D@__crt_stdio_output@@@__crt_stdio_output@@QAE@XZ 100382c5 f i libucrt:output.obj
 0001:000372cf       ??1?$positional_parameter_base@_WV?$stream_output_adapter@_W@__crt_stdio_output@@@__crt_stdio_output@@QAE@XZ 100382cf f i libucrt:output.obj
 0001:000372d9       ??1?$positional_parameter_base@_WV?$string_output_adapter@_W@__crt_stdio_output@@@__crt_stdio_output@@QAE@XZ 100382d9 f i libucrt:output.obj
 0001:000372e3       ??1?$standard_base@DV?$stream_output_adapter@D@__crt_stdio_output@@@__crt_stdio_output@@QAE@XZ 100382e3 f i libucrt:output.obj
 0001:000372ed       ??1?$standard_base@DV?$string_output_adapter@D@__crt_stdio_output@@@__crt_stdio_output@@QAE@XZ 100382ed f i libucrt:output.obj
 0001:000372f7       ??1?$standard_base@_WV?$stream_output_adapter@_W@__crt_stdio_output@@@__crt_stdio_output@@QAE@XZ 100382f7 f i libucrt:output.obj
 0001:00037301       ??1?$standard_base@_WV?$string_output_adapter@_W@__crt_stdio_output@@@__crt_stdio_output@@QAE@XZ 10038301 f i libucrt:output.obj
 0001:0003730b       ??1_LocaleUpdate@@QAE@XZ   1003830b f i libucrt:output.obj
 0001:0003731f       ??1__acrt_stdio_temporary_buffering_guard@@QAE@XZ 1003831f f i libucrt:output.obj
 0001:00037331       ??1__crt_errno_guard@@QAE@XZ 10038331 f i libucrt:output.obj
 0001:00037346       ??1formatting_buffer@__crt_stdio_output@@QAE@XZ 10038346 f i libucrt:output.obj
 0001:00037366       ??4?$__crt_unique_heap_ptr@DU__crt_internal_free_policy@@@@QAEAAV0@$$QAV0@@Z 10038366 f i libucrt:output.obj
 0001:00037a49       ?GetLocaleT@_LocaleUpdate@@QAEPAU__crt_locale_pointers@@XZ 10038a49 f i libucrt:output.obj
 0001:00037a4d       ?__crt_interlocked_read_32@@YAHPDH@Z 10038a4d f i libucrt:output.obj
 0001:00037a5c       ?adjust_hexit@?$output_processor@DV?$stream_output_adapter@D@__crt_stdio_output@@V?$format_validation_base@DV?$stream_output_adapter@D@__crt_stdio_output@@@2@@__crt_stdio_output@@CADH_N@Z 10038a5c f i libucrt:output.obj
 0001:00037a81       ?adjust_hexit@?$output_processor@DV?$stream_output_adapter@D@__crt_stdio_output@@V?$positional_parameter_base@DV?$stream_output_adapter@D@__crt_stdio_output@@@2@@__crt_stdio_output@@CADH_N@Z 10038a81 f i libucrt:output.obj
 0001:00037aa6       ?adjust_hexit@?$output_processor@DV?$stream_output_adapter@D@__crt_stdio_output@@V?$standard_base@DV?$stream_output_adapter@D@__crt_stdio_output@@@2@@__crt_stdio_output@@CADH_N@Z 10038aa6 f i libucrt:output.obj
 0001:00037acb       ?adjust_hexit@?$output_processor@DV?$string_output_adapter@D@__crt_stdio_output@@V?$format_validation_base@DV?$string_output_adapter@D@__crt_stdio_output@@@2@@__crt_stdio_output@@CADH_N@Z 10038acb f i libucrt:output.obj
 0001:00037af0       ?adjust_hexit@?$output_processor@DV?$string_output_adapter@D@__crt_stdio_output@@V?$positional_parameter_base@DV?$string_output_adapter@D@__crt_stdio_output@@@2@@__crt_stdio_output@@CADH_N@Z 10038af0 f i libucrt:output.obj
 0001:00037b15       ?adjust_hexit@?$output_processor@DV?$string_output_adapter@D@__crt_stdio_output@@V?$standard_base@DV?$string_output_adapter@D@__crt_stdio_output@@@2@@__crt_stdio_output@@CADH_N@Z 10038b15 f i libucrt:output.obj
 0001:00037b3a       ?adjust_hexit@?$output_processor@_WV?$stream_output_adapter@_W@__crt_stdio_output@@V?$format_validation_base@_WV?$stream_output_adapter@_W@__crt_stdio_output@@@2@@__crt_stdio_output@@CADH_N@Z 10038b3a f i libucrt:output.obj
 0001:00037b5f       ?adjust_hexit@?$output_processor@_WV?$stream_output_adapter@_W@__crt_stdio_output@@V?$positional_parameter_base@_WV?$stream_output_adapter@_W@__crt_stdio_output@@@2@@__crt_stdio_output@@CADH_N@Z 10038b5f f i libucrt:output.obj
 0001:00037b84       ?adjust_hexit@?$output_processor@_WV?$stream_output_adapter@_W@__crt_stdio_output@@V?$standard_base@_WV?$stream_output_adapter@_W@__crt_stdio_output@@@2@@__crt_stdio_output@@CADH_N@Z 10038b84 f i libucrt:output.obj
 0001:00037ba9       ?adjust_hexit@?$output_processor@_WV?$string_output_adapter@_W@__crt_stdio_output@@V?$format_validation_base@_WV?$string_output_adapter@_W@__crt_stdio_output@@@2@@__crt_stdio_output@@CADH_N@Z 10038ba9 f i libucrt:output.obj
 0001:00037bce       ?adjust_hexit@?$output_processor@_WV?$string_output_adapter@_W@__crt_stdio_output@@V?$positional_parameter_base@_WV?$string_output_adapter@_W@__crt_stdio_output@@@2@@__crt_stdio_output@@CADH_N@Z 10038bce f i libucrt:output.obj
 0001:00037bf3       ?adjust_hexit@?$output_processor@_WV?$string_output_adapter@_W@__crt_stdio_output@@V?$standard_base@_WV?$string_output_adapter@_W@__crt_stdio_output@@@2@@__crt_stdio_output@@CADH_N@Z 10038bf3 f i libucrt:output.obj
 0001:00037c18       ?advance_to_next_pass@?$positional_parameter_base@DV?$stream_output_adapter@D@__crt_stdio_output@@@__crt_stdio_output@@IAE_NXZ 10038c18 f i libucrt:output.obj
 0001:00037c77       ?advance_to_next_pass@?$positional_parameter_base@DV?$string_output_adapter@D@__crt_stdio_output@@@__crt_stdio_output@@IAE_NXZ 10038c77 f i libucrt:output.obj
 0001:00037cd6       ?advance_to_next_pass@?$positional_parameter_base@_WV?$stream_output_adapter@_W@__crt_stdio_output@@@__crt_stdio_output@@IAE_NXZ 10038cd6 f i libucrt:output.obj
 0001:00037d35       ?advance_to_next_pass@?$positional_parameter_base@_WV?$string_output_adapter@_W@__crt_stdio_output@@@__crt_stdio_output@@IAE_NXZ 10038d35 f i libucrt:output.obj
 0001:00037d94       ?advance_to_next_pass@?$standard_base@DV?$stream_output_adapter@D@__crt_stdio_output@@@__crt_stdio_output@@IAE_NXZ 10038d94 f i libucrt:output.obj
 0001:00037dab       ?advance_to_next_pass@?$standard_base@DV?$string_output_adapter@D@__crt_stdio_output@@@__crt_stdio_output@@IAE_NXZ 10038dab f i libucrt:output.obj
 0001:00037dc2       ?advance_to_next_pass@?$standard_base@_WV?$stream_output_adapter@_W@__crt_stdio_output@@@__crt_stdio_output@@IAE_NXZ 10038dc2 f i libucrt:output.obj
 0001:00037dd9       ?advance_to_next_pass@?$standard_base@_WV?$string_output_adapter@_W@__crt_stdio_output@@@__crt_stdio_output@@IAE_NXZ 10038dd9 f i libucrt:output.obj
 0001:00037df0       ?crop_zeroes@__crt_stdio_output@@YAXPADQAU__crt_locale_pointers@@@Z 10038df0 f i libucrt:output.obj
 0001:00037e5c       ?find_next_state@?$output_processor@DV?$stream_output_adapter@D@__crt_stdio_output@@V?$format_validation_base@DV?$stream_output_adapter@D@__crt_stdio_output@@@2@@__crt_stdio_output@@ABE?AW4state@2@DW432@@Z 10038e5c f i libucrt:output.obj
 0001:00037e9e       ?find_next_state@?$output_processor@DV?$stream_output_adapter@D@__crt_stdio_output@@V?$positional_parameter_base@DV?$stream_output_adapter@D@__crt_stdio_output@@@2@@__crt_stdio_output@@ABE?AW4state@2@DW432@@Z 10038e9e f i libucrt:output.obj
 0001:00037ee0       ?find_next_state@?$output_processor@DV?$stream_output_adapter@D@__crt_stdio_output@@V?$standard_base@DV?$stream_output_adapter@D@__crt_stdio_output@@@2@@__crt_stdio_output@@ABE?AW4state@2@DW432@@Z 10038ee0 f i libucrt:output.obj
 0001:00037f1e       ?find_next_state@?$output_processor@DV?$string_output_adapter@D@__crt_stdio_output@@V?$format_validation_base@DV?$string_output_adapter@D@__crt_stdio_output@@@2@@__crt_stdio_output@@ABE?AW4state@2@DW432@@Z 10038f1e f i libucrt:output.obj
 0001:00037f60       ?find_next_state@?$output_processor@DV?$string_output_adapter@D@__crt_stdio_output@@V?$positional_parameter_base@DV?$string_output_adapter@D@__crt_stdio_output@@@2@@__crt_stdio_output@@ABE?AW4state@2@DW432@@Z 10038f60 f i libucrt:output.obj
 0001:00037fa2       ?find_next_state@?$output_processor@DV?$string_output_adapter@D@__crt_stdio_output@@V?$standard_base@DV?$string_output_adapter@D@__crt_stdio_output@@@2@@__crt_stdio_output@@ABE?AW4state@2@DW432@@Z 10038fa2 f i libucrt:output.obj
 0001:00037fe0       ?find_next_state@?$output_processor@_WV?$stream_output_adapter@_W@__crt_stdio_output@@V?$format_validation_base@_WV?$stream_output_adapter@_W@__crt_stdio_output@@@2@@__crt_stdio_output@@ABE?AW4state@2@_WW432@@Z 10038fe0 f i libucrt:output.obj
 0001:00038024       ?find_next_state@?$output_processor@_WV?$stream_output_adapter@_W@__crt_stdio_output@@V?$positional_parameter_base@_WV?$stream_output_adapter@_W@__crt_stdio_output@@@2@@__crt_stdio_output@@ABE?AW4state@2@_WW432@@Z 10039024 f i libucrt:output.obj
 0001:00038068       ?find_next_state@?$output_processor@_WV?$stream_output_adapter@_W@__crt_stdio_output@@V?$standard_base@_WV?$stream_output_adapter@_W@__crt_stdio_output@@@2@@__crt_stdio_output@@ABE?AW4state@2@_WW432@@Z 10039068 f i libucrt:output.obj
 0001:000380a9       ?find_next_state@?$output_processor@_WV?$string_output_adapter@_W@__crt_stdio_output@@V?$format_validation_base@_WV?$string_output_adapter@_W@__crt_stdio_output@@@2@@__crt_stdio_output@@ABE?AW4state@2@_WW432@@Z 100390a9 f i libucrt:output.obj
 0001:000380ed       ?find_next_state@?$output_processor@_WV?$string_output_adapter@_W@__crt_stdio_output@@V?$positional_parameter_base@_WV?$string_output_adapter@_W@__crt_stdio_output@@@2@@__crt_stdio_output@@ABE?AW4state@2@_WW432@@Z 100390ed f i libucrt:output.obj
 0001:00038131       ?find_next_state@?$output_processor@_WV?$string_output_adapter@_W@__crt_stdio_output@@V?$standard_base@_WV?$string_output_adapter@_W@__crt_stdio_output@@@2@@__crt_stdio_output@@ABE?AW4state@2@_WW432@@Z 10039131 f i libucrt:output.obj
 0001:00038172       ?force_decimal_point@__crt_stdio_output@@YAXPADQAU__crt_locale_pointers@@@Z 10039172 f i libucrt:output.obj
 0001:000381e5       ?get_flags@__crt_stdio_stream@@QBEJXZ 100391e5 f i libucrt:output.obj
 0001:000381eb       ?get_parameter_type@?$positional_parameter_base@DV?$stream_output_adapter@D@__crt_stdio_output@@@__crt_stdio_output@@CA?AW4parameter_type@12@F@Z 100391eb f i libucrt:output.obj
 0001:000381ef       ?get_parameter_type@?$positional_parameter_base@DV?$stream_output_adapter@D@__crt_stdio_output@@@__crt_stdio_output@@CA?AW4parameter_type@12@G@Z 100391ef f i libucrt:output.obj
 0001:000381f3       ?get_parameter_type@?$positional_parameter_base@DV?$stream_output_adapter@D@__crt_stdio_output@@@__crt_stdio_output@@CA?AW4parameter_type@12@H@Z 100391f3 f i libucrt:output.obj
 0001:000381f7       ?get_parameter_type@?$positional_parameter_base@DV?$stream_output_adapter@D@__crt_stdio_output@@@__crt_stdio_output@@CA?AW4parameter_type@12@I@Z 100391f7 f i libucrt:output.obj
 0001:000381fb       ?get_parameter_type@?$positional_parameter_base@DV?$stream_output_adapter@D@__crt_stdio_output@@@__crt_stdio_output@@CA?AW4parameter_type@12@U_CRT_DOUBLE@@@Z 100391fb f i libucrt:output.obj
 0001:000381ff       ?get_parameter_type@?$positional_parameter_base@DV?$stream_output_adapter@D@__crt_stdio_output@@@__crt_stdio_output@@CA?AW4parameter_type@12@_J@Z 100391ff f i libucrt:output.obj
 0001:00038203       ?get_parameter_type@?$positional_parameter_base@DV?$stream_output_adapter@D@__crt_stdio_output@@@__crt_stdio_output@@CA?AW4parameter_type@12@_K@Z 10039203 f i libucrt:output.obj
 0001:00038207       ?get_parameter_type@?$positional_parameter_base@DV?$stream_output_adapter@D@__crt_stdio_output@@@__crt_stdio_output@@CA?AW4parameter_type@12@_W@Z 10039207 f i libucrt:output.obj
 0001:0003820b       ?get_parameter_type@?$positional_parameter_base@DV?$string_output_adapter@D@__crt_stdio_output@@@__crt_stdio_output@@CA?AW4parameter_type@12@F@Z 1003920b f i libucrt:output.obj
 0001:0003820f       ?get_parameter_type@?$positional_parameter_base@DV?$string_output_adapter@D@__crt_stdio_output@@@__crt_stdio_output@@CA?AW4parameter_type@12@G@Z 1003920f f i libucrt:output.obj
 0001:00038213       ?get_parameter_type@?$positional_parameter_base@DV?$string_output_adapter@D@__crt_stdio_output@@@__crt_stdio_output@@CA?AW4parameter_type@12@H@Z 10039213 f i libucrt:output.obj
 0001:00038217       ?get_parameter_type@?$positional_parameter_base@DV?$string_output_adapter@D@__crt_stdio_output@@@__crt_stdio_output@@CA?AW4parameter_type@12@I@Z 10039217 f i libucrt:output.obj
 0001:0003821b       ?get_parameter_type@?$positional_parameter_base@DV?$string_output_adapter@D@__crt_stdio_output@@@__crt_stdio_output@@CA?AW4parameter_type@12@U_CRT_DOUBLE@@@Z 1003921b f i libucrt:output.obj
 0001:0003821f       ?get_parameter_type@?$positional_parameter_base@DV?$string_output_adapter@D@__crt_stdio_output@@@__crt_stdio_output@@CA?AW4parameter_type@12@_J@Z 1003921f f i libucrt:output.obj
 0001:00038223       ?get_parameter_type@?$positional_parameter_base@DV?$string_output_adapter@D@__crt_stdio_output@@@__crt_stdio_output@@CA?AW4parameter_type@12@_K@Z 10039223 f i libucrt:output.obj
 0001:00038227       ?get_parameter_type@?$positional_parameter_base@DV?$string_output_adapter@D@__crt_stdio_output@@@__crt_stdio_output@@CA?AW4parameter_type@12@_W@Z 10039227 f i libucrt:output.obj
 0001:0003822b       ?get_parameter_type@?$positional_parameter_base@_WV?$stream_output_adapter@_W@__crt_stdio_output@@@__crt_stdio_output@@CA?AW4parameter_type@12@F@Z 1003922b f i libucrt:output.obj
 0001:0003822f       ?get_parameter_type@?$positional_parameter_base@_WV?$stream_output_adapter@_W@__crt_stdio_output@@@__crt_stdio_output@@CA?AW4parameter_type@12@G@Z 1003922f f i libucrt:output.obj
 0001:00038233       ?get_parameter_type@?$positional_parameter_base@_WV?$stream_output_adapter@_W@__crt_stdio_output@@@__crt_stdio_output@@CA?AW4parameter_type@12@H@Z 10039233 f i libucrt:output.obj
 0001:00038237       ?get_parameter_type@?$positional_parameter_base@_WV?$stream_output_adapter@_W@__crt_stdio_output@@@__crt_stdio_output@@CA?AW4parameter_type@12@I@Z 10039237 f i libucrt:output.obj
 0001:0003823b       ?get_parameter_type@?$positional_parameter_base@_WV?$stream_output_adapter@_W@__crt_stdio_output@@@__crt_stdio_output@@CA?AW4parameter_type@12@U_CRT_DOUBLE@@@Z 1003923b f i libucrt:output.obj
 0001:0003823f       ?get_parameter_type@?$positional_parameter_base@_WV?$stream_output_adapter@_W@__crt_stdio_output@@@__crt_stdio_output@@CA?AW4parameter_type@12@_J@Z 1003923f f i libucrt:output.obj
 0001:00038243       ?get_parameter_type@?$positional_parameter_base@_WV?$stream_output_adapter@_W@__crt_stdio_output@@@__crt_stdio_output@@CA?AW4parameter_type@12@_K@Z 10039243 f i libucrt:output.obj
 0001:00038247       ?get_parameter_type@?$positional_parameter_base@_WV?$stream_output_adapter@_W@__crt_stdio_output@@@__crt_stdio_output@@CA?AW4parameter_type@12@_W@Z 10039247 f i libucrt:output.obj
 0001:0003824b       ?get_parameter_type@?$positional_parameter_base@_WV?$string_output_adapter@_W@__crt_stdio_output@@@__crt_stdio_output@@CA?AW4parameter_type@12@F@Z 1003924b f i libucrt:output.obj
 0001:0003824f       ?get_parameter_type@?$positional_parameter_base@_WV?$string_output_adapter@_W@__crt_stdio_output@@@__crt_stdio_output@@CA?AW4parameter_type@12@G@Z 1003924f f i libucrt:output.obj
 0001:00038253       ?get_parameter_type@?$positional_parameter_base@_WV?$string_output_adapter@_W@__crt_stdio_output@@@__crt_stdio_output@@CA?AW4parameter_type@12@H@Z 10039253 f i libucrt:output.obj
 0001:00038257       ?get_parameter_type@?$positional_parameter_base@_WV?$string_output_adapter@_W@__crt_stdio_output@@@__crt_stdio_output@@CA?AW4parameter_type@12@I@Z 10039257 f i libucrt:output.obj
 0001:0003825b       ?get_parameter_type@?$positional_parameter_base@_WV?$string_output_adapter@_W@__crt_stdio_output@@@__crt_stdio_output@@CA?AW4parameter_type@12@U_CRT_DOUBLE@@@Z 1003925b f i libucrt:output.obj
 0001:0003825f       ?get_parameter_type@?$positional_parameter_base@_WV?$string_output_adapter@_W@__crt_stdio_output@@@__crt_stdio_output@@CA?AW4parameter_type@12@_J@Z 1003925f f i libucrt:output.obj
 0001:00038263       ?get_parameter_type@?$positional_parameter_base@_WV?$string_output_adapter@_W@__crt_stdio_output@@@__crt_stdio_output@@CA?AW4parameter_type@12@_K@Z 10039263 f i libucrt:output.obj
 0001:00038267       ?get_parameter_type@?$positional_parameter_base@_WV?$string_output_adapter@_W@__crt_stdio_output@@@__crt_stdio_output@@CA?AW4parameter_type@12@_W@Z 10039267 f i libucrt:output.obj
 0001:0003826b       ?has_flag@?$output_processor@DV?$stream_output_adapter@D@__crt_stdio_output@@V?$format_validation_base@DV?$stream_output_adapter@D@__crt_stdio_output@@@2@@__crt_stdio_output@@ABE_NI@Z 1003926b f i libucrt:output.obj
 0001:00038285       ?has_flag@?$output_processor@DV?$stream_output_adapter@D@__crt_stdio_output@@V?$positional_parameter_base@DV?$stream_output_adapter@D@__crt_stdio_output@@@2@@__crt_stdio_output@@ABE_NI@Z 10039285 f i libucrt:output.obj
 0001:0003829f       ?has_flag@?$output_processor@DV?$stream_output_adapter@D@__crt_stdio_output@@V?$standard_base@DV?$stream_output_adapter@D@__crt_stdio_output@@@2@@__crt_stdio_output@@ABE_NI@Z 1003929f f i libucrt:output.obj
 0001:000382b9       ?has_flag@?$output_processor@DV?$string_output_adapter@D@__crt_stdio_output@@V?$format_validation_base@DV?$string_output_adapter@D@__crt_stdio_output@@@2@@__crt_stdio_output@@ABE_NI@Z 100392b9 f i libucrt:output.obj
 0001:000382d3       ?has_flag@?$output_processor@DV?$string_output_adapter@D@__crt_stdio_output@@V?$positional_parameter_base@DV?$string_output_adapter@D@__crt_stdio_output@@@2@@__crt_stdio_output@@ABE_NI@Z 100392d3 f i libucrt:output.obj
 0001:000382ed       ?has_flag@?$output_processor@DV?$string_output_adapter@D@__crt_stdio_output@@V?$standard_base@DV?$string_output_adapter@D@__crt_stdio_output@@@2@@__crt_stdio_output@@ABE_NI@Z 100392ed f i libucrt:output.obj
 0001:00038307       ?has_flag@?$output_processor@_WV?$stream_output_adapter@_W@__crt_stdio_output@@V?$format_validation_base@_WV?$stream_output_adapter@_W@__crt_stdio_output@@@2@@__crt_stdio_output@@ABE_NI@Z 10039307 f i libucrt:output.obj
 0001:00038321       ?has_flag@?$output_processor@_WV?$stream_output_adapter@_W@__crt_stdio_output@@V?$positional_parameter_base@_WV?$stream_output_adapter@_W@__crt_stdio_output@@@2@@__crt_stdio_output@@ABE_NI@Z 10039321 f i libucrt:output.obj
 0001:0003833b       ?has_flag@?$output_processor@_WV?$stream_output_adapter@_W@__crt_stdio_output@@V?$standard_base@_WV?$stream_output_adapter@_W@__crt_stdio_output@@@2@@__crt_stdio_output@@ABE_NI@Z 1003933b f i libucrt:output.obj
 0001:00038355       ?has_flag@?$output_processor@_WV?$string_output_adapter@_W@__crt_stdio_output@@V?$format_validation_base@_WV?$string_output_adapter@_W@__crt_stdio_output@@@2@@__crt_stdio_output@@ABE_NI@Z 10039355 f i libucrt:output.obj
 0001:0003836f       ?has_flag@?$output_processor@_WV?$string_output_adapter@_W@__crt_stdio_output@@V?$positional_parameter_base@_WV?$string_output_adapter@_W@__crt_stdio_output@@@2@@__crt_stdio_output@@ABE_NI@Z 1003936f f i libucrt:output.obj
 0001:00038389       ?has_flag@?$output_processor@_WV?$string_output_adapter@_W@__crt_stdio_output@@V?$standard_base@_WV?$string_output_adapter@_W@__crt_stdio_output@@@2@@__crt_stdio_output@@ABE_NI@Z 10039389 f i libucrt:output.obj
 0001:000383a3       ?is_positional_parameter_reappearance_consistent@?$positional_parameter_base@DV?$stream_output_adapter@D@__crt_stdio_output@@@__crt_stdio_output@@AAE_NABUparameter_data@12@W4parameter_type@12@DW4length_modifier@2@@Z 100393a3 f i libucrt:output.obj
 0001:0003851c       ?is_positional_parameter_reappearance_consistent@?$positional_parameter_base@DV?$string_output_adapter@D@__crt_stdio_output@@@__crt_stdio_output@@AAE_NABUparameter_data@12@W4parameter_type@12@DW4length_modifier@2@@Z 1003951c f i libucrt:output.obj
 0001:00038695       ?is_positional_parameter_reappearance_consistent@?$positional_parameter_base@_WV?$stream_output_adapter@_W@__crt_stdio_output@@@__crt_stdio_output@@AAE_NABUparameter_data@12@W4parameter_type@12@_WW4length_modifier@2@@Z 10039695 f i libucrt:output.obj
 0001:00038800       ?is_positional_parameter_reappearance_consistent@?$positional_parameter_base@_WV?$string_output_adapter@_W@__crt_stdio_output@@@__crt_stdio_output@@AAE_NABUparameter_data@12@W4parameter_type@12@_WW4length_modifier@2@@Z 10039800 f i libucrt:output.obj
 0001:0003896b       ?is_string_backed@__crt_stdio_stream@@QBE_NXZ 1003996b f i libucrt:output.obj
 0001:0003897a       ?narrow_null_string@?$output_processor@DV?$stream_output_adapter@D@__crt_stdio_output@@V?$format_validation_base@DV?$stream_output_adapter@D@__crt_stdio_output@@@2@@__crt_stdio_output@@CAPADXZ 1003997a f i libucrt:output.obj
 0001:00038980       ?narrow_null_string@?$output_processor@DV?$stream_output_adapter@D@__crt_stdio_output@@V?$positional_parameter_base@DV?$stream_output_adapter@D@__crt_stdio_output@@@2@@__crt_stdio_output@@CAPADXZ 10039980 f i libucrt:output.obj
 0001:00038986       ?narrow_null_string@?$output_processor@DV?$stream_output_adapter@D@__crt_stdio_output@@V?$standard_base@DV?$stream_output_adapter@D@__crt_stdio_output@@@2@@__crt_stdio_output@@CAPADXZ 10039986 f i libucrt:output.obj
 0001:0003898c       ?narrow_null_string@?$output_processor@DV?$string_output_adapter@D@__crt_stdio_output@@V?$format_validation_base@DV?$string_output_adapter@D@__crt_stdio_output@@@2@@__crt_stdio_output@@CAPADXZ 1003998c f i libucrt:output.obj
 0001:00038992       ?narrow_null_string@?$output_processor@DV?$string_output_adapter@D@__crt_stdio_output@@V?$positional_parameter_base@DV?$string_output_adapter@D@__crt_stdio_output@@@2@@__crt_stdio_output@@CAPADXZ 10039992 f i libucrt:output.obj
 0001:00038998       ?narrow_null_string@?$output_processor@DV?$string_output_adapter@D@__crt_stdio_output@@V?$standard_base@DV?$string_output_adapter@D@__crt_stdio_output@@@2@@__crt_stdio_output@@CAPADXZ 10039998 f i libucrt:output.obj
 0001:0003899e       ?narrow_null_string@?$output_processor@_WV?$stream_output_adapter@_W@__crt_stdio_output@@V?$format_validation_base@_WV?$stream_output_adapter@_W@__crt_stdio_output@@@2@@__crt_stdio_output@@CAPADXZ 1003999e f i libucrt:output.obj
 0001:000389a4       ?narrow_null_string@?$output_processor@_WV?$stream_output_adapter@_W@__crt_stdio_output@@V?$positional_parameter_base@_WV?$stream_output_adapter@_W@__crt_stdio_output@@@2@@__crt_stdio_output@@CAPADXZ 100399a4 f i libucrt:output.obj
 0001:000389aa       ?narrow_null_string@?$output_processor@_WV?$stream_output_adapter@_W@__crt_stdio_output@@V?$standard_base@_WV?$stream_output_adapter@_W@__crt_stdio_output@@@2@@__crt_stdio_output@@CAPADXZ 100399aa f i libucrt:output.obj
 0001:000389b0       ?narrow_null_string@?$output_processor@_WV?$string_output_adapter@_W@__crt_stdio_output@@V?$format_validation_base@_WV?$string_output_adapter@_W@__crt_stdio_output@@@2@@__crt_stdio_output@@CAPADXZ 100399b0 f i libucrt:output.obj
 0001:000389b6       ?narrow_null_string@?$output_processor@_WV?$string_output_adapter@_W@__crt_stdio_output@@V?$positional_parameter_base@_WV?$string_output_adapter@_W@__crt_stdio_output@@@2@@__crt_stdio_output@@CAPADXZ 100399b6 f i libucrt:output.obj
 0001:000389bc       ?narrow_null_string@?$output_processor@_WV?$string_output_adapter@_W@__crt_stdio_output@@V?$standard_base@_WV?$string_output_adapter@_W@__crt_stdio_output@@@2@@__crt_stdio_output@@CAPADXZ 100399bc f i libucrt:output.obj
 0001:000389c2       ?parse_int_from_format_string@?$output_processor@DV?$stream_output_adapter@D@__crt_stdio_output@@V?$format_validation_base@DV?$stream_output_adapter@D@__crt_stdio_output@@@2@@__crt_stdio_output@@AAE_NQAH@Z 100399c2 f i libucrt:output.obj
 0001:00038a35       ?parse_int_from_format_string@?$output_processor@DV?$stream_output_adapter@D@__crt_stdio_output@@V?$positional_parameter_base@DV?$stream_output_adapter@D@__crt_stdio_output@@@2@@__crt_stdio_output@@AAE_NQAH@Z 10039a35 f i libucrt:output.obj
 0001:00038aa8       ?parse_int_from_format_string@?$output_processor@DV?$stream_output_adapter@D@__crt_stdio_output@@V?$standard_base@DV?$stream_output_adapter@D@__crt_stdio_output@@@2@@__crt_stdio_output@@AAE_NQAH@Z 10039aa8 f i libucrt:output.obj
 0001:00038b1b       ?parse_int_from_format_string@?$output_processor@DV?$string_output_adapter@D@__crt_stdio_output@@V?$format_validation_base@DV?$string_output_adapter@D@__crt_stdio_output@@@2@@__crt_stdio_output@@AAE_NQAH@Z 10039b1b f i libucrt:output.obj
 0001:00038b8e       ?parse_int_from_format_string@?$output_processor@DV?$string_output_adapter@D@__crt_stdio_output@@V?$positional_parameter_base@DV?$string_output_adapter@D@__crt_stdio_output@@@2@@__crt_stdio_output@@AAE_NQAH@Z 10039b8e f i libucrt:output.obj
 0001:00038c01       ?parse_int_from_format_string@?$output_processor@DV?$string_output_adapter@D@__crt_stdio_output@@V?$standard_base@DV?$string_output_adapter@D@__crt_stdio_output@@@2@@__crt_stdio_output@@AAE_NQAH@Z 10039c01 f i libucrt:output.obj
 0001:00038c74       ?parse_int_from_format_string@?$output_processor@_WV?$stream_output_adapter@_W@__crt_stdio_output@@V?$format_validation_base@_WV?$stream_output_adapter@_W@__crt_stdio_output@@@2@@__crt_stdio_output@@AAE_NQAH@Z 10039c74 f i libucrt:output.obj
 0001:00038ce9       ?parse_int_from_format_string@?$output_processor@_WV?$stream_output_adapter@_W@__crt_stdio_output@@V?$positional_parameter_base@_WV?$stream_output_adapter@_W@__crt_stdio_output@@@2@@__crt_stdio_output@@AAE_NQAH@Z 10039ce9 f i libucrt:output.obj
 0001:00038d5e       ?parse_int_from_format_string@?$output_processor@_WV?$stream_output_adapter@_W@__crt_stdio_output@@V?$standard_base@_WV?$stream_output_adapter@_W@__crt_stdio_output@@@2@@__crt_stdio_output@@AAE_NQAH@Z 10039d5e f i libucrt:output.obj
 0001:00038dd3       ?parse_int_from_format_string@?$output_processor@_WV?$string_output_adapter@_W@__crt_stdio_output@@V?$format_validation_base@_WV?$string_output_adapter@_W@__crt_stdio_output@@@2@@__crt_stdio_output@@AAE_NQAH@Z 10039dd3 f i libucrt:output.obj
 0001:00038e48       ?parse_int_from_format_string@?$output_processor@_WV?$string_output_adapter@_W@__crt_stdio_output@@V?$positional_parameter_base@_WV?$string_output_adapter@_W@__crt_stdio_output@@@2@@__crt_stdio_output@@AAE_NQAH@Z 10039e48 f i libucrt:output.obj
 0001:00038ebd       ?parse_int_from_format_string@?$output_processor@_WV?$string_output_adapter@_W@__crt_stdio_output@@V?$standard_base@_WV?$string_output_adapter@_W@__crt_stdio_output@@@2@@__crt_stdio_output@@AAE_NQAH@Z 10039ebd f i libucrt:output.obj
 0001:00038f32       ?process@?$output_processor@DV?$stream_output_adapter@D@__crt_stdio_output@@V?$format_validation_base@DV?$stream_output_adapter@D@__crt_stdio_output@@@2@@__crt_stdio_output@@QAEHXZ 10039f32 f i libucrt:output.obj
 0001:000390a4       ?process@?$output_processor@DV?$stream_output_adapter@D@__crt_stdio_output@@V?$positional_parameter_base@DV?$stream_output_adapter@D@__crt_stdio_output@@@2@@__crt_stdio_output@@QAEHXZ 1003a0a4 f i libucrt:output.obj
 0001:00039257       ?process@?$output_processor@DV?$stream_output_adapter@D@__crt_stdio_output@@V?$standard_base@DV?$stream_output_adapter@D@__crt_stdio_output@@@2@@__crt_stdio_output@@QAEHXZ 1003a257 f i libucrt:output.obj
 0001:000393ba       ?process@?$output_processor@DV?$string_output_adapter@D@__crt_stdio_output@@V?$format_validation_base@DV?$string_output_adapter@D@__crt_stdio_output@@@2@@__crt_stdio_output@@QAEHXZ 1003a3ba f i libucrt:output.obj
 0001:0003952c       ?process@?$output_processor@DV?$string_output_adapter@D@__crt_stdio_output@@V?$positional_parameter_base@DV?$string_output_adapter@D@__crt_stdio_output@@@2@@__crt_stdio_output@@QAEHXZ 1003a52c f i libucrt:output.obj
 0001:000396df       ?process@?$output_processor@DV?$string_output_adapter@D@__crt_stdio_output@@V?$standard_base@DV?$string_output_adapter@D@__crt_stdio_output@@@2@@__crt_stdio_output@@QAEHXZ 1003a6df f i libucrt:output.obj
 0001:00039842       ?process@?$output_processor@_WV?$stream_output_adapter@_W@__crt_stdio_output@@V?$format_validation_base@_WV?$stream_output_adapter@_W@__crt_stdio_output@@@2@@__crt_stdio_output@@QAEHXZ 1003a842 f i libucrt:output.obj
 0001:000399be       ?process@?$output_processor@_WV?$stream_output_adapter@_W@__crt_stdio_output@@V?$positional_parameter_base@_WV?$stream_output_adapter@_W@__crt_stdio_output@@@2@@__crt_stdio_output@@QAEHXZ 1003a9be f i libucrt:output.obj
 0001:00039b76       ?process@?$output_processor@_WV?$stream_output_adapter@_W@__crt_stdio_output@@V?$standard_base@_WV?$stream_output_adapter@_W@__crt_stdio_output@@@2@@__crt_stdio_output@@QAEHXZ 1003ab76 f i libucrt:output.obj
 0001:00039cde       ?process@?$output_processor@_WV?$string_output_adapter@_W@__crt_stdio_output@@V?$format_validation_base@_WV?$string_output_adapter@_W@__crt_stdio_output@@@2@@__crt_stdio_output@@QAEHXZ 1003acde f i libucrt:output.obj
 0001:00039e5a       ?process@?$output_processor@_WV?$string_output_adapter@_W@__crt_stdio_output@@V?$positional_parameter_base@_WV?$string_output_adapter@_W@__crt_stdio_output@@@2@@__crt_stdio_output@@QAEHXZ 1003ae5a f i libucrt:output.obj
 0001:0003a012       ?process@?$output_processor@_WV?$string_output_adapter@_W@__crt_stdio_output@@V?$standard_base@_WV?$string_output_adapter@_W@__crt_stdio_output@@@2@@__crt_stdio_output@@QAEHXZ 1003b012 f i libucrt:output.obj
 0001:0003a17a       ?public_stream@__crt_stdio_stream@@QBEPAU_iobuf@@XZ 1003b17a f i libucrt:output.obj
 0001:0003a17d       ?set_flag@?$output_processor@DV?$stream_output_adapter@D@__crt_stdio_output@@V?$format_validation_base@DV?$stream_output_adapter@D@__crt_stdio_output@@@2@@__crt_stdio_output@@AAEXI@Z 1003b17d f i libucrt:output.obj
 0001:0003a18f       ?set_flag@?$output_processor@DV?$stream_output_adapter@D@__crt_stdio_output@@V?$positional_parameter_base@DV?$stream_output_adapter@D@__crt_stdio_output@@@2@@__crt_stdio_output@@AAEXI@Z 1003b18f f i libucrt:output.obj
 0001:0003a1a1       ?set_flag@?$output_processor@DV?$stream_output_adapter@D@__crt_stdio_output@@V?$standard_base@DV?$stream_output_adapter@D@__crt_stdio_output@@@2@@__crt_stdio_output@@AAEXI@Z 1003b1a1 f i libucrt:output.obj
 0001:0003a1b3       ?set_flag@?$output_processor@DV?$string_output_adapter@D@__crt_stdio_output@@V?$format_validation_base@DV?$string_output_adapter@D@__crt_stdio_output@@@2@@__crt_stdio_output@@AAEXI@Z 1003b1b3 f i libucrt:output.obj
 0001:0003a1c5       ?set_flag@?$output_processor@DV?$string_output_adapter@D@__crt_stdio_output@@V?$positional_parameter_base@DV?$string_output_adapter@D@__crt_stdio_output@@@2@@__crt_stdio_output@@AAEXI@Z 1003b1c5 f i libucrt:output.obj
 0001:0003a1d7       ?set_flag@?$output_processor@DV?$string_output_adapter@D@__crt_stdio_output@@V?$standard_base@DV?$string_output_adapter@D@__crt_stdio_output@@@2@@__crt_stdio_output@@AAEXI@Z 1003b1d7 f i libucrt:output.obj
 0001:0003a1e9       ?set_flag@?$output_processor@_WV?$stream_output_adapter@_W@__crt_stdio_output@@V?$format_validation_base@_WV?$stream_output_adapter@_W@__crt_stdio_output@@@2@@__crt_stdio_output@@AAEXI@Z 1003b1e9 f i libucrt:output.obj
 0001:0003a1fb       ?set_flag@?$output_processor@_WV?$stream_output_adapter@_W@__crt_stdio_output@@V?$positional_parameter_base@_WV?$stream_output_adapter@_W@__crt_stdio_output@@@2@@__crt_stdio_output@@AAEXI@Z 1003b1fb f i libucrt:output.obj
 0001:0003a20d       ?set_flag@?$output_processor@_WV?$stream_output_adapter@_W@__crt_stdio_output@@V?$standard_base@_WV?$stream_output_adapter@_W@__crt_stdio_output@@@2@@__crt_stdio_output@@AAEXI@Z 1003b20d f i libucrt:output.obj
 0001:0003a21f       ?set_flag@?$output_processor@_WV?$string_output_adapter@_W@__crt_stdio_output@@V?$format_validation_base@_WV?$string_output_adapter@_W@__crt_stdio_output@@@2@@__crt_stdio_output@@AAEXI@Z 1003b21f f i libucrt:output.obj
 0001:0003a231       ?set_flag@?$output_processor@_WV?$string_output_adapter@_W@__crt_stdio_output@@V?$positional_parameter_base@_WV?$string_output_adapter@_W@__crt_stdio_output@@@2@@__crt_stdio_output@@AAEXI@Z 1003b231 f i libucrt:output.obj
 0001:0003a243       ?set_flag@?$output_processor@_WV?$string_output_adapter@_W@__crt_stdio_output@@V?$standard_base@_WV?$string_output_adapter@_W@__crt_stdio_output@@@2@@__crt_stdio_output@@AAEXI@Z 1003b243 f i libucrt:output.obj
 0001:0003a255       ?should_format@?$positional_parameter_base@DV?$stream_output_adapter@D@__crt_stdio_output@@@__crt_stdio_output@@IAE_NXZ 1003b255 f i libucrt:output.obj
 0001:0003a270       ?should_format@?$positional_parameter_base@DV?$string_output_adapter@D@__crt_stdio_output@@@__crt_stdio_output@@IAE_NXZ 1003b270 f i libucrt:output.obj
 0001:0003a28b       ?should_format@?$positional_parameter_base@_WV?$stream_output_adapter@_W@__crt_stdio_output@@@__crt_stdio_output@@IAE_NXZ 1003b28b f i libucrt:output.obj
 0001:0003a2a6       ?should_format@?$positional_parameter_base@_WV?$string_output_adapter@_W@__crt_stdio_output@@@__crt_stdio_output@@IAE_NXZ 1003b2a6 f i libucrt:output.obj
 0001:0003a2c1       ?should_format@?$standard_base@DV?$stream_output_adapter@D@__crt_stdio_output@@@__crt_stdio_output@@IAE_NXZ 1003b2c1 f i libucrt:output.obj
 0001:0003a2c4       ?should_format@?$standard_base@DV?$string_output_adapter@D@__crt_stdio_output@@@__crt_stdio_output@@IAE_NXZ 1003b2c4 f i libucrt:output.obj
 0001:0003a2c7       ?should_format@?$standard_base@_WV?$stream_output_adapter@_W@__crt_stdio_output@@@__crt_stdio_output@@IAE_NXZ 1003b2c7 f i libucrt:output.obj
 0001:0003a2ca       ?should_format@?$standard_base@_WV?$string_output_adapter@_W@__crt_stdio_output@@@__crt_stdio_output@@IAE_NXZ 1003b2ca f i libucrt:output.obj
 0001:0003a2cd       ?should_skip_normal_state_processing@?$positional_parameter_base@DV?$stream_output_adapter@D@__crt_stdio_output@@@__crt_stdio_output@@IAE_NXZ 1003b2cd f i libucrt:output.obj
 0001:0003a2ff       ?should_skip_normal_state_processing@?$positional_parameter_base@DV?$string_output_adapter@D@__crt_stdio_output@@@__crt_stdio_output@@IAE_NXZ 1003b2ff f i libucrt:output.obj
 0001:0003a331       ?should_skip_normal_state_processing@?$positional_parameter_base@_WV?$stream_output_adapter@_W@__crt_stdio_output@@@__crt_stdio_output@@IAE_NXZ 1003b331 f i libucrt:output.obj
 0001:0003a363       ?should_skip_normal_state_processing@?$positional_parameter_base@_WV?$string_output_adapter@_W@__crt_stdio_output@@@__crt_stdio_output@@IAE_NXZ 1003b363 f i libucrt:output.obj
 0001:0003a395       ?should_skip_normal_state_processing@?$standard_base@DV?$stream_output_adapter@D@__crt_stdio_output@@@__crt_stdio_output@@IAE_NXZ 1003b395 f i libucrt:output.obj
 0001:0003a398       ?should_skip_normal_state_processing@?$standard_base@DV?$string_output_adapter@D@__crt_stdio_output@@@__crt_stdio_output@@IAE_NXZ 1003b398 f i libucrt:output.obj
 0001:0003a39b       ?should_skip_normal_state_processing@?$standard_base@_WV?$stream_output_adapter@_W@__crt_stdio_output@@@__crt_stdio_output@@IAE_NXZ 1003b39b f i libucrt:output.obj
 0001:0003a39e       ?should_skip_normal_state_processing@?$standard_base@_WV?$string_output_adapter@_W@__crt_stdio_output@@@__crt_stdio_output@@IAE_NXZ 1003b39e f i libucrt:output.obj
 0001:0003a3a1       ?should_skip_type_state_output@?$positional_parameter_base@DV?$stream_output_adapter@D@__crt_stdio_output@@@__crt_stdio_output@@IBE_NXZ 1003b3a1 f i libucrt:output.obj
 0001:0003a3bd       ?should_skip_type_state_output@?$positional_parameter_base@DV?$string_output_adapter@D@__crt_stdio_output@@@__crt_stdio_output@@IBE_NXZ 1003b3bd f i libucrt:output.obj
 0001:0003a3d9       ?should_skip_type_state_output@?$positional_parameter_base@_WV?$stream_output_adapter@_W@__crt_stdio_output@@@__crt_stdio_output@@IBE_NXZ 1003b3d9 f i libucrt:output.obj
 0001:0003a3f5       ?should_skip_type_state_output@?$positional_parameter_base@_WV?$string_output_adapter@_W@__crt_stdio_output@@@__crt_stdio_output@@IBE_NXZ 1003b3f5 f i libucrt:output.obj
 0001:0003a411       ?should_skip_type_state_output@?$standard_base@DV?$stream_output_adapter@D@__crt_stdio_output@@@__crt_stdio_output@@IBE_NXZ 1003b411 f i libucrt:output.obj
 0001:0003a414       ?should_skip_type_state_output@?$standard_base@DV?$string_output_adapter@D@__crt_stdio_output@@@__crt_stdio_output@@IBE_NXZ 1003b414 f i libucrt:output.obj
 0001:0003a417       ?should_skip_type_state_output@?$standard_base@_WV?$stream_output_adapter@_W@__crt_stdio_output@@@__crt_stdio_output@@IBE_NXZ 1003b417 f i libucrt:output.obj
 0001:0003a41a       ?should_skip_type_state_output@?$standard_base@_WV?$string_output_adapter@_W@__crt_stdio_output@@@__crt_stdio_output@@IBE_NXZ 1003b41a f i libucrt:output.obj
 0001:0003a41d       ?state_case_dot@?$output_processor@DV?$stream_output_adapter@D@__crt_stdio_output@@V?$format_validation_base@DV?$stream_output_adapter@D@__crt_stdio_output@@@2@@__crt_stdio_output@@AAE_NXZ 1003b41d f i libucrt:output.obj
 0001:0003a424       ?state_case_dot@?$output_processor@DV?$stream_output_adapter@D@__crt_stdio_output@@V?$positional_parameter_base@DV?$stream_output_adapter@D@__crt_stdio_output@@@2@@__crt_stdio_output@@AAE_NXZ 1003b424 f i libucrt:output.obj
 0001:0003a42b       ?state_case_dot@?$output_processor@DV?$stream_output_adapter@D@__crt_stdio_output@@V?$standard_base@DV?$stream_output_adapter@D@__crt_stdio_output@@@2@@__crt_stdio_output@@AAE_NXZ 1003b42b f i libucrt:output.obj
 0001:0003a432       ?state_case_dot@?$output_processor@DV?$string_output_adapter@D@__crt_stdio_output@@V?$format_validation_base@DV?$string_output_adapter@D@__crt_stdio_output@@@2@@__crt_stdio_output@@AAE_NXZ 1003b432 f i libucrt:output.obj
 0001:0003a439       ?state_case_dot@?$output_processor@DV?$string_output_adapter@D@__crt_stdio_output@@V?$positional_parameter_base@DV?$string_output_adapter@D@__crt_stdio_output@@@2@@__crt_stdio_output@@AAE_NXZ 1003b439 f i libucrt:output.obj
 0001:0003a440       ?state_case_dot@?$output_processor@DV?$string_output_adapter@D@__crt_stdio_output@@V?$standard_base@DV?$string_output_adapter@D@__crt_stdio_output@@@2@@__crt_stdio_output@@AAE_NXZ 1003b440 f i libucrt:output.obj
 0001:0003a447       ?state_case_dot@?$output_processor@_WV?$stream_output_adapter@_W@__crt_stdio_output@@V?$format_validation_base@_WV?$stream_output_adapter@_W@__crt_stdio_output@@@2@@__crt_stdio_output@@AAE_NXZ 1003b447 f i libucrt:output.obj
 0001:0003a44e       ?state_case_dot@?$output_processor@_WV?$stream_output_adapter@_W@__crt_stdio_output@@V?$positional_parameter_base@_WV?$stream_output_adapter@_W@__crt_stdio_output@@@2@@__crt_stdio_output@@AAE_NXZ 1003b44e f i libucrt:output.obj
 0001:0003a455       ?state_case_dot@?$output_processor@_WV?$stream_output_adapter@_W@__crt_stdio_output@@V?$standard_base@_WV?$stream_output_adapter@_W@__crt_stdio_output@@@2@@__crt_stdio_output@@AAE_NXZ 1003b455 f i libucrt:output.obj
 0001:0003a45c       ?state_case_dot@?$output_processor@_WV?$string_output_adapter@_W@__crt_stdio_output@@V?$format_validation_base@_WV?$string_output_adapter@_W@__crt_stdio_output@@@2@@__crt_stdio_output@@AAE_NXZ 1003b45c f i libucrt:output.obj
 0001:0003a463       ?state_case_dot@?$output_processor@_WV?$string_output_adapter@_W@__crt_stdio_output@@V?$positional_parameter_base@_WV?$string_output_adapter@_W@__crt_stdio_output@@@2@@__crt_stdio_output@@AAE_NXZ 1003b463 f i libucrt:output.obj
 0001:0003a46a       ?state_case_dot@?$output_processor@_WV?$string_output_adapter@_W@__crt_stdio_output@@V?$standard_base@_WV?$string_output_adapter@_W@__crt_stdio_output@@@2@@__crt_stdio_output@@AAE_NXZ 1003b46a f i libucrt:output.obj
 0001:0003a471       ?state_case_flag@?$output_processor@DV?$stream_output_adapter@D@__crt_stdio_output@@V?$format_validation_base@DV?$stream_output_adapter@D@__crt_stdio_output@@@2@@__crt_stdio_output@@AAE_NXZ 1003b471 f i libucrt:output.obj
 0001:0003a4bd       ?state_case_flag@?$output_processor@DV?$stream_output_adapter@D@__crt_stdio_output@@V?$positional_parameter_base@DV?$stream_output_adapter@D@__crt_stdio_output@@@2@@__crt_stdio_output@@AAE_NXZ 1003b4bd f i libucrt:output.obj
 0001:0003a509       ?state_case_flag@?$output_processor@DV?$stream_output_adapter@D@__crt_stdio_output@@V?$standard_base@DV?$stream_output_adapter@D@__crt_stdio_output@@@2@@__crt_stdio_output@@AAE_NXZ 1003b509 f i libucrt:output.obj
 0001:0003a555       ?state_case_flag@?$output_processor@DV?$string_output_adapter@D@__crt_stdio_output@@V?$format_validation_base@DV?$string_output_adapter@D@__crt_stdio_output@@@2@@__crt_stdio_output@@AAE_NXZ 1003b555 f i libucrt:output.obj
 0001:0003a5a1       ?state_case_flag@?$output_processor@DV?$string_output_adapter@D@__crt_stdio_output@@V?$positional_parameter_base@DV?$string_output_adapter@D@__crt_stdio_output@@@2@@__crt_stdio_output@@AAE_NXZ 1003b5a1 f i libucrt:output.obj
 0001:0003a5ed       ?state_case_flag@?$output_processor@DV?$string_output_adapter@D@__crt_stdio_output@@V?$standard_base@DV?$string_output_adapter@D@__crt_stdio_output@@@2@@__crt_stdio_output@@AAE_NXZ 1003b5ed f i libucrt:output.obj
 0001:0003a639       ?state_case_flag@?$output_processor@_WV?$stream_output_adapter@_W@__crt_stdio_output@@V?$format_validation_base@_WV?$stream_output_adapter@_W@__crt_stdio_output@@@2@@__crt_stdio_output@@AAE_NXZ 1003b639 f i libucrt:output.obj
 0001:0003a685       ?state_case_flag@?$output_processor@_WV?$stream_output_adapter@_W@__crt_stdio_output@@V?$positional_parameter_base@_WV?$stream_output_adapter@_W@__crt_stdio_output@@@2@@__crt_stdio_output@@AAE_NXZ 1003b685 f i libucrt:output.obj
 0001:0003a6d1       ?state_case_flag@?$output_processor@_WV?$stream_output_adapter@_W@__crt_stdio_output@@V?$standard_base@_WV?$stream_output_adapter@_W@__crt_stdio_output@@@2@@__crt_stdio_output@@AAE_NXZ 1003b6d1 f i libucrt:output.obj
 0001:0003a71d       ?state_case_flag@?$output_processor@_WV?$string_output_adapter@_W@__crt_stdio_output@@V?$format_validation_base@_WV?$string_output_adapter@_W@__crt_stdio_output@@@2@@__crt_stdio_output@@AAE_NXZ 1003b71d f i libucrt:output.obj
 0001:0003a769       ?state_case_flag@?$output_processor@_WV?$string_output_adapter@_W@__crt_stdio_output@@V?$positional_parameter_base@_WV?$string_output_adapter@_W@__crt_stdio_output@@@2@@__crt_stdio_output@@AAE_NXZ 1003b769 f i libucrt:output.obj
 0001:0003a7b5       ?state_case_flag@?$output_processor@_WV?$string_output_adapter@_W@__crt_stdio_output@@V?$standard_base@_WV?$string_output_adapter@_W@__crt_stdio_output@@@2@@__crt_stdio_output@@AAE_NXZ 1003b7b5 f i libucrt:output.obj
 0001:0003a801       ?state_case_normal@?$output_processor@DV?$stream_output_adapter@D@__crt_stdio_output@@V?$format_validation_base@DV?$stream_output_adapter@D@__crt_stdio_output@@@2@@__crt_stdio_output@@AAE_NXZ 1003b801 f i libucrt:output.obj
 0001:0003a827       ?state_case_normal@?$output_processor@DV?$stream_output_adapter@D@__crt_stdio_output@@V?$positional_parameter_base@DV?$stream_output_adapter@D@__crt_stdio_output@@@2@@__crt_stdio_output@@AAE_NXZ 1003b827 f i libucrt:output.obj
 0001:0003a864       ?state_case_normal@?$output_processor@DV?$stream_output_adapter@D@__crt_stdio_output@@V?$standard_base@DV?$stream_output_adapter@D@__crt_stdio_output@@@2@@__crt_stdio_output@@AAE_NXZ 1003b864 f i libucrt:output.obj
 0001:0003a88a       ?state_case_normal@?$output_processor@DV?$string_output_adapter@D@__crt_stdio_output@@V?$format_validation_base@DV?$string_output_adapter@D@__crt_stdio_output@@@2@@__crt_stdio_output@@AAE_NXZ 1003b88a f i libucrt:output.obj
 0001:0003a8b0       ?state_case_normal@?$output_processor@DV?$string_output_adapter@D@__crt_stdio_output@@V?$positional_parameter_base@DV?$string_output_adapter@D@__crt_stdio_output@@@2@@__crt_stdio_output@@AAE_NXZ 1003b8b0 f i libucrt:output.obj
 0001:0003a8ed       ?state_case_normal@?$output_processor@DV?$string_output_adapter@D@__crt_stdio_output@@V?$standard_base@DV?$string_output_adapter@D@__crt_stdio_output@@@2@@__crt_stdio_output@@AAE_NXZ 1003b8ed f i libucrt:output.obj
 0001:0003a913       ?state_case_normal@?$output_processor@_WV?$stream_output_adapter@_W@__crt_stdio_output@@V?$format_validation_base@_WV?$stream_output_adapter@_W@__crt_stdio_output@@@2@@__crt_stdio_output@@AAE_NXZ 1003b913 f i libucrt:output.obj
 0001:0003a939       ?state_case_normal@?$output_processor@_WV?$stream_output_adapter@_W@__crt_stdio_output@@V?$positional_parameter_base@_WV?$stream_output_adapter@_W@__crt_stdio_output@@@2@@__crt_stdio_output@@AAE_NXZ 1003b939 f i libucrt:output.obj
 0001:0003a976       ?state_case_normal@?$output_processor@_WV?$stream_output_adapter@_W@__crt_stdio_output@@V?$standard_base@_WV?$stream_output_adapter@_W@__crt_stdio_output@@@2@@__crt_stdio_output@@AAE_NXZ 1003b976 f i libucrt:output.obj
 0001:0003a99c       ?state_case_normal@?$output_processor@_WV?$string_output_adapter@_W@__crt_stdio_output@@V?$format_validation_base@_WV?$string_output_adapter@_W@__crt_stdio_output@@@2@@__crt_stdio_output@@AAE_NXZ 1003b99c f i libucrt:output.obj
 0001:0003a9c2       ?state_case_normal@?$output_processor@_WV?$string_output_adapter@_W@__crt_stdio_output@@V?$positional_parameter_base@_WV?$string_output_adapter@_W@__crt_stdio_output@@@2@@__crt_stdio_output@@AAE_NXZ 1003b9c2 f i libucrt:output.obj
 0001:0003a9ff       ?state_case_normal@?$output_processor@_WV?$string_output_adapter@_W@__crt_stdio_output@@V?$standard_base@_WV?$string_output_adapter@_W@__crt_stdio_output@@@2@@__crt_stdio_output@@AAE_NXZ 1003b9ff f i libucrt:output.obj
 0001:0003aa25       ?state_case_normal_common@?$output_processor@DV?$stream_output_adapter@D@__crt_stdio_output@@V?$format_validation_base@DV?$stream_output_adapter@D@__crt_stdio_output@@@2@@__crt_stdio_output@@AAE_NXZ 1003ba25 f i libucrt:output.obj
 0001:0003aa59       ?state_case_normal_common@?$output_processor@DV?$stream_output_adapter@D@__crt_stdio_output@@V?$positional_parameter_base@DV?$stream_output_adapter@D@__crt_stdio_output@@@2@@__crt_stdio_output@@AAE_NXZ 1003ba59 f i libucrt:output.obj
 0001:0003aa8d       ?state_case_normal_common@?$output_processor@DV?$stream_output_adapter@D@__crt_stdio_output@@V?$standard_base@DV?$stream_output_adapter@D@__crt_stdio_output@@@2@@__crt_stdio_output@@AAE_NXZ 1003ba8d f i libucrt:output.obj
 0001:0003aac1       ?state_case_normal_common@?$output_processor@DV?$string_output_adapter@D@__crt_stdio_output@@V?$format_validation_base@DV?$string_output_adapter@D@__crt_stdio_output@@@2@@__crt_stdio_output@@AAE_NXZ 1003bac1 f i libucrt:output.obj
 0001:0003aaf5       ?state_case_normal_common@?$output_processor@DV?$string_output_adapter@D@__crt_stdio_output@@V?$positional_parameter_base@DV?$string_output_adapter@D@__crt_stdio_output@@@2@@__crt_stdio_output@@AAE_NXZ 1003baf5 f i libucrt:output.obj
 0001:0003ab29       ?state_case_normal_common@?$output_processor@DV?$string_output_adapter@D@__crt_stdio_output@@V?$standard_base@DV?$string_output_adapter@D@__crt_stdio_output@@@2@@__crt_stdio_output@@AAE_NXZ 1003bb29 f i libucrt:output.obj
 0001:0003ab5d       ?state_case_normal_common@?$output_processor@_WV?$stream_output_adapter@_W@__crt_stdio_output@@V?$format_validation_base@_WV?$stream_output_adapter@_W@__crt_stdio_output@@@2@@__crt_stdio_output@@AAE_NXZ 1003bb5d f i libucrt:output.obj
 0001:0003ab7e       ?state_case_normal_common@?$output_processor@_WV?$stream_output_adapter@_W@__crt_stdio_output@@V?$positional_parameter_base@_WV?$stream_output_adapter@_W@__crt_stdio_output@@@2@@__crt_stdio_output@@AAE_NXZ 1003bb7e f i libucrt:output.obj
 0001:0003ab9f       ?state_case_normal_common@?$output_processor@_WV?$stream_output_adapter@_W@__crt_stdio_output@@V?$standard_base@_WV?$stream_output_adapter@_W@__crt_stdio_output@@@2@@__crt_stdio_output@@AAE_NXZ 1003bb9f f i libucrt:output.obj
 0001:0003abc0       ?state_case_normal_common@?$output_processor@_WV?$string_output_adapter@_W@__crt_stdio_output@@V?$format_validation_base@_WV?$string_output_adapter@_W@__crt_stdio_output@@@2@@__crt_stdio_output@@AAE_NXZ 1003bbc0 f i libucrt:output.obj
 0001:0003abe1       ?state_case_normal_common@?$output_processor@_WV?$string_output_adapter@_W@__crt_stdio_output@@V?$positional_parameter_base@_WV?$string_output_adapter@_W@__crt_stdio_output@@@2@@__crt_stdio_output@@AAE_NXZ 1003bbe1 f i libucrt:output.obj
 0001:0003ac02       ?state_case_normal_common@?$output_processor@_WV?$string_output_adapter@_W@__crt_stdio_output@@V?$standard_base@_WV?$string_output_adapter@_W@__crt_stdio_output@@@2@@__crt_stdio_output@@AAE_NXZ 1003bc02 f i libucrt:output.obj
 0001:0003ac23       ?state_case_normal_tchar@?$output_processor@DV?$stream_output_adapter@D@__crt_stdio_output@@V?$format_validation_base@DV?$stream_output_adapter@D@__crt_stdio_output@@@2@@__crt_stdio_output@@AAE_ND@Z 1003bc23 f i libucrt:output.obj
 0001:0003ac9c       ?state_case_normal_tchar@?$output_processor@DV?$stream_output_adapter@D@__crt_stdio_output@@V?$positional_parameter_base@DV?$stream_output_adapter@D@__crt_stdio_output@@@2@@__crt_stdio_output@@AAE_ND@Z 1003bc9c f i libucrt:output.obj
 0001:0003ad15       ?state_case_normal_tchar@?$output_processor@DV?$stream_output_adapter@D@__crt_stdio_output@@V?$standard_base@DV?$stream_output_adapter@D@__crt_stdio_output@@@2@@__crt_stdio_output@@AAE_ND@Z 1003bd15 f i libucrt:output.obj
 0001:0003ad8e       ?state_case_normal_tchar@?$output_processor@DV?$string_output_adapter@D@__crt_stdio_output@@V?$format_validation_base@DV?$string_output_adapter@D@__crt_stdio_output@@@2@@__crt_stdio_output@@AAE_ND@Z 1003bd8e f i libucrt:output.obj
 0001:0003ae07       ?state_case_normal_tchar@?$output_processor@DV?$string_output_adapter@D@__crt_stdio_output@@V?$positional_parameter_base@DV?$string_output_adapter@D@__crt_stdio_output@@@2@@__crt_stdio_output@@AAE_ND@Z 1003be07 f i libucrt:output.obj
 0001:0003ae80       ?state_case_normal_tchar@?$output_processor@DV?$string_output_adapter@D@__crt_stdio_output@@V?$standard_base@DV?$string_output_adapter@D@__crt_stdio_output@@@2@@__crt_stdio_output@@AAE_ND@Z 1003be80 f i libucrt:output.obj
 0001:0003aef9       ?state_case_normal_tchar@?$output_processor@_WV?$stream_output_adapter@_W@__crt_stdio_output@@V?$format_validation_base@_WV?$stream_output_adapter@_W@__crt_stdio_output@@@2@@__crt_stdio_output@@AAE_N_W@Z 1003bef9 f i libucrt:output.obj
 0001:0003af04       ?state_case_normal_tchar@?$output_processor@_WV?$stream_output_adapter@_W@__crt_stdio_output@@V?$positional_parameter_base@_WV?$stream_output_adapter@_W@__crt_stdio_output@@@2@@__crt_stdio_output@@AAE_N_W@Z 1003bf04 f i libucrt:output.obj
 0001:0003af0f       ?state_case_normal_tchar@?$output_processor@_WV?$stream_output_adapter@_W@__crt_stdio_output@@V?$standard_base@_WV?$stream_output_adapter@_W@__crt_stdio_output@@@2@@__crt_stdio_output@@AAE_N_W@Z 1003bf0f f i libucrt:output.obj
 0001:0003af1a       ?state_case_normal_tchar@?$output_processor@_WV?$string_output_adapter@_W@__crt_stdio_output@@V?$format_validation_base@_WV?$string_output_adapter@_W@__crt_stdio_output@@@2@@__crt_stdio_output@@AAE_N_W@Z 1003bf1a f i libucrt:output.obj
 0001:0003af25       ?state_case_normal_tchar@?$output_processor@_WV?$string_output_adapter@_W@__crt_stdio_output@@V?$positional_parameter_base@_WV?$string_output_adapter@_W@__crt_stdio_output@@@2@@__crt_stdio_output@@AAE_N_W@Z 1003bf25 f i libucrt:output.obj
 0001:0003af30       ?state_case_normal_tchar@?$output_processor@_WV?$string_output_adapter@_W@__crt_stdio_output@@V?$standard_base@_WV?$string_output_adapter@_W@__crt_stdio_output@@@2@@__crt_stdio_output@@AAE_N_W@Z 1003bf30 f i libucrt:output.obj
 0001:0003af3b       ?state_case_percent@?$output_processor@DV?$stream_output_adapter@D@__crt_stdio_output@@V?$format_validation_base@DV?$stream_output_adapter@D@__crt_stdio_output@@@2@@__crt_stdio_output@@AAE_NXZ 1003bf3b f i libucrt:output.obj
 0001:0003af59       ?state_case_percent@?$output_processor@DV?$stream_output_adapter@D@__crt_stdio_output@@V?$positional_parameter_base@DV?$stream_output_adapter@D@__crt_stdio_output@@@2@@__crt_stdio_output@@AAE_NXZ 1003bf59 f i libucrt:output.obj
 0001:0003af77       ?state_case_percent@?$output_processor@DV?$stream_output_adapter@D@__crt_stdio_output@@V?$standard_base@DV?$stream_output_adapter@D@__crt_stdio_output@@@2@@__crt_stdio_output@@AAE_NXZ 1003bf77 f i libucrt:output.obj
 0001:0003af95       ?state_case_percent@?$output_processor@DV?$string_output_adapter@D@__crt_stdio_output@@V?$format_validation_base@DV?$string_output_adapter@D@__crt_stdio_output@@@2@@__crt_stdio_output@@AAE_NXZ 1003bf95 f i libucrt:output.obj
 0001:0003afb3       ?state_case_percent@?$output_processor@DV?$string_output_adapter@D@__crt_stdio_output@@V?$positional_parameter_base@DV?$string_output_adapter@D@__crt_stdio_output@@@2@@__crt_stdio_output@@AAE_NXZ 1003bfb3 f i libucrt:output.obj
 0001:0003afd1       ?state_case_percent@?$output_processor@DV?$string_output_adapter@D@__crt_stdio_output@@V?$standard_base@DV?$string_output_adapter@D@__crt_stdio_output@@@2@@__crt_stdio_output@@AAE_NXZ 1003bfd1 f i libucrt:output.obj
 0001:0003afef       ?state_case_percent@?$output_processor@_WV?$stream_output_adapter@_W@__crt_stdio_output@@V?$format_validation_base@_WV?$stream_output_adapter@_W@__crt_stdio_output@@@2@@__crt_stdio_output@@AAE_NXZ 1003bfef f i libucrt:output.obj
 0001:0003b00d       ?state_case_percent@?$output_processor@_WV?$stream_output_adapter@_W@__crt_stdio_output@@V?$positional_parameter_base@_WV?$stream_output_adapter@_W@__crt_stdio_output@@@2@@__crt_stdio_output@@AAE_NXZ 1003c00d f i libucrt:output.obj
 0001:0003b02b       ?state_case_percent@?$output_processor@_WV?$stream_output_adapter@_W@__crt_stdio_output@@V?$standard_base@_WV?$stream_output_adapter@_W@__crt_stdio_output@@@2@@__crt_stdio_output@@AAE_NXZ 1003c02b f i libucrt:output.obj
 0001:0003b049       ?state_case_percent@?$output_processor@_WV?$string_output_adapter@_W@__crt_stdio_output@@V?$format_validation_base@_WV?$string_output_adapter@_W@__crt_stdio_output@@@2@@__crt_stdio_output@@AAE_NXZ 1003c049 f i libucrt:output.obj
 0001:0003b067       ?state_case_percent@?$output_processor@_WV?$string_output_adapter@_W@__crt_stdio_output@@V?$positional_parameter_base@_WV?$string_output_adapter@_W@__crt_stdio_output@@@2@@__crt_stdio_output@@AAE_NXZ 1003c067 f i libucrt:output.obj
 0001:0003b085       ?state_case_percent@?$output_processor@_WV?$string_output_adapter@_W@__crt_stdio_output@@V?$standard_base@_WV?$string_output_adapter@_W@__crt_stdio_output@@@2@@__crt_stdio_output@@AAE_NXZ 1003c085 f i libucrt:output.obj
 0001:0003b0a3       ?state_case_precision@?$output_processor@DV?$stream_output_adapter@D@__crt_stdio_output@@V?$format_validation_base@DV?$stream_output_adapter@D@__crt_stdio_output@@@2@@__crt_stdio_output@@AAE_NXZ 1003c0a3 f i libucrt:output.obj
 0001:0003b0d5       ?state_case_precision@?$output_processor@DV?$stream_output_adapter@D@__crt_stdio_output@@V?$positional_parameter_base@DV?$stream_output_adapter@D@__crt_stdio_output@@@2@@__crt_stdio_output@@AAE_NXZ 1003c0d5 f i libucrt:output.obj
 0001:0003b11d       ?state_case_precision@?$output_processor@DV?$stream_output_adapter@D@__crt_stdio_output@@V?$standard_base@DV?$stream_output_adapter@D@__crt_stdio_output@@@2@@__crt_stdio_output@@AAE_NXZ 1003c11d f i libucrt:output.obj
 0001:0003b14f       ?state_case_precision@?$output_processor@DV?$string_output_adapter@D@__crt_stdio_output@@V?$format_validation_base@DV?$string_output_adapter@D@__crt_stdio_output@@@2@@__crt_stdio_output@@AAE_NXZ 1003c14f f i libucrt:output.obj
 0001:0003b181       ?state_case_precision@?$output_processor@DV?$string_output_adapter@D@__crt_stdio_output@@V?$positional_parameter_base@DV?$string_output_adapter@D@__crt_stdio_output@@@2@@__crt_stdio_output@@AAE_NXZ 1003c181 f i libucrt:output.obj
 0001:0003b1c9       ?state_case_precision@?$output_processor@DV?$string_output_adapter@D@__crt_stdio_output@@V?$standard_base@DV?$string_output_adapter@D@__crt_stdio_output@@@2@@__crt_stdio_output@@AAE_NXZ 1003c1c9 f i libucrt:output.obj
 0001:0003b1fb       ?state_case_precision@?$output_processor@_WV?$stream_output_adapter@_W@__crt_stdio_output@@V?$format_validation_base@_WV?$stream_output_adapter@_W@__crt_stdio_output@@@2@@__crt_stdio_output@@AAE_NXZ 1003c1fb f i libucrt:output.obj
 0001:0003b22e       ?state_case_precision@?$output_processor@_WV?$stream_output_adapter@_W@__crt_stdio_output@@V?$positional_parameter_base@_WV?$stream_output_adapter@_W@__crt_stdio_output@@@2@@__crt_stdio_output@@AAE_NXZ 1003c22e f i libucrt:output.obj
 0001:0003b277       ?state_case_precision@?$output_processor@_WV?$stream_output_adapter@_W@__crt_stdio_output@@V?$standard_base@_WV?$stream_output_adapter@_W@__crt_stdio_output@@@2@@__crt_stdio_output@@AAE_NXZ 1003c277 f i libucrt:output.obj
 0001:0003b2aa       ?state_case_precision@?$output_processor@_WV?$string_output_adapter@_W@__crt_stdio_output@@V?$format_validation_base@_WV?$string_output_adapter@_W@__crt_stdio_output@@@2@@__crt_stdio_output@@AAE_NXZ 1003c2aa f i libucrt:output.obj
 0001:0003b2dd       ?state_case_precision@?$output_processor@_WV?$string_output_adapter@_W@__crt_stdio_output@@V?$positional_parameter_base@_WV?$string_output_adapter@_W@__crt_stdio_output@@@2@@__crt_stdio_output@@AAE_NXZ 1003c2dd f i libucrt:output.obj
 0001:0003b326       ?state_case_precision@?$output_processor@_WV?$string_output_adapter@_W@__crt_stdio_output@@V?$standard_base@_WV?$string_output_adapter@_W@__crt_stdio_output@@@2@@__crt_stdio_output@@AAE_NXZ 1003c326 f i libucrt:output.obj
 0001:0003b359       ?state_case_size@?$output_processor@DV?$stream_output_adapter@D@__crt_stdio_output@@V?$format_validation_base@DV?$stream_output_adapter@D@__crt_stdio_output@@@2@@__crt_stdio_output@@AAE_NXZ 1003c359 f i libucrt:output.obj
 0001:0003b51c       ?state_case_size@?$output_processor@DV?$stream_output_adapter@D@__crt_stdio_output@@V?$positional_parameter_base@DV?$stream_output_adapter@D@__crt_stdio_output@@@2@@__crt_stdio_output@@AAE_NXZ 1003c51c f i libucrt:output.obj
 0001:0003b6df       ?state_case_size@?$output_processor@DV?$stream_output_adapter@D@__crt_stdio_output@@V?$standard_base@DV?$stream_output_adapter@D@__crt_stdio_output@@@2@@__crt_stdio_output@@AAE_NXZ 1003c6df f i libucrt:output.obj
 0001:0003b8a2       ?state_case_size@?$output_processor@DV?$string_output_adapter@D@__crt_stdio_output@@V?$format_validation_base@DV?$string_output_adapter@D@__crt_stdio_output@@@2@@__crt_stdio_output@@AAE_NXZ 1003c8a2 f i libucrt:output.obj
 0001:0003ba65       ?state_case_size@?$output_processor@DV?$string_output_adapter@D@__crt_stdio_output@@V?$positional_parameter_base@DV?$string_output_adapter@D@__crt_stdio_output@@@2@@__crt_stdio_output@@AAE_NXZ 1003ca65 f i libucrt:output.obj
 0001:0003bc28       ?state_case_size@?$output_processor@DV?$string_output_adapter@D@__crt_stdio_output@@V?$standard_base@DV?$string_output_adapter@D@__crt_stdio_output@@@2@@__crt_stdio_output@@AAE_NXZ 1003cc28 f i libucrt:output.obj
 0001:0003bdeb       ?state_case_size@?$output_processor@_WV?$stream_output_adapter@_W@__crt_stdio_output@@V?$format_validation_base@_WV?$stream_output_adapter@_W@__crt_stdio_output@@@2@@__crt_stdio_output@@AAE_NXZ 1003cdeb f i libucrt:output.obj
 0001:0003bfc6       ?state_case_size@?$output_processor@_WV?$stream_output_adapter@_W@__crt_stdio_output@@V?$positional_parameter_base@_WV?$stream_output_adapter@_W@__crt_stdio_output@@@2@@__crt_stdio_output@@AAE_NXZ 1003cfc6 f i libucrt:output.obj
 0001:0003c1a1       ?state_case_size@?$output_processor@_WV?$stream_output_adapter@_W@__crt_stdio_output@@V?$standard_base@_WV?$stream_output_adapter@_W@__crt_stdio_output@@@2@@__crt_stdio_output@@AAE_NXZ 1003d1a1 f i libucrt:output.obj
 0001:0003c37c       ?state_case_size@?$output_processor@_WV?$string_output_adapter@_W@__crt_stdio_output@@V?$format_validation_base@_WV?$string_output_adapter@_W@__crt_stdio_output@@@2@@__crt_stdio_output@@AAE_NXZ 1003d37c f i libucrt:output.obj
 0001:0003c557       ?state_case_size@?$output_processor@_WV?$string_output_adapter@_W@__crt_stdio_output@@V?$positional_parameter_base@_WV?$string_output_adapter@_W@__crt_stdio_output@@@2@@__crt_stdio_output@@AAE_NXZ 1003d557 f i libucrt:output.obj
 0001:0003c732       ?state_case_size@?$output_processor@_WV?$string_output_adapter@_W@__crt_stdio_output@@V?$standard_base@_WV?$string_output_adapter@_W@__crt_stdio_output@@@2@@__crt_stdio_output@@AAE_NXZ 1003d732 f i libucrt:output.obj
 0001:0003c90d       ?state_case_type@?$output_processor@DV?$stream_output_adapter@D@__crt_stdio_output@@V?$format_validation_base@DV?$stream_output_adapter@D@__crt_stdio_output@@@2@@__crt_stdio_output@@AAE_NXZ 1003d90d f i libucrt:output.obj
 0001:0003cbc7       ?state_case_type@?$output_processor@DV?$stream_output_adapter@D@__crt_stdio_output@@V?$positional_parameter_base@DV?$stream_output_adapter@D@__crt_stdio_output@@@2@@__crt_stdio_output@@AAE_NXZ 1003dbc7 f i libucrt:output.obj
 0001:0003ce8f       ?state_case_type@?$output_processor@DV?$stream_output_adapter@D@__crt_stdio_output@@V?$standard_base@DV?$stream_output_adapter@D@__crt_stdio_output@@@2@@__crt_stdio_output@@AAE_NXZ 1003de8f f i libucrt:output.obj
 0001:0003d149       ?state_case_type@?$output_processor@DV?$string_output_adapter@D@__crt_stdio_output@@V?$format_validation_base@DV?$string_output_adapter@D@__crt_stdio_output@@@2@@__crt_stdio_output@@AAE_NXZ 1003e149 f i libucrt:output.obj
 0001:0003d403       ?state_case_type@?$output_processor@DV?$string_output_adapter@D@__crt_stdio_output@@V?$positional_parameter_base@DV?$string_output_adapter@D@__crt_stdio_output@@@2@@__crt_stdio_output@@AAE_NXZ 1003e403 f i libucrt:output.obj
 0001:0003d6cb       ?state_case_type@?$output_processor@DV?$string_output_adapter@D@__crt_stdio_output@@V?$standard_base@DV?$string_output_adapter@D@__crt_stdio_output@@@2@@__crt_stdio_output@@AAE_NXZ 1003e6cb f i libucrt:output.obj
 0001:0003d985       ?state_case_type@?$output_processor@_WV?$stream_output_adapter@_W@__crt_stdio_output@@V?$format_validation_base@_WV?$stream_output_adapter@_W@__crt_stdio_output@@@2@@__crt_stdio_output@@AAE_NXZ 1003e985 f i libucrt:output.obj
 0001:0003dc79       ?state_case_type@?$output_processor@_WV?$stream_output_adapter@_W@__crt_stdio_output@@V?$positional_parameter_base@_WV?$stream_output_adapter@_W@__crt_stdio_output@@@2@@__crt_stdio_output@@AAE_NXZ 1003ec79 f i libucrt:output.obj
 0001:0003df80       ?state_case_type@?$output_processor@_WV?$stream_output_adapter@_W@__crt_stdio_output@@V?$standard_base@_WV?$stream_output_adapter@_W@__crt_stdio_output@@@2@@__crt_stdio_output@@AAE_NXZ 1003ef80 f i libucrt:output.obj
 0001:0003e274       ?state_case_type@?$output_processor@_WV?$string_output_adapter@_W@__crt_stdio_output@@V?$format_validation_base@_WV?$string_output_adapter@_W@__crt_stdio_output@@@2@@__crt_stdio_output@@AAE_NXZ 1003f274 f i libucrt:output.obj
 0001:0003e568       ?state_case_type@?$output_processor@_WV?$string_output_adapter@_W@__crt_stdio_output@@V?$positional_parameter_base@_WV?$string_output_adapter@_W@__crt_stdio_output@@@2@@__crt_stdio_output@@AAE_NXZ 1003f568 f i libucrt:output.obj
 0001:0003e86f       ?state_case_type@?$output_processor@_WV?$string_output_adapter@_W@__crt_stdio_output@@V?$standard_base@_WV?$string_output_adapter@_W@__crt_stdio_output@@@2@@__crt_stdio_output@@AAE_NXZ 1003f86f f i libucrt:output.obj
 0001:0003eb63       ?state_case_width@?$output_processor@DV?$stream_output_adapter@D@__crt_stdio_output@@V?$format_validation_base@DV?$stream_output_adapter@D@__crt_stdio_output@@@2@@__crt_stdio_output@@AAE_NXZ 1003fb63 f i libucrt:output.obj
 0001:0003eb98       ?state_case_width@?$output_processor@DV?$stream_output_adapter@D@__crt_stdio_output@@V?$positional_parameter_base@DV?$stream_output_adapter@D@__crt_stdio_output@@@2@@__crt_stdio_output@@AAE_NXZ 1003fb98 f i libucrt:output.obj
 0001:0003ebe8       ?state_case_width@?$output_processor@DV?$stream_output_adapter@D@__crt_stdio_output@@V?$standard_base@DV?$stream_output_adapter@D@__crt_stdio_output@@@2@@__crt_stdio_output@@AAE_NXZ 1003fbe8 f i libucrt:output.obj
 0001:0003ec1d       ?state_case_width@?$output_processor@DV?$string_output_adapter@D@__crt_stdio_output@@V?$format_validation_base@DV?$string_output_adapter@D@__crt_stdio_output@@@2@@__crt_stdio_output@@AAE_NXZ 1003fc1d f i libucrt:output.obj
 0001:0003ec52       ?state_case_width@?$output_processor@DV?$string_output_adapter@D@__crt_stdio_output@@V?$positional_parameter_base@DV?$string_output_adapter@D@__crt_stdio_output@@@2@@__crt_stdio_output@@AAE_NXZ 1003fc52 f i libucrt:output.obj
 0001:0003eca2       ?state_case_width@?$output_processor@DV?$string_output_adapter@D@__crt_stdio_output@@V?$standard_base@DV?$string_output_adapter@D@__crt_stdio_output@@@2@@__crt_stdio_output@@AAE_NXZ 1003fca2 f i libucrt:output.obj
 0001:0003ecd7       ?state_case_width@?$output_processor@_WV?$stream_output_adapter@_W@__crt_stdio_output@@V?$format_validation_base@_WV?$stream_output_adapter@_W@__crt_stdio_output@@@2@@__crt_stdio_output@@AAE_NXZ 1003fcd7 f i libucrt:output.obj
 0001:0003ed0e       ?state_case_width@?$output_processor@_WV?$stream_output_adapter@_W@__crt_stdio_output@@V?$positional_parameter_base@_WV?$stream_output_adapter@_W@__crt_stdio_output@@@2@@__crt_stdio_output@@AAE_NXZ 1003fd0e f i libucrt:output.obj
 0001:0003ed5f       ?state_case_width@?$output_processor@_WV?$stream_output_adapter@_W@__crt_stdio_output@@V?$standard_base@_WV?$stream_output_adapter@_W@__crt_stdio_output@@@2@@__crt_stdio_output@@AAE_NXZ 1003fd5f f i libucrt:output.obj
 0001:0003ed96       ?state_case_width@?$output_processor@_WV?$string_output_adapter@_W@__crt_stdio_output@@V?$format_validation_base@_WV?$string_output_adapter@_W@__crt_stdio_output@@@2@@__crt_stdio_output@@AAE_NXZ 1003fd96 f i libucrt:output.obj
 0001:0003edcd       ?state_case_width@?$output_processor@_WV?$string_output_adapter@_W@__crt_stdio_output@@V?$positional_parameter_base@_WV?$string_output_adapter@_W@__crt_stdio_output@@@2@@__crt_stdio_output@@AAE_NXZ 1003fdcd f i libucrt:output.obj
 0001:0003ee1e       ?state_case_width@?$output_processor@_WV?$string_output_adapter@_W@__crt_stdio_output@@V?$standard_base@_WV?$string_output_adapter@_W@__crt_stdio_output@@@2@@__crt_stdio_output@@AAE_NXZ 1003fe1e f i libucrt:output.obj
 0001:0003ee55       ?state_count@?$format_validation_base@DV?$stream_output_adapter@D@__crt_stdio_output@@@__crt_stdio_output@@KAIXZ 1003fe55 f i libucrt:output.obj
 0001:0003ee59       ?state_count@?$format_validation_base@DV?$string_output_adapter@D@__crt_stdio_output@@@__crt_stdio_output@@KAIXZ 1003fe59 f i libucrt:output.obj
 0001:0003ee5d       ?state_count@?$format_validation_base@_WV?$stream_output_adapter@_W@__crt_stdio_output@@@__crt_stdio_output@@KAIXZ 1003fe5d f i libucrt:output.obj
 0001:0003ee61       ?state_count@?$format_validation_base@_WV?$string_output_adapter@_W@__crt_stdio_output@@@__crt_stdio_output@@KAIXZ 1003fe61 f i libucrt:output.obj
 0001:0003ee65       ?state_count@?$standard_base@DV?$stream_output_adapter@D@__crt_stdio_output@@@__crt_stdio_output@@KAIXZ 1003fe65 f i libucrt:output.obj
 0001:0003ee69       ?state_count@?$standard_base@DV?$string_output_adapter@D@__crt_stdio_output@@@__crt_stdio_output@@KAIXZ 1003fe69 f i libucrt:output.obj
 0001:0003ee6d       ?state_count@?$standard_base@_WV?$stream_output_adapter@_W@__crt_stdio_output@@@__crt_stdio_output@@KAIXZ 1003fe6d f i libucrt:output.obj
 0001:0003ee71       ?state_count@?$standard_base@_WV?$string_output_adapter@_W@__crt_stdio_output@@@__crt_stdio_output@@KAIXZ 1003fe71 f i libucrt:output.obj
 0001:0003ee75       ?state_transition_table@?$format_validation_base@DV?$stream_output_adapter@D@__crt_stdio_output@@@__crt_stdio_output@@KAPBEXZ 1003fe75 f i libucrt:output.obj
 0001:0003ee7b       ?state_transition_table@?$format_validation_base@DV?$string_output_adapter@D@__crt_stdio_output@@@__crt_stdio_output@@KAPBEXZ 1003fe7b f i libucrt:output.obj
 0001:0003ee81       ?state_transition_table@?$format_validation_base@_WV?$stream_output_adapter@_W@__crt_stdio_output@@@__crt_stdio_output@@KAPBEXZ 1003fe81 f i libucrt:output.obj
 0001:0003ee87       ?state_transition_table@?$format_validation_base@_WV?$string_output_adapter@_W@__crt_stdio_output@@@__crt_stdio_output@@KAPBEXZ 1003fe87 f i libucrt:output.obj
 0001:0003ee8d       ?state_transition_table@?$standard_base@DV?$stream_output_adapter@D@__crt_stdio_output@@@__crt_stdio_output@@KAPBEXZ 1003fe8d f i libucrt:output.obj
 0001:0003ee93       ?state_transition_table@?$standard_base@DV?$string_output_adapter@D@__crt_stdio_output@@@__crt_stdio_output@@KAPBEXZ 1003fe93 f i libucrt:output.obj
 0001:0003ee99       ?state_transition_table@?$standard_base@_WV?$stream_output_adapter@_W@__crt_stdio_output@@@__crt_stdio_output@@KAPBEXZ 1003fe99 f i libucrt:output.obj
 0001:0003ee9f       ?state_transition_table@?$standard_base@_WV?$string_output_adapter@_W@__crt_stdio_output@@@__crt_stdio_output@@KAPBEXZ 1003fe9f f i libucrt:output.obj
 0001:0003eea5       ?to_integer_size@__crt_stdio_output@@YAIW4length_modifier@1@@Z 1003fea5 f i libucrt:output.obj
 0001:0003ef18       ?type_case_X@?$output_processor@DV?$stream_output_adapter@D@__crt_stdio_output@@V?$format_validation_base@DV?$stream_output_adapter@D@__crt_stdio_output@@@2@@__crt_stdio_output@@AAE_NXZ 1003ff18 f i libucrt:output.obj
 0001:0003ef24       ?type_case_X@?$output_processor@DV?$stream_output_adapter@D@__crt_stdio_output@@V?$positional_parameter_base@DV?$stream_output_adapter@D@__crt_stdio_output@@@2@@__crt_stdio_output@@AAE_NXZ 1003ff24 f i libucrt:output.obj
 0001:0003ef30       ?type_case_X@?$output_processor@DV?$stream_output_adapter@D@__crt_stdio_output@@V?$standard_base@DV?$stream_output_adapter@D@__crt_stdio_output@@@2@@__crt_stdio_output@@AAE_NXZ 1003ff30 f i libucrt:output.obj
 0001:0003ef3c       ?type_case_X@?$output_processor@DV?$string_output_adapter@D@__crt_stdio_output@@V?$format_validation_base@DV?$string_output_adapter@D@__crt_stdio_output@@@2@@__crt_stdio_output@@AAE_NXZ 1003ff3c f i libucrt:output.obj
 0001:0003ef48       ?type_case_X@?$output_processor@DV?$string_output_adapter@D@__crt_stdio_output@@V?$positional_parameter_base@DV?$string_output_adapter@D@__crt_stdio_output@@@2@@__crt_stdio_output@@AAE_NXZ 1003ff48 f i libucrt:output.obj
 0001:0003ef54       ?type_case_X@?$output_processor@DV?$string_output_adapter@D@__crt_stdio_output@@V?$standard_base@DV?$string_output_adapter@D@__crt_stdio_output@@@2@@__crt_stdio_output@@AAE_NXZ 1003ff54 f i libucrt:output.obj
 0001:0003ef60       ?type_case_X@?$output_processor@_WV?$stream_output_adapter@_W@__crt_stdio_output@@V?$format_validation_base@_WV?$stream_output_adapter@_W@__crt_stdio_output@@@2@@__crt_stdio_output@@AAE_NXZ 1003ff60 f i libucrt:output.obj
 0001:0003ef6c       ?type_case_X@?$output_processor@_WV?$stream_output_adapter@_W@__crt_stdio_output@@V?$positional_parameter_base@_WV?$stream_output_adapter@_W@__crt_stdio_output@@@2@@__crt_stdio_output@@AAE_NXZ 1003ff6c f i libucrt:output.obj
 0001:0003ef78       ?type_case_X@?$output_processor@_WV?$stream_output_adapter@_W@__crt_stdio_output@@V?$standard_base@_WV?$stream_output_adapter@_W@__crt_stdio_output@@@2@@__crt_stdio_output@@AAE_NXZ 1003ff78 f i libucrt:output.obj
 0001:0003ef84       ?type_case_X@?$output_processor@_WV?$string_output_adapter@_W@__crt_stdio_output@@V?$format_validation_base@_WV?$string_output_adapter@_W@__crt_stdio_output@@@2@@__crt_stdio_output@@AAE_NXZ 1003ff84 f i libucrt:output.obj
 0001:0003ef90       ?type_case_X@?$output_processor@_WV?$string_output_adapter@_W@__crt_stdio_output@@V?$positional_parameter_base@_WV?$string_output_adapter@_W@__crt_stdio_output@@@2@@__crt_stdio_output@@AAE_NXZ 1003ff90 f i libucrt:output.obj
 0001:0003ef9c       ?type_case_X@?$output_processor@_WV?$string_output_adapter@_W@__crt_stdio_output@@V?$standard_base@_WV?$string_output_adapter@_W@__crt_stdio_output@@@2@@__crt_stdio_output@@AAE_NXZ 1003ff9c f i libucrt:output.obj
 0001:0003efa8       ?type_case_Z@?$output_processor@DV?$stream_output_adapter@D@__crt_stdio_output@@V?$format_validation_base@DV?$stream_output_adapter@D@__crt_stdio_output@@@2@@__crt_stdio_output@@AAE_NXZ 1003ffa8 f i libucrt:output.obj
 0001:0003f023       ?type_case_Z@?$output_processor@DV?$stream_output_adapter@D@__crt_stdio_output@@V?$positional_parameter_base@DV?$stream_output_adapter@D@__crt_stdio_output@@@2@@__crt_stdio_output@@AAE_NXZ 10040023 f i libucrt:output.obj
 0001:0003f0c1       ?type_case_Z@?$output_processor@DV?$stream_output_adapter@D@__crt_stdio_output@@V?$standard_base@DV?$stream_output_adapter@D@__crt_stdio_output@@@2@@__crt_stdio_output@@AAE_NXZ 100400c1 f i libucrt:output.obj
 0001:0003f13c       ?type_case_Z@?$output_processor@DV?$string_output_adapter@D@__crt_stdio_output@@V?$format_validation_base@DV?$string_output_adapter@D@__crt_stdio_output@@@2@@__crt_stdio_output@@AAE_NXZ 1004013c f i libucrt:output.obj
 0001:0003f1b7       ?type_case_Z@?$output_processor@DV?$string_output_adapter@D@__crt_stdio_output@@V?$positional_parameter_base@DV?$string_output_adapter@D@__crt_stdio_output@@@2@@__crt_stdio_output@@AAE_NXZ 100401b7 f i libucrt:output.obj
 0001:0003f255       ?type_case_Z@?$output_processor@DV?$string_output_adapter@D@__crt_stdio_output@@V?$standard_base@DV?$string_output_adapter@D@__crt_stdio_output@@@2@@__crt_stdio_output@@AAE_NXZ 10040255 f i libucrt:output.obj
 0001:0003f2d0       ?type_case_Z@?$output_processor@_WV?$stream_output_adapter@_W@__crt_stdio_output@@V?$format_validation_base@_WV?$stream_output_adapter@_W@__crt_stdio_output@@@2@@__crt_stdio_output@@AAE_NXZ 100402d0 f i libucrt:output.obj
 0001:0003f34b       ?type_case_Z@?$output_processor@_WV?$stream_output_adapter@_W@__crt_stdio_output@@V?$positional_parameter_base@_WV?$stream_output_adapter@_W@__crt_stdio_output@@@2@@__crt_stdio_output@@AAE_NXZ 1004034b f i libucrt:output.obj
 0001:0003f3e9       ?type_case_Z@?$output_processor@_WV?$stream_output_adapter@_W@__crt_stdio_output@@V?$standard_base@_WV?$stream_output_adapter@_W@__crt_stdio_output@@@2@@__crt_stdio_output@@AAE_NXZ 100403e9 f i libucrt:output.obj
 0001:0003f464       ?type_case_Z@?$output_processor@_WV?$string_output_adapter@_W@__crt_stdio_output@@V?$format_validation_base@_WV?$string_output_adapter@_W@__crt_stdio_output@@@2@@__crt_stdio_output@@AAE_NXZ 10040464 f i libucrt:output.obj
 0001:0003f4df       ?type_case_Z@?$output_processor@_WV?$string_output_adapter@_W@__crt_stdio_output@@V?$positional_parameter_base@_WV?$string_output_adapter@_W@__crt_stdio_output@@@2@@__crt_stdio_output@@AAE_NXZ 100404df f i libucrt:output.obj
 0001:0003f57d       ?type_case_Z@?$output_processor@_WV?$string_output_adapter@_W@__crt_stdio_output@@V?$standard_base@_WV?$string_output_adapter@_W@__crt_stdio_output@@@2@@__crt_stdio_output@@AAE_NXZ 1004057d f i libucrt:output.obj
 0001:0003f5f8       ?type_case_a@?$output_processor@DV?$stream_output_adapter@D@__crt_stdio_output@@V?$format_validation_base@DV?$stream_output_adapter@D@__crt_stdio_output@@@2@@__crt_stdio_output@@AAE_NXZ 100405f8 f i libucrt:output.obj
 0001:0003f7a8       ?type_case_a@?$output_processor@DV?$stream_output_adapter@D@__crt_stdio_output@@V?$positional_parameter_base@DV?$stream_output_adapter@D@__crt_stdio_output@@@2@@__crt_stdio_output@@AAE_NXZ 100407a8 f i libucrt:output.obj
 0001:0003f97f       ?type_case_a@?$output_processor@DV?$stream_output_adapter@D@__crt_stdio_output@@V?$standard_base@DV?$stream_output_adapter@D@__crt_stdio_output@@@2@@__crt_stdio_output@@AAE_NXZ 1004097f f i libucrt:output.obj
 0001:0003fb2f       ?type_case_a@?$output_processor@DV?$string_output_adapter@D@__crt_stdio_output@@V?$format_validation_base@DV?$string_output_adapter@D@__crt_stdio_output@@@2@@__crt_stdio_output@@AAE_NXZ 10040b2f f i libucrt:output.obj
 0001:0003fcdf       ?type_case_a@?$output_processor@DV?$string_output_adapter@D@__crt_stdio_output@@V?$positional_parameter_base@DV?$string_output_adapter@D@__crt_stdio_output@@@2@@__crt_stdio_output@@AAE_NXZ 10040cdf f i libucrt:output.obj
 0001:0003feb6       ?type_case_a@?$output_processor@DV?$string_output_adapter@D@__crt_stdio_output@@V?$standard_base@DV?$string_output_adapter@D@__crt_stdio_output@@@2@@__crt_stdio_output@@AAE_NXZ 10040eb6 f i libucrt:output.obj
 0001:00040066       ?type_case_a@?$output_processor@_WV?$stream_output_adapter@_W@__crt_stdio_output@@V?$format_validation_base@_WV?$stream_output_adapter@_W@__crt_stdio_output@@@2@@__crt_stdio_output@@AAE_NXZ 10041066 f i libucrt:output.obj
 0001:00040234       ?type_case_a@?$output_processor@_WV?$stream_output_adapter@_W@__crt_stdio_output@@V?$positional_parameter_base@_WV?$stream_output_adapter@_W@__crt_stdio_output@@@2@@__crt_stdio_output@@AAE_NXZ 10041234 f i libucrt:output.obj
 0001:00040429       ?type_case_a@?$output_processor@_WV?$stream_output_adapter@_W@__crt_stdio_output@@V?$standard_base@_WV?$stream_output_adapter@_W@__crt_stdio_output@@@2@@__crt_stdio_output@@AAE_NXZ 10041429 f i libucrt:output.obj
 0001:000405f7       ?type_case_a@?$output_processor@_WV?$string_output_adapter@_W@__crt_stdio_output@@V?$format_validation_base@_WV?$string_output_adapter@_W@__crt_stdio_output@@@2@@__crt_stdio_output@@AAE_NXZ 100415f7 f i libucrt:output.obj
 0001:000407c5       ?type_case_a@?$output_processor@_WV?$string_output_adapter@_W@__crt_stdio_output@@V?$positional_parameter_base@_WV?$string_output_adapter@_W@__crt_stdio_output@@@2@@__crt_stdio_output@@AAE_NXZ 100417c5 f i libucrt:output.obj
 0001:000409ba       ?type_case_a@?$output_processor@_WV?$string_output_adapter@_W@__crt_stdio_output@@V?$standard_base@_WV?$string_output_adapter@_W@__crt_stdio_output@@@2@@__crt_stdio_output@@AAE_NXZ 100419ba f i libucrt:output.obj
 0001:00040b88       ?type_case_c@?$output_processor@DV?$stream_output_adapter@D@__crt_stdio_output@@V?$format_validation_base@DV?$stream_output_adapter@D@__crt_stdio_output@@@2@@__crt_stdio_output@@AAE_NXZ 10041b88 f i libucrt:output.obj
 0001:00040b92       ?type_case_c@?$output_processor@DV?$stream_output_adapter@D@__crt_stdio_output@@V?$positional_parameter_base@DV?$stream_output_adapter@D@__crt_stdio_output@@@2@@__crt_stdio_output@@AAE_NXZ 10041b92 f i libucrt:output.obj
 0001:00040b9c       ?type_case_c@?$output_processor@DV?$stream_output_adapter@D@__crt_stdio_output@@V?$standard_base@DV?$stream_output_adapter@D@__crt_stdio_output@@@2@@__crt_stdio_output@@AAE_NXZ 10041b9c f i libucrt:output.obj
 0001:00040ba6       ?type_case_c@?$output_processor@DV?$string_output_adapter@D@__crt_stdio_output@@V?$format_validation_base@DV?$string_output_adapter@D@__crt_stdio_output@@@2@@__crt_stdio_output@@AAE_NXZ 10041ba6 f i libucrt:output.obj
 0001:00040bb0       ?type_case_c@?$output_processor@DV?$string_output_adapter@D@__crt_stdio_output@@V?$positional_parameter_base@DV?$string_output_adapter@D@__crt_stdio_output@@@2@@__crt_stdio_output@@AAE_NXZ 10041bb0 f i libucrt:output.obj
 0001:00040bba       ?type_case_c@?$output_processor@DV?$string_output_adapter@D@__crt_stdio_output@@V?$standard_base@DV?$string_output_adapter@D@__crt_stdio_output@@@2@@__crt_stdio_output@@AAE_NXZ 10041bba f i libucrt:output.obj
 0001:00040bc4       ?type_case_c@?$output_processor@_WV?$stream_output_adapter@_W@__crt_stdio_output@@V?$format_validation_base@_WV?$stream_output_adapter@_W@__crt_stdio_output@@@2@@__crt_stdio_output@@AAE_NXZ 10041bc4 f i libucrt:output.obj
 0001:00040bce       ?type_case_c@?$output_processor@_WV?$stream_output_adapter@_W@__crt_stdio_output@@V?$positional_parameter_base@_WV?$stream_output_adapter@_W@__crt_stdio_output@@@2@@__crt_stdio_output@@AAE_NXZ 10041bce f i libucrt:output.obj
 0001:00040bd8       ?type_case_c@?$output_processor@_WV?$stream_output_adapter@_W@__crt_stdio_output@@V?$standard_base@_WV?$stream_output_adapter@_W@__crt_stdio_output@@@2@@__crt_stdio_output@@AAE_NXZ 10041bd8 f i libucrt:output.obj
 0001:00040be2       ?type_case_c@?$output_processor@_WV?$string_output_adapter@_W@__crt_stdio_output@@V?$format_validation_base@_WV?$string_output_adapter@_W@__crt_stdio_output@@@2@@__crt_stdio_output@@AAE_NXZ 10041be2 f i libucrt:output.obj
 0001:00040bec       ?type_case_c@?$output_processor@_WV?$string_output_adapter@_W@__crt_stdio_output@@V?$positional_parameter_base@_WV?$string_output_adapter@_W@__crt_stdio_output@@@2@@__crt_stdio_output@@AAE_NXZ 10041bec f i libucrt:output.obj
 0001:00040bf6       ?type_case_c@?$output_processor@_WV?$string_output_adapter@_W@__crt_stdio_output@@V?$standard_base@_WV?$string_output_adapter@_W@__crt_stdio_output@@@2@@__crt_stdio_output@@AAE_NXZ 10041bf6 f i libucrt:output.obj
 0001:00040c00       ?type_case_c_tchar@?$output_processor@DV?$stream_output_adapter@D@__crt_stdio_output@@V?$format_validation_base@DV?$stream_output_adapter@D@__crt_stdio_output@@@2@@__crt_stdio_output@@AAE_ND@Z 10041c00 f i libucrt:output.obj
 0001:00040cb4       ?type_case_c_tchar@?$output_processor@DV?$stream_output_adapter@D@__crt_stdio_output@@V?$positional_parameter_base@DV?$stream_output_adapter@D@__crt_stdio_output@@@2@@__crt_stdio_output@@AAE_ND@Z 10041cb4 f i libucrt:output.obj
 0001:00040da4       ?type_case_c_tchar@?$output_processor@DV?$stream_output_adapter@D@__crt_stdio_output@@V?$standard_base@DV?$stream_output_adapter@D@__crt_stdio_output@@@2@@__crt_stdio_output@@AAE_ND@Z 10041da4 f i libucrt:output.obj
 0001:00040e58       ?type_case_c_tchar@?$output_processor@DV?$string_output_adapter@D@__crt_stdio_output@@V?$format_validation_base@DV?$string_output_adapter@D@__crt_stdio_output@@@2@@__crt_stdio_output@@AAE_ND@Z 10041e58 f i libucrt:output.obj
 0001:00040f0c       ?type_case_c_tchar@?$output_processor@DV?$string_output_adapter@D@__crt_stdio_output@@V?$positional_parameter_base@DV?$string_output_adapter@D@__crt_stdio_output@@@2@@__crt_stdio_output@@AAE_ND@Z 10041f0c f i libucrt:output.obj
 0001:00040ffc       ?type_case_c_tchar@?$output_processor@DV?$string_output_adapter@D@__crt_stdio_output@@V?$standard_base@DV?$string_output_adapter@D@__crt_stdio_output@@@2@@__crt_stdio_output@@AAE_ND@Z 10041ffc f i libucrt:output.obj
 0001:000410b0       ?type_case_c_tchar@?$output_processor@_WV?$stream_output_adapter@_W@__crt_stdio_output@@V?$format_validation_base@_WV?$stream_output_adapter@_W@__crt_stdio_output@@@2@@__crt_stdio_output@@AAE_N_W@Z 100420b0 f i libucrt:output.obj
 0001:0004116e       ?type_case_c_tchar@?$output_processor@_WV?$stream_output_adapter@_W@__crt_stdio_output@@V?$positional_parameter_base@_WV?$stream_output_adapter@_W@__crt_stdio_output@@@2@@__crt_stdio_output@@AAE_N_W@Z 1004216e f i libucrt:output.obj
 0001:00041248       ?type_case_c_tchar@?$output_processor@_WV?$stream_output_adapter@_W@__crt_stdio_output@@V?$standard_base@_WV?$stream_output_adapter@_W@__crt_stdio_output@@@2@@__crt_stdio_output@@AAE_N_W@Z 10042248 f i libucrt:output.obj
 0001:00041306       ?type_case_c_tchar@?$output_processor@_WV?$string_output_adapter@_W@__crt_stdio_output@@V?$format_validation_base@_WV?$string_output_adapter@_W@__crt_stdio_output@@@2@@__crt_stdio_output@@AAE_N_W@Z 10042306 f i libucrt:output.obj
 0001:000413c4       ?type_case_c_tchar@?$output_processor@_WV?$string_output_adapter@_W@__crt_stdio_output@@V?$positional_parameter_base@_WV?$string_output_adapter@_W@__crt_stdio_output@@@2@@__crt_stdio_output@@AAE_N_W@Z 100423c4 f i libucrt:output.obj
 0001:0004149e       ?type_case_c_tchar@?$output_processor@_WV?$string_output_adapter@_W@__crt_stdio_output@@V?$standard_base@_WV?$string_output_adapter@_W@__crt_stdio_output@@@2@@__crt_stdio_output@@AAE_N_W@Z 1004249e f i libucrt:output.obj
 0001:0004155c       ?type_case_d@?$output_processor@DV?$stream_output_adapter@D@__crt_stdio_output@@V?$format_validation_base@DV?$stream_output_adapter@D@__crt_stdio_output@@@2@@__crt_stdio_output@@AAE_NXZ 1004255c f i libucrt:output.obj
 0001:0004156d       ?type_case_d@?$output_processor@DV?$stream_output_adapter@D@__crt_stdio_output@@V?$positional_parameter_base@DV?$stream_output_adapter@D@__crt_stdio_output@@@2@@__crt_stdio_output@@AAE_NXZ 1004256d f i libucrt:output.obj
 0001:0004157e       ?type_case_d@?$output_processor@DV?$stream_output_adapter@D@__crt_stdio_output@@V?$standard_base@DV?$stream_output_adapter@D@__crt_stdio_output@@@2@@__crt_stdio_output@@AAE_NXZ 1004257e f i libucrt:output.obj
 0001:0004158f       ?type_case_d@?$output_processor@DV?$string_output_adapter@D@__crt_stdio_output@@V?$format_validation_base@DV?$string_output_adapter@D@__crt_stdio_output@@@2@@__crt_stdio_output@@AAE_NXZ 1004258f f i libucrt:output.obj
 0001:000415a0       ?type_case_d@?$output_processor@DV?$string_output_adapter@D@__crt_stdio_output@@V?$positional_parameter_base@DV?$string_output_adapter@D@__crt_stdio_output@@@2@@__crt_stdio_output@@AAE_NXZ 100425a0 f i libucrt:output.obj
 0001:000415b1       ?type_case_d@?$output_processor@DV?$string_output_adapter@D@__crt_stdio_output@@V?$standard_base@DV?$string_output_adapter@D@__crt_stdio_output@@@2@@__crt_stdio_output@@AAE_NXZ 100425b1 f i libucrt:output.obj
 0001:000415c2       ?type_case_d@?$output_processor@_WV?$stream_output_adapter@_W@__crt_stdio_output@@V?$format_validation_base@_WV?$stream_output_adapter@_W@__crt_stdio_output@@@2@@__crt_stdio_output@@AAE_NXZ 100425c2 f i libucrt:output.obj
 0001:000415d3       ?type_case_d@?$output_processor@_WV?$stream_output_adapter@_W@__crt_stdio_output@@V?$positional_parameter_base@_WV?$stream_output_adapter@_W@__crt_stdio_output@@@2@@__crt_stdio_output@@AAE_NXZ 100425d3 f i libucrt:output.obj
 0001:000415e4       ?type_case_d@?$output_processor@_WV?$stream_output_adapter@_W@__crt_stdio_output@@V?$standard_base@_WV?$stream_output_adapter@_W@__crt_stdio_output@@@2@@__crt_stdio_output@@AAE_NXZ 100425e4 f i libucrt:output.obj
 0001:000415f5       ?type_case_d@?$output_processor@_WV?$string_output_adapter@_W@__crt_stdio_output@@V?$format_validation_base@_WV?$string_output_adapter@_W@__crt_stdio_output@@@2@@__crt_stdio_output@@AAE_NXZ 100425f5 f i libucrt:output.obj
 0001:00041606       ?type_case_d@?$output_processor@_WV?$string_output_adapter@_W@__crt_stdio_output@@V?$positional_parameter_base@_WV?$string_output_adapter@_W@__crt_stdio_output@@@2@@__crt_stdio_output@@AAE_NXZ 10042606 f i libucrt:output.obj
 0001:00041617       ?type_case_d@?$output_processor@_WV?$string_output_adapter@_W@__crt_stdio_output@@V?$standard_base@_WV?$string_output_adapter@_W@__crt_stdio_output@@@2@@__crt_stdio_output@@AAE_NXZ 10042617 f i libucrt:output.obj
 0001:00041628       ?type_case_integer@?$output_processor@DV?$stream_output_adapter@D@__crt_stdio_output@@V?$format_validation_base@DV?$stream_output_adapter@D@__crt_stdio_output@@@2@@__crt_stdio_output@@AAE_NI_N@Z 10042628 f i libucrt:output.obj
 0001:000417c4       ?type_case_integer@?$output_processor@DV?$stream_output_adapter@D@__crt_stdio_output@@V?$positional_parameter_base@DV?$stream_output_adapter@D@__crt_stdio_output@@@2@@__crt_stdio_output@@AAE_NI_N@Z 100427c4 f i libucrt:output.obj
 0001:000419a1       ?type_case_integer@?$output_processor@DV?$stream_output_adapter@D@__crt_stdio_output@@V?$standard_base@DV?$stream_output_adapter@D@__crt_stdio_output@@@2@@__crt_stdio_output@@AAE_NI_N@Z 100429a1 f i libucrt:output.obj
 0001:00041b3d       ?type_case_integer@?$output_processor@DV?$string_output_adapter@D@__crt_stdio_output@@V?$format_validation_base@DV?$string_output_adapter@D@__crt_stdio_output@@@2@@__crt_stdio_output@@AAE_NI_N@Z 10042b3d f i libucrt:output.obj
 0001:00041cd9       ?type_case_integer@?$output_processor@DV?$string_output_adapter@D@__crt_stdio_output@@V?$positional_parameter_base@DV?$string_output_adapter@D@__crt_stdio_output@@@2@@__crt_stdio_output@@AAE_NI_N@Z 10042cd9 f i libucrt:output.obj
 0001:00041eb6       ?type_case_integer@?$output_processor@DV?$string_output_adapter@D@__crt_stdio_output@@V?$standard_base@DV?$string_output_adapter@D@__crt_stdio_output@@@2@@__crt_stdio_output@@AAE_NI_N@Z 10042eb6 f i libucrt:output.obj
 0001:00042052       ?type_case_integer@?$output_processor@_WV?$stream_output_adapter@_W@__crt_stdio_output@@V?$format_validation_base@_WV?$stream_output_adapter@_W@__crt_stdio_output@@@2@@__crt_stdio_output@@AAE_NI_N@Z 10043052 f i libucrt:output.obj
 0001:000421ee       ?type_case_integer@?$output_processor@_WV?$stream_output_adapter@_W@__crt_stdio_output@@V?$positional_parameter_base@_WV?$stream_output_adapter@_W@__crt_stdio_output@@@2@@__crt_stdio_output@@AAE_NI_N@Z 100431ee f i libucrt:output.obj
 0001:000423cb       ?type_case_integer@?$output_processor@_WV?$stream_output_adapter@_W@__crt_stdio_output@@V?$standard_base@_WV?$stream_output_adapter@_W@__crt_stdio_output@@@2@@__crt_stdio_output@@AAE_NI_N@Z 100433cb f i libucrt:output.obj
 0001:00042567       ?type_case_integer@?$output_processor@_WV?$string_output_adapter@_W@__crt_stdio_output@@V?$format_validation_base@_WV?$string_output_adapter@_W@__crt_stdio_output@@@2@@__crt_stdio_output@@AAE_NI_N@Z 10043567 f i libucrt:output.obj
 0001:00042703       ?type_case_integer@?$output_processor@_WV?$string_output_adapter@_W@__crt_stdio_output@@V?$positional_parameter_base@_WV?$string_output_adapter@_W@__crt_stdio_output@@@2@@__crt_stdio_output@@AAE_NI_N@Z 10043703 f i libucrt:output.obj
 0001:000428e0       ?type_case_integer@?$output_processor@_WV?$string_output_adapter@_W@__crt_stdio_output@@V?$standard_base@_WV?$string_output_adapter@_W@__crt_stdio_output@@@2@@__crt_stdio_output@@AAE_NI_N@Z 100438e0 f i libucrt:output.obj
 0001:00042a7c       ?type_case_n@?$output_processor@DV?$stream_output_adapter@D@__crt_stdio_output@@V?$format_validation_base@DV?$stream_output_adapter@D@__crt_stdio_output@@@2@@__crt_stdio_output@@AAE_NXZ 10043a7c f i libucrt:output.obj
 0001:00042b0d       ?type_case_n@?$output_processor@DV?$stream_output_adapter@D@__crt_stdio_output@@V?$positional_parameter_base@DV?$stream_output_adapter@D@__crt_stdio_output@@@2@@__crt_stdio_output@@AAE_NXZ 10043b0d f i libucrt:output.obj
 0001:00042bcc       ?type_case_n@?$output_processor@DV?$stream_output_adapter@D@__crt_stdio_output@@V?$standard_base@DV?$stream_output_adapter@D@__crt_stdio_output@@@2@@__crt_stdio_output@@AAE_NXZ 10043bcc f i libucrt:output.obj
 0001:00042c5d       ?type_case_n@?$output_processor@DV?$string_output_adapter@D@__crt_stdio_output@@V?$format_validation_base@DV?$string_output_adapter@D@__crt_stdio_output@@@2@@__crt_stdio_output@@AAE_NXZ 10043c5d f i libucrt:output.obj
 0001:00042cee       ?type_case_n@?$output_processor@DV?$string_output_adapter@D@__crt_stdio_output@@V?$positional_parameter_base@DV?$string_output_adapter@D@__crt_stdio_output@@@2@@__crt_stdio_output@@AAE_NXZ 10043cee f i libucrt:output.obj
 0001:00042dad       ?type_case_n@?$output_processor@DV?$string_output_adapter@D@__crt_stdio_output@@V?$standard_base@DV?$string_output_adapter@D@__crt_stdio_output@@@2@@__crt_stdio_output@@AAE_NXZ 10043dad f i libucrt:output.obj
 0001:00042e3e       ?type_case_n@?$output_processor@_WV?$stream_output_adapter@_W@__crt_stdio_output@@V?$format_validation_base@_WV?$stream_output_adapter@_W@__crt_stdio_output@@@2@@__crt_stdio_output@@AAE_NXZ 10043e3e f i libucrt:output.obj
 0001:00042ecf       ?type_case_n@?$output_processor@_WV?$stream_output_adapter@_W@__crt_stdio_output@@V?$positional_parameter_base@_WV?$stream_output_adapter@_W@__crt_stdio_output@@@2@@__crt_stdio_output@@AAE_NXZ 10043ecf f i libucrt:output.obj
 0001:00042f8e       ?type_case_n@?$output_processor@_WV?$stream_output_adapter@_W@__crt_stdio_output@@V?$standard_base@_WV?$stream_output_adapter@_W@__crt_stdio_output@@@2@@__crt_stdio_output@@AAE_NXZ 10043f8e f i libucrt:output.obj
 0001:0004301f       ?type_case_n@?$output_processor@_WV?$string_output_adapter@_W@__crt_stdio_output@@V?$format_validation_base@_WV?$string_output_adapter@_W@__crt_stdio_output@@@2@@__crt_stdio_output@@AAE_NXZ 1004401f f i libucrt:output.obj
 0001:000430b0       ?type_case_n@?$output_processor@_WV?$string_output_adapter@_W@__crt_stdio_output@@V?$positional_parameter_base@_WV?$string_output_adapter@_W@__crt_stdio_output@@@2@@__crt_stdio_output@@AAE_NXZ 100440b0 f i libucrt:output.obj
 0001:0004316f       ?type_case_n@?$output_processor@_WV?$string_output_adapter@_W@__crt_stdio_output@@V?$standard_base@_WV?$string_output_adapter@_W@__crt_stdio_output@@@2@@__crt_stdio_output@@AAE_NXZ 1004416f f i libucrt:output.obj
 0001:00043200       ?type_case_o@?$output_processor@DV?$stream_output_adapter@D@__crt_stdio_output@@V?$format_validation_base@DV?$stream_output_adapter@D@__crt_stdio_output@@@2@@__crt_stdio_output@@AAE_NXZ 10044200 f i libucrt:output.obj
 0001:00043226       ?type_case_o@?$output_processor@DV?$stream_output_adapter@D@__crt_stdio_output@@V?$positional_parameter_base@DV?$stream_output_adapter@D@__crt_stdio_output@@@2@@__crt_stdio_output@@AAE_NXZ 10044226 f i libucrt:output.obj
 0001:0004324c       ?type_case_o@?$output_processor@DV?$stream_output_adapter@D@__crt_stdio_output@@V?$standard_base@DV?$stream_output_adapter@D@__crt_stdio_output@@@2@@__crt_stdio_output@@AAE_NXZ 1004424c f i libucrt:output.obj
 0001:00043272       ?type_case_o@?$output_processor@DV?$string_output_adapter@D@__crt_stdio_output@@V?$format_validation_base@DV?$string_output_adapter@D@__crt_stdio_output@@@2@@__crt_stdio_output@@AAE_NXZ 10044272 f i libucrt:output.obj
 0001:00043298       ?type_case_o@?$output_processor@DV?$string_output_adapter@D@__crt_stdio_output@@V?$positional_parameter_base@DV?$string_output_adapter@D@__crt_stdio_output@@@2@@__crt_stdio_output@@AAE_NXZ 10044298 f i libucrt:output.obj
 0001:000432be       ?type_case_o@?$output_processor@DV?$string_output_adapter@D@__crt_stdio_output@@V?$standard_base@DV?$string_output_adapter@D@__crt_stdio_output@@@2@@__crt_stdio_output@@AAE_NXZ 100442be f i libucrt:output.obj
 0001:000432e4       ?type_case_o@?$output_processor@_WV?$stream_output_adapter@_W@__crt_stdio_output@@V?$format_validation_base@_WV?$stream_output_adapter@_W@__crt_stdio_output@@@2@@__crt_stdio_output@@AAE_NXZ 100442e4 f i libucrt:output.obj
 0001:0004330a       ?type_case_o@?$output_processor@_WV?$stream_output_adapter@_W@__crt_stdio_output@@V?$positional_parameter_base@_WV?$stream_output_adapter@_W@__crt_stdio_output@@@2@@__crt_stdio_output@@AAE_NXZ 1004430a f i libucrt:output.obj
 0001:00043330       ?type_case_o@?$output_processor@_WV?$stream_output_adapter@_W@__crt_stdio_output@@V?$standard_base@_WV?$stream_output_adapter@_W@__crt_stdio_output@@@2@@__crt_stdio_output@@AAE_NXZ 10044330 f i libucrt:output.obj
 0001:00043356       ?type_case_o@?$output_processor@_WV?$string_output_adapter@_W@__crt_stdio_output@@V?$format_validation_base@_WV?$string_output_adapter@_W@__crt_stdio_output@@@2@@__crt_stdio_output@@AAE_NXZ 10044356 f i libucrt:output.obj
 0001:0004337c       ?type_case_o@?$output_processor@_WV?$string_output_adapter@_W@__crt_stdio_output@@V?$positional_parameter_base@_WV?$string_output_adapter@_W@__crt_stdio_output@@@2@@__crt_stdio_output@@AAE_NXZ 1004437c f i libucrt:output.obj
 0001:000433a2       ?type_case_o@?$output_processor@_WV?$string_output_adapter@_W@__crt_stdio_output@@V?$standard_base@_WV?$string_output_adapter@_W@__crt_stdio_output@@@2@@__crt_stdio_output@@AAE_NXZ 100443a2 f i libucrt:output.obj
 0001:000433c8       ?type_case_p@?$output_processor@DV?$stream_output_adapter@D@__crt_stdio_output@@V?$format_validation_base@DV?$stream_output_adapter@D@__crt_stdio_output@@@2@@__crt_stdio_output@@AAE_NXZ 100443c8 f i libucrt:output.obj
 0001:000433e6       ?type_case_p@?$output_processor@DV?$stream_output_adapter@D@__crt_stdio_output@@V?$positional_parameter_base@DV?$stream_output_adapter@D@__crt_stdio_output@@@2@@__crt_stdio_output@@AAE_NXZ 100443e6 f i libucrt:output.obj
 0001:00043404       ?type_case_p@?$output_processor@DV?$stream_output_adapter@D@__crt_stdio_output@@V?$standard_base@DV?$stream_output_adapter@D@__crt_stdio_output@@@2@@__crt_stdio_output@@AAE_NXZ 10044404 f i libucrt:output.obj
 0001:00043422       ?type_case_p@?$output_processor@DV?$string_output_adapter@D@__crt_stdio_output@@V?$format_validation_base@DV?$string_output_adapter@D@__crt_stdio_output@@@2@@__crt_stdio_output@@AAE_NXZ 10044422 f i libucrt:output.obj
 0001:00043440       ?type_case_p@?$output_processor@DV?$string_output_adapter@D@__crt_stdio_output@@V?$positional_parameter_base@DV?$string_output_adapter@D@__crt_stdio_output@@@2@@__crt_stdio_output@@AAE_NXZ 10044440 f i libucrt:output.obj
 0001:0004345e       ?type_case_p@?$output_processor@DV?$string_output_adapter@D@__crt_stdio_output@@V?$standard_base@DV?$string_output_adapter@D@__crt_stdio_output@@@2@@__crt_stdio_output@@AAE_NXZ 1004445e f i libucrt:output.obj
 0001:0004347c       ?type_case_p@?$output_processor@_WV?$stream_output_adapter@_W@__crt_stdio_output@@V?$format_validation_base@_WV?$stream_output_adapter@_W@__crt_stdio_output@@@2@@__crt_stdio_output@@AAE_NXZ 1004447c f i libucrt:output.obj
 0001:0004349a       ?type_case_p@?$output_processor@_WV?$stream_output_adapter@_W@__crt_stdio_output@@V?$positional_parameter_base@_WV?$stream_output_adapter@_W@__crt_stdio_output@@@2@@__crt_stdio_output@@AAE_NXZ 1004449a f i libucrt:output.obj
 0001:000434b8       ?type_case_p@?$output_processor@_WV?$stream_output_adapter@_W@__crt_stdio_output@@V?$standard_base@_WV?$stream_output_adapter@_W@__crt_stdio_output@@@2@@__crt_stdio_output@@AAE_NXZ 100444b8 f i libucrt:output.obj
 0001:000434d6       ?type_case_p@?$output_processor@_WV?$string_output_adapter@_W@__crt_stdio_output@@V?$format_validation_base@_WV?$string_output_adapter@_W@__crt_stdio_output@@@2@@__crt_stdio_output@@AAE_NXZ 100444d6 f i libucrt:output.obj
 0001:000434f4       ?type_case_p@?$output_processor@_WV?$string_output_adapter@_W@__crt_stdio_output@@V?$positional_parameter_base@_WV?$string_output_adapter@_W@__crt_stdio_output@@@2@@__crt_stdio_output@@AAE_NXZ 100444f4 f i libucrt:output.obj
 0001:00043512       ?type_case_p@?$output_processor@_WV?$string_output_adapter@_W@__crt_stdio_output@@V?$standard_base@_WV?$string_output_adapter@_W@__crt_stdio_output@@@2@@__crt_stdio_output@@AAE_NXZ 10044512 f i libucrt:output.obj
 0001:00043530       ?type_case_s@?$output_processor@DV?$stream_output_adapter@D@__crt_stdio_output@@V?$format_validation_base@DV?$stream_output_adapter@D@__crt_stdio_output@@@2@@__crt_stdio_output@@AAE_NXZ 10044530 f i libucrt:output.obj
 0001:000435bf       ?type_case_s@?$output_processor@DV?$stream_output_adapter@D@__crt_stdio_output@@V?$positional_parameter_base@DV?$stream_output_adapter@D@__crt_stdio_output@@@2@@__crt_stdio_output@@AAE_NXZ 100445bf f i libucrt:output.obj
 0001:0004365a       ?type_case_s@?$output_processor@DV?$stream_output_adapter@D@__crt_stdio_output@@V?$standard_base@DV?$stream_output_adapter@D@__crt_stdio_output@@@2@@__crt_stdio_output@@AAE_NXZ 1004465a f i libucrt:output.obj
 0001:000436e9       ?type_case_s@?$output_processor@DV?$string_output_adapter@D@__crt_stdio_output@@V?$format_validation_base@DV?$string_output_adapter@D@__crt_stdio_output@@@2@@__crt_stdio_output@@AAE_NXZ 100446e9 f i libucrt:output.obj
 0001:00043778       ?type_case_s@?$output_processor@DV?$string_output_adapter@D@__crt_stdio_output@@V?$positional_parameter_base@DV?$string_output_adapter@D@__crt_stdio_output@@@2@@__crt_stdio_output@@AAE_NXZ 10044778 f i libucrt:output.obj
 0001:00043813       ?type_case_s@?$output_processor@DV?$string_output_adapter@D@__crt_stdio_output@@V?$standard_base@DV?$string_output_adapter@D@__crt_stdio_output@@@2@@__crt_stdio_output@@AAE_NXZ 10044813 f i libucrt:output.obj
 0001:000438a2       ?type_case_s@?$output_processor@_WV?$stream_output_adapter@_W@__crt_stdio_output@@V?$format_validation_base@_WV?$stream_output_adapter@_W@__crt_stdio_output@@@2@@__crt_stdio_output@@AAE_NXZ 100448a2 f i libucrt:output.obj
 0001:00043933       ?type_case_s@?$output_processor@_WV?$stream_output_adapter@_W@__crt_stdio_output@@V?$positional_parameter_base@_WV?$stream_output_adapter@_W@__crt_stdio_output@@@2@@__crt_stdio_output@@AAE_NXZ 10044933 f i libucrt:output.obj
 0001:000439d0       ?type_case_s@?$output_processor@_WV?$stream_output_adapter@_W@__crt_stdio_output@@V?$standard_base@_WV?$stream_output_adapter@_W@__crt_stdio_output@@@2@@__crt_stdio_output@@AAE_NXZ 100449d0 f i libucrt:output.obj
 0001:00043a61       ?type_case_s@?$output_processor@_WV?$string_output_adapter@_W@__crt_stdio_output@@V?$format_validation_base@_WV?$string_output_adapter@_W@__crt_stdio_output@@@2@@__crt_stdio_output@@AAE_NXZ 10044a61 f i libucrt:output.obj
 0001:00043af2       ?type_case_s@?$output_processor@_WV?$string_output_adapter@_W@__crt_stdio_output@@V?$positional_parameter_base@_WV?$string_output_adapter@_W@__crt_stdio_output@@@2@@__crt_stdio_output@@AAE_NXZ 10044af2 f i libucrt:output.obj
 0001:00043b8f       ?type_case_s@?$output_processor@_WV?$string_output_adapter@_W@__crt_stdio_output@@V?$standard_base@_WV?$string_output_adapter@_W@__crt_stdio_output@@@2@@__crt_stdio_output@@AAE_NXZ 10044b8f f i libucrt:output.obj
 0001:00043c20       ?type_case_s_compute_narrow_string_length@?$output_processor@DV?$stream_output_adapter@D@__crt_stdio_output@@V?$format_validation_base@DV?$stream_output_adapter@D@__crt_stdio_output@@@2@@__crt_stdio_output@@ABEHHD@Z 10044c20 f i libucrt:output.obj
 0001:00043c3b       ?type_case_s_compute_narrow_string_length@?$output_processor@DV?$stream_output_adapter@D@__crt_stdio_output@@V?$positional_parameter_base@DV?$stream_output_adapter@D@__crt_stdio_output@@@2@@__crt_stdio_output@@ABEHHD@Z 10044c3b f i libucrt:output.obj
 0001:00043c56       ?type_case_s_compute_narrow_string_length@?$output_processor@DV?$stream_output_adapter@D@__crt_stdio_output@@V?$standard_base@DV?$stream_output_adapter@D@__crt_stdio_output@@@2@@__crt_stdio_output@@ABEHHD@Z 10044c56 f i libucrt:output.obj
 0001:00043c71       ?type_case_s_compute_narrow_string_length@?$output_processor@DV?$string_output_adapter@D@__crt_stdio_output@@V?$format_validation_base@DV?$string_output_adapter@D@__crt_stdio_output@@@2@@__crt_stdio_output@@ABEHHD@Z 10044c71 f i libucrt:output.obj
 0001:00043c8c       ?type_case_s_compute_narrow_string_length@?$output_processor@DV?$string_output_adapter@D@__crt_stdio_output@@V?$positional_parameter_base@DV?$string_output_adapter@D@__crt_stdio_output@@@2@@__crt_stdio_output@@ABEHHD@Z 10044c8c f i libucrt:output.obj
 0001:00043ca7       ?type_case_s_compute_narrow_string_length@?$output_processor@DV?$string_output_adapter@D@__crt_stdio_output@@V?$standard_base@DV?$string_output_adapter@D@__crt_stdio_output@@@2@@__crt_stdio_output@@ABEHHD@Z 10044ca7 f i libucrt:output.obj
 0001:00043cc2       ?type_case_s_compute_narrow_string_length@?$output_processor@_WV?$stream_output_adapter@_W@__crt_stdio_output@@V?$format_validation_base@_WV?$stream_output_adapter@_W@__crt_stdio_output@@@2@@__crt_stdio_output@@ABEHH_W@Z 10044cc2 f i libucrt:output.obj
 0001:00043d12       ?type_case_s_compute_narrow_string_length@?$output_processor@_WV?$stream_output_adapter@_W@__crt_stdio_output@@V?$positional_parameter_base@_WV?$stream_output_adapter@_W@__crt_stdio_output@@@2@@__crt_stdio_output@@ABEHH_W@Z 10044d12 f i libucrt:output.obj
 0001:00043d62       ?type_case_s_compute_narrow_string_length@?$output_processor@_WV?$stream_output_adapter@_W@__crt_stdio_output@@V?$standard_base@_WV?$stream_output_adapter@_W@__crt_stdio_output@@@2@@__crt_stdio_output@@ABEHH_W@Z 10044d62 f i libucrt:output.obj
 0001:00043db2       ?type_case_s_compute_narrow_string_length@?$output_processor@_WV?$string_output_adapter@_W@__crt_stdio_output@@V?$format_validation_base@_WV?$string_output_adapter@_W@__crt_stdio_output@@@2@@__crt_stdio_output@@ABEHH_W@Z 10044db2 f i libucrt:output.obj
 0001:00043e02       ?type_case_s_compute_narrow_string_length@?$output_processor@_WV?$string_output_adapter@_W@__crt_stdio_output@@V?$positional_parameter_base@_WV?$string_output_adapter@_W@__crt_stdio_output@@@2@@__crt_stdio_output@@ABEHH_W@Z 10044e02 f i libucrt:output.obj
 0001:00043e52       ?type_case_s_compute_narrow_string_length@?$output_processor@_WV?$string_output_adapter@_W@__crt_stdio_output@@V?$standard_base@_WV?$string_output_adapter@_W@__crt_stdio_output@@@2@@__crt_stdio_output@@ABEHH_W@Z 10044e52 f i libucrt:output.obj
 0001:00043ea2       ?type_case_u@?$output_processor@DV?$stream_output_adapter@D@__crt_stdio_output@@V?$format_validation_base@DV?$stream_output_adapter@D@__crt_stdio_output@@@2@@__crt_stdio_output@@AAE_NXZ 10044ea2 f i libucrt:output.obj
 0001:00043eae       ?type_case_u@?$output_processor@DV?$stream_output_adapter@D@__crt_stdio_output@@V?$positional_parameter_base@DV?$stream_output_adapter@D@__crt_stdio_output@@@2@@__crt_stdio_output@@AAE_NXZ 10044eae f i libucrt:output.obj
 0001:00043eba       ?type_case_u@?$output_processor@DV?$stream_output_adapter@D@__crt_stdio_output@@V?$standard_base@DV?$stream_output_adapter@D@__crt_stdio_output@@@2@@__crt_stdio_output@@AAE_NXZ 10044eba f i libucrt:output.obj
 0001:00043ec6       ?type_case_u@?$output_processor@DV?$string_output_adapter@D@__crt_stdio_output@@V?$format_validation_base@DV?$string_output_adapter@D@__crt_stdio_output@@@2@@__crt_stdio_output@@AAE_NXZ 10044ec6 f i libucrt:output.obj
 0001:00043ed2       ?type_case_u@?$output_processor@DV?$string_output_adapter@D@__crt_stdio_output@@V?$positional_parameter_base@DV?$string_output_adapter@D@__crt_stdio_output@@@2@@__crt_stdio_output@@AAE_NXZ 10044ed2 f i libucrt:output.obj
 0001:00043ede       ?type_case_u@?$output_processor@DV?$string_output_adapter@D@__crt_stdio_output@@V?$standard_base@DV?$string_output_adapter@D@__crt_stdio_output@@@2@@__crt_stdio_output@@AAE_NXZ 10044ede f i libucrt:output.obj
 0001:00043eea       ?type_case_u@?$output_processor@_WV?$stream_output_adapter@_W@__crt_stdio_output@@V?$format_validation_base@_WV?$stream_output_adapter@_W@__crt_stdio_output@@@2@@__crt_stdio_output@@AAE_NXZ 10044eea f i libucrt:output.obj
 0001:00043ef6       ?type_case_u@?$output_processor@_WV?$stream_output_adapter@_W@__crt_stdio_output@@V?$positional_parameter_base@_WV?$stream_output_adapter@_W@__crt_stdio_output@@@2@@__crt_stdio_output@@AAE_NXZ 10044ef6 f i libucrt:output.obj
 0001:00043f02       ?type_case_u@?$output_processor@_WV?$stream_output_adapter@_W@__crt_stdio_output@@V?$standard_base@_WV?$stream_output_adapter@_W@__crt_stdio_output@@@2@@__crt_stdio_output@@AAE_NXZ 10044f02 f i libucrt:output.obj
 0001:00043f0e       ?type_case_u@?$output_processor@_WV?$string_output_adapter@_W@__crt_stdio_output@@V?$format_validation_base@_WV?$string_output_adapter@_W@__crt_stdio_output@@@2@@__crt_stdio_output@@AAE_NXZ 10044f0e f i libucrt:output.obj
 0001:00043f1a       ?type_case_u@?$output_processor@_WV?$string_output_adapter@_W@__crt_stdio_output@@V?$positional_parameter_base@_WV?$string_output_adapter@_W@__crt_stdio_output@@@2@@__crt_stdio_output@@AAE_NXZ 10044f1a f i libucrt:output.obj
 0001:00043f26       ?type_case_u@?$output_processor@_WV?$string_output_adapter@_W@__crt_stdio_output@@V?$standard_base@_WV?$string_output_adapter@_W@__crt_stdio_output@@@2@@__crt_stdio_output@@AAE_NXZ 10044f26 f i libucrt:output.obj
 0001:00043f32       ?type_case_x@?$output_processor@DV?$stream_output_adapter@D@__crt_stdio_output@@V?$format_validation_base@DV?$stream_output_adapter@D@__crt_stdio_output@@@2@@__crt_stdio_output@@AAE_NXZ 10044f32 f i libucrt:output.obj
 0001:00043f3e       ?type_case_x@?$output_processor@DV?$stream_output_adapter@D@__crt_stdio_output@@V?$positional_parameter_base@DV?$stream_output_adapter@D@__crt_stdio_output@@@2@@__crt_stdio_output@@AAE_NXZ 10044f3e f i libucrt:output.obj
 0001:00043f4a       ?type_case_x@?$output_processor@DV?$stream_output_adapter@D@__crt_stdio_output@@V?$standard_base@DV?$stream_output_adapter@D@__crt_stdio_output@@@2@@__crt_stdio_output@@AAE_NXZ 10044f4a f i libucrt:output.obj
 0001:00043f56       ?type_case_x@?$output_processor@DV?$string_output_adapter@D@__crt_stdio_output@@V?$format_validation_base@DV?$string_output_adapter@D@__crt_stdio_output@@@2@@__crt_stdio_output@@AAE_NXZ 10044f56 f i libucrt:output.obj
 0001:00043f62       ?type_case_x@?$output_processor@DV?$string_output_adapter@D@__crt_stdio_output@@V?$positional_parameter_base@DV?$string_output_adapter@D@__crt_stdio_output@@@2@@__crt_stdio_output@@AAE_NXZ 10044f62 f i libucrt:output.obj
 0001:00043f6e       ?type_case_x@?$output_processor@DV?$string_output_adapter@D@__crt_stdio_output@@V?$standard_base@DV?$string_output_adapter@D@__crt_stdio_output@@@2@@__crt_stdio_output@@AAE_NXZ 10044f6e f i libucrt:output.obj
 0001:00043f7a       ?type_case_x@?$output_processor@_WV?$stream_output_adapter@_W@__crt_stdio_output@@V?$format_validation_base@_WV?$stream_output_adapter@_W@__crt_stdio_output@@@2@@__crt_stdio_output@@AAE_NXZ 10044f7a f i libucrt:output.obj
 0001:00043f86       ?type_case_x@?$output_processor@_WV?$stream_output_adapter@_W@__crt_stdio_output@@V?$positional_parameter_base@_WV?$stream_output_adapter@_W@__crt_stdio_output@@@2@@__crt_stdio_output@@AAE_NXZ 10044f86 f i libucrt:output.obj
 0001:00043f92       ?type_case_x@?$output_processor@_WV?$stream_output_adapter@_W@__crt_stdio_output@@V?$standard_base@_WV?$stream_output_adapter@_W@__crt_stdio_output@@@2@@__crt_stdio_output@@AAE_NXZ 10044f92 f i libucrt:output.obj
 0001:00043f9e       ?type_case_x@?$output_processor@_WV?$string_output_adapter@_W@__crt_stdio_output@@V?$format_validation_base@_WV?$string_output_adapter@_W@__crt_stdio_output@@@2@@__crt_stdio_output@@AAE_NXZ 10044f9e f i libucrt:output.obj
 0001:00043faa       ?type_case_x@?$output_processor@_WV?$string_output_adapter@_W@__crt_stdio_output@@V?$positional_parameter_base@_WV?$string_output_adapter@_W@__crt_stdio_output@@@2@@__crt_stdio_output@@AAE_NXZ 10044faa f i libucrt:output.obj
 0001:00043fb6       ?type_case_x@?$output_processor@_WV?$string_output_adapter@_W@__crt_stdio_output@@V?$standard_base@_WV?$string_output_adapter@_W@__crt_stdio_output@@@2@@__crt_stdio_output@@AAE_NXZ 10044fb6 f i libucrt:output.obj
 0001:00043fc2       ?unset_flag@?$output_processor@DV?$stream_output_adapter@D@__crt_stdio_output@@V?$format_validation_base@DV?$stream_output_adapter@D@__crt_stdio_output@@@2@@__crt_stdio_output@@AAEXI@Z 10044fc2 f i libucrt:output.obj
 0001:00043fd7       ?unset_flag@?$output_processor@DV?$stream_output_adapter@D@__crt_stdio_output@@V?$positional_parameter_base@DV?$stream_output_adapter@D@__crt_stdio_output@@@2@@__crt_stdio_output@@AAEXI@Z 10044fd7 f i libucrt:output.obj
 0001:00043fec       ?unset_flag@?$output_processor@DV?$stream_output_adapter@D@__crt_stdio_output@@V?$standard_base@DV?$stream_output_adapter@D@__crt_stdio_output@@@2@@__crt_stdio_output@@AAEXI@Z 10044fec f i libucrt:output.obj
 0001:00044001       ?unset_flag@?$output_processor@DV?$string_output_adapter@D@__crt_stdio_output@@V?$format_validation_base@DV?$string_output_adapter@D@__crt_stdio_output@@@2@@__crt_stdio_output@@AAEXI@Z 10045001 f i libucrt:output.obj
 0001:00044016       ?unset_flag@?$output_processor@DV?$string_output_adapter@D@__crt_stdio_output@@V?$positional_parameter_base@DV?$string_output_adapter@D@__crt_stdio_output@@@2@@__crt_stdio_output@@AAEXI@Z 10045016 f i libucrt:output.obj
 0001:0004402b       ?unset_flag@?$output_processor@DV?$string_output_adapter@D@__crt_stdio_output@@V?$standard_base@DV?$string_output_adapter@D@__crt_stdio_output@@@2@@__crt_stdio_output@@AAEXI@Z 1004502b f i libucrt:output.obj
 0001:00044040       ?unset_flag@?$output_processor@_WV?$stream_output_adapter@_W@__crt_stdio_output@@V?$format_validation_base@_WV?$stream_output_adapter@_W@__crt_stdio_output@@@2@@__crt_stdio_output@@AAEXI@Z 10045040 f i libucrt:output.obj
 0001:00044055       ?unset_flag@?$output_processor@_WV?$stream_output_adapter@_W@__crt_stdio_output@@V?$positional_parameter_base@_WV?$stream_output_adapter@_W@__crt_stdio_output@@@2@@__crt_stdio_output@@AAEXI@Z 10045055 f i libucrt:output.obj
 0001:0004406a       ?unset_flag@?$output_processor@_WV?$stream_output_adapter@_W@__crt_stdio_output@@V?$standard_base@_WV?$stream_output_adapter@_W@__crt_stdio_output@@@2@@__crt_stdio_output@@AAEXI@Z 1004506a f i libucrt:output.obj
 0001:0004407f       ?unset_flag@?$output_processor@_WV?$string_output_adapter@_W@__crt_stdio_output@@V?$format_validation_base@_WV?$string_output_adapter@_W@__crt_stdio_output@@@2@@__crt_stdio_output@@AAEXI@Z 1004507f f i libucrt:output.obj
 0001:00044094       ?unset_flag@?$output_processor@_WV?$string_output_adapter@_W@__crt_stdio_output@@V?$positional_parameter_base@_WV?$string_output_adapter@_W@__crt_stdio_output@@@2@@__crt_stdio_output@@AAEXI@Z 10045094 f i libucrt:output.obj
 0001:000440a9       ?unset_flag@?$output_processor@_WV?$string_output_adapter@_W@__crt_stdio_output@@V?$standard_base@_WV?$string_output_adapter@_W@__crt_stdio_output@@@2@@__crt_stdio_output@@AAEXI@Z 100450a9 f i libucrt:output.obj
 0001:000440be       ?update_field_width@?$positional_parameter_base@DV?$stream_output_adapter@D@__crt_stdio_output@@@__crt_stdio_output@@IAE_NXZ 100450be f i libucrt:output.obj
 0001:000441a1       ?update_field_width@?$positional_parameter_base@DV?$string_output_adapter@D@__crt_stdio_output@@@__crt_stdio_output@@IAE_NXZ 100451a1 f i libucrt:output.obj
 0001:00044284       ?update_field_width@?$positional_parameter_base@_WV?$stream_output_adapter@_W@__crt_stdio_output@@@__crt_stdio_output@@IAE_NXZ 10045284 f i libucrt:output.obj
 0001:00044368       ?update_field_width@?$positional_parameter_base@_WV?$string_output_adapter@_W@__crt_stdio_output@@@__crt_stdio_output@@IAE_NXZ 10045368 f i libucrt:output.obj
 0001:0004444c       ?update_field_width@?$standard_base@DV?$stream_output_adapter@D@__crt_stdio_output@@@__crt_stdio_output@@IAE_NXZ 1004544c f i libucrt:output.obj
 0001:00044460       ?update_field_width@?$standard_base@DV?$string_output_adapter@D@__crt_stdio_output@@@__crt_stdio_output@@IAE_NXZ 10045460 f i libucrt:output.obj
 0001:00044474       ?update_field_width@?$standard_base@_WV?$stream_output_adapter@_W@__crt_stdio_output@@@__crt_stdio_output@@IAE_NXZ 10045474 f i libucrt:output.obj
 0001:00044488       ?update_field_width@?$standard_base@_WV?$string_output_adapter@_W@__crt_stdio_output@@@__crt_stdio_output@@IAE_NXZ 10045488 f i libucrt:output.obj
 0001:0004449c       ?update_precision@?$positional_parameter_base@DV?$stream_output_adapter@D@__crt_stdio_output@@@__crt_stdio_output@@IAE_NXZ 1004549c f i libucrt:output.obj
 0001:0004457f       ?update_precision@?$positional_parameter_base@DV?$string_output_adapter@D@__crt_stdio_output@@@__crt_stdio_output@@IAE_NXZ 1004557f f i libucrt:output.obj
 0001:00044662       ?update_precision@?$positional_parameter_base@_WV?$stream_output_adapter@_W@__crt_stdio_output@@@__crt_stdio_output@@IAE_NXZ 10045662 f i libucrt:output.obj
 0001:00044746       ?update_precision@?$positional_parameter_base@_WV?$string_output_adapter@_W@__crt_stdio_output@@@__crt_stdio_output@@IAE_NXZ 10045746 f i libucrt:output.obj
 0001:0004482a       ?update_precision@?$standard_base@DV?$stream_output_adapter@D@__crt_stdio_output@@@__crt_stdio_output@@IAE_NXZ 1004582a f i libucrt:output.obj
 0001:0004483e       ?update_precision@?$standard_base@DV?$string_output_adapter@D@__crt_stdio_output@@@__crt_stdio_output@@IAE_NXZ 1004583e f i libucrt:output.obj
 0001:00044852       ?update_precision@?$standard_base@_WV?$stream_output_adapter@_W@__crt_stdio_output@@@__crt_stdio_output@@IAE_NXZ 10045852 f i libucrt:output.obj
 0001:00044866       ?update_precision@?$standard_base@_WV?$string_output_adapter@_W@__crt_stdio_output@@@__crt_stdio_output@@IAE_NXZ 10045866 f i libucrt:output.obj
 0001:0004487a       ?valid@__crt_stdio_stream@@QBE_NXZ 1004587a f i libucrt:output.obj
 0001:00044884       ?validate@?$stream_output_adapter@D@__crt_stdio_output@@QBE_NXZ 10045884 f i libucrt:output.obj
 0001:000448ad       ?validate@?$stream_output_adapter@_W@__crt_stdio_output@@QBE_NXZ 100458ad f i libucrt:output.obj
 0001:000448ce       ?validate@?$string_output_adapter@D@__crt_stdio_output@@QBE_NXZ 100458ce f i libucrt:output.obj
 0001:000448ef       ?validate@?$string_output_adapter@_W@__crt_stdio_output@@QBE_NXZ 100458ef f i libucrt:output.obj
 0001:00044910       ?validate_and_store_parameter_data@?$positional_parameter_base@DV?$stream_output_adapter@D@__crt_stdio_output@@@__crt_stdio_output@@AAE_NAAUparameter_data@12@W4parameter_type@12@DW4length_modifier@2@@Z 10045910 f i libucrt:output.obj
 0001:0004496d       ?validate_and_store_parameter_data@?$positional_parameter_base@DV?$string_output_adapter@D@__crt_stdio_output@@@__crt_stdio_output@@AAE_NAAUparameter_data@12@W4parameter_type@12@DW4length_modifier@2@@Z 1004596d f i libucrt:output.obj
 0001:000449ca       ?validate_and_store_parameter_data@?$positional_parameter_base@_WV?$stream_output_adapter@_W@__crt_stdio_output@@@__crt_stdio_output@@AAE_NAAUparameter_data@12@W4parameter_type@12@_WW4length_modifier@2@@Z 100459ca f i libucrt:output.obj
 0001:00044a2a       ?validate_and_store_parameter_data@?$positional_parameter_base@_WV?$string_output_adapter@_W@__crt_stdio_output@@@__crt_stdio_output@@AAE_NAAUparameter_data@12@W4parameter_type@12@_WW4length_modifier@2@@Z 10045a2a f i libucrt:output.obj
 0001:00044a8a       ?validate_and_update_state_at_beginning_of_format_character@?$positional_parameter_base@DV?$stream_output_adapter@D@__crt_stdio_output@@@__crt_stdio_output@@IAE_NXZ 10045a8a f i libucrt:output.obj
 0001:00044bc0       ?validate_and_update_state_at_beginning_of_format_character@?$positional_parameter_base@DV?$string_output_adapter@D@__crt_stdio_output@@@__crt_stdio_output@@IAE_NXZ 10045bc0 f i libucrt:output.obj
 0001:00044cf6       ?validate_and_update_state_at_beginning_of_format_character@?$positional_parameter_base@_WV?$stream_output_adapter@_W@__crt_stdio_output@@@__crt_stdio_output@@IAE_NXZ 10045cf6 f i libucrt:output.obj
 0001:00044e38       ?validate_and_update_state_at_beginning_of_format_character@?$positional_parameter_base@_WV?$string_output_adapter@_W@__crt_stdio_output@@@__crt_stdio_output@@IAE_NXZ 10045e38 f i libucrt:output.obj
 0001:00044f7a       ?validate_and_update_state_at_beginning_of_format_character@?$standard_base@DV?$stream_output_adapter@D@__crt_stdio_output@@@__crt_stdio_output@@IAE_NXZ 10045f7a f i libucrt:output.obj
 0001:00044f7d       ?validate_and_update_state_at_beginning_of_format_character@?$standard_base@DV?$string_output_adapter@D@__crt_stdio_output@@@__crt_stdio_output@@IAE_NXZ 10045f7d f i libucrt:output.obj
 0001:00044f80       ?validate_and_update_state_at_beginning_of_format_character@?$standard_base@_WV?$stream_output_adapter@_W@__crt_stdio_output@@@__crt_stdio_output@@IAE_NXZ 10045f80 f i libucrt:output.obj
 0001:00044f83       ?validate_and_update_state_at_beginning_of_format_character@?$standard_base@_WV?$string_output_adapter@_W@__crt_stdio_output@@@__crt_stdio_output@@IAE_NXZ 10045f83 f i libucrt:output.obj
 0001:00044f86       ?validate_and_update_state_at_end_of_format_string@?$format_validation_base@DV?$stream_output_adapter@D@__crt_stdio_output@@@__crt_stdio_output@@IBE_NXZ 10045f86 f i libucrt:output.obj
 0001:00044fb0       ?validate_and_update_state_at_end_of_format_string@?$format_validation_base@DV?$string_output_adapter@D@__crt_stdio_output@@@__crt_stdio_output@@IBE_NXZ 10045fb0 f i libucrt:output.obj
 0001:00044fda       ?validate_and_update_state_at_end_of_format_string@?$format_validation_base@_WV?$stream_output_adapter@_W@__crt_stdio_output@@@__crt_stdio_output@@IBE_NXZ 10045fda f i libucrt:output.obj
 0001:00045004       ?validate_and_update_state_at_end_of_format_string@?$format_validation_base@_WV?$string_output_adapter@_W@__crt_stdio_output@@@__crt_stdio_output@@IBE_NXZ 10046004 f i libucrt:output.obj
 0001:0004502e       ?validate_and_update_state_at_end_of_format_string@?$positional_parameter_base@DV?$stream_output_adapter@D@__crt_stdio_output@@@__crt_stdio_output@@IAE_NXZ 1004602e f i libucrt:output.obj
 0001:000450ce       ?validate_and_update_state_at_end_of_format_string@?$positional_parameter_base@DV?$string_output_adapter@D@__crt_stdio_output@@@__crt_stdio_output@@IAE_NXZ 100460ce f i libucrt:output.obj
 0001:0004516e       ?validate_and_update_state_at_end_of_format_string@?$positional_parameter_base@_WV?$stream_output_adapter@_W@__crt_stdio_output@@@__crt_stdio_output@@IAE_NXZ 1004616e f i libucrt:output.obj
 0001:0004520e       ?validate_and_update_state_at_end_of_format_string@?$positional_parameter_base@_WV?$string_output_adapter@_W@__crt_stdio_output@@@__crt_stdio_output@@IAE_NXZ 1004620e f i libucrt:output.obj
 0001:000452ae       ?validate_and_update_state_at_end_of_format_string@?$standard_base@DV?$stream_output_adapter@D@__crt_stdio_output@@@__crt_stdio_output@@IBE_NXZ 100462ae f i libucrt:output.obj
 0001:000452b1       ?validate_and_update_state_at_end_of_format_string@?$standard_base@DV?$string_output_adapter@D@__crt_stdio_output@@@__crt_stdio_output@@IBE_NXZ 100462b1 f i libucrt:output.obj
 0001:000452b4       ?validate_and_update_state_at_end_of_format_string@?$standard_base@_WV?$stream_output_adapter@_W@__crt_stdio_output@@@__crt_stdio_output@@IBE_NXZ 100462b4 f i libucrt:output.obj
 0001:000452b7       ?validate_and_update_state_at_end_of_format_string@?$standard_base@_WV?$string_output_adapter@_W@__crt_stdio_output@@@__crt_stdio_output@@IBE_NXZ 100462b7 f i libucrt:output.obj
 0001:000452ba       ?validate_state_for_type_case_a@?$positional_parameter_base@DV?$stream_output_adapter@D@__crt_stdio_output@@@__crt_stdio_output@@IAE_NXZ 100462ba f i libucrt:output.obj
 0001:00045321       ?validate_state_for_type_case_a@?$positional_parameter_base@DV?$string_output_adapter@D@__crt_stdio_output@@@__crt_stdio_output@@IAE_NXZ 10046321 f i libucrt:output.obj
 0001:00045388       ?validate_state_for_type_case_a@?$positional_parameter_base@_WV?$stream_output_adapter@_W@__crt_stdio_output@@@__crt_stdio_output@@IAE_NXZ 10046388 f i libucrt:output.obj
 0001:000453ef       ?validate_state_for_type_case_a@?$positional_parameter_base@_WV?$string_output_adapter@_W@__crt_stdio_output@@@__crt_stdio_output@@IAE_NXZ 100463ef f i libucrt:output.obj
 0001:00045456       ?validate_state_for_type_case_a@?$standard_base@DV?$stream_output_adapter@D@__crt_stdio_output@@@__crt_stdio_output@@IBE_NXZ 10046456 f i libucrt:output.obj
 0001:00045459       ?validate_state_for_type_case_a@?$standard_base@DV?$string_output_adapter@D@__crt_stdio_output@@@__crt_stdio_output@@IBE_NXZ 10046459 f i libucrt:output.obj
 0001:0004545c       ?validate_state_for_type_case_a@?$standard_base@_WV?$stream_output_adapter@_W@__crt_stdio_output@@@__crt_stdio_output@@IBE_NXZ 1004645c f i libucrt:output.obj
 0001:0004545f       ?validate_state_for_type_case_a@?$standard_base@_WV?$string_output_adapter@_W@__crt_stdio_output@@@__crt_stdio_output@@IBE_NXZ 1004645f f i libucrt:output.obj
 0001:00045462       ?validate_stream_is_ansi_if_required@?$__acrt_stdio_char_traits@D@@SA_NQAU_iobuf@@@Z 10046462 f i libucrt:output.obj
 0001:00045504       ?validate_stream_is_ansi_if_required@?$__acrt_stdio_char_traits@_W@@SA_NQAU_iobuf@@@Z 10046504 f i libucrt:output.obj
 0001:00045507       ?wide_null_string@?$output_processor@DV?$stream_output_adapter@D@__crt_stdio_output@@V?$format_validation_base@DV?$stream_output_adapter@D@__crt_stdio_output@@@2@@__crt_stdio_output@@CAPA_WXZ 10046507 f i libucrt:output.obj
 0001:0004550d       ?wide_null_string@?$output_processor@DV?$stream_output_adapter@D@__crt_stdio_output@@V?$positional_parameter_base@DV?$stream_output_adapter@D@__crt_stdio_output@@@2@@__crt_stdio_output@@CAPA_WXZ 1004650d f i libucrt:output.obj
 0001:00045513       ?wide_null_string@?$output_processor@DV?$stream_output_adapter@D@__crt_stdio_output@@V?$standard_base@DV?$stream_output_adapter@D@__crt_stdio_output@@@2@@__crt_stdio_output@@CAPA_WXZ 10046513 f i libucrt:output.obj
 0001:00045519       ?wide_null_string@?$output_processor@DV?$string_output_adapter@D@__crt_stdio_output@@V?$format_validation_base@DV?$string_output_adapter@D@__crt_stdio_output@@@2@@__crt_stdio_output@@CAPA_WXZ 10046519 f i libucrt:output.obj
 0001:0004551f       ?wide_null_string@?$output_processor@DV?$string_output_adapter@D@__crt_stdio_output@@V?$positional_parameter_base@DV?$string_output_adapter@D@__crt_stdio_output@@@2@@__crt_stdio_output@@CAPA_WXZ 1004651f f i libucrt:output.obj
 0001:00045525       ?wide_null_string@?$output_processor@DV?$string_output_adapter@D@__crt_stdio_output@@V?$standard_base@DV?$string_output_adapter@D@__crt_stdio_output@@@2@@__crt_stdio_output@@CAPA_WXZ 10046525 f i libucrt:output.obj
 0001:0004552b       ?wide_null_string@?$output_processor@_WV?$stream_output_adapter@_W@__crt_stdio_output@@V?$format_validation_base@_WV?$stream_output_adapter@_W@__crt_stdio_output@@@2@@__crt_stdio_output@@CAPA_WXZ 1004652b f i libucrt:output.obj
 0001:00045531       ?wide_null_string@?$output_processor@_WV?$stream_output_adapter@_W@__crt_stdio_output@@V?$positional_parameter_base@_WV?$stream_output_adapter@_W@__crt_stdio_output@@@2@@__crt_stdio_output@@CAPA_WXZ 10046531 f i libucrt:output.obj
 0001:00045537       ?wide_null_string@?$output_processor@_WV?$stream_output_adapter@_W@__crt_stdio_output@@V?$standard_base@_WV?$stream_output_adapter@_W@__crt_stdio_output@@@2@@__crt_stdio_output@@CAPA_WXZ 10046537 f i libucrt:output.obj
 0001:0004553d       ?wide_null_string@?$output_processor@_WV?$string_output_adapter@_W@__crt_stdio_output@@V?$format_validation_base@_WV?$string_output_adapter@_W@__crt_stdio_output@@@2@@__crt_stdio_output@@CAPA_WXZ 1004653d f i libucrt:output.obj
 0001:00045543       ?wide_null_string@?$output_processor@_WV?$string_output_adapter@_W@__crt_stdio_output@@V?$positional_parameter_base@_WV?$string_output_adapter@_W@__crt_stdio_output@@@2@@__crt_stdio_output@@CAPA_WXZ 10046543 f i libucrt:output.obj
 0001:00045549       ?wide_null_string@?$output_processor@_WV?$string_output_adapter@_W@__crt_stdio_output@@V?$standard_base@_WV?$string_output_adapter@_W@__crt_stdio_output@@@2@@__crt_stdio_output@@CAPA_WXZ 10046549 f i libucrt:output.obj
 0001:0004554f       ?write_character@?$stream_output_adapter@D@__crt_stdio_output@@QBEXDQAH@Z 1004654f f i libucrt:output.obj
 0001:0004559b       ?write_character@?$stream_output_adapter@_W@__crt_stdio_output@@QBEX_WQAH@Z 1004659b f i libucrt:output.obj
 0001:000455eb       ?write_character@?$string_output_adapter@D@__crt_stdio_output@@QBE_NDQAH@Z 100465eb f i libucrt:output.obj
 0001:0004563d       ?write_character@?$string_output_adapter@_W@__crt_stdio_output@@QBE_N_WQAH@Z 1004663d f i libucrt:output.obj
 0001:00045693       ?write_stored_string_tchar@?$output_processor@DV?$stream_output_adapter@D@__crt_stdio_output@@V?$format_validation_base@DV?$stream_output_adapter@D@__crt_stdio_output@@@2@@__crt_stdio_output@@AAE_ND@Z 10046693 f i libucrt:output.obj
 0001:00045763       ?write_stored_string_tchar@?$output_processor@DV?$stream_output_adapter@D@__crt_stdio_output@@V?$positional_parameter_base@DV?$stream_output_adapter@D@__crt_stdio_output@@@2@@__crt_stdio_output@@AAE_ND@Z 10046763 f i libucrt:output.obj
 0001:00045833       ?write_stored_string_tchar@?$output_processor@DV?$stream_output_adapter@D@__crt_stdio_output@@V?$standard_base@DV?$stream_output_adapter@D@__crt_stdio_output@@@2@@__crt_stdio_output@@AAE_ND@Z 10046833 f i libucrt:output.obj
 0001:00045903       ?write_stored_string_tchar@?$output_processor@DV?$string_output_adapter@D@__crt_stdio_output@@V?$format_validation_base@DV?$string_output_adapter@D@__crt_stdio_output@@@2@@__crt_stdio_output@@AAE_ND@Z 10046903 f i libucrt:output.obj
 0001:000459d3       ?write_stored_string_tchar@?$output_processor@DV?$string_output_adapter@D@__crt_stdio_output@@V?$positional_parameter_base@DV?$string_output_adapter@D@__crt_stdio_output@@@2@@__crt_stdio_output@@AAE_ND@Z 100469d3 f i libucrt:output.obj
 0001:00045aa3       ?write_stored_string_tchar@?$output_processor@DV?$string_output_adapter@D@__crt_stdio_output@@V?$standard_base@DV?$string_output_adapter@D@__crt_stdio_output@@@2@@__crt_stdio_output@@AAE_ND@Z 10046aa3 f i libucrt:output.obj
 0001:00045b73       ?write_stored_string_tchar@?$output_processor@_WV?$stream_output_adapter@_W@__crt_stdio_output@@V?$format_validation_base@_WV?$stream_output_adapter@_W@__crt_stdio_output@@@2@@__crt_stdio_output@@AAE_N_W@Z 10046b73 f i libucrt:output.obj
 0001:00045c20       ?write_stored_string_tchar@?$output_processor@_WV?$stream_output_adapter@_W@__crt_stdio_output@@V?$positional_parameter_base@_WV?$stream_output_adapter@_W@__crt_stdio_output@@@2@@__crt_stdio_output@@AAE_N_W@Z 10046c20 f i libucrt:output.obj
 0001:00045ccd       ?write_stored_string_tchar@?$output_processor@_WV?$stream_output_adapter@_W@__crt_stdio_output@@V?$standard_base@_WV?$stream_output_adapter@_W@__crt_stdio_output@@@2@@__crt_stdio_output@@AAE_N_W@Z 10046ccd f i libucrt:output.obj
 0001:00045d7a       ?write_stored_string_tchar@?$output_processor@_WV?$string_output_adapter@_W@__crt_stdio_output@@V?$format_validation_base@_WV?$string_output_adapter@_W@__crt_stdio_output@@@2@@__crt_stdio_output@@AAE_N_W@Z 10046d7a f i libucrt:output.obj
 0001:00045e27       ?write_stored_string_tchar@?$output_processor@_WV?$string_output_adapter@_W@__crt_stdio_output@@V?$positional_parameter_base@_WV?$string_output_adapter@_W@__crt_stdio_output@@@2@@__crt_stdio_output@@AAE_N_W@Z 10046e27 f i libucrt:output.obj
 0001:00045ed4       ?write_stored_string_tchar@?$output_processor@_WV?$string_output_adapter@_W@__crt_stdio_output@@V?$standard_base@_WV?$string_output_adapter@_W@__crt_stdio_output@@@2@@__crt_stdio_output@@AAE_N_W@Z 10046ed4 f i libucrt:output.obj
 0001:00045f81       ?write_string@?$stream_output_adapter@D@__crt_stdio_output@@QBEXQBDHQAH1@Z 10046f81 f i libucrt:output.obj
 0001:0004602d       ?write_string@?$stream_output_adapter@_W@__crt_stdio_output@@QBEXQB_WHQAH1@Z 1004702d f i libucrt:output.obj
 0001:000460dd       ?write_string@?$string_output_adapter@D@__crt_stdio_output@@QBEXQBDHQAH1@Z 100470dd f i libucrt:output.obj
 0001:00046194       ?write_string@?$string_output_adapter@_W@__crt_stdio_output@@QBEXQB_WHQAH1@Z 10047194 f i libucrt:output.obj
 0001:00046254       ___acrt_isleadbyte_l_noupdate 10047254 f i libucrt:output.obj
 0001:00046275       ___acrt_locale_changed     10047275 f i libucrt:output.obj
 0001:00046286       ___stdio_common_vfprintf   10047286 f   libucrt:output.obj
 0001:0004631a       ___stdio_common_vfprintf_p 1004731a f   libucrt:output.obj
 0001:000463ae       ___stdio_common_vfprintf_s 100473ae f   libucrt:output.obj
 0001:00046442       ___stdio_common_vfwprintf  10047442 f   libucrt:output.obj
 0001:000464d6       ___stdio_common_vfwprintf_p 100474d6 f   libucrt:output.obj
 0001:0004656a       ___stdio_common_vfwprintf_s 1004756a f   libucrt:output.obj
 0001:000465fe       ___stdio_common_vsnprintf_s 100475fe f   libucrt:output.obj
 0001:0004662e       ___stdio_common_vsnwprintf_s 1004762e f   libucrt:output.obj
 0001:0004665e       ___stdio_common_vsprintf   1004765e f   libucrt:output.obj
 0001:0004668b       ___stdio_common_vsprintf_p 1004768b f   libucrt:output.obj
 0001:000466b8       ___stdio_common_vsprintf_s 100476b8 f   libucrt:output.obj
 0001:000466e5       ___stdio_common_vswprintf  100476e5 f   libucrt:output.obj
 0001:00046712       ___stdio_common_vswprintf_p 10047712 f   libucrt:output.obj
 0001:0004673f       ___stdio_common_vswprintf_s 1004773f f   libucrt:output.obj
 0001:0004676c       _calloc                    1004776c f   libucrt:calloc.obj
 0001:00046779       _free                      10047779 f   libucrt:free.obj
 0001:0004677e       ??$__vcrt_va_start_verify_argument_type@QB_W@@YAXXZ 1004777e f i libucrt:assert.obj
 0001:0004771b       ??$ftprintf@PAU_iobuf@@PBDABQBDABQBDABI@?$__crt_char_traits@D@@SAH$$QAPAU_iobuf@@$$QAPBDABQBD2ABI@Z 1004871b f i libucrt:assert.obj
 0001:0004774d       ??$ftprintf@PAU_iobuf@@PB_WABQB_WABQB_WABI@?$__crt_char_traits@_W@@SAH$$QAPAU_iobuf@@$$QAPB_WABQB_W2ABI@Z 1004874d f i libucrt:assert.obj
 0001:0004777f       ??$get_module_file_name@AAPAUHINSTANCE__@@AAY0BAF@DK@?$__crt_char_traits@D@@SAKAAPAUHINSTANCE__@@AAY0BAF@D$$QAK@Z 1004877f f i libucrt:assert.obj
 0001:0004779f       ??$get_module_file_name@AAPAUHINSTANCE__@@AAY0BAF@_WK@?$__crt_char_traits@_W@@SAKAAPAUHINSTANCE__@@AAY0BAF@_W$$QAK@Z 1004879f f i libucrt:assert.obj
 0001:000477bf       ??$itot_s@ABIQAD$$CBIH@?$__crt_char_traits@D@@SAHABI$$QBQAD$$QBI$$QAH@Z 100487bf f i libucrt:assert.obj
 0001:000477ea       ??$itot_s@ABIQA_W$$CBIH@?$__crt_char_traits@_W@@SAHABI$$QBQA_W$$QBI$$QAH@Z 100487ea f i libucrt:assert.obj
 0001:00047815       ??$show_message_box@AAY0CEA@DPBDJ@?$__crt_char_traits@D@@SAHAAY0CEA@D$$QAPBD$$QAJ@Z 10048815 f i libucrt:assert.obj
 0001:00047838       ??$show_message_box@AAY0CEA@_WPB_WJ@?$__crt_char_traits@_W@@SAHAAY0CEA@_W$$QAPB_W$$QAJ@Z 10048838 f i libucrt:assert.obj
 0001:0004785b       ??$tcscat_s@ABQADABIAAPAD@?$__crt_char_traits@D@@SAHABQADABIAAPAD@Z 1004885b f i libucrt:assert.obj
 0001:00047880       ??$tcscat_s@ABQADABIABQBD@?$__crt_char_traits@D@@SAHABQADABIABQBD@Z 10048880 f i libucrt:assert.obj
 0001:000478a5       ??$tcscat_s@ABQADABIPBD@?$__crt_char_traits@D@@SAHABQADABI$$QAPBD@Z 100488a5 f i libucrt:assert.obj
 0001:000478ca       ??$tcscat_s@ABQA_WABIAAPA_W@?$__crt_char_traits@_W@@SAHABQA_WABIAAPA_W@Z 100488ca f i libucrt:assert.obj
 0001:000478ef       ??$tcscat_s@ABQA_WABIABQB_W@?$__crt_char_traits@_W@@SAHABQA_WABIABQB_W@Z 100488ef f i libucrt:assert.obj
 0001:00047914       ??$tcscat_s@ABQA_WABIPB_W@?$__crt_char_traits@_W@@SAHABQA_WABI$$QAPB_W@Z 10048914 f i libucrt:assert.obj
 0001:00047939       ??$tcscpy_s@AAY0BAF@DIPBD@?$__crt_char_traits@D@@SAHAAY0BAF@D$$QAI$$QAPBD@Z 10048939 f i libucrt:assert.obj
 0001:0004795c       ??$tcscpy_s@AAY0BAF@_WIPB_W@?$__crt_char_traits@_W@@SAHAAY0BAF@_W$$QAI$$QAPB_W@Z 1004895c f i libucrt:assert.obj
 0001:0004797f       ??$tcscpy_s@ABQADABIPBD@?$__crt_char_traits@D@@SAHABQADABI$$QAPBD@Z 1004897f f i libucrt:assert.obj
 0001:000479a4       ??$tcscpy_s@ABQA_WABIPB_W@?$__crt_char_traits@_W@@SAHABQA_WABI$$QAPB_W@Z 100489a4 f i libucrt:assert.obj
 0001:000479c9       ??$tcslen@AAY0BAF@D@?$__crt_char_traits@D@@SAIAAY0BAF@D@Z 100489c9 f i libucrt:assert.obj
 0001:000479e4       ??$tcslen@AAY0BAF@_W@?$__crt_char_traits@_W@@SAIAAY0BAF@_W@Z 100489e4 f i libucrt:assert.obj
 0001:00047a07       ??$tcslen@ABQAD@?$__crt_char_traits@D@@SAIABQAD@Z 10048a07 f i libucrt:assert.obj
 0001:00047a25       ??$tcslen@ABQA_W@?$__crt_char_traits@_W@@SAIABQA_W@Z 10048a25 f i libucrt:assert.obj
 0001:00047a4a       ??$tcslen@ABQBD@?$__crt_char_traits@D@@SAIABQBD@Z 10048a4a f i libucrt:assert.obj
 0001:00047a68       ??$tcslen@ABQB_W@?$__crt_char_traits@_W@@SAIABQB_W@Z 10048a68 f i libucrt:assert.obj
 0001:00047a8d       ??$tcsncat_s@ABQADABIAAPBD$$CBI@?$__crt_char_traits@D@@SAHABQADABIAAPBD$$QBI@Z 10048a8d f i libucrt:assert.obj
 0001:00047ab8       ??$tcsncat_s@ABQADABIABQBDABI@?$__crt_char_traits@D@@SAHABQADABIABQBD1@Z 10048ab8 f i libucrt:assert.obj
 0001:00047ae3       ??$tcsncat_s@ABQADABIPBD$$CBI@?$__crt_char_traits@D@@SAHABQADABI$$QAPBD$$QBI@Z 10048ae3 f i libucrt:assert.obj
 0001:00047b0e       ??$tcsncat_s@ABQA_WABIAAPB_W$$CBI@?$__crt_char_traits@_W@@SAHABQA_WABIAAPB_W$$QBI@Z 10048b0e f i libucrt:assert.obj
 0001:00047b39       ??$tcsncat_s@ABQA_WABIABQB_WABI@?$__crt_char_traits@_W@@SAHABQA_WABIABQB_W1@Z 10048b39 f i libucrt:assert.obj
 0001:00047b64       ??$tcsncat_s@ABQA_WABIPB_W$$CBI@?$__crt_char_traits@_W@@SAHABQA_WABI$$QAPB_W$$QBI@Z 10048b64 f i libucrt:assert.obj
 0001:00047d09       ?has_any_buffer@__crt_stdio_stream@@QBE_NXZ 10048d09 f i libucrt:assert.obj
 0001:00047d1e       ?has_any_of@__crt_stdio_stream@@QBE_NJ@Z 10048d1e f i libucrt:assert.obj
 0001:00047d3a       __assert                   10048d3a f   libucrt:assert.obj
 0001:00047d94       __invoke_watson_if_error   10048d94 f i libucrt:assert.obj
 0001:00047dbe       __vfwprintf_l              10048dbe f i libucrt:assert.obj
 0001:00047dec       __vswprintf_c_l            10048dec f i libucrt:assert.obj
 0001:00047e26       __wassert                  10048e26 f   libucrt:assert.obj
 0001:00047e80       _fwprintf                  10048e80 f i libucrt:assert.obj
 0001:00047f42       _swprintf                  10048f42 f i libucrt:assert.obj
 0001:00047f67       _realloc                   10048f67 f   libucrt:realloc.obj
 0001:00047f74       ??$?B$$A6GXPAXK0@Z@__crt_fast_encoded_nullptr_t@@QBEP6GXPAXK0@ZXZ 10048f74 f i libucrt:exit.obj
 0001:00047f92       ??$__crt_fast_decode_pointer@P6GXPAXK0@Z@@YAP6GXPAXK0@ZQ6GX0K0@Z@Z 10048f92 f i libucrt:exit.obj
 0001:00047fad       ??$__crt_fast_encode_pointer@P6GXPAXK0@Z@@YAP6GXPAXK0@ZQ6GX0K0@Z@Z 10048fad f i libucrt:exit.obj
 0001:00047fd3       ??$__crt_get_proc_address@P6GXI@Z@@YAP6GXI@ZQAUHINSTANCE__@@QBD@Z 10048fd3 f i libucrt:exit.obj
 0001:00047fea       ??0?$__crt_unique_handle_t@U__crt_hmodule_traits@@@@QAE@QAUHINSTANCE__@@@Z 10048fea f i libucrt:exit.obj
 0001:00047ffe       ??1?$__crt_unique_handle_t@U__crt_hmodule_traits@@@@QAE@XZ 10048ffe f i libucrt:exit.obj
 0001:00048031       ?close@?$__crt_unique_handle_t@U__crt_hmodule_traits@@@@QAEXXZ 10049031 f i libucrt:exit.obj
 0001:0004804d       ?close@__crt_hmodule_traits@@SA_NPAUHINSTANCE__@@@Z 1004904d f i libucrt:exit.obj
 0001:00048218       ?get@?$__crt_unique_handle_t@U__crt_hmodule_traits@@@@QBEPAUHINSTANCE__@@XZ 10049218 f i libucrt:exit.obj
 0001:0004821b       ?get_address_of@?$__crt_unique_handle_t@U__crt_hmodule_traits@@@@QAEPAPAUHINSTANCE__@@XZ 1004921b f i libucrt:exit.obj
 0001:0004821e       ?get_invalid_value@__crt_hmodule_traits@@SAPAUHINSTANCE__@@XZ 1004921e f i libucrt:exit.obj
 0001:0004831b       __Exit                     1004931b f   libucrt:exit.obj
 0001:00048336       ___acrt_initialize_thread_local_exit_callback 10049336 f   libucrt:exit.obj
 0001:00048348       __c_exit                   10049348 f   libucrt:exit.obj
 0001:0004835a       __cexit                    1004935a f   libucrt:exit.obj
 0001:0004836c       __exit                     1004936c f   libucrt:exit.obj
 0001:00048387       __is_c_termination_complete 10049387 f   libucrt:exit.obj
 0001:0004838d       __register_thread_local_exe_atexit_callback 1004938d f   libucrt:exit.obj
 0001:000483d3       _exit                      100493d3 f   libucrt:exit.obj
 0001:000483ee       _quick_exit                100493ee f   libucrt:exit.obj
 0001:00048410       _strncat                   10049410 f   libucrt:strncat.obj
 0001:000485a0       _strncpy                   100495a0 f   libucrt:strncpy.obj
 0001:0004870d       ?is_in_use@__crt_stdio_stream@@QBE_NXZ 1004970d f i libucrt:fclose.obj
 0001:0004871c       __fclose_nolock            1004971c f   libucrt:fclose.obj
 0001:000487af       _fclose                    100497af f   libucrt:fclose.obj
 0001:00048ae1       ??$open_file@ABQBDABQBDABHPAU_iobuf@@@?$__crt_char_traits@D@@SAPAU_iobuf@@ABQBD0ABH$$QAPAU1@@Z 10049ae1 f i libucrt:fopen.obj
 0001:00048b0c       ??$open_file@ABQB_WABQB_WABHPAU_iobuf@@@?$__crt_char_traits@_W@@SAPAU_iobuf@@ABQB_W0ABH$$QAPAU1@@Z 10049b0c f i libucrt:fopen.obj
 0001:00048b37       ?unlock@__crt_stdio_stream@@QBEXXZ 10049b37 f i libucrt:fopen.obj
 0001:00048b42       __fsopen                   10049b42 f   libucrt:fopen.obj
 0001:00048b4f       __wfopen                   10049b4f f   libucrt:fopen.obj
 0001:00048b6b       __wfopen_s                 10049b6b f   libucrt:fopen.obj
 0001:00048bc3       __wfsopen                  10049bc3 f   libucrt:fopen.obj
 0001:00048bd0       _fopen                     10049bd0 f   libucrt:fopen.obj
 0001:00048bec       _fopen_s                   10049bec f   libucrt:fopen.obj
 0001:00048c44       ?set_flags@__crt_stdio_stream@@QBE_NJ@Z 10049c44 f i libucrt:fread.obj
 0001:00048c74       __fread_nolock             10049c74 f   libucrt:fread.obj
 0001:00048c98       __fread_nolock_s           10049c98 f   libucrt:fread.obj
 0001:00048ed7       _fread                     10049ed7 f   libucrt:fread.obj
 0001:00048efb       _fread_s                   10049efb f   libucrt:fread.obj
 0001:00049053       ??$?RV<lambda_11b4f7b0d3157825a5656a18eba1ae27>@@AAV<lambda_b51c0495177f500e782686251704ae76>@@V<lambda_cf89b47920b5017557bfe891e78aca36>@@@?$__crt_seh_guarded_call@I@@QAEI$$QAV<lambda_11b4f7b0d3157825a5656a18eba1ae27>@@AAV<lambda_b51c0495177f500e782686251704ae76>@@$$QAV<lambda_cf89b47920b5017557bfe891e78aca36>@@@Z 1004a053 f i libucrt:fwrite.obj
 0001:000490b8       ??$__acrt_lock_stream_and_call@V<lambda_b51c0495177f500e782686251704ae76>@@@@YAIQAU_iobuf@@$$QAV<lambda_b51c0495177f500e782686251704ae76>@@@Z 1004a0b8 f i libucrt:fwrite.obj
 0001:000491ad       ?has_big_buffer@__crt_stdio_stream@@QBE_NXZ 1004a1ad f i libucrt:fwrite.obj
 0001:000491be       __fwrite_nolock            1004a1be f   libucrt:fwrite.obj
 0001:00049395       _fwrite                    1004a395 f   libucrt:fwrite.obj
 0001:00049403       ??$?R_W@__crt_internal_free_policy@@QBEXQB_W@Z 1004a403 f i libucrt:unlink.obj
 0001:00049419       ??0?$__crt_unique_heap_ptr@_WU__crt_internal_free_policy@@@@QAE@QA_W@Z 1004a419 f i libucrt:unlink.obj
 0001:0004942d       ??1?$__crt_unique_heap_ptr@_WU__crt_internal_free_policy@@@@QAE@XZ 1004a42d f i libucrt:unlink.obj
 0001:00049443       ?get@?$__crt_unique_heap_ptr@_WU__crt_internal_free_policy@@@@QBEPA_WXZ 1004a443 f i libucrt:unlink.obj
 0001:00049446       ?get_address_of@?$__crt_unique_heap_ptr@_WU__crt_internal_free_policy@@@@QAEPAPA_WXZ 1004a446 f i libucrt:unlink.obj
 0001:00049449       ?release@?$__crt_unique_heap_ptr@_WU__crt_internal_free_policy@@@@QAEXXZ 1004a449 f i libucrt:unlink.obj
 0001:0004945f       __unlink                   1004a45f f   libucrt:unlink.obj
 0001:0004946c       _remove                    1004a46c f   libucrt:unlink.obj
 0001:000494cc       ?__acrt_stdio_reset_buffer@@YAXV__crt_stdio_stream@@@Z 1004a4cc f i libucrt:rewind.obj
 0001:000494e7       ?has_all_of@__crt_stdio_stream@@QBE_NJ@Z 1004a4e7 f i libucrt:rewind.obj
 0001:00049506       ?unset_flags@__crt_stdio_stream@@QBE_NJ@Z 1004a506 f i libucrt:rewind.obj
 0001:0004953a       _rewind                    1004a53a f   libucrt:rewind.obj
 0001:0004963b       _ldexp                     1004a63b f   libucrt:ldexp.obj
 0001:0004989b       ??$is_overflow_condition@K@__crt_strtox@@YA_NIK@Z 1004a89b f i libucrt:atox.obj
 0001:000498da       ??$is_overflow_condition@_K@__crt_strtox@@YA_NI_K@Z 1004a8da f i libucrt:atox.obj
 0001:0004992d       ??$make_c_string_character_source@D$$T@__crt_strtox@@YA?AV?$c_string_character_source@D@0@QBD$$T@Z 1004a92d f i libucrt:atox.obj
 0001:0004994e       ??$make_c_string_character_source@_W$$T@__crt_strtox@@YA?AV?$c_string_character_source@_W@0@QB_W$$T@Z 1004a94e f i libucrt:atox.obj
 0001:0004996f       ??$parse_integer@KV?$c_string_character_source@D@__crt_strtox@@@__crt_strtox@@YAKQAU__crt_locale_pointers@@V?$c_string_character_source@D@0@H_N@Z 1004a96f f i libucrt:atox.obj
 0001:00049c21       ??$parse_integer@KV?$c_string_character_source@_W@__crt_strtox@@@__crt_strtox@@YAKQAU__crt_locale_pointers@@V?$c_string_character_source@_W@0@H_N@Z 1004ac21 f i libucrt:atox.obj
 0001:0004a4bf       ??$parse_integer@_KV?$c_string_character_source@D@__crt_strtox@@@__crt_strtox@@YA_KQAU__crt_locale_pointers@@V?$c_string_character_source@D@0@H_N@Z 1004b4bf f i libucrt:atox.obj
 0001:0004a80e       ??$parse_integer@_KV?$c_string_character_source@_W@__crt_strtox@@@__crt_strtox@@YA_KQAU__crt_locale_pointers@@V?$c_string_character_source@_W@0@H_N@Z 1004b80e f i libucrt:atox.obj
 0001:0004af80       ??$parse_integer_from_string@JD$$T@__crt_strtox@@YAJQBD$$THQAU__crt_locale_pointers@@@Z 1004bf80 f i libucrt:atox.obj
 0001:0004afb8       ??$parse_integer_from_string@J_W$$T@__crt_strtox@@YAJQB_W$$THQAU__crt_locale_pointers@@@Z 1004bfb8 f i libucrt:atox.obj
 0001:0004aff0       ??$parse_integer_from_string@_JD$$T@__crt_strtox@@YA_JQBD$$THQAU__crt_locale_pointers@@@Z 1004bff0 f i libucrt:atox.obj
 0001:0004b028       ??$parse_integer_from_string@_J_W$$T@__crt_strtox@@YA_JQB_W$$THQAU__crt_locale_pointers@@@Z 1004c028 f i libucrt:atox.obj
 0001:0004b060       ??0?$c_string_character_source@D@__crt_strtox@@QAE@QBDQAPBD@Z 1004c060 f i libucrt:atox.obj
 0001:0004b083       ??0?$c_string_character_source@_W@__crt_strtox@@QAE@QB_WQAPB_W@Z 1004c083 f i libucrt:atox.obj
 0001:0004b0a6       ??1?$c_string_character_source@D@__crt_strtox@@QAE@XZ 1004c0a6 f i libucrt:atox.obj
 0001:0004b0b5       ??1?$c_string_character_source@_W@__crt_strtox@@QAE@XZ 1004c0b5 f i libucrt:atox.obj
 0001:0004b0c4       ?get@?$c_string_character_source@D@__crt_strtox@@QAEDXZ 1004c0c4 f i libucrt:atox.obj
 0001:0004b0ce       ?get@?$c_string_character_source@_W@__crt_strtox@@QAE_WXZ 1004c0ce f i libucrt:atox.obj
 0001:0004b0db       ?is_space@__crt_strtox@@YA_NDQAU__crt_locale_pointers@@@Z 1004c0db f i libucrt:atox.obj
 0001:0004b101       ?is_space@__crt_strtox@@YA_N_WPAU__crt_locale_pointers@@@Z 1004c101 f i libucrt:atox.obj
 0001:0004b120       ?maximum_signed_value@__crt_strtox@@YAJK@Z 1004c120 f i libucrt:atox.obj
 0001:0004b126       ?maximum_signed_value@__crt_strtox@@YA_J_K@Z 1004c126 f i libucrt:atox.obj
 0001:0004b131       ?minimum_signed_value@__crt_strtox@@YAJK@Z 1004c131 f i libucrt:atox.obj
 0001:0004b137       ?minimum_signed_value@__crt_strtox@@YA_J_K@Z 1004c137 f i libucrt:atox.obj
 0001:0004b141       ?parse_digit@__crt_strtox@@YAID@Z 1004c141 f i libucrt:atox.obj
 0001:0004b189       ?parse_digit@__crt_strtox@@YAI_W@Z 1004c189 f i libucrt:atox.obj
 0001:0004b3e6       ?restore_state@?$c_string_character_source@D@__crt_strtox@@QAE_NQBD@Z 1004c3e6 f i libucrt:atox.obj
 0001:0004b3fa       ?restore_state@?$c_string_character_source@_W@__crt_strtox@@QAE_NQB_W@Z 1004c3fa f i libucrt:atox.obj
 0001:0004b40e       ?save_state@?$c_string_character_source@D@__crt_strtox@@QBEPBDXZ 1004c40e f i libucrt:atox.obj
 0001:0004b411       ?save_state@?$c_string_character_source@_W@__crt_strtox@@QBEPB_WXZ 1004c411 f i libucrt:atox.obj
 0001:0004b414       ?unget@?$c_string_character_source@D@__crt_strtox@@QAEXD@Z 1004c414 f i libucrt:atox.obj
 0001:0004b446       ?unget@?$c_string_character_source@_W@__crt_strtox@@QAEX_W@Z 1004c446 f i libucrt:atox.obj
 0001:0004b47d       ?validate@?$c_string_character_source@D@__crt_strtox@@QBE_NXZ 1004c47d f i libucrt:atox.obj
 0001:0004b49e       ?validate@?$c_string_character_source@_W@__crt_strtox@@QBE_NXZ 1004c49e f i libucrt:atox.obj
 0001:0004b4bf       ?wide_character_to_digit@__crt_strtox@@YAH_W@Z 1004c4bf f i libucrt:atox.obj
 0001:0004b6c8       ___acrt_get_locale_data_prefix 1004c6c8 f i libucrt:atox.obj
 0001:0004b6d7       __atoi64                   1004c6d7 f   libucrt:atox.obj
 0001:0004b70b       __atoi64_l                 1004c70b f   libucrt:atox.obj
 0001:0004b740       __atoi_l                   1004c740 f   libucrt:atox.obj
 0001:0004b775       __atol_l                   1004c775 f   libucrt:atox.obj
 0001:0004b7aa       __atoll_l                  1004c7aa f   libucrt:atox.obj
 0001:0004b7df       __chvalidchk_l             1004c7df f i libucrt:atox.obj
 0001:0004b813       __ischartype_l             1004c813 f i libucrt:atox.obj
 0001:0004b852       __wtoi                     1004c852 f   libucrt:atox.obj
 0001:0004b886       __wtoi64                   1004c886 f   libucrt:atox.obj
 0001:0004b8ba       __wtoi64_l                 1004c8ba f   libucrt:atox.obj
 0001:0004b8ef       __wtoi_l                   1004c8ef f   libucrt:atox.obj
 0001:0004b924       __wtol                     1004c924 f   libucrt:atox.obj
 0001:0004b958       __wtol_l                   1004c958 f   libucrt:atox.obj
 0001:0004b98d       __wtoll                    1004c98d f   libucrt:atox.obj
 0001:0004b9c1       __wtoll_l                  1004c9c1 f   libucrt:atox.obj
 0001:0004b9f6       _atoi                      1004c9f6 f   libucrt:atox.obj
 0001:0004ba2a       _atol                      1004ca2a f   libucrt:atox.obj
 0001:0004ba5e       _atoll                     1004ca5e f   libucrt:atox.obj
 0001:0004ba92       __strnicmp                 1004ca92 f   libucrt:strnicmp.obj
 0001:0004bb19       __strnicmp_l               1004cb19 f   libucrt:strnicmp.obj
 0001:0004bbfd       ?LongLongSub@@YAJ_J0PA_J@Z 1004cbfd f i libucrt:fseek.obj
 0001:0004bf64       ?lowio_handle@__crt_stdio_stream@@QBEHXZ 1004cf64 f i libucrt:fseek.obj
 0001:0004bf6a       __fseek_nolock             1004cf6a f   libucrt:fseek.obj
 0001:0004bf8b       __fseeki64                 1004cf8b f   libucrt:fseek.obj
 0001:0004bfac       __fseeki64_nolock          1004cfac f   libucrt:fseek.obj
 0001:0004bfcd       _fseek                     1004cfcd f   libucrt:fseek.obj
 0001:0004c726       ?ctrl_z@__crt_stdio_stream@@QBE_NXZ 1004d726 f i libucrt:ftell.obj
 0001:0004c735       ?has_crt_buffer@__crt_stdio_stream@@QBE_NXZ 1004d735 f i libucrt:ftell.obj
 0001:0004c744       ?has_setvbuf_buffer@__crt_stdio_stream@@QBE_NXZ 1004d744 f i libucrt:ftell.obj
 0001:0004c753       __ftell_nolock             1004d753 f   libucrt:ftell.obj
 0001:0004c760       __ftelli64                 1004d760 f   libucrt:ftell.obj
 0001:0004c76d       __ftelli64_nolock          1004d76d f   libucrt:ftell.obj
 0001:0004c77a       _ftell                     1004d77a f   libucrt:ftell.obj
 0001:0004c787       __errcode                  1004d787 f   libucrt:fpexcept.obj
 0001:0004c7c8       __except1                  1004d7c8 f   libucrt:fpexcept.obj
 0001:0004c8c9       __except2                  1004d8c9 f   libucrt:fpexcept.obj
 0001:0004ca12       __handle_exc               1004da12 f   libucrt:fpexcept.obj
 0001:0004cc6a       __handle_qnan2             1004dc6a f   libucrt:fpexcept.obj
 0001:0004cc7a       __raise_exc                1004dc7a f   libucrt:fpexcept.obj
 0001:0004cca5       __raise_exc_ex             1004dca5 f   libucrt:fpexcept.obj
 0001:0004d052       __raise_excf               1004e052 f   libucrt:fpexcept.obj
 0001:0004d07d       __set_errno_from_matherr   1004e07d f   libucrt:fpexcept.obj
 0001:0004d0b7       __umatherr                 1004e0b7 f   libucrt:fpexcept.obj
 0001:0004d181       __initterm                 1004e181 f   libucrt:initterm.obj
 0001:0004d1f4       __initterm_e               1004e1f4 f   libucrt:initterm.obj
 0001:0004d277       __seh_filter_dll           1004e277 f   libucrt:exception_filter.obj
 0001:0004d29f       __seh_filter_exe           1004e29f f   libucrt:exception_filter.obj
 0001:0004d46e       ??$?RPAD@__crt_internal_free_policy@@QBEXQBQAD@Z 1004e46e f i libucrt:environment_initialization.obj
 0001:0004d484       ??$?RPA_W@__crt_internal_free_policy@@QBEXQBQA_W@Z 1004e484 f i libucrt:environment_initialization.obj
 0001:0004d962       ??$get_environment_from_os@$$$V@?$__crt_char_traits@D@@SAPADXZ 1004e962 f i libucrt:environment_initialization.obj
 0001:0004d967       ??$get_environment_from_os@$$$V@?$__crt_char_traits@_W@@SAPA_WXZ 1004e967 f i libucrt:environment_initialization.obj
 0001:0004daa1       ??$set_variable_in_environment_nolock@PADH@?$__crt_char_traits@D@@SAH$$QAPAD$$QAH@Z 1004eaa1 f i libucrt:environment_initialization.obj
 0001:0004dabf       ??$set_variable_in_environment_nolock@PA_WH@?$__crt_char_traits@_W@@SAH$$QAPA_W$$QAH@Z 1004eabf f i libucrt:environment_initialization.obj
 0001:0004dadd       ??$tcscpy_s@PADABIAAPAD@?$__crt_char_traits@D@@SAH$$QAPADABIAAPAD@Z 1004eadd f i libucrt:environment_initialization.obj
 0001:0004db02       ??$tcscpy_s@PA_WABIAAPA_W@?$__crt_char_traits@_W@@SAH$$QAPA_WABIAAPA_W@Z 1004eb02 f i libucrt:environment_initialization.obj
 0001:0004db27       ??$tcslen@AAPAD@?$__crt_char_traits@D@@SAIAAPAD@Z 1004eb27 f i libucrt:environment_initialization.obj
 0001:0004db45       ??$tcslen@AAPA_W@?$__crt_char_traits@_W@@SAIAAPA_W@Z 1004eb45 f i libucrt:environment_initialization.obj
 0001:0004db6a       ??$uninitialize@A6AXAAPAPAD@Z@?$dual_state_global@PAPAD@__crt_state_management@@QAEXA6AXAAPAPAD@Z@Z 1004eb6a f i libucrt:environment_initialization.obj
 0001:0004dbba       ??$uninitialize@A6AXAAPAPA_W@Z@?$dual_state_global@PAPA_W@__crt_state_management@@QAEXA6AXAAPAPA_W@Z@Z 1004ebba f i libucrt:environment_initialization.obj
 0001:0004dc4c       ??0?$__crt_unique_heap_ptr@PADU__crt_internal_free_policy@@@@QAE@QAPAD@Z 1004ec4c f i libucrt:environment_initialization.obj
 0001:0004dc60       ??0?$__crt_unique_heap_ptr@PA_WU__crt_internal_free_policy@@@@QAE@QAPA_W@Z 1004ec60 f i libucrt:environment_initialization.obj
 0001:0004dc74       ??1?$__crt_unique_heap_ptr@PADU__crt_internal_free_policy@@@@QAE@XZ 1004ec74 f i libucrt:environment_initialization.obj
 0001:0004dc8a       ??1?$__crt_unique_heap_ptr@PA_WU__crt_internal_free_policy@@@@QAE@XZ 1004ec8a f i libucrt:environment_initialization.obj
 0001:0004dca0       ??B?$__crt_unique_heap_ptr@PADU__crt_internal_free_policy@@@@QBE_NXZ 1004eca0 f i libucrt:environment_initialization.obj
 0001:0004dcaa       ??B?$__crt_unique_heap_ptr@PA_WU__crt_internal_free_policy@@@@QBE_NXZ 1004ecaa f i libucrt:environment_initialization.obj
 0001:0004dcb4       ??B?$__crt_unique_heap_ptr@_WU__crt_internal_free_policy@@@@QBE_NXZ 1004ecb4 f i libucrt:environment_initialization.obj
 0001:0004dcbe       ?__crt_compute_required_transform_buffer_count@@YAIIQBD@Z 1004ecbe f i libucrt:environment_initialization.obj
 0001:0004dcde       ?__crt_compute_required_transform_buffer_count@@YAIIQB_W@Z 1004ecde f i libucrt:environment_initialization.obj
 0001:0004dd01       ?__crt_transform_string@@YAIIQBDQA_WI@Z 1004ed01 f i libucrt:environment_initialization.obj
 0001:0004dd25       ?__crt_transform_string@@YAIIQB_WQADI@Z 1004ed25 f i libucrt:environment_initialization.obj
 0001:0004dd4d       ?detach@?$__crt_unique_heap_ptr@DU__crt_internal_free_policy@@@@QAEPADXZ 1004ed4d f i libucrt:environment_initialization.obj
 0001:0004dd53       ?detach@?$__crt_unique_heap_ptr@PADU__crt_internal_free_policy@@@@QAEPAPADXZ 1004ed53 f i libucrt:environment_initialization.obj
 0001:0004dd59       ?detach@?$__crt_unique_heap_ptr@PA_WU__crt_internal_free_policy@@@@QAEPAPA_WXZ 1004ed59 f i libucrt:environment_initialization.obj
 0001:0004dd5f       ?detach@?$__crt_unique_heap_ptr@_WU__crt_internal_free_policy@@@@QAEPA_WXZ 1004ed5f f i libucrt:environment_initialization.obj
 0001:0004dd65       ?get@?$__crt_unique_heap_ptr@PADU__crt_internal_free_policy@@@@QBEPAPADXZ 1004ed65 f i libucrt:environment_initialization.obj
 0001:0004dd68       ?get@?$__crt_unique_heap_ptr@PA_WU__crt_internal_free_policy@@@@QBEPAPA_WXZ 1004ed68 f i libucrt:environment_initialization.obj
 0001:0004dd6b       ?get_current_state_index@__crt_state_management@@YAIXZ 1004ed6b f i libucrt:environment_initialization.obj
 0001:0004dd92       ?initialize@?$dual_state_global@PAPAD@__crt_state_management@@QAEXQAPAD@Z 1004ed92 f i libucrt:environment_initialization.obj
 0001:0004ddcf       ?initialize@?$dual_state_global@PAPA_W@__crt_state_management@@QAEXQAPA_W@Z 1004edcf f i libucrt:environment_initialization.obj
 0001:0004de0c       ?is_valid@?$__crt_unique_heap_ptr@PADU__crt_internal_free_policy@@@@QBE_NXZ 1004ee0c f i libucrt:environment_initialization.obj
 0001:0004de16       ?is_valid@?$__crt_unique_heap_ptr@PA_WU__crt_internal_free_policy@@@@QBE_NXZ 1004ee16 f i libucrt:environment_initialization.obj
 0001:0004de20       ?is_valid@?$__crt_unique_heap_ptr@_WU__crt_internal_free_policy@@@@QBE_NXZ 1004ee20 f i libucrt:environment_initialization.obj
 0001:0004de30       ?release@?$__crt_unique_heap_ptr@PADU__crt_internal_free_policy@@@@QAEXXZ 1004ee30 f i libucrt:environment_initialization.obj
 0001:0004de46       ?release@?$__crt_unique_heap_ptr@PA_WU__crt_internal_free_policy@@@@QAEXXZ 1004ee46 f i libucrt:environment_initialization.obj
 0001:0004de5c       ?value@?$dual_state_global@PAPAD@__crt_state_management@@QAEAAPAPADXZ 1004ee5c f i libucrt:environment_initialization.obj
 0001:0004de5f       ?value@?$dual_state_global@PAPA_W@__crt_state_management@@QAEAAPAPA_WXZ 1004ee5f f i libucrt:environment_initialization.obj
 0001:0004de62       ___dcrt_get_or_create_narrow_environment_nolock 1004ee62 f   libucrt:environment_initialization.obj
 0001:0004de67       ___dcrt_get_or_create_wide_environment_nolock 1004ee67 f   libucrt:environment_initialization.obj
 0001:0004de6c       ___dcrt_uninitialize_environments_nolock 1004ee6c f   libucrt:environment_initialization.obj
 0001:0004deb0       ___p__environ              1004eeb0 f   libucrt:environment_initialization.obj
 0001:0004deb6       ___p__wenviron             1004eeb6 f   libucrt:environment_initialization.obj
 0001:0004debc       __get_initial_narrow_environment 1004eebc f   libucrt:environment_initialization.obj
 0001:0004ded5       __get_initial_wide_environment 1004eed5 f   libucrt:environment_initialization.obj
 0001:0004deee       __initialize_narrow_environment 1004eeee f   libucrt:environment_initialization.obj
 0001:0004def3       __initialize_wide_environment 1004eef3 f   libucrt:environment_initialization.obj
 0001:0004def8       ??$?BP6AXXZ@__crt_fast_encoded_nullptr_t@@QBEPAP6AXXZXZ 1004eef8 f i libucrt:onexit.obj
 0001:0004df16       ??$?RP6AXXZ@__crt_internal_free_policy@@QBEXQBQ6AXXZ@Z 1004ef16 f i libucrt:onexit.obj
 0001:0004df2c       ??$?RV<lambda_800076c951b434888f4765a74a194fcc>@@AAV<lambda_4e60a939b0d047cfe11ddc22648dfba9>@@V<lambda_6dbb1268764f43b569ce7b67e331d33a>@@@?$__crt_seh_guarded_call@H@@QAEH$$QAV<lambda_800076c951b434888f4765a74a194fcc>@@AAV<lambda_4e60a939b0d047cfe11ddc22648dfba9>@@$$QAV<lambda_6dbb1268764f43b569ce7b67e331d33a>@@@Z 1004ef2c f i libucrt:onexit.obj
 0001:0004df91       ??$?RV<lambda_995298e7d72eb4c2aab26c0585b3abe5>@@AAV<lambda_275893d493268fdec8709772e3fcec0e>@@V<lambda_293819299cbf9a7022e18b56a874bb5c>@@@?$__crt_seh_guarded_call@H@@QAEH$$QAV<lambda_995298e7d72eb4c2aab26c0585b3abe5>@@AAV<lambda_275893d493268fdec8709772e3fcec0e>@@$$QAV<lambda_293819299cbf9a7022e18b56a874bb5c>@@@Z 1004ef91 f i libucrt:onexit.obj
 0001:0004dff6       ??$__acrt_lock_and_call@V<lambda_275893d493268fdec8709772e3fcec0e>@@@@YAHW4__acrt_lock_id@@$$QAV<lambda_275893d493268fdec8709772e3fcec0e>@@@Z 1004eff6 f i libucrt:onexit.obj
 0001:0004e028       ??$__acrt_lock_and_call@V<lambda_4e60a939b0d047cfe11ddc22648dfba9>@@@@YAHW4__acrt_lock_id@@$$QAV<lambda_4e60a939b0d047cfe11ddc22648dfba9>@@@Z 1004f028 f i libucrt:onexit.obj
 0001:0004e05a       ??$__crt_fast_encode_pointer@P6AHXZ@@YAP6AHXZQ6AHXZ@Z 1004f05a f i libucrt:onexit.obj
 0001:0004e107       ??0?$__crt_unique_heap_ptr@P6AXXZU__crt_internal_free_policy@@@@QAE@QAP6AXXZ@Z 1004f107 f i libucrt:onexit.obj
 0001:0004e11b       ??1?$__crt_unique_heap_ptr@P6AXXZU__crt_internal_free_policy@@@@QAE@XZ 1004f11b f i libucrt:onexit.obj
 0001:0004e456       ?detach@?$__crt_unique_heap_ptr@P6AXXZU__crt_internal_free_policy@@@@QAEPAP6AXXZXZ 1004f456 f i libucrt:onexit.obj
 0001:0004e45c       ?release@?$__crt_unique_heap_ptr@P6AXXZU__crt_internal_free_policy@@@@QAEXXZ 1004f45c f i libucrt:onexit.obj
 0001:0004e472       __crt_at_quick_exit        1004f472 f   libucrt:onexit.obj
 0001:0004e48d       __crt_atexit               1004f48d f   libucrt:onexit.obj
 0001:0004e4a8       __execute_onexit_table     1004f4a8 f   libucrt:onexit.obj
 0001:0004e4cc       __initialize_onexit_table  1004f4cc f   libucrt:onexit.obj
 0001:0004e518       __register_onexit_function 1004f518 f   libucrt:onexit.obj
 0001:0004e67f       ?initialize@?$dual_state_global@PAU__crt_locale_data@@@__crt_state_management@@QAEXQAU__crt_locale_data@@@Z 1004f67f f i libucrt:initialization.obj
 0001:0004e6bc       ___acrt_initialize         1004f6bc f   libucrt:initialization.obj
 0001:0004e6d2       ___acrt_thread_attach      1004f6d2 f   libucrt:initialization.obj
 0001:0004e6df       ___acrt_thread_detach      1004f6df f   libucrt:initialization.obj
 0001:0004e6e9       ___acrt_uninitialize       1004f6e9 f   libucrt:initialization.obj
 0001:0004e6ff       ___acrt_uninitialize_critical 1004f6ff f   libucrt:initialization.obj
 0001:0004e730       __get_terminate            1004f730 f   libucrt:terminate.obj
 0001:0004e746       _set_terminate             1004f746 f   libucrt:terminate.obj
 0001:0004e76e       _terminate                 1004f76e f   libucrt:terminate.obj
 0001:0004e7b9       ??$__crt_interlocked_exchange_pointer@X$$T@@YAPAXPDSAX$$T@Z 1004f7b9 f i libucrt:free_base.obj
 0001:0004e7d1       ___acrt_get_msvcrt_heap_handle 1004f7d1 f   libucrt:free_base.obj
 0001:0004e862       __free_base                1004f862 f   libucrt:free_base.obj
 0001:0004e8aa       __malloc_base              1004f8aa f   libucrt:malloc_base.obj
 0001:0004e97b       _strcpy_s                  1004f97b f   libucrt:strcpy_s.obj
 0001:0004e9eb       __set_abort_behavior       1004f9eb f   libucrt:abort.obj
 0001:0004ea14       _abort                     1004fa14 f   libucrt:abort.obj
 0001:0004ea67       __calloc_base              1004fa67 f   libucrt:calloc_base.obj
 0001:0004eadb       ??$__crt_fast_decode_pointer@P6AXPB_W00II@Z@@YAP6AXPB_W00II@ZQ6AX000II@Z@Z 1004fadb f i libucrt:invalid_parameter.obj
 0001:0004eaf6       ??$__crt_fast_encode_pointer@P6AXPB_W00II@Z@@YAP6AXPB_W00II@ZQ6AX000II@Z@Z 1004faf6 f i libucrt:invalid_parameter.obj
 0001:0004eb1c       ?initialize@?$dual_state_global@P6AXPB_W00II@Z@__crt_state_management@@QAEXQ6AXPB_W00II@Z@Z 1004fb1c f i libucrt:invalid_parameter.obj
 0001:0004eb59       ?value@?$dual_state_global@P6AXPB_W00II@Z@__crt_state_management@@QAEAAP6AXPB_W00II@ZXZ 1004fb59 f i libucrt:invalid_parameter.obj
 0001:0004eb5c       ___acrt_call_reportfault   1004fb5c f   libucrt:invalid_parameter.obj
 0001:0004ece5       ___acrt_initialize_invalid_parameter_handler 1004fce5 f   libucrt:invalid_parameter.obj
 0001:0004ecfe       __get_invalid_parameter_handler 1004fcfe f   libucrt:invalid_parameter.obj
 0001:0004ed15       __get_thread_local_invalid_parameter_handler 1004fd15 f   libucrt:invalid_parameter.obj
 0001:0004ed2a       __invalid_parameter        1004fd2a f   libucrt:invalid_parameter.obj
 0001:0004edc3       __invalid_parameter_noinfo 1004fdc3 f   libucrt:invalid_parameter.obj
 0001:0004edd7       __invalid_parameter_noinfo_noreturn 1004fdd7 f   libucrt:invalid_parameter.obj
 0001:0004edfb       __invoke_watson            1004fdfb f   libucrt:invalid_parameter.obj
 0001:0004ee3a       __set_invalid_parameter_handler 1004fe3a f   libucrt:invalid_parameter.obj
 0001:0004ee76       __set_thread_local_invalid_parameter_handler 1004fe76 f   libucrt:invalid_parameter.obj
 0001:0004ee9a       ___acrt_errno_from_os_error 1004fe9a f   libucrt:errno.obj
 0001:0004eeed       ___acrt_errno_map_os_error 1004feed f   libucrt:errno.obj
 0001:0004ef18       ___doserrno                1004ff18 f   libucrt:errno.obj
 0001:0004ef2f       __errno                    1004ff2f f   libucrt:errno.obj
 0001:0004ef46       __get_doserrno             1004ff46 f   libucrt:errno.obj
 0001:0004ef74       __get_errno                1004ff74 f   libucrt:errno.obj
 0001:0004efa2       __set_doserrno             1004ffa2 f   libucrt:errno.obj
 0001:0004efcb       __set_errno                1004ffcb f   libucrt:errno.obj
 0001:0004f04b       ??$?B$$A6GHPA_WKJ@Z@__crt_fast_encoded_nullptr_t@@QBEP6GHPA_WKJ@ZXZ 1005004b f i libucrt:winapi_thunks.obj
 0001:0004f069       ??$?RV<lambda_9227be29367c048ad7fd93a717dcb1a1>@@AAV<lambda_a463b7b0560cfcaf9b17f27c6ef46564>@@V<lambda_ccea11b5727ccf69be64f5f5d9a08d9f>@@@?$__crt_seh_guarded_call@H@@QAEH$$QAV<lambda_9227be29367c048ad7fd93a717dcb1a1>@@AAV<lambda_a463b7b0560cfcaf9b17f27c6ef46564>@@$$QAV<lambda_ccea11b5727ccf69be64f5f5d9a08d9f>@@@Z 10050069 f i libucrt:winapi_thunks.obj
 0001:0004f10e       ??$__acrt_lock_and_call@V<lambda_a463b7b0560cfcaf9b17f27c6ef46564>@@@@YAHW4__acrt_lock_id@@$$QAV<lambda_a463b7b0560cfcaf9b17f27c6ef46564>@@@Z 1005010e f i libucrt:winapi_thunks.obj
 0001:0004f140       ??$__crt_fast_decode_pointer@P6GHPA_WKJ@Z@@YAP6GHPA_WKJ@ZQ6GH0KJ@Z@Z 10050140 f i libucrt:winapi_thunks.obj
 0001:0004f15b       ??$__crt_fast_encode_pointer@P6GHPA_WKJ@Z@@YAP6GHPA_WKJ@ZQ6GH0KJ@Z@Z 1005015b f i libucrt:winapi_thunks.obj
 0001:0004f888       ___acrt_AreFileApisANSI@0  10050888 f   libucrt:winapi_thunks.obj
 0001:0004f8e9       ___acrt_CompareStringEx@36 100508e9 f   libucrt:winapi_thunks.obj
 0001:0004f97a       ___acrt_EnumSystemLocalesEx@16 1005097a f   libucrt:winapi_thunks.obj
 0001:0004fa02       ___acrt_FlsAlloc@4         10050a02 f   libucrt:winapi_thunks.obj
 0001:0004fa6d       ___acrt_FlsFree@4          10050a6d f   libucrt:winapi_thunks.obj
 0001:0004fad8       ___acrt_FlsGetValue@4      10050ad8 f   libucrt:winapi_thunks.obj
 0001:0004fb43       ___acrt_FlsSetValue@8      10050b43 f   libucrt:winapi_thunks.obj
 0001:0004fbb2       ___acrt_GetDateFormatEx@28 10050bb2 f   libucrt:winapi_thunks.obj
 0001:0004fc54       ___acrt_GetEnabledXStateFeatures@0 10050c54 f   libucrt:winapi_thunks.obj
 0001:0004fcb6       ___acrt_GetFileInformationByHandleEx@16 10050cb6 f   libucrt:winapi_thunks.obj
 0001:0004fd31       ___acrt_GetLocaleInfoEx@16 10050d31 f   libucrt:winapi_thunks.obj
 0001:0004fdb5       ___acrt_GetSystemTimePreciseAsFileTime@4 10050db5 f   libucrt:winapi_thunks.obj
 0001:0004fe20       ___acrt_GetTimeFormatEx@24 10050e20 f   libucrt:winapi_thunks.obj
 0001:0004feac       ___acrt_GetUserDefaultLocaleName@8 10050eac f   libucrt:winapi_thunks.obj
 0001:0004ff2c       ___acrt_GetXStateFeaturesMask@8 10050f2c f   libucrt:winapi_thunks.obj
 0001:0004ff98       ___acrt_InitializeCriticalSectionEx@12 10050f98 f   libucrt:winapi_thunks.obj
 0001:00050012       ___acrt_IsValidLocaleName@4 10051012 f   libucrt:winapi_thunks.obj
 0001:0005008d       ___acrt_LCIDToLocaleName@16 1005108d f   libucrt:winapi_thunks.obj
 0001:00050111       ___acrt_LCMapStringEx@36   10051111 f   libucrt:winapi_thunks.obj
 0001:000501bb       ___acrt_LocaleNameToLCID@8 100511bb f   libucrt:winapi_thunks.obj
 0001:0005022e       ___acrt_LocateXStateFeature@12 1005122e f   libucrt:winapi_thunks.obj
 0001:00050285       ___acrt_MessageBoxA@16     10051285 f   libucrt:winapi_thunks.obj
 0001:000502e0       ___acrt_MessageBoxW@16     100512e0 f   libucrt:winapi_thunks.obj
 0001:0005033b       ___acrt_RoInitialize@4     1005133b f   libucrt:winapi_thunks.obj
 0001:000503a1       ___acrt_RoUninitialize@0   100513a1 f   libucrt:winapi_thunks.obj
 0001:000503fc       ___acrt_RtlGenRandom@8     100513fc f   libucrt:winapi_thunks.obj
 0001:00050468       ___acrt_SetThreadStackGuarantee@4 10051468 f   libucrt:winapi_thunks.obj
 0001:000504ce       ___acrt_can_show_message_box 100514ce f   libucrt:winapi_thunks.obj
 0001:000504ed       ___acrt_can_use_vista_locale_apis 100514ed f   libucrt:winapi_thunks.obj
 0001:000504fc       ___acrt_can_use_xstate_apis 100514fc f   libucrt:winapi_thunks.obj
 0001:0005050b       ___acrt_get_parent_window  1005150b f   libucrt:winapi_thunks.obj
 0001:000505a9       ___acrt_initialize_winapi_thunks 100515a9 f   libucrt:winapi_thunks.obj
 0001:000505d8       ___acrt_is_interactive     100515d8 f   libucrt:winapi_thunks.obj
 0001:000506a7       ___acrt_is_packaged_app    100516a7 f   libucrt:winapi_thunks.obj
 0001:0005074f       ___acrt_uninitialize_winapi_thunks 1005174f f   libucrt:winapi_thunks.obj
 0001:00050792       ??0__crt_stdio_stream@@QAE@QAU__crt_stdio_stream_data@@@Z 10051792 f i libucrt:closeall.obj
 0001:000507a6       __fcloseall                100517a6 f   libucrt:closeall.obj
 0001:0005086e       ___acrt_stdio_flush_nolock 1005186e f   libucrt:fflush.obj
 0001:000508ed       __fflush_nolock            100518ed f   libucrt:fflush.obj
 0001:00050945       __flushall                 10051945 f   libucrt:fflush.obj
 0001:00050a5e       _fflush                    10051a5e f   libucrt:fflush.obj
 0001:00050acd       ___acrt_stdio_free_buffer_nolock 10051acd f   libucrt:_freebuf.obj
 0001:00050d0a       ___acrt_initialize_lowio   10051d0a f   libucrt:ioinit.obj
 0001:00050d75       ___acrt_uninitialize_lowio 10051d75 f   libucrt:ioinit.obj
 0001:00050dc7       ___isascii                 10051dc7 f i libucrt:_ctype.obj
 0001:00050ddd       ___iscsym                  10051ddd f i libucrt:_ctype.obj
 0001:00050e07       ___iscsymf                 10051e07 f i libucrt:_ctype.obj
 0001:00050e2d       ___toascii                 10051e2d f i libucrt:_ctype.obj
 0001:00050e3d       __isalnum_l                10051e3d f i libucrt:_ctype.obj
 0001:00050e86       __isalpha_l                10051e86 f i libucrt:_ctype.obj
 0001:00050ecf       __isblank_l                10051ecf f i libucrt:_ctype.obj
 0001:00050f22       __iscntrl_l                10051f22 f i libucrt:_ctype.obj
 0001:00050f68       __iscsym_l                 10051f68 f i libucrt:_ctype.obj
 0001:00050f93       __iscsymf_l                10051f93 f i libucrt:_ctype.obj
 0001:00050fbe       __isdigit_l                10051fbe f i libucrt:_ctype.obj
 0001:00051004       __isgraph_l                10052004 f i libucrt:_ctype.obj
 0001:0005104d       __islower_l                1005204d f i libucrt:_ctype.obj
 0001:00051093       __isprint_l                10052093 f i libucrt:_ctype.obj
 0001:000510dc       __ispunct_l                100520dc f i libucrt:_ctype.obj
 0001:00051122       __isspace_l                10052122 f i libucrt:_ctype.obj
 0001:00051168       __isupper_l                10052168 f i libucrt:_ctype.obj
 0001:000511ae       __isxdigit_l               100521ae f i libucrt:_ctype.obj
 0001:000511f7       _isalnum                   100521f7 f i libucrt:_ctype.obj
 0001:00051231       _isalpha                   10052231 f i libucrt:_ctype.obj
 0001:0005126b       _isblank                   1005226b f i libucrt:_ctype.obj
 0001:000512af       _iscntrl                   100522af f i libucrt:_ctype.obj
 0001:000512e7       _isdigit                   100522e7 f i libucrt:_ctype.obj
 0001:0005131f       _isgraph                   1005231f f i libucrt:_ctype.obj
 0001:00051359       _islower                   10052359 f i libucrt:_ctype.obj
 0001:00051391       _isprint                   10052391 f i libucrt:_ctype.obj
 0001:000513cb       _ispunct                   100523cb f i libucrt:_ctype.obj
 0001:00051403       _isspace                   10052403 f i libucrt:_ctype.obj
 0001:0005143b       _isupper                   1005243b f i libucrt:_ctype.obj
 0001:00051473       _isxdigit                  10052473 f i libucrt:_ctype.obj
 0001:0005186b       __tolower                  1005286b f   libucrt:tolower_toupper.obj
 0001:0005187b       __tolower_l                1005287b f   libucrt:tolower_toupper.obj
 0001:0005189b       __toupper                  1005289b f   libucrt:tolower_toupper.obj
 0001:000518ab       __toupper_l                100528ab f   libucrt:tolower_toupper.obj
 0001:000518cb       _tolower                   100528cb f   libucrt:tolower_toupper.obj
 0001:00051907       _toupper                   10052907 f   libucrt:tolower_toupper.obj
 0001:00051943       ??$make_c_string_character_source@DPAPAD@__crt_strtox@@YA?AV?$c_string_character_source@D@0@QBDQAPAD@Z 10052943 f i libucrt:strtox.obj
 0001:00051964       ??$make_c_string_character_source@_WPAPA_W@__crt_strtox@@YA?AV?$c_string_character_source@_W@0@QB_WQAPA_W@Z 10052964 f i libucrt:strtox.obj
 0001:00051985       ??$parse_integer_from_string@JDPAPAD@__crt_strtox@@YAJQBDQAPADHQAU__crt_locale_pointers@@@Z 10052985 f i libucrt:strtox.obj
 0001:000519bd       ??$parse_integer_from_string@J_WPAPA_W@__crt_strtox@@YAJQB_WQAPA_WHQAU__crt_locale_pointers@@@Z 100529bd f i libucrt:strtox.obj
 0001:000519f5       ??$parse_integer_from_string@KDPAPAD@__crt_strtox@@YAKQBDQAPADHQAU__crt_locale_pointers@@@Z 100529f5 f i libucrt:strtox.obj
 0001:00051a2d       ??$parse_integer_from_string@K_WPAPA_W@__crt_strtox@@YAKQB_WQAPA_WHQAU__crt_locale_pointers@@@Z 10052a2d f i libucrt:strtox.obj
 0001:00051a65       ??$parse_integer_from_string@_JDPAPAD@__crt_strtox@@YA_JQBDQAPADHQAU__crt_locale_pointers@@@Z 10052a65 f i libucrt:strtox.obj
 0001:00051a9d       ??$parse_integer_from_string@_J_WPAPA_W@__crt_strtox@@YA_JQB_WQAPA_WHQAU__crt_locale_pointers@@@Z 10052a9d f i libucrt:strtox.obj
 0001:00051ad5       ??$parse_integer_from_string@_KDPAPAD@__crt_strtox@@YA_KQBDQAPADHQAU__crt_locale_pointers@@@Z 10052ad5 f i libucrt:strtox.obj
 0001:00051b0d       ??$parse_integer_from_string@_K_WPAPA_W@__crt_strtox@@YA_KQB_WQAPA_WHQAU__crt_locale_pointers@@@Z 10052b0d f i libucrt:strtox.obj
 0001:00051b45       __strtoi64                 10052b45 f   libucrt:strtox.obj
 0001:00051b7c       __strtoi64_l               10052b7c f   libucrt:strtox.obj
 0001:00051bb4       __strtoimax_l              10052bb4 f   libucrt:strtox.obj
 0001:00051bec       __strtol_l                 10052bec f   libucrt:strtox.obj
 0001:00051c24       __strtoll_l                10052c24 f   libucrt:strtox.obj
 0001:00051c5c       __strtoui64                10052c5c f   libucrt:strtox.obj
 0001:00051c93       __strtoui64_l              10052c93 f   libucrt:strtox.obj
 0001:00051ccb       __strtoul_l                10052ccb f   libucrt:strtox.obj
 0001:00051d03       __strtoull_l               10052d03 f   libucrt:strtox.obj
 0001:00051d3b       __strtoumax_l              10052d3b f   libucrt:strtox.obj
 0001:00051d73       __wcstoi64                 10052d73 f   libucrt:strtox.obj
 0001:00051daa       __wcstoi64_l               10052daa f   libucrt:strtox.obj
 0001:00051de2       __wcstoimax_l              10052de2 f   libucrt:strtox.obj
 0001:00051e1a       __wcstol_l                 10052e1a f   libucrt:strtox.obj
 0001:00051e52       __wcstoll_l                10052e52 f   libucrt:strtox.obj
 0001:00051e8a       __wcstoui64                10052e8a f   libucrt:strtox.obj
 0001:00051ec1       __wcstoui64_l              10052ec1 f   libucrt:strtox.obj
 0001:00051ef9       __wcstoul_l                10052ef9 f   libucrt:strtox.obj
 0001:00051f31       __wcstoull_l               10052f31 f   libucrt:strtox.obj
 0001:00051f69       __wcstoumax_l              10052f69 f   libucrt:strtox.obj
 0001:00051fa1       _strtoimax                 10052fa1 f   libucrt:strtox.obj
 0001:00051fd8       _strtol                    10052fd8 f   libucrt:strtox.obj
 0001:0005200f       _strtoll                   1005300f f   libucrt:strtox.obj
 0001:00052046       _strtoul                   10053046 f   libucrt:strtox.obj
 0001:0005207d       _strtoull                  1005307d f   libucrt:strtox.obj
 0001:000520b4       _strtoumax                 100530b4 f   libucrt:strtox.obj
 0001:000520eb       _wcstoimax                 100530eb f   libucrt:strtox.obj
 0001:00052122       _wcstol                    10053122 f   libucrt:strtox.obj
 0001:00052159       _wcstoll                   10053159 f   libucrt:strtox.obj
 0001:00052190       _wcstoul                   10053190 f   libucrt:strtox.obj
 0001:000521c7       _wcstoull                  100531c7 f   libucrt:strtox.obj
 0001:000521fe       _wcstoumax                 100531fe f   libucrt:strtox.obj
 0001:00052235       __mbtowc_l                 10053235 f   libucrt:mbtowc.obj
 0001:0005236d       _mbtowc                    1005336d f   libucrt:mbtowc.obj
 0001:0005238d       __wctomb_l                 1005338d f   libucrt:wctomb.obj
 0001:000523f4       __wctomb_s_l               100533f4 f   libucrt:wctomb.obj
 0001:0005255d       _wctomb                    1005355d f   libucrt:wctomb.obj
 0001:0005259e       _wctomb_s                  1005359e f   libucrt:wctomb.obj
 0001:00052cb6       ??1?$__crt_simd_cleanup_guard@$00@@QAE@XZ 10053cb6 f i libucrt:strnlen.obj
 0001:00052cba       ??1?$__crt_simd_cleanup_guard@$0A@@@QAE@XZ 10053cba f i libucrt:strnlen.obj
 0001:00052cbb       ?compare_equals@?$__crt_simd_traits@$00E@@SA?AT__m256i@@T2@0@Z 10053cbb f i libucrt:strnlen.obj
 0001:00052cc0       ?compare_equals@?$__crt_simd_traits@$00G@@SA?AT__m256i@@T2@0@Z 10053cc0 f i libucrt:strnlen.obj
 0001:00052cc5       ?compare_equals@?$__crt_simd_traits@$0A@E@@SA?AT__m128i@@T2@0@Z 10053cc5 f i libucrt:strnlen.obj
 0001:00052cca       ?compare_equals@?$__crt_simd_traits@$0A@G@@SA?AT__m128i@@T2@0@Z 10053cca f i libucrt:strnlen.obj
 0001:00052ccf       ?compute_byte_mask@?$__crt_simd_pack_traits@$00@@SAHT__m256i@@@Z 10053ccf f i libucrt:strnlen.obj
 0001:00052cd4       ?compute_byte_mask@?$__crt_simd_pack_traits@$0A@@@SAHT__m128i@@@Z 10053cd4 f i libucrt:strnlen.obj
 0001:00052cd9       ?get_zero_pack@?$__crt_simd_pack_traits@$00@@SA?AT__m256i@@XZ 10053cd9 f i libucrt:strnlen.obj
 0001:00052cde       ?get_zero_pack@?$__crt_simd_pack_traits@$0A@@@SA?AT__m128i@@XZ 10053cde f i libucrt:strnlen.obj
 0001:00052ce3       _strnlen                   10053ce3 f   libucrt:strnlen.obj
 0001:00052e53       _wcsnlen                   10053e53 f   libucrt:strnlen.obj
 0001:00053077       ??$?RU__acrt_ptd@@@__crt_internal_free_policy@@QBEXQBU__acrt_ptd@@@Z 10054077 f i libucrt:per_thread_data.obj
 0001:0005308d       ??$?RV<lambda_3518db117f0e7cdb002338c5d3c47b6c>@@AAV<lambda_b2ea41f6bbb362cd97d94c6828d90b61>@@V<lambda_abdedf541bb04549bc734292b4a045d4>@@@?$__crt_seh_guarded_call@X@@QAEX$$QAV<lambda_3518db117f0e7cdb002338c5d3c47b6c>@@AAV<lambda_b2ea41f6bbb362cd97d94c6828d90b61>@@$$QAV<lambda_abdedf541bb04549bc734292b4a045d4>@@@Z 1005408d f i libucrt:per_thread_data.obj
 0001:000530f1       ??$?RV<lambda_51b6e8b1eb166f2a3faf91f424b38130>@@AAV<lambda_6250bd4b2a391816dd638c3bf72b0bcb>@@V<lambda_0b5a4a3e68152e1d9b943535f5f47bed>@@@?$__crt_seh_guarded_call@X@@QAEX$$QAV<lambda_51b6e8b1eb166f2a3faf91f424b38130>@@AAV<lambda_6250bd4b2a391816dd638c3bf72b0bcb>@@$$QAV<lambda_0b5a4a3e68152e1d9b943535f5f47bed>@@@Z 100540f1 f i libucrt:per_thread_data.obj
 0001:0005316a       ??$?RV<lambda_5b71d36f03204c0beab531769a5b5694>@@AAV<lambda_be2b3da3f62db62e9dad5dc70221a656>@@V<lambda_8f9ce462984622f9bf76b59e2aaaf805>@@@?$__crt_seh_guarded_call@X@@QAEX$$QAV<lambda_5b71d36f03204c0beab531769a5b5694>@@AAV<lambda_be2b3da3f62db62e9dad5dc70221a656>@@$$QAV<lambda_8f9ce462984622f9bf76b59e2aaaf805>@@@Z 1005416a f i libucrt:per_thread_data.obj
 0001:000531c7       ??$?RV<lambda_9df27f884b057bc3edfc946cb5b7cf47>@@AAV<lambda_e69574bed617af4e071282c136b37893>@@V<lambda_cc0d902bcbbeb830f749456577db4721>@@@?$__crt_seh_guarded_call@X@@QAEX$$QAV<lambda_9df27f884b057bc3edfc946cb5b7cf47>@@AAV<lambda_e69574bed617af4e071282c136b37893>@@$$QAV<lambda_cc0d902bcbbeb830f749456577db4721>@@@Z 100541c7 f i libucrt:per_thread_data.obj
 0001:00053221       ??$__acrt_lock_and_call@V<lambda_6250bd4b2a391816dd638c3bf72b0bcb>@@@@YAXW4__acrt_lock_id@@$$QAV<lambda_6250bd4b2a391816dd638c3bf72b0bcb>@@@Z 10054221 f i libucrt:per_thread_data.obj
 0001:00053253       ??$__acrt_lock_and_call@V<lambda_b2ea41f6bbb362cd97d94c6828d90b61>@@@@YAXW4__acrt_lock_id@@$$QAV<lambda_b2ea41f6bbb362cd97d94c6828d90b61>@@@Z 10054253 f i libucrt:per_thread_data.obj
 0001:00053285       ??$__acrt_lock_and_call@V<lambda_be2b3da3f62db62e9dad5dc70221a656>@@@@YAXW4__acrt_lock_id@@$$QAV<lambda_be2b3da3f62db62e9dad5dc70221a656>@@@Z 10054285 f i libucrt:per_thread_data.obj
 0001:000532b7       ??$__acrt_lock_and_call@V<lambda_e69574bed617af4e071282c136b37893>@@@@YAXW4__acrt_lock_id@@$$QAV<lambda_e69574bed617af4e071282c136b37893>@@@Z 100542b7 f i libucrt:per_thread_data.obj
 0001:000533f0       ??0?$__crt_unique_heap_ptr@U__acrt_ptd@@U__crt_internal_free_policy@@@@QAE@QAU__acrt_ptd@@@Z 100543f0 f i libucrt:per_thread_data.obj
 0001:00053404       ??0__crt_scoped_get_last_error_reset@@QAE@XZ 10054404 f i libucrt:per_thread_data.obj
 0001:00053419       ??1?$__crt_unique_heap_ptr@U__acrt_ptd@@U__crt_internal_free_policy@@@@QAE@XZ 10054419 f i libucrt:per_thread_data.obj
 0001:0005342f       ??1__crt_scoped_get_last_error_reset@@QAE@XZ 1005442f f i libucrt:per_thread_data.obj
 0001:0005343a       ??B?$__crt_unique_heap_ptr@U__acrt_ptd@@U__crt_internal_free_policy@@@@QBE_NXZ 1005443a f i libucrt:per_thread_data.obj
 0001:000535b0       ?dangerous_get_state_array@?$dual_state_global@PAU__crt_locale_data@@@__crt_state_management@@QAEPAPAU__crt_locale_data@@XZ 100545b0 f i libucrt:per_thread_data.obj
 0001:000536b4       ?detach@?$__crt_unique_heap_ptr@U__acrt_ptd@@U__crt_internal_free_policy@@@@QAEPAU__acrt_ptd@@XZ 100546b4 f i libucrt:per_thread_data.obj
 0001:000536ba       ?get@?$__crt_unique_heap_ptr@U__acrt_ptd@@U__crt_internal_free_policy@@@@QBEPAU__acrt_ptd@@XZ 100546ba f i libucrt:per_thread_data.obj
 0001:000537c9       ?is_valid@?$__crt_unique_heap_ptr@U__acrt_ptd@@U__crt_internal_free_policy@@@@QBE_NXZ 100547c9 f i libucrt:per_thread_data.obj
 0001:000537d3       ?release@?$__crt_unique_heap_ptr@U__acrt_ptd@@U__crt_internal_free_policy@@@@QAEXXZ 100547d3 f i libucrt:per_thread_data.obj
 0001:0005385f       ?value@?$dual_state_global@PAU__crt_locale_data@@@__crt_state_management@@QAEAAPAU__crt_locale_data@@XZ 1005485f f i libucrt:per_thread_data.obj
 0001:00053862       ___acrt_freeptd            10054862 f   libucrt:per_thread_data.obj
 0001:00053899       ___acrt_getptd             10054899 f   libucrt:per_thread_data.obj
 0001:0005393e       ___acrt_getptd_noexit      1005493e f   libucrt:per_thread_data.obj
 0001:000539e4       ___acrt_initialize_ptd     100549e4 f   libucrt:per_thread_data.obj
 0001:00053a1b       ___acrt_uninitialize_ptd   10054a1b f   libucrt:per_thread_data.obj
 0001:00053a3b       ___threadhandle            10054a3b f   libucrt:per_thread_data.obj
 0001:00053a41       ___threadid                10054a41 f   libucrt:per_thread_data.obj
 0001:00053a47       ___acrt_update_locale_info 10054a47 f   libucrt:locale_update.obj
 0001:00053a7f       ___acrt_update_multibyte_info 10054a7f f   libucrt:locale_update.obj
 0001:00053ab7       ?__acrt_fp_classify@@YA?AW4__acrt_fp_class@@ABN@Z 10054ab7 f i libucrt:cvt.obj
 0001:00053b3e       ?__acrt_fp_is_negative@@YA_NABN@Z 10054b3e f i libucrt:cvt.obj
 0001:000545b1       ?strrchr@@YAPADQADH@Z      100555b1 f i libucrt:cvt.obj
 0001:000545be       ___acrt_fp_format          100555be f   libucrt:cvt.obj
 0001:00054798       __fputwc_nolock            10055798 f   libucrt:fputwc.obj
 0001:00054907       __fputwchar                10055907 f   libucrt:fputwc.obj
 0001:00054927       __putwc_nolock             10055927 f   libucrt:fputwc.obj
 0001:00054934       _fputwc                    10055934 f   libucrt:fputwc.obj
 0001:000549cd       _putwc                     100559cd f   libucrt:fputwc.obj
 0001:000549da       _putwchar                  100559da f   libucrt:fputwc.obj
 0001:000549e7       __fileno                   100559e7 f   libucrt:fileno.obj
 0001:00054a16       __fputc_nolock             10055a16 f   libucrt:fputc.obj
 0001:00054a49       __fputchar                 10055a49 f   libucrt:fputc.obj
 0001:00054a69       __putc_nolock              10055a69 f   libucrt:fputc.obj
 0001:00054a76       _fputc                     10055a76 f   libucrt:fputc.obj
 0001:00054bbb       _putc                      10055bbb f   libucrt:fputc.obj
 0001:00054bc8       _putchar                   10055bc8 f   libucrt:fputc.obj
 0001:00054bd5       __get_printf_count_output  10055bd5 f   libucrt:printf_count_output.obj
 0001:00054bef       __set_printf_count_output  10055bef f   libucrt:printf_count_output.obj
 0001:00054c23       ?has_temporary_buffer@__crt_stdio_stream@@QBE_NXZ 10055c23 f i libucrt:_sftbuf.obj
 0001:00054c32       ___acrt_stdio_begin_temporary_buffering_nolock 10055c32 f   libucrt:_sftbuf.obj
 0001:00054d14       ___acrt_stdio_end_temporary_buffering_nolock 10055d14 f   libucrt:_sftbuf.obj
 0001:00054d5e       ??$?RU__crt_locale_data@@@__crt_internal_free_policy@@QBEXQBU__crt_locale_data@@@Z 10055d5e f i libucrt:wsetlocale.obj
 0001:00054d74       ??$?RU__crt_locale_pointers@@@__crt_internal_free_policy@@QBEXQBU__crt_locale_pointers@@@Z 10055d74 f i libucrt:wsetlocale.obj
 0001:00054d8a       ??$?RU__crt_multibyte_data@@@__crt_internal_free_policy@@QBEXQBU__crt_multibyte_data@@@Z 10055d8a f i libucrt:wsetlocale.obj
 0001:00054da0       ??$?RV<lambda_70818de7b02deff9841e8b0962a60ed9>@@AAV<lambda_2af78c5f5901b1372d98f9ab3177dfa6>@@AAV<lambda_f51fe5fd7c79a33db34fc9310f277369>@@@?$__crt_seh_guarded_call@X@@QAEX$$QAV<lambda_70818de7b02deff9841e8b0962a60ed9>@@AAV<lambda_2af78c5f5901b1372d98f9ab3177dfa6>@@AAV<lambda_f51fe5fd7c79a33db34fc9310f277369>@@@Z 10055da0 f i libucrt:wsetlocale.obj
 0001:00054de9       ??$?RV<lambda_76aaead6e312921abc834cb00a638bdd>@@AAV<lambda_176e34f99554166dd2fac165c457248c>@@V<lambda_998ee1c9f4290b119b936bcd6215875a>@@@?$__crt_seh_guarded_call@X@@QAEX$$QAV<lambda_76aaead6e312921abc834cb00a638bdd>@@AAV<lambda_176e34f99554166dd2fac165c457248c>@@$$QAV<lambda_998ee1c9f4290b119b936bcd6215875a>@@@Z 10055de9 f i libucrt:wsetlocale.obj
 0001:00054e45       ??$?RV<lambda_c76fdea48760d5f9368b465f31df4405>@@AAV<lambda_e378711a6f6581bf7f0efd7cdf97f5d9>@@V<lambda_e927a58b2a85c081d733e8c6192ae2d2>@@@?$__crt_seh_guarded_call@X@@QAEX$$QAV<lambda_c76fdea48760d5f9368b465f31df4405>@@AAV<lambda_e378711a6f6581bf7f0efd7cdf97f5d9>@@$$QAV<lambda_e927a58b2a85c081d733e8c6192ae2d2>@@@Z 10055e45 f i libucrt:wsetlocale.obj
 0001:00054e98       ??$?RV<lambda_c9469061b39d205f0f236529d4a41659>@@AAV<lambda_b7fb1a997d3ebc0cc0186c5835178808>@@V<lambda_14b92c79d699846b5cc916cd4cf280e4>@@@?$__crt_seh_guarded_call@X@@QAEX$$QAV<lambda_c9469061b39d205f0f236529d4a41659>@@AAV<lambda_b7fb1a997d3ebc0cc0186c5835178808>@@$$QAV<lambda_14b92c79d699846b5cc916cd4cf280e4>@@@Z 10055e98 f i libucrt:wsetlocale.obj
 0001:00054ef2       ??$__acrt_lock_and_call@V<lambda_176e34f99554166dd2fac165c457248c>@@@@YAXW4__acrt_lock_id@@$$QAV<lambda_176e34f99554166dd2fac165c457248c>@@@Z 10055ef2 f i libucrt:wsetlocale.obj
 0001:00054f24       ??$__acrt_lock_and_call@V<lambda_b7fb1a997d3ebc0cc0186c5835178808>@@@@YAXW4__acrt_lock_id@@$$QAV<lambda_b7fb1a997d3ebc0cc0186c5835178808>@@@Z 10055f24 f i libucrt:wsetlocale.obj
 0001:00054f56       ??$__acrt_lock_and_call@V<lambda_e378711a6f6581bf7f0efd7cdf97f5d9>@@@@YAXW4__acrt_lock_id@@$$QAV<lambda_e378711a6f6581bf7f0efd7cdf97f5d9>@@@Z 10055f56 f i libucrt:wsetlocale.obj
 0001:00054f88       ??$__crt_call_and_cleanup@V<lambda_2af78c5f5901b1372d98f9ab3177dfa6>@@V<lambda_f51fe5fd7c79a33db34fc9310f277369>@@@@YAX$$QAV<lambda_2af78c5f5901b1372d98f9ab3177dfa6>@@$$QAV<lambda_f51fe5fd7c79a33db34fc9310f277369>@@@Z 10055f88 f i libucrt:wsetlocale.obj
 0001:00054fab       ??$__vcrt_va_start_verify_argument_type@H@@YAXXZ 10055fab f i libucrt:wsetlocale.obj
 0001:000550d0       ??0?$__crt_unique_heap_ptr@U__crt_locale_data@@U__crt_internal_free_policy@@@@QAE@QAU__crt_locale_data@@@Z 100560d0 f i libucrt:wsetlocale.obj
 0001:000550e4       ??0?$__crt_unique_heap_ptr@U__crt_locale_pointers@@U__crt_internal_free_policy@@@@QAE@QAU__crt_locale_pointers@@@Z 100560e4 f i libucrt:wsetlocale.obj
 0001:000550f8       ??0?$__crt_unique_heap_ptr@U__crt_multibyte_data@@U__crt_internal_free_policy@@@@QAE@QAU__crt_multibyte_data@@@Z 100560f8 f i libucrt:wsetlocale.obj
 0001:0005510c       ??1?$__crt_unique_heap_ptr@U__crt_locale_data@@U__crt_internal_free_policy@@@@QAE@XZ 1005610c f i libucrt:wsetlocale.obj
 0001:00055122       ??1?$__crt_unique_heap_ptr@U__crt_locale_pointers@@U__crt_internal_free_policy@@@@QAE@XZ 10056122 f i libucrt:wsetlocale.obj
 0001:00055138       ??1?$__crt_unique_heap_ptr@U__crt_multibyte_data@@U__crt_internal_free_policy@@@@QAE@XZ 10056138 f i libucrt:wsetlocale.obj
 0001:0005514e       ??B?$__crt_unique_heap_ptr@U__crt_locale_data@@U__crt_internal_free_policy@@@@QBE_NXZ 1005614e f i libucrt:wsetlocale.obj
 0001:00055158       ??B?$__crt_unique_heap_ptr@U__crt_locale_pointers@@U__crt_internal_free_policy@@@@QBE_NXZ 10056158 f i libucrt:wsetlocale.obj
 0001:00055162       ??B?$__crt_unique_heap_ptr@U__crt_multibyte_data@@U__crt_internal_free_policy@@@@QBE_NXZ 10056162 f i libucrt:wsetlocale.obj
 0001:0005538b       ?detach@?$__crt_unique_heap_ptr@U__crt_locale_data@@U__crt_internal_free_policy@@@@QAEPAU__crt_locale_data@@XZ 1005638b f i libucrt:wsetlocale.obj
 0001:00055391       ?detach@?$__crt_unique_heap_ptr@U__crt_locale_pointers@@U__crt_internal_free_policy@@@@QAEPAU__crt_locale_pointers@@XZ 10056391 f i libucrt:wsetlocale.obj
 0001:00055397       ?detach@?$__crt_unique_heap_ptr@U__crt_multibyte_data@@U__crt_internal_free_policy@@@@QAEPAU__crt_multibyte_data@@XZ 10056397 f i libucrt:wsetlocale.obj
 0001:0005539d       ?get@?$__crt_unique_heap_ptr@U__crt_locale_data@@U__crt_internal_free_policy@@@@QBEPAU__crt_locale_data@@XZ 1005639d f i libucrt:wsetlocale.obj
 0001:000553a0       ?get@?$__crt_unique_heap_ptr@U__crt_locale_pointers@@U__crt_internal_free_policy@@@@QBEPAU__crt_locale_pointers@@XZ 100563a0 f i libucrt:wsetlocale.obj
 0001:000553a3       ?get@?$__crt_unique_heap_ptr@U__crt_multibyte_data@@U__crt_internal_free_policy@@@@QBEPAU__crt_multibyte_data@@XZ 100563a3 f i libucrt:wsetlocale.obj
 0001:000553a6       ?is_valid@?$__crt_unique_heap_ptr@U__crt_locale_data@@U__crt_internal_free_policy@@@@QBE_NXZ 100563a6 f i libucrt:wsetlocale.obj
 0001:000553b0       ?is_valid@?$__crt_unique_heap_ptr@U__crt_locale_pointers@@U__crt_internal_free_policy@@@@QBE_NXZ 100563b0 f i libucrt:wsetlocale.obj
 0001:000553ba       ?is_valid@?$__crt_unique_heap_ptr@U__crt_multibyte_data@@U__crt_internal_free_policy@@@@QBE_NXZ 100563ba f i libucrt:wsetlocale.obj
 0001:000553c4       ?release@?$__crt_unique_heap_ptr@U__crt_locale_data@@U__crt_internal_free_policy@@@@QAEXXZ 100563c4 f i libucrt:wsetlocale.obj
 0001:000553da       ?release@?$__crt_unique_heap_ptr@U__crt_locale_pointers@@U__crt_internal_free_policy@@@@QAEXXZ 100563da f i libucrt:wsetlocale.obj
 0001:000553f0       ?release@?$__crt_unique_heap_ptr@U__crt_multibyte_data@@U__crt_internal_free_policy@@@@QAEXXZ 100563f0 f i libucrt:wsetlocale.obj
 0001:00055406       ___acrt_copy_locale_name   10056406 f   libucrt:wsetlocale.obj
 0001:00055485       ___acrt_set_locale_changed 10056485 f   libucrt:wsetlocale.obj
 0001:00055492       ___acrt_uninitialize_locale 10056492 f   libucrt:wsetlocale.obj
 0001:000554f8       ___lc_lctowcs              100564f8 f   libucrt:wsetlocale.obj
 0001:00055584       ___lc_wcstolc              10056584 f   libucrt:wsetlocale.obj
 0001:000556fe       __configthreadlocale       100566fe f   libucrt:wsetlocale.obj
 0001:000557b2       __create_locale            100567b2 f   libucrt:wsetlocale.obj
 0001:0005582f       __expandlocale             1005682f f   libucrt:wsetlocale.obj
 0001:00055c83       __free_locale              10056c83 f   libucrt:wsetlocale.obj
 0001:00055d69       __get_current_locale       10056d69 f   libucrt:wsetlocale.obj
 0001:00055e02       __wcreate_locale           10056e02 f   libucrt:wsetlocale.obj
 0001:00055f4d       __wcscats                  10056f4d f   libucrt:wsetlocale.obj
 0001:00055f9e       __wsetlocale               10056f9e f   libucrt:wsetlocale.obj
 0001:00056ac4       ___p___mb_cur_max          10057ac4 f   libucrt:nlsdata.obj
 0001:00056bbb       ___acrt_report_runtime_error 10057bbb f   libucrt:report_runtime_error.obj
 0001:00056d21       __query_app_type           10057d21 f   libucrt:report_runtime_error.obj
 0001:00056d27       __set_app_type             10057d27 f   libucrt:report_runtime_error.obj
 0001:00057213       __i64toa                   10058213 f   libucrt:xtoa.obj
 0001:00057266       __i64toa_s                 10058266 f   libucrt:xtoa.obj
 0001:000572b7       __i64tow                   100582b7 f   libucrt:xtoa.obj
 0001:0005730a       __i64tow_s                 1005830a f   libucrt:xtoa.obj
 0001:0005735b       __itoa                     1005835b f   libucrt:xtoa.obj
 0001:0005739f       __itoa_s                   1005839f f   libucrt:xtoa.obj
 0001:000573e1       __itow                     100583e1 f   libucrt:xtoa.obj
 0001:00057425       __itow_s                   10058425 f   libucrt:xtoa.obj
 0001:00057467       __ltoa                     10058467 f   libucrt:xtoa.obj
 0001:000574ab       __ltoa_s                   100584ab f   libucrt:xtoa.obj
 0001:000574ed       __ltow                     100584ed f   libucrt:xtoa.obj
 0001:00057531       __ltow_s                   10058531 f   libucrt:xtoa.obj
 0001:00057573       __ui64toa                  10058573 f   libucrt:xtoa.obj
 0001:0005759d       __ui64toa_s                1005859d f   libucrt:xtoa.obj
 0001:000575c5       __ui64tow                  100585c5 f   libucrt:xtoa.obj
 0001:000575ef       __ui64tow_s                100585ef f   libucrt:xtoa.obj
 0001:00057617       __ultoa                    10058617 f   libucrt:xtoa.obj
 0001:0005763d       __ultoa_s                  1005863d f   libucrt:xtoa.obj
 0001:00057661       __ultow                    10058661 f   libucrt:xtoa.obj
 0001:00057687       __ultow_s                  10058687 f   libucrt:xtoa.obj
 0001:000576ab       __set_error_mode           100586ab f   libucrt:set_error_mode.obj
 0001:00057787       _wcscat_s                  10058787 f   libucrt:wcscat_s.obj
 0001:00057891       _wcscpy_s                  10058891 f   libucrt:wcscpy_s.obj
 0001:00057a31       _wcsncat_s                 10058a31 f   libucrt:wcsncat_s.obj
 0001:00057ac1       _strcat_s                  10058ac1 f   libucrt:strcat_s.obj
 0001:00057c48       _strncat_s                 10058c48 f   libucrt:strncat_s.obj
 0001:00057e73       ??$message_box@$$TAAPBDAAPBDAAI@?$__crt_char_traits@D@@SAH$$QA$$TAAPBD1AAI@Z 10058e73 f i libucrt:crtmbox.obj
 0001:00057e9b       ??$message_box@$$TAAPB_WAAPB_WAAI@?$__crt_char_traits@_W@@SAH$$QA$$TAAPB_W1AAI@Z 10058e9b f i libucrt:crtmbox.obj
 0001:00057ec3       ??$message_box@$$TABQBDABQBDK@?$__crt_char_traits@D@@SAH$$QA$$TABQBD1$$QAK@Z 10058ec3 f i libucrt:crtmbox.obj
 0001:00057eeb       ??$message_box@$$TABQB_WABQB_WK@?$__crt_char_traits@_W@@SAH$$QA$$TABQB_W1$$QAK@Z 10058eeb f i libucrt:crtmbox.obj
 0001:00057f13       ??$message_box@PAUHWND__@@ABQBDABQBDABI@?$__crt_char_traits@D@@SAH$$QAPAUHWND__@@ABQBD1ABI@Z 10058f13 f i libucrt:crtmbox.obj
 0001:00057f3b       ??$message_box@PAUHWND__@@ABQB_WABQB_WABI@?$__crt_char_traits@_W@@SAH$$QAPAUHWND__@@ABQB_W1ABI@Z 10058f3b f i libucrt:crtmbox.obj
 0001:00057fb7       ??$output_debug_string@ABQBD@?$__crt_char_traits@D@@SAXABQBD@Z 10058fb7 f i libucrt:crtmbox.obj
 0001:00057fcd       ??$output_debug_string@ABQB_W@?$__crt_char_traits@_W@@SAXABQB_W@Z 10058fcd f i libucrt:crtmbox.obj
 0001:00057fe3       ??0?$__crt_unique_handle_t@U__crt_handle_traits@@@@QAE@QAX@Z 10058fe3 f i libucrt:crtmbox.obj
 0001:00057ff7       ??1?$__crt_unique_handle_t@U__crt_handle_traits@@@@QAE@XZ 10058ff7 f i libucrt:crtmbox.obj
 0001:00058013       ??B?$__crt_unique_handle_t@U__crt_handle_traits@@@@QBE_NXZ 10059013 f i libucrt:crtmbox.obj
 0001:0005801e       ?close@?$__crt_unique_handle_t@U__crt_handle_traits@@@@QAEXXZ 1005901e f i libucrt:crtmbox.obj
 0001:0005803a       ?close@__crt_handle_traits@@SA_NPAX@Z 1005903a f i libucrt:crtmbox.obj
 0001:00058055       ?get@?$__crt_unique_handle_t@U__crt_handle_traits@@@@QBEPAXXZ 10059055 f i libucrt:crtmbox.obj
 0001:00058058       ?get_invalid_value@__crt_handle_traits@@SAPAXXZ 10059058 f i libucrt:crtmbox.obj
 0001:0005805c       ?is_valid@?$__crt_unique_handle_t@U__crt_handle_traits@@@@QBE_NXZ 1005905c f i libucrt:crtmbox.obj
 0001:00058067       ___acrt_show_narrow_message_box 10059067 f   libucrt:crtmbox.obj
 0001:00058074       ___acrt_show_wide_message_box 10059074 f   libucrt:crtmbox.obj
 0001:00058081       ??$?RV<lambda_d92cfe8357b99225085016881b624cb0>@@AAV<lambda_b721fa326cdb32351d23dfa67958c160>@@V<lambda_42d75b0848218ec137fa420c8ba9fdf9>@@@?$__crt_seh_guarded_call@H@@QAEH$$QAV<lambda_d92cfe8357b99225085016881b624cb0>@@AAV<lambda_b721fa326cdb32351d23dfa67958c160>@@$$QAV<lambda_42d75b0848218ec137fa420c8ba9fdf9>@@@Z 10059081 f i libucrt:setvbuf.obj
 0001:000580e6       ??$__acrt_lock_stream_and_call@V<lambda_b721fa326cdb32351d23dfa67958c160>@@@@YAHQAU_iobuf@@$$QAV<lambda_b721fa326cdb32351d23dfa67958c160>@@@Z 100590e6 f i libucrt:setvbuf.obj
 0001:00058283       _setvbuf                   10059283 f   libucrt:setvbuf.obj
 0001:00058316       ??$?B$$A6AXH@Z@__crt_fast_encoded_nullptr_t@@QBEP6AXH@ZXZ 10059316 f i libucrt:signal.obj
 0001:00058334       ??$?RV<lambda_a048d3beccc847880fc8490e18b82769>@@AAV<lambda_ec61778202f4f5fc7e7711acc23c3bca>@@V<lambda_f7496a158712204296dd6628a163878e>@@@?$__crt_seh_guarded_call@P6AXH@Z@@QAEP6AXH@Z$$QAV<lambda_a048d3beccc847880fc8490e18b82769>@@AAV<lambda_ec61778202f4f5fc7e7711acc23c3bca>@@$$QAV<lambda_f7496a158712204296dd6628a163878e>@@@Z 10059334 f i libucrt:signal.obj
 0001:000583a4       ??$__acrt_lock_and_call@V<lambda_ec61778202f4f5fc7e7711acc23c3bca>@@@@YAP6AXH@ZW4__acrt_lock_id@@$$QAV<lambda_ec61778202f4f5fc7e7711acc23c3bca>@@@Z 100593a4 f i libucrt:signal.obj
 0001:000583d6       ??$__crt_fast_decode_pointer@P6AXH@Z@@YAP6AXH@ZQ6AXH@Z@Z 100593d6 f i libucrt:signal.obj
 0001:000583f1       ??$__crt_fast_encode_pointer@P6AXH@Z@@YAP6AXH@ZQ6AXH@Z@Z 100593f1 f i libucrt:signal.obj
 0001:0005859b       ?initialize@?$dual_state_global@P6AXH@Z@__crt_state_management@@QAEXQ6AXH@Z@Z 1005959b f i libucrt:signal.obj
 0001:00058647       ?value@?$dual_state_global@P6AXH@Z@__crt_state_management@@QAEAAP6AXH@ZXZ 10059647 f i libucrt:signal.obj
 0001:0005864a       ___acrt_get_sigabrt_handler 1005964a f   libucrt:signal.obj
 0001:00058666       ___acrt_initialize_signal_handlers 10059666 f   libucrt:signal.obj
 0001:000586af       ___fpecode                 100596af f   libucrt:signal.obj
 0001:000586ba       ___pxcptinfoptrs           100596ba f   libucrt:signal.obj
 0001:000586c5       _raise                     100596c5 f   libucrt:signal.obj
 0001:0005894f       _signal                    1005994f f   libucrt:signal.obj
 0001:00058b6d       __realloc_base             10059b6d f   libucrt:realloc_base.obj
 0001:00058bf0       ___acrt_initialize_locks   10059bf0 f   libucrt:locks.obj
 0001:00058c41       ___acrt_lock               10059c41 f   libucrt:locks.obj
 0001:00058c5d       ___acrt_uninitialize_locks 10059c5d f   libucrt:locks.obj
 0001:00058c9a       ___acrt_unlock             10059c9a f   libucrt:locks.obj
 0001:00058cb6       __lock_locales             10059cb6 f   libucrt:locks.obj
 0001:00058cc1       __unlock_locales           10059cc1 f   libucrt:locks.obj
 0001:00058ccc       ??$?RV<lambda_123407a5e2ac06da108355a851863b7a>@@AAV<lambda_2fe9b910cf3cbf4a0ab98a02ba45b3ec>@@V<lambda_ae55bdf541ad94d75914d381c370e64d>@@@?$__crt_seh_guarded_call@H@@QAEH$$QAV<lambda_123407a5e2ac06da108355a851863b7a>@@AAV<lambda_2fe9b910cf3cbf4a0ab98a02ba45b3ec>@@$$QAV<lambda_ae55bdf541ad94d75914d381c370e64d>@@@Z 10059ccc f i libucrt:close.obj
 0001:00058d6e       ??$__acrt_lowio_lock_fh_and_call@V<lambda_2fe9b910cf3cbf4a0ab98a02ba45b3ec>@@@@YAHH$$QAV<lambda_2fe9b910cf3cbf4a0ab98a02ba45b3ec>@@@Z 10059d6e f i libucrt:close.obj
 0001:00058ec1       __close                    10059ec1 f   libucrt:close.obj
 0001:00058f5f       __close_nolock             10059f5f f   libucrt:close.obj
 0001:00059022       ??$?RU__crt_stdio_stream_data@@@__crt_internal_free_policy@@QBEXQBU__crt_stdio_stream_data@@@Z 1005a022 f i libucrt:stream.obj
 0001:00059038       ??0?$__crt_unique_heap_ptr@U__crt_stdio_stream_data@@U__crt_internal_free_policy@@@@QAE@QAU__crt_stdio_stream_data@@@Z 1005a038 f i libucrt:stream.obj
 0001:0005904c       ??0__crt_stdio_stream@@QAE@XZ 1005a04c f i libucrt:stream.obj
 0001:00059052       ??1?$__crt_unique_heap_ptr@U__crt_stdio_stream_data@@U__crt_internal_free_policy@@@@QAE@XZ 1005a052 f i libucrt:stream.obj
 0001:00059068       ?__acrt_stdio_allocate_stream@@YA?AV__crt_stdio_stream@@XZ 1005a068 f   libucrt:stream.obj
 0001:000590de       ?__acrt_stdio_free_stream@@YAXV__crt_stdio_stream@@@Z 1005a0de f   libucrt:stream.obj
 0001:00059127       ?deallocate@__crt_stdio_stream@@QAEXXZ 1005a127 f i libucrt:stream.obj
 0001:00059133       ?detach@?$__crt_unique_heap_ptr@U__crt_stdio_stream_data@@U__crt_internal_free_policy@@@@QAEPAU__crt_stdio_stream_data@@XZ 1005a133 f i libucrt:stream.obj
 0001:0005922c       ?lock@__crt_stdio_stream@@QBEXXZ 1005a22c f i libucrt:stream.obj
 0001:00059237       ?release@?$__crt_unique_heap_ptr@U__crt_stdio_stream_data@@U__crt_internal_free_policy@@@@QAEXXZ 1005a237 f i libucrt:stream.obj
 0001:0005924d       ?try_allocate@__crt_stdio_stream@@QAE_NXZ 1005a24d f i libucrt:stream.obj
 0001:00059276       ??$__acrt_stdio_parse_mode@D@@YA?AU__acrt_stdio_stream_mode@@QBD@Z 1005a276 f i libucrt:openfile.obj
 0001:00059534       ??$__acrt_stdio_parse_mode@_W@@YA?AU__acrt_stdio_stream_mode@@QB_W@Z 1005a534 f i libucrt:openfile.obj
 0001:00059955       ??$tcsncmp@AAPBDAAY02$$CBDI@?$__crt_char_traits@D@@SAHAAPBDAAY02$$CBD$$QAI@Z 1005a955 f i libucrt:openfile.obj
 0001:00059978       ??$tcsncmp@AAPB_WAAY02$$CB_WI@?$__crt_char_traits@_W@@SAHAAPB_WAAY02$$CB_W$$QAI@Z 1005a978 f i libucrt:openfile.obj
 0001:0005999b       ??$tcsnicmp@AAPBDAAY04$$CBDI@?$__crt_char_traits@D@@SAHAAPBDAAY04$$CBD$$QAI@Z 1005a99b f i libucrt:openfile.obj
 0001:000599be       ??$tcsnicmp@AAPBDAAY06$$CBDI@?$__crt_char_traits@D@@SAHAAPBDAAY06$$CBD$$QAI@Z 1005a9be f i libucrt:openfile.obj
 0001:000599e1       ??$tcsnicmp@AAPBDAAY07$$CBDI@?$__crt_char_traits@D@@SAHAAPBDAAY07$$CBD$$QAI@Z 1005a9e1 f i libucrt:openfile.obj
 0001:00059a04       ??$tcsnicmp@AAPB_WAAY04$$CB_WI@?$__crt_char_traits@_W@@SAHAAPB_WAAY04$$CB_W$$QAI@Z 1005aa04 f i libucrt:openfile.obj
 0001:00059a27       ??$tcsnicmp@AAPB_WAAY06$$CB_WI@?$__crt_char_traits@_W@@SAHAAPB_WAAY06$$CB_W$$QAI@Z 1005aa27 f i libucrt:openfile.obj
 0001:00059a4a       ??$tcsnicmp@AAPB_WAAY07$$CB_WI@?$__crt_char_traits@_W@@SAHAAPB_WAAY07$$CB_W$$QAI@Z 1005aa4a f i libucrt:openfile.obj
 0001:00059a6d       ??$tsopen_s@PAHABQBDABHABHH@?$__crt_char_traits@D@@SAH$$QAPAHABQBDABH2$$QAH@Z 1005aa6d f i libucrt:openfile.obj
 0001:00059a9f       ??$tsopen_s@PAHABQB_WABHABHH@?$__crt_char_traits@_W@@SAH$$QAPAHABQB_WABH2$$QAH@Z 1005aa9f f i libucrt:openfile.obj
 0001:00059ad1       ?__acrt_stdio_parse_mode_D@@YA_NAAU__acrt_stdio_stream_mode@@@Z 1005aad1 f i libucrt:openfile.obj
 0001:00059af2       ?__acrt_stdio_parse_mode_N@@YA_NAAU__acrt_stdio_stream_mode@@@Z 1005aaf2 f i libucrt:openfile.obj
 0001:00059b08       ?__acrt_stdio_parse_mode_R@@YA_NAAU__acrt_stdio_stream_mode@@AA_N@Z 1005ab08 f i libucrt:openfile.obj
 0001:00059b2d       ?__acrt_stdio_parse_mode_S@@YA_NAAU__acrt_stdio_stream_mode@@AA_N@Z 1005ab2d f i libucrt:openfile.obj
 0001:00059b52       ?__acrt_stdio_parse_mode_T@@YA_NAAU__acrt_stdio_stream_mode@@@Z 1005ab52 f i libucrt:openfile.obj
 0001:00059b78       ?__acrt_stdio_parse_mode_b@@YA_NAAU__acrt_stdio_stream_mode@@@Z 1005ab78 f i libucrt:openfile.obj
 0001:00059ba0       ?__acrt_stdio_parse_mode_c@@YA_NAAU__acrt_stdio_stream_mode@@AA_N@Z 1005aba0 f i libucrt:openfile.obj
 0001:00059bca       ?__acrt_stdio_parse_mode_n@@YA_NAAU__acrt_stdio_stream_mode@@AA_N@Z 1005abca f i libucrt:openfile.obj
 0001:00059bf4       ?__acrt_stdio_parse_mode_plus@@YA_NAAU__acrt_stdio_stream_mode@@AA_N@Z 1005abf4 f i libucrt:openfile.obj
 0001:00059c36       ?__acrt_stdio_parse_mode_t@@YA_NAAU__acrt_stdio_stream_mode@@@Z 1005ac36 f i libucrt:openfile.obj
 0001:00059c5e       __openfile                 1005ac5e f   libucrt:openfile.obj
 0001:00059c6b       __wopenfile                1005ac6b f   libucrt:openfile.obj
 0001:0005a310       __read                     1005b310 f   libucrt:read.obj
 0001:0005a467       __read_nolock              1005b467 f   libucrt:read.obj
 0001:0005adff       ___acrt_stdio_refill_and_read_narrow_nolock 1005bdff f   libucrt:_filbuf.obj
 0001:0005ae0c       ___acrt_stdio_refill_and_read_wide_nolock 1005be0c f   libucrt:_filbuf.obj
 0001:0005b56b       __write                    1005c56b f   libucrt:write.obj
 0001:0005b690       __write_nolock             1005c690 f   libucrt:write.obj
 0001:0005bdd6       ___acrt_stdio_flush_and_write_narrow_nolock 1005cdd6 f   libucrt:_flsbuf.obj
 0001:0005bde3       ___acrt_stdio_flush_and_write_wide_nolock 1005cde3 f   libucrt:_flsbuf.obj
 0001:0005bdf0       ___acrt_copy_path_to_wide_string 1005cdf0 f   libucrt:string_utilities.obj
 0001:0005bee8       ___acrt_copy_to_char       1005cee8 f   libucrt:string_utilities.obj
 0001:0005bfd3       __wremove                  1005cfd3 f   libucrt:wunlink.obj
 0001:0005c005       __wunlink                  1005d005 f   libucrt:wunlink.obj
 0001:0005c479       __lseek                    1005d479 f   libucrt:lseek.obj
 0001:0005c486       __lseek_nolock             1005d486 f   libucrt:lseek.obj
 0001:0005c493       __lseeki64                 1005d493 f   libucrt:lseek.obj
 0001:0005c4b4       __lseeki64_nolock          1005d4b4 f   libucrt:lseek.obj
 0001:0005c4d5       __chgsign                  1005d4d5 f   libucrt:ieeemisc.obj
 0001:0005c50f       __chgsignf                 1005d50f f   libucrt:ieeemisc.obj
 0001:0005c53a       __copysign                 1005d53a f   libucrt:ieeemisc.obj
 0001:0005c56e       __copysignf                1005d56e f   libucrt:ieeemisc.obj
 0001:0005c593       __finite                   1005d593 f   libucrt:ieeemisc.obj
 0001:0005c5b3       __fpclass                  1005d5b3 f   libucrt:ieeemisc.obj
 0001:0005c680       __isnan                    1005d680 f   libucrt:ieeemisc.obj
 0001:0005c6c3       __logb                     1005d6c3 f   libucrt:ieeemisc.obj
 0001:0005c7c8       __nextafter                1005d7c8 f   libucrt:ieeemisc.obj
 0001:0005c7ee       __scalb                    1005d7ee f   libucrt:ieeemisc.obj
 0001:0005c80e       __add_exp                  1005d80e f   libucrt:util.obj
 0001:0005c848       __decomp                   1005d848 f   libucrt:util.obj
 0001:0005c951       __get_exp                  1005d951 f   libucrt:util.obj
 0001:0005c970       __set_bexp                 1005d970 f   libucrt:util.obj
 0001:0005c9a3       __set_exp                  1005d9a3 f   libucrt:util.obj
 0001:0005c9dd       __sptype                   1005d9dd f   libucrt:util.obj
 0001:0005ca52       ___clrfp_sse2              1005da52 f   libucrt:fpctrl.obj
 0001:0005ca7b       ___ctrlfp_sse2             1005da7b f   libucrt:fpctrl.obj
 0001:0005cac4       ___fclrf_sse2              1005dac4 f   libucrt:fpctrl.obj
 0001:0005caea       ___get_fpsr_sse2           1005daea f   libucrt:fpctrl.obj
 0001:0005cb0f       ___set_fpsr_sse2           1005db0f f   libucrt:fpctrl.obj
 0001:0005cba2       ___set_statfp_sse2         1005dba2 f   libucrt:fpctrl.obj
 0001:0005cbc3       ___statfp_sse2             1005dbc3 f   libucrt:fpctrl.obj
 0001:0005cbdd       __clrfp                    1005dbdd f   libucrt:fpctrl.obj
 0001:0005cbf4       __ctrlfp                   1005dbf4 f   libucrt:fpctrl.obj
 0001:0005cc2b       __set_statfp               1005dc2b f   libucrt:fpctrl.obj
 0001:0005cc9c       __statfp                   1005dc9c f   libucrt:fpctrl.obj
 0001:0005ccb2       ___pctype_func             1005dcb2 f   libucrt:ctype.obj
 0001:0005cce1       ___pwctype_func            1005dce1 f   libucrt:ctype.obj
 0001:0005cce7       __iswctype_l               1005dce7 f   libucrt:iswctype.obj
 0001:0005cd00       _iswctype                  1005dd00 f   libucrt:iswctype.obj
 0001:0005cd76       __isctype                  1005dd76 f   libucrt:isctype.obj
 0001:0005cdb3       __isctype_l                1005ddb3 f   libucrt:isctype.obj
 0001:0005cec0       ___ascii_strnicmp          1005dec0 f   libucrt:_strnicm.obj
 0001:0005cf39       ??$__crt_fast_decode_pointer@P6AHPAU_exception@@@Z@@YAP6AHPAU_exception@@@ZQ6AH0@Z@Z 1005df39 f i libucrt:matherr.obj
 0001:0005cf54       ??$__crt_fast_encode_pointer@P6AHPAU_exception@@@Z@@YAP6AHPAU_exception@@@ZQ6AH0@Z@Z 1005df54 f i libucrt:matherr.obj
 0001:0005cf7a       ?initialize@?$dual_state_global@P6AHPAU_exception@@@Z@__crt_state_management@@QAEXQ6AHPAU_exception@@@Z@Z 1005df7a f i libucrt:matherr.obj
 0001:0005cfb7       ?value@?$dual_state_global@P6AHPAU_exception@@@Z@__crt_state_management@@QAEAAP6AHPAU_exception@@@ZXZ 1005dfb7 f i libucrt:matherr.obj
 0001:0005cfba       ___acrt_has_user_matherr   1005dfba f   libucrt:matherr.obj
 0001:0005cfd9       ___acrt_initialize_user_matherr 1005dfd9 f   libucrt:matherr.obj
 0001:0005cff2       ___acrt_invoke_user_matherr 1005dff2 f   libucrt:matherr.obj
 0001:0005d04d       ___setusermatherr          1005e04d f   libucrt:matherr.obj
 0001:0005d067       ??$?RV<lambda_978dc153c237d78434369da87b74ff60>@@AAV<lambda_ad1ced32f4ac17aa236e5ef05d6b3b7c>@@V<lambda_4a8533e2866a575feecb8298ce776b0d>@@@?$__crt_seh_guarded_call@X@@QAEX$$QAV<lambda_978dc153c237d78434369da87b74ff60>@@AAV<lambda_ad1ced32f4ac17aa236e5ef05d6b3b7c>@@$$QAV<lambda_4a8533e2866a575feecb8298ce776b0d>@@@Z 1005e067 f i libucrt:mbctype.obj
 0001:0005d0ba       ??$__acrt_lock_and_call@V<lambda_ad1ced32f4ac17aa236e5ef05d6b3b7c>@@@@YAXW4__acrt_lock_id@@$$QAV<lambda_ad1ced32f4ac17aa236e5ef05d6b3b7c>@@@Z 1005e0ba f i libucrt:mbctype.obj
 0001:0005d6cb       ___acrt_initialize_multibyte 1005e6cb f   libucrt:mbctype.obj
 0001:0005d6f0       ___acrt_update_thread_multibyte_data 1005e6f0 f   libucrt:mbctype.obj
 0001:0005d7ba       ___p__mbcasemap            1005e7ba f   libucrt:mbctype.obj
 0001:0005d7c0       ___p__mbctype              1005e7c0 f   libucrt:mbctype.obj
 0001:0005d7c6       __getmbcp                  1005e7c6 f   libucrt:mbctype.obj
 0001:0005d809       __setmbcp                  1005e809 f   libucrt:mbctype.obj
 0001:0005d820       __setmbcp_nolock           1005e820 f   libucrt:mbctype.obj
 0001:0005db2e       ??0?$__crt_unique_handle_t@Uenvironment_strings_traits@?A0x29f97c20@@@@QAE@QA_W@Z 1005eb2e f i libucrt:get_environment_from_os.obj
 0001:0005db42       ??1?$__crt_unique_handle_t@Uenvironment_strings_traits@?A0x29f97c20@@@@QAE@XZ 1005eb42 f i libucrt:get_environment_from_os.obj
 0001:0005db5e       ??B?$__crt_unique_handle_t@Uenvironment_strings_traits@?A0x29f97c20@@@@QBE_NXZ 1005eb5e f i libucrt:get_environment_from_os.obj
 0001:0005db68       ?close@?$__crt_unique_handle_t@Uenvironment_strings_traits@?A0x29f97c20@@@@QAEXXZ 1005eb68 f i libucrt:get_environment_from_os.obj
 0001:0005db84       ?close@environment_strings_traits@?A0x29f97c20@@SA_NPA_W@Z 1005eb84 f i libucrt:get_environment_from_os.obj
 0001:0005dbde       ?get@?$__crt_unique_handle_t@Uenvironment_strings_traits@?A0x29f97c20@@@@QBEPA_WXZ 1005ebde f i libucrt:get_environment_from_os.obj
 0001:0005dbe1       ?get_invalid_value@environment_strings_traits@?A0x29f97c20@@SAPA_WXZ 1005ebe1 f i libucrt:get_environment_from_os.obj
 0001:0005dbe4       ?is_valid@?$__crt_unique_handle_t@Uenvironment_strings_traits@?A0x29f97c20@@@@QBE_NXZ 1005ebe4 f i libucrt:get_environment_from_os.obj
 0001:0005dbee       ___dcrt_get_narrow_environment_from_os 1005ebee f   libucrt:get_environment_from_os.obj
 0001:0005dc91       ___dcrt_get_wide_environment_from_os 1005ec91 f   libucrt:get_environment_from_os.obj
 0001:0005e529       ??$get_or_create_environment_nolock@$$$V@?$__crt_char_traits@D@@SAPAPADXZ 1005f529 f i libucrt:setenv.obj
 0001:0005e52e       ??$get_or_create_environment_nolock@$$$V@?$__crt_char_traits@_W@@SAPAPA_WXZ 1005f52e f i libucrt:setenv.obj
 0001:0005e533       ??$set_environment_variable@ABQADQAD@?$__crt_char_traits@D@@SAHABQAD$$QBQAD@Z 1005f533 f i libucrt:setenv.obj
 0001:0005e54f       ??$set_environment_variable@ABQA_WQA_W@?$__crt_char_traits@_W@@SAHABQA_W$$QBQA_W@Z 1005f54f f i libucrt:setenv.obj
 0001:0005e56b       ??$tcschr@ABQADD@?$__crt_char_traits@D@@SAPADABQAD$$QAD@Z 1005f56b f i libucrt:setenv.obj
 0001:0005e58b       ??$tcschr@ABQA_WD@?$__crt_char_traits@_W@@SAPA_WABQA_W$$QAD@Z 1005f58b f i libucrt:setenv.obj
 0001:0005e5b0       ??$tcscpy_s@AAPADABIAAPAD@?$__crt_char_traits@D@@SAHAAPADABI0@Z 1005f5b0 f i libucrt:setenv.obj
 0001:0005e5d5       ??$tcscpy_s@AAPA_WABIAAPA_W@?$__crt_char_traits@_W@@SAHAAPA_WABI0@Z 1005f5d5 f i libucrt:setenv.obj
 0001:0005e5fa       ??$tcscpy_s@ABQADABIABQAD@?$__crt_char_traits@D@@SAHABQADABI0@Z 1005f5fa f i libucrt:setenv.obj
 0001:0005e61f       ??$tcscpy_s@ABQA_WABIABQA_W@?$__crt_char_traits@_W@@SAHABQA_WABI0@Z 1005f61f f i libucrt:setenv.obj
 0001:0005e644       ??$tcsnicoll@ABQBDAAPADABI@?$__crt_char_traits@D@@SAHABQBDAAPADABI@Z 1005f644 f i libucrt:setenv.obj
 0001:0005e669       ??$tcsnicoll@ABQB_WAAPA_WABI@?$__crt_char_traits@_W@@SAHABQB_WAAPA_WABI@Z 1005f669 f i libucrt:setenv.obj
 0001:0005e6b2       ?strchr@@YAPADQADH@Z       1005f6b2 f i libucrt:setenv.obj
 0001:0005e6bf       ?wcschr@@YAPA_WPA_W_W@Z    1005f6bf f i libucrt:setenv.obj
 0001:0005e6cc       ___dcrt_set_variable_in_narrow_environment_nolock 1005f6cc f   libucrt:setenv.obj
 0001:0005e6d9       ___dcrt_set_variable_in_wide_environment_nolock 1005f6d9 f   libucrt:setenv.obj
 0001:0005e6e6       __recalloc                 1005f6e6 f   libucrt:recalloc.obj
 0001:0005e6f3       __recalloc_base            1005f6f3 f   libucrt:recalloc.obj
 0001:0005e77b       ___acrt_getheap            1005f77b f   libucrt:heap_handle.obj
 0001:0005e781       ___acrt_initialize_heap    1005f781 f   libucrt:heap_handle.obj
 0001:0005e796       ___acrt_uninitialize_heap  1005f796 f   libucrt:heap_handle.obj
 0001:0005e7a2       __get_heap_handle          1005f7a2 f   libucrt:heap_handle.obj
 0001:0005e7a8       ___acrt_initialize_command_line 1005f7a8 f   libucrt:argv_data.obj
 0001:0005e7c7       ___acrt_uninitialize_command_line 1005f7c7 f   libucrt:argv_data.obj
 0001:0005e7ca       ___p___argc                1005f7ca f   libucrt:argv_data.obj
 0001:0005e7d0       ___p___argv                1005f7d0 f   libucrt:argv_data.obj
 0001:0005e7d6       ___p___wargv               1005f7d6 f   libucrt:argv_data.obj
 0001:0005e7dc       ___p__acmdln               1005f7dc f   libucrt:argv_data.obj
 0001:0005e7e2       ___p__pgmptr               1005f7e2 f   libucrt:argv_data.obj
 0001:0005e7e8       ___p__wcmdln               1005f7e8 f   libucrt:argv_data.obj
 0001:0005e7ee       ___p__wpgmptr              1005f7ee f   libucrt:argv_data.obj
 0001:0005e7f4       __get_pgmptr               1005f7f4 f   libucrt:argv_data.obj
 0001:0005e831       __get_wpgmptr              1005f831 f   libucrt:argv_data.obj
 0001:0005e86e       ___acrt_execute_initializers 1005f86e f   libucrt:shared_initialization.obj
 0001:0005e911       ___acrt_execute_uninitializers 1005f911 f   libucrt:shared_initialization.obj
 0001:0005e971       ??$?B$$A6AHI@Z@__crt_fast_encoded_nullptr_t@@QBEP6AHI@ZXZ 1005f971 f i libucrt:new_handler.obj
 0001:0005e98f       ??$__crt_fast_decode_pointer@P6AHI@Z@@YAP6AHI@ZQ6AHI@Z@Z 1005f98f f i libucrt:new_handler.obj
 0001:0005e9aa       ??$__crt_fast_encode_pointer@P6AHI@Z@@YAP6AHI@ZQ6AHI@Z@Z 1005f9aa f i libucrt:new_handler.obj
 0001:0005e9d0       ?_set_new_handler@@YAP6AHI@ZH@Z 1005f9d0 f   libucrt:new_handler.obj
 0001:0005e9f6       ?initialize@?$dual_state_global@P6AHI@Z@__crt_state_management@@QAEXQ6AHI@Z@Z 1005f9f6 f i libucrt:new_handler.obj
 0001:0005ea33       ?value@?$dual_state_global@P6AHI@Z@__crt_state_management@@QAEAAP6AHI@ZXZ 1005fa33 f i libucrt:new_handler.obj
 0001:0005ea36       ___acrt_initialize_new_handler 1005fa36 f   libucrt:new_handler.obj
 0001:0005ea4f       __callnewh                 1005fa4f f   libucrt:new_handler.obj
 0001:0005eaa4       __query_new_handler        1005faa4 f   libucrt:new_handler.obj
 0001:0005eb0a       __set_new_handler          1005fb0a f   libucrt:new_handler.obj
 0001:0005eb82       ?value@?$dual_state_global@J@__crt_state_management@@QAEAAJXZ 1005fb82 f i libucrt:new_mode.obj
 0001:0005eb85       __query_new_mode           1005fb85 f   libucrt:new_mode.obj
 0001:0005eb8b       __set_new_mode             1005fb8b f   libucrt:new_mode.obj
 0001:0005ed86       ___acrt_DownlevelLCIDToLocaleName 1005fd86 f   libucrt:lcidtoname_downlevel.obj
 0001:0005ee5a       ___acrt_DownlevelLocaleNameToLCID 1005fe5a f   libucrt:lcidtoname_downlevel.obj
 0001:0005ee91       ??$?RV<lambda_61cee617f5178ae960314fd4d05640a0>@@AAV<lambda_6978c1fb23f02e42e1d9e99668cc68aa>@@V<lambda_9cd88cf8ad10232537feb2133f08c833>@@@?$__crt_seh_guarded_call@H@@QAEH$$QAV<lambda_61cee617f5178ae960314fd4d05640a0>@@AAV<lambda_6978c1fb23f02e42e1d9e99668cc68aa>@@$$QAV<lambda_9cd88cf8ad10232537feb2133f08c833>@@@Z 1005fe91 f i libucrt:commit.obj
 0001:0005ef4f       ??$__acrt_lowio_lock_fh_and_call@V<lambda_6978c1fb23f02e42e1d9e99668cc68aa>@@@@YAHH$$QAV<lambda_6978c1fb23f02e42e1d9e99668cc68aa>@@@Z 1005ff4f f i libucrt:commit.obj
 0001:0005f041       __commit                   10060041 f   libucrt:commit.obj
 0001:0005f0cb       ??$?RU__crt_lowio_handle_data@@@__crt_internal_free_policy@@QBEXQBU__crt_lowio_handle_data@@@Z 100600cb f i libucrt:osfinfo.obj
 0001:0005f0e1       ??0?$__crt_unique_heap_ptr@U__crt_lowio_handle_data@@U__crt_internal_free_policy@@@@QAE@QAU__crt_lowio_handle_data@@@Z 100600e1 f i libucrt:osfinfo.obj
 0001:0005f0f5       ??1?$__crt_unique_heap_ptr@U__crt_lowio_handle_data@@U__crt_internal_free_policy@@@@QAE@XZ 100600f5 f i libucrt:osfinfo.obj
 0001:0005f10b       ??B?$__crt_unique_heap_ptr@U__crt_lowio_handle_data@@U__crt_internal_free_policy@@@@QBE_NXZ 1006010b f i libucrt:osfinfo.obj
 0001:0005f115       ?detach@?$__crt_unique_heap_ptr@U__crt_lowio_handle_data@@U__crt_internal_free_policy@@@@QAEPAU__crt_lowio_handle_data@@XZ 10060115 f i libucrt:osfinfo.obj
 0001:0005f11b       ?get@?$__crt_unique_heap_ptr@U__crt_lowio_handle_data@@U__crt_internal_free_policy@@@@QBEPAU__crt_lowio_handle_data@@XZ 1006011b f i libucrt:osfinfo.obj
 0001:0005f11e       ?is_valid@?$__crt_unique_heap_ptr@U__crt_lowio_handle_data@@U__crt_internal_free_policy@@@@QBE_NXZ 1006011e f i libucrt:osfinfo.obj
 0001:0005f128       ?release@?$__crt_unique_heap_ptr@U__crt_lowio_handle_data@@U__crt_internal_free_policy@@@@QAEXXZ 10060128 f i libucrt:osfinfo.obj
 0001:0005f13e       ___acrt_lowio_create_handle_array 1006013e f   libucrt:osfinfo.obj
 0001:0005f1d6       ___acrt_lowio_destroy_handle_array 100601d6 f   libucrt:osfinfo.obj
 0001:0005f218       ___acrt_lowio_ensure_fh_exists 10060218 f   libucrt:osfinfo.obj
 0001:0005f2d6       ___acrt_lowio_lock_fh      100602d6 f   libucrt:osfinfo.obj
 0001:0005f301       ___acrt_lowio_set_os_handle 10060301 f   libucrt:osfinfo.obj
 0001:0005f3ba       ___acrt_lowio_unlock_fh    100603ba f   libucrt:osfinfo.obj
 0001:0005f3e5       __alloc_osfhnd             100603e5 f   libucrt:osfinfo.obj
 0001:0005f53b       __free_osfhnd              1006053b f   libucrt:osfinfo.obj
 0001:0005f5f0       __get_osfhandle            100605f0 f   libucrt:osfinfo.obj
 0001:0005f674       __open_osfhandle           10060674 f   libucrt:osfinfo.obj
 0001:0005f7c5       ___iswcsym                 100607c5 f i libucrt:_wctype.obj
 0001:0005f7f4       ___iswcsymf                100607f4 f i libucrt:_wctype.obj
 0001:0005f823       __isleadbyte_l             10060823 f i libucrt:_wctype.obj
 0001:0005f86a       __iswalnum_l               1006086a f i libucrt:_wctype.obj
 0001:0005f885       __iswalpha_l               10060885 f i libucrt:_wctype.obj
 0001:0005f8a0       __iswblank_l               100608a0 f i libucrt:_wctype.obj
 0001:0005f8c4       __iswcntrl_l               100608c4 f i libucrt:_wctype.obj
 0001:0005f8db       __iswcsym_l                100608db f i libucrt:_wctype.obj
 0001:0005f90a       __iswcsymf_l               1006090a f i libucrt:_wctype.obj
 0001:0005f939       __iswdigit_l               10060939 f i libucrt:_wctype.obj
 0001:0005f950       __iswgraph_l               10060950 f i libucrt:_wctype.obj
 0001:0005f96b       __iswlower_l               1006096b f i libucrt:_wctype.obj
 0001:0005f982       __iswprint_l               10060982 f i libucrt:_wctype.obj
 0001:0005f99d       __iswpunct_l               1006099d f i libucrt:_wctype.obj
 0001:0005f9b4       __iswspace_l               100609b4 f i libucrt:_wctype.obj
 0001:0005f9cb       __iswupper_l               100609cb f i libucrt:_wctype.obj
 0001:0005f9e2       __iswxdigit_l              100609e2 f i libucrt:_wctype.obj
 0001:0005f9fd       _isleadbyte                100609fd f i libucrt:_wctype.obj
 0001:0005fa14       _iswalnum                  10060a14 f i libucrt:_wctype.obj
 0001:0005fa2f       _iswalpha                  10060a2f f i libucrt:_wctype.obj
 0001:0005fa4a       _iswascii                  10060a4a f i libucrt:_wctype.obj
 0001:0005fa63       _iswblank                  10060a63 f i libucrt:_wctype.obj
 0001:0005fa87       _iswcntrl                  10060a87 f i libucrt:_wctype.obj
 0001:0005fa9e       _iswdigit                  10060a9e f i libucrt:_wctype.obj
 0001:0005fab5       _iswgraph                  10060ab5 f i libucrt:_wctype.obj
 0001:0005fad0       _iswlower                  10060ad0 f i libucrt:_wctype.obj
 0001:0005fae7       _iswprint                  10060ae7 f i libucrt:_wctype.obj
 0001:0005fb02       _iswpunct                  10060b02 f i libucrt:_wctype.obj
 0001:0005fb19       _iswspace                  10060b19 f i libucrt:_wctype.obj
 0001:0005fb30       _iswupper                  10060b30 f i libucrt:_wctype.obj
 0001:0005fb47       _iswxdigit                 10060b47 f i libucrt:_wctype.obj
 0001:0005fb62       ??0?$__crt_scoped_stack_ptr@_W@@QAE@U?$__crt_scoped_stack_ptr_tag@_W@@@Z 10060b62 f i libucrt:lcmapstringa.obj
 0001:0005fb76       ??0?$__crt_scoped_stack_ptr_tag@_W@@QAE@QA_W@Z 10060b76 f i libucrt:lcmapstringa.obj
 0001:0005fb8a       ??1?$__crt_scoped_stack_ptr@_W@@QAE@XZ 10060b8a f i libucrt:lcmapstringa.obj
 0001:0005fb95       ??B?$__crt_scoped_stack_ptr@_W@@QBE_NXZ 10060b95 f i libucrt:lcmapstringa.obj
 0001:0005fe43       ?get@?$__crt_scoped_stack_ptr@_W@@QBEPA_WXZ 10060e43 f i libucrt:lcmapstringa.obj
 0001:0005fe46       __MallocaComputeSize       10060e46 f i libucrt:lcmapstringa.obj
 0001:0005fe5d       __MarkAllocaS              10060e5d f i libucrt:lcmapstringa.obj
 0001:0005fe78       ___acrt_LCMapStringA       10060e78 f   libucrt:lcmapstringa.obj
 0001:0005fed5       __freea_crt                10060ed5 f i libucrt:lcmapstringa.obj
 0001:0005fefd       ??$?RE@__crt_internal_free_policy@@QBEXQBE@Z 10060efd f i libucrt:initctype.obj
 0001:0005ff13       ??$?RG@__crt_internal_free_policy@@QBEXQBG@Z 10060f13 f i libucrt:initctype.obj
 0001:0005ff29       ??$?RJ@__crt_internal_free_policy@@QBEXQBJ@Z 10060f29 f i libucrt:initctype.obj
 0001:0005ff3f       ??0?$__crt_unique_heap_ptr@EU__crt_internal_free_policy@@@@QAE@QAE@Z 10060f3f f i libucrt:initctype.obj
 0001:0005ff53       ??0?$__crt_unique_heap_ptr@GU__crt_internal_free_policy@@@@QAE@QAG@Z 10060f53 f i libucrt:initctype.obj
 0001:0005ff67       ??0?$__crt_unique_heap_ptr@JU__crt_internal_free_policy@@@@QAE@QAJ@Z 10060f67 f i libucrt:initctype.obj
 0001:0005ff7b       ??1?$__crt_unique_heap_ptr@EU__crt_internal_free_policy@@@@QAE@XZ 10060f7b f i libucrt:initctype.obj
 0001:0005ff91       ??1?$__crt_unique_heap_ptr@GU__crt_internal_free_policy@@@@QAE@XZ 10060f91 f i libucrt:initctype.obj
 0001:0005ffa7       ??1?$__crt_unique_heap_ptr@JU__crt_internal_free_policy@@@@QAE@XZ 10060fa7 f i libucrt:initctype.obj
 0001:0005ffbd       ?detach@?$__crt_unique_heap_ptr@EU__crt_internal_free_policy@@@@QAEPAEXZ 10060fbd f i libucrt:initctype.obj
 0001:0005ffc3       ?detach@?$__crt_unique_heap_ptr@GU__crt_internal_free_policy@@@@QAEPAGXZ 10060fc3 f i libucrt:initctype.obj
 0001:0005ffc9       ?detach@?$__crt_unique_heap_ptr@JU__crt_internal_free_policy@@@@QAEPAJXZ 10060fc9 f i libucrt:initctype.obj
 0001:0005ffcf       ?release@?$__crt_unique_heap_ptr@EU__crt_internal_free_policy@@@@QAEXXZ 10060fcf f i libucrt:initctype.obj
 0001:0005ffe5       ?release@?$__crt_unique_heap_ptr@GU__crt_internal_free_policy@@@@QAEXXZ 10060fe5 f i libucrt:initctype.obj
 0001:0005fffb       ?release@?$__crt_unique_heap_ptr@JU__crt_internal_free_policy@@@@QAEXXZ 10060ffb f i libucrt:initctype.obj
 0001:00060011       ____lc_codepage_func       10061011 f   libucrt:initctype.obj
 0001:00060041       ____lc_collate_cp_func     10061041 f   libucrt:initctype.obj
 0001:00060071       ____lc_locale_name_func    10061071 f   libucrt:initctype.obj
 0001:000600a4       ____mb_cur_max_func        100610a4 f   libucrt:initctype.obj
 0001:000600d4       ____mb_cur_max_l_func      100610d4 f   libucrt:initctype.obj
 0001:000600f3       ___acrt_locale_initialize_ctype 100610f3 f   libucrt:initctype.obj
 0001:00060578       ___acrt_add_locale_ref     10061578 f   libucrt:locale_refcounting.obj
 0001:00060614       ___acrt_free_locale        10061614 f   libucrt:locale_refcounting.obj
 0001:000607b0       ___acrt_locale_add_lc_time_reference 100617b0 f   libucrt:locale_refcounting.obj
 0001:000607e3       ___acrt_locale_free_lc_time_if_unreferenced 100617e3 f   libucrt:locale_refcounting.obj
 0001:0006081f       ___acrt_locale_release_lc_time_reference 1006181f f   libucrt:locale_refcounting.obj
 0001:00060852       ___acrt_release_locale_ref 10061852 f   libucrt:locale_refcounting.obj
 0001:000608f3       ___acrt_update_thread_locale_data 100618f3 f   libucrt:locale_refcounting.obj
 0001:00060987       __updatetlocinfoEx_nolock  10061987 f   libucrt:locale_refcounting.obj
 0001:000609eb       ___acrt_fp_strflt_to_string 100619eb f   libucrt:_fptostr.obj
 0001:00062220       ??0big_integer@__crt_strtox@@QAE@ABU01@@Z 10063220 f i libucrt:cfout.obj
 0001:00062260       ??0big_integer@__crt_strtox@@QAE@XZ 10063260 f i libucrt:cfout.obj
 0001:0006226b       ??0scoped_fp_state_reset@?A0x3568b024@@QAE@XZ 1006326b f i libucrt:cfout.obj
 0001:0006229f       ??1scoped_fp_state_reset@?A0x3568b024@@QAE@XZ 1006329f f i libucrt:cfout.obj
 0001:000622b0       ??4big_integer@__crt_strtox@@QAEAAU01@ABU01@@Z 100632b0 f i libucrt:cfout.obj
 0001:000622f0       ??8__crt_strtox@@YA_NABUbig_integer@0@0@Z 100632f0 f i libucrt:cfout.obj
 0001:00062340       ??9__crt_strtox@@YA_NABUbig_integer@0@0@Z 10063340 f i libucrt:cfout.obj
 0001:000623a0       ?add_carry@__crt_strtox@@YAIAAIII@Z 100633a0 f i libucrt:cfout.obj
 0001:000623d0       ?add_multiply_carry@__crt_strtox@@YAIAAIIII@Z 100633d0 f i libucrt:cfout.obj
 0001:00062400       ?bit_scan_reverse@__crt_strtox@@YAII@Z 10063400 f i libucrt:cfout.obj
 0001:00062430       ?count_sequential_high_zeroes@__crt_strtox@@YAII@Z 10063430 f i libucrt:cfout.obj
 0001:00062460       ?divide@__crt_strtox@@YA_KAAUbig_integer@1@ABU21@@Z 10063460 f i libucrt:cfout.obj
 0001:00062a40       ?is_zero@__crt_strtox@@YA_NABUbig_integer@1@@Z 10063a40 f i libucrt:cfout.obj
 0001:00062a60       ?make_big_integer@__crt_strtox@@YA?AUbig_integer@1@_K@Z 10063a60 f i libucrt:cfout.obj
 0001:00062a90       ?make_big_integer_power_of_two@__crt_strtox@@YA?AUbig_integer@1@I@Z 10063a90 f i libucrt:cfout.obj
 0001:00062af0       ?multiply@__crt_strtox@@YA_NAAUbig_integer@1@ABU21@@Z 10063af0 f i libucrt:cfout.obj
 0001:00062fa0       ?multiply@__crt_strtox@@YA_NAAUbig_integer@1@I@Z 10063fa0 f i libucrt:cfout.obj
 0001:000630a0       ?multiply_64_32@__crt_strtox@@YA_K_KI@Z 100640a0 f i libucrt:cfout.obj
 0001:000630c0       ?multiply_by_power_of_ten@__crt_strtox@@YA_NAAUbig_integer@1@I@Z 100640c0 f i libucrt:cfout.obj
 0001:000637c0       ?multiply_core@__crt_strtox@@YAIQAIII@Z 100647c0 f i libucrt:cfout.obj
 0001:00063810       ?shift_left@__crt_strtox@@YA_NAAUbig_integer@1@I@Z 10064810 f i libucrt:cfout.obj
 0001:000639b2       ___acrt_fltout             100649b2 f   libucrt:cfout.obj
 0001:000652d6       __isatty                   100662d6 f   libucrt:isatty.obj
 0001:00065341       ??$?RUlconv@@@__crt_internal_free_policy@@QBEXQBUlconv@@@Z 10066341 f i libucrt:initmon.obj
 0001:00065357       ??0?$__crt_unique_heap_ptr@Ulconv@@U__crt_internal_free_policy@@@@QAE@QAUlconv@@@Z 10066357 f i libucrt:initmon.obj
 0001:0006536b       ??1?$__crt_unique_heap_ptr@Ulconv@@U__crt_internal_free_policy@@@@QAE@XZ 1006636b f i libucrt:initmon.obj
 0001:00065381       ?detach@?$__crt_unique_heap_ptr@Ulconv@@U__crt_internal_free_policy@@@@QAEPAUlconv@@XZ 10066381 f i libucrt:initmon.obj
 0001:00065387       ?release@?$__crt_unique_heap_ptr@Ulconv@@U__crt_internal_free_policy@@@@QAEXXZ 10066387 f i libucrt:initmon.obj
 0001:0006539d       ___acrt_locale_free_monetary 1006639d f   libucrt:initmon.obj
 0001:000654da       ___acrt_locale_initialize_monetary 100664da f   libucrt:initmon.obj
 0001:000659cd       ___acrt_locale_free_numeric 100669cd f   libucrt:initnum.obj
 0001:00065a50       ___acrt_locale_initialize_numeric 10066a50 f   libucrt:initnum.obj
 0001:00065d3b       ??$?RU__crt_lc_time_data@@@__crt_internal_free_policy@@QBEXQBU__crt_lc_time_data@@@Z 10066d3b f i libucrt:inittime.obj
 0001:00065ddb       ??0?$__crt_unique_heap_ptr@U__crt_lc_time_data@@U__crt_internal_free_policy@@@@QAE@QAU__crt_lc_time_data@@@Z 10066ddb f i libucrt:inittime.obj
 0001:00065def       ??1?$__crt_unique_heap_ptr@U__crt_lc_time_data@@U__crt_internal_free_policy@@@@QAE@XZ 10066def f i libucrt:inittime.obj
 0001:00065e05       ??B?$__crt_unique_heap_ptr@U__crt_lc_time_data@@U__crt_internal_free_policy@@@@QBE_NXZ 10066e05 f i libucrt:inittime.obj
 0001:00065e0f       ?detach@?$__crt_unique_heap_ptr@U__crt_lc_time_data@@U__crt_internal_free_policy@@@@QAEPAU__crt_lc_time_data@@XZ 10066e0f f i libucrt:inittime.obj
 0001:00065e60       ?get@?$__crt_unique_heap_ptr@U__crt_lc_time_data@@U__crt_internal_free_policy@@@@QBEPAU__crt_lc_time_data@@XZ 10066e60 f i libucrt:inittime.obj
 0001:000661f8       ?is_valid@?$__crt_unique_heap_ptr@U__crt_lc_time_data@@U__crt_internal_free_policy@@@@QBE_NXZ 100671f8 f i libucrt:inittime.obj
 0001:00066202       ?release@?$__crt_unique_heap_ptr@U__crt_lc_time_data@@U__crt_internal_free_policy@@@@QAEXXZ 10067202 f i libucrt:inittime.obj
 0001:00066218       ___acrt_locale_free_time   10067218 f   libucrt:inittime.obj
 0001:00066335       ___acrt_locale_initialize_time 10067335 f   libucrt:inittime.obj
 0001:000664d3       _wcsncpy_s                 100674d3 f   libucrt:wcsncpy_s.obj
 0001:000664e0       _wcscspn                   100674e0 f   libucrt:wcscspn.obj
 0001:00066544       _wcsncmp                   10067544 f   libucrt:wcsncmp.obj
 0001:0006658c       _wcspbrk                   1006758c f   libucrt:wcspbrk.obj
 0001:000665e2       ___acrt_GetStringTypeA     100675e2 f   libucrt:getstringtypea.obj
 0001:00067056       ___acrt_get_qualified_locale 10068056 f   libucrt:get_qualified_locale.obj
 0001:00067bfd       ___acrt_get_qualified_locale_downlevel 10068bfd f   libucrt:getqloc_downlevel.obj
 0001:00067e85       _localeconv                10068e85 f   libucrt:localeconv.obj
 0001:00067eb9       __wcsnicmp                 10068eb9 f   libucrt:wcsnicmp.obj
 0001:00067f9f       __wcsnicmp_l               10068f9f f   libucrt:wcsnicmp.obj
 0001:000680e0       _strncmp                   100690e0 f   libucrt:strncmp.obj
 0001:00068176       ??$__vcrt_va_start_verify_argument_type@$$CBH@@YAXXZ 10069176 f i libucrt:open.obj
 0001:0006852d       ??$tsopen_nolock@PAHABQAHABQBDABHABHABHABH@?$__crt_char_traits@D@@SAH$$QAPAHABQAHABQBDABH333@Z 1006952d f i libucrt:open.obj
 0001:0006856b       ??$tsopen_nolock@PAHABQAHABQB_WABHABHABHABH@?$__crt_char_traits@_W@@SAH$$QAPAHABQAHABQB_WABH333@Z 1006956b f i libucrt:open.obj
 0001:000685a9       ??$tsopen_nolock@PAHPAHABQBDABHHABHH@?$__crt_char_traits@D@@SAH$$QAPAH0ABQBDABH$$QAH23@Z 100695a9 f i libucrt:open.obj
 0001:000685e7       ??$tsopen_nolock@PAHPAHABQB_WABHHABHH@?$__crt_char_traits@_W@@SAH$$QAPAH0ABQB_WABH$$QAH23@Z 100695e7 f i libucrt:open.obj
 0001:00068db5       __open                     10069db5 f   libucrt:open.obj
 0001:00068dd3       __sopen                    10069dd3 f   libucrt:open.obj
 0001:00068e15       __sopen_dispatch           10069e15 f   libucrt:open.obj
 0001:00068e22       __sopen_nolock             10069e22 f   libucrt:open.obj
 0001:00068e87       __sopen_s                  10069e87 f   libucrt:open.obj
 0001:00068eaf       __wopen                    10069eaf f   libucrt:open.obj
 0001:00068ecd       __wsopen                   10069ecd f   libucrt:open.obj
 0001:00068f0f       __wsopen_dispatch          10069f0f f   libucrt:open.obj
 0001:00068f1c       __wsopen_nolock            10069f1c f   libucrt:open.obj
 0001:0006930f       __wsopen_s                 1006a30f f   libucrt:open.obj
 0001:00069337       ___p__commode              1006a337 f   libucrt:ncommode.obj
 0001:0006933d       ___acrt_stdio_allocate_buffer_nolock 1006a33d f   libucrt:_getbuf.obj
 0001:000693b1       ??$?RV<lambda_4980db0136e49a56f91ef52c46ca659a>@@AAV<lambda_6e3e78bb6855d1e4040e022c1b427e22>@@V<lambda_9c074eaf62197b4fd0274ed9e7824161>@@@?$__crt_seh_guarded_call@G@@QAEG$$QAV<lambda_4980db0136e49a56f91ef52c46ca659a>@@AAV<lambda_6e3e78bb6855d1e4040e022c1b427e22>@@$$QAV<lambda_9c074eaf62197b4fd0274ed9e7824161>@@@Z 1006a3b1 f i libucrt:putwch.obj
 0001:00069426       ??$__acrt_lock_and_call@V<lambda_6e3e78bb6855d1e4040e022c1b427e22>@@@@YAGW4__acrt_lock_id@@$$QAV<lambda_6e3e78bb6855d1e4040e022c1b427e22>@@@Z 1006a426 f i libucrt:putwch.obj
 0001:000694be       __putwch                   1006a4be f   libucrt:putwch.obj
 0001:000694e2       __putwch_nolock            1006a4e2 f   libucrt:putwch.obj
 0001:00069538       _nextafter                 1006a538 f   libucrt:nextafter.obj
 0001:00069570       __wcsnicoll                1006a570 f   libucrt:wcsnicol.obj
 0001:00069674       __wcsnicoll_l              1006a674 f   libucrt:wcsnicol.obj
 0001:000697ec       __strnicoll                1006a7ec f   libucrt:strnicol.obj
 0001:0006981f       __strnicoll_l              1006a81f f   libucrt:strnicol.obj
 0001:0006995a       __msize                    1006a95a f   libucrt:msize.obj
 0001:00069999       ___strncnt                 1006a999 f   libucrt:strncnt.obj
 0001:00069af5       ___acrt_GetLocaleInfoA     1006aaf5 f   libucrt:getlocaleinfoa.obj
 0001:00069d13       _fegetenv                  1006ad13 f   libucrt:fegetenv.obj
 0001:00069d37       _fesetenv                  1006ad37 f   libucrt:fesetenv.obj
 0001:00069d92       _feholdexcept              1006ad92 f   libucrt:feholdexcept.obj
 0001:00069e00       _log10                     1006ae00 f   libucrt:log10.obj
 0001:00069e40       __CIlog10                  1006ae40 f   libucrt:log10.obj
 0001:00069e7b       __CIlog10_default          1006ae7b f   libucrt:log10.obj
 0001:00069e8f       __log10_default            1006ae8f     libucrt:log10.obj
 0001:00069fb0       _ceil                      1006afb0 f   libucrt:ceil_pentium4.obj
 0001:00069ff0       __ceil_pentium4            1006aff0 f   libucrt:ceil_pentium4.obj
 0001:0006a114       __wcsicmp                  1006b114 f   libucrt:wcsicmp.obj
 0001:0006a1ce       __wcsicmp_l                1006b1ce f   libucrt:wcsicmp.obj
 0001:0006a2e6       __towlower_l               1006b2e6 f   libucrt:towlower.obj
 0001:0006a3e1       _towlower                  1006b3e1 f   libucrt:towlower.obj
 0001:0006a3f8       ??$__crt_interlocked_read@H@@YAHPDH@Z 1006b3f8 f i libucrt:setmode.obj
 0001:0006a407       __get_fmode                1006b407 f   libucrt:setmode.obj
 0001:0006a43e       __set_fmode                1006b43e f   libucrt:setmode.obj
 0001:0006a48a       __setmode                  1006b48a f   libucrt:setmode.obj
 0001:0006a5db       __setmode_nolock           1006b5db f   libucrt:setmode.obj
 0001:0006a6e0       ??$?RV<lambda_4cfda81533ccf5a03113a1ca40a30445>@@AAV<lambda_1cffa78e445b1da5fba1a2e0e533226f>@@V<lambda_68c952aa1b860373b2109ef12d0bba9d>@@@?$__crt_seh_guarded_call@H@@QAEH$$QAV<lambda_4cfda81533ccf5a03113a1ca40a30445>@@AAV<lambda_1cffa78e445b1da5fba1a2e0e533226f>@@$$QAV<lambda_68c952aa1b860373b2109ef12d0bba9d>@@@Z 1006b6e0 f i libucrt:chsize.obj
 0001:0006a78a       ??$__acrt_lowio_lock_fh_and_call@V<lambda_1cffa78e445b1da5fba1a2e0e533226f>@@@@YAHH$$QAV<lambda_1cffa78e445b1da5fba1a2e0e533226f>@@@Z 1006b78a f i libucrt:chsize.obj
 0001:0006a86c       __chsize                   1006b86c f   libucrt:chsize.obj
 0001:0006a88f       __chsize_nolock            1006b88f f   libucrt:chsize.obj
 0001:0006aa84       __chsize_s                 1006ba84 f   libucrt:chsize.obj
 0001:0006ab45       __umask                    1006bb45 f   libucrt:umask.obj
 0001:0006ab73       __umask_s                  1006bb73 f   libucrt:umask.obj
 0001:0006abbc       ___dcrt_lowio_initialize_console_output 1006bbbc f   libucrt:initcon.obj
 0001:0006abe2       ___dcrt_terminate_console_output 1006bbe2 f   libucrt:initcon.obj
 0001:0006abfe       _nexttoward                1006bbfe f   libucrt:nexttoward.obj
 0001:0006adaf       ___acrt_CompareStringW     1006bdaf f   libucrt:comparestringw.obj
 0001:0006b183       ___acrt_CompareStringA     1006c183 f   libucrt:comparestringa.obj
 0001:0006b2ba       _strncpy_s                 1006c2ba f   libucrt:strncpy_s.obj
 0001:0006b2c7       ___acrt_fenv_get_fp_status_word_from_exception_mask 1006c2c7 f   libucrt:_fenvutils.obj
 0001:0006b70a       __getfpcontrolword         1006c70a f   libucrt:_fenvutils.obj
 0001:0006b75d       __getfpstatusword          1006c75d f   libucrt:_fenvutils.obj
 0001:0006b82f       __setfpcontrolword         1006c82f f   libucrt:_fenvutils.obj
 0001:0006b8cf       __setfpstatusword          1006c8cf f   libucrt:_fenvutils.obj
 0001:0006bb05       ___control87_2             1006cb05 f   libucrt:ieee87.obj
 0001:0006c0d9       ___fpreset_sse2            1006d0d9 f   libucrt:ieee87.obj
 0001:0006c32c       __clearfp                  1006d32c f   libucrt:ieee87.obj
 0001:0006c441       __control87                1006d441 f   libucrt:ieee87.obj
 0001:0006c803       __controlfp                1006d803 f   libucrt:ieee87.obj
 0001:0006c823       __fpreset                  1006d823 f   libucrt:ieee87.obj
 0001:0006c920       __set_controlfp            1006d920 f   libucrt:ieee87.obj
 0001:0006c9b6       __statusfp                 1006d9b6 f   libucrt:ieee87.obj
 0001:0006ca79       __statusfp2                1006da79 f   libucrt:ieee87.obj
 0001:0006caf6       ___acrt_initialize_sse2    1006daf6 f   libucrt:mathfcns.obj
 0001:0006cb08       __set_SSE2_enable          1006db08 f   libucrt:mathfcns.obj
 0001:0006cb40       __CIlog10_pentium4         1006db40 f   libucrt:log10_pentium4.obj
 0001:0006cb58       __log10_pentium4           1006db58     libucrt:log10_pentium4.obj
 0001:0006ce91       __fFEXP                    1006de91     libucrt:87tran.obj
 0001:0006cee8       __rtinfpopse               1006dee8     libucrt:87tran.obj
 0001:0006ceea       __rtinfnpopse              1006deea     libucrt:87tran.obj
 0001:0006cefa       __fFLN                     1006defa     libucrt:87tran.obj
 0001:0006cfaf       __rtinfpop                 1006dfaf     libucrt:87tran.obj
 0001:0006cfb1       __rtinfnpop                1006dfb1     libucrt:87tran.obj
 0001:0006cfce       __ffexpm1                  1006dfce     libucrt:87tran.obj
 0001:0006d100       __trandisp1                1006e100 f   libucrt:87disp.obj
 0001:0006d167       __trandisp2                1006e167 f   libucrt:87disp.obj
 0001:0006d1f3       __rttospopde               1006e1f3     libucrt:87disp.obj
 0001:0006d1f8       __rttospop                 1006e1f8     libucrt:87disp.obj
 0001:0006d1fa       __rtnospop                 1006e1fa     libucrt:87disp.obj
 0001:0006d1fc       __rttosnpop                1006e1fc     libucrt:87disp.obj
 0001:0006d1fd       __rtnospopde               1006e1fd     libucrt:87disp.obj
 0001:0006d204       __rtzeropop                1006e204     libucrt:87disp.obj
 0001:0006d206       __rtzeronpop               1006e206     libucrt:87disp.obj
 0001:0006d20b       __rtzerospop               1006e20b     libucrt:87disp.obj
 0001:0006d218       __rtonepop                 1006e218     libucrt:87disp.obj
 0001:0006d21a       __rtonenpop                1006e21a     libucrt:87disp.obj
 0001:0006d21f       __tosnan1                  1006e21f     libucrt:87disp.obj
 0001:0006d24a       __nosnan2                  1006e24a     libucrt:87disp.obj
 0001:0006d24c       __tosnan2                  1006e24c     libucrt:87disp.obj
 0001:0006d274       __nan2                     1006e274     libucrt:87disp.obj
 0001:0006d2b3       __rtindfpop                1006e2b3     libucrt:87disp.obj
 0001:0006d2b5       __rtindfnpop               1006e2b5     libucrt:87disp.obj
 0001:0006d2c6       __rttosnpopde              1006e2c6     libucrt:87disp.obj
 0001:0006d2d0       __rtatan2inf               1006e2d0     libucrt:87disp.obj
 0001:0006d2ed       __rtchsifneg               1006e2ed     libucrt:87disp.obj
 0001:0006d371       ___setfflag                1006e371 f   libucrt:fp_flags.obj
 0001:0006d390       __twoToTOS                 1006e390 f   libucrt:common.obj
 0001:0006d3a5       __load_CW                  1006e3a5 f   libucrt:common.obj
 0001:0006d3bc       __convertTOStoQNaN         1006e3bc f   libucrt:common.obj
 0001:0006d3d5       __fload_withFB             1006e3d5 f   libucrt:common.obj
 0001:0006d418       __checkTOS_withFB          1006e418 f   libucrt:common.obj
 0001:0006d42e       __fast_exit                1006e42e f   libucrt:common.obj
 0001:0006d43b       __math_exit                1006e43b f   libucrt:common.obj
 0001:0006d465       __check_overflow_exit      1006e465 f   libucrt:common.obj
 0001:0006d479       __check_range_exit         1006e479 f   libucrt:common.obj
 0001:0006d580       __startTwoArgErrorHandling 1006e580 f   libucrt:genexcep.obj
 0001:0006d597       __startOneArgErrorHandling 1006e597 f   libucrt:genexcep.obj
 0001:0006d5e7       ___libm_error_support      1006e5e7 f   libucrt:libm_error.obj
 0001:0006d885       ___libm_setusermatherr     1006e885 f   libucrt:libm_error.obj
 0001:0006d8be       __ceil_default             1006e8be f   libucrt:ceil.obj
 0001:0006d9a5       ___acrt_LCMapStringW       1006e9a5 f   libucrt:lcmapstringw.obj
 0001:0006d9f2       ___p__fmode                1006e9f2 f   libucrt:txtmode.obj
 0001:0006d9f8       __d_int                    1006e9f8 f   libucrt:_test.obj
 0001:0006db40       __dtest                    1006eb40 f   libucrt:_test.obj
 0001:0006dbbd       __fd_int                   1006ebbd f   libucrt:_test.obj
 0001:0006dcbf       __fdtest                   1006ecbf f   libucrt:_test.obj
 0001:0006dd20       __fperrraise               1006ed20 f   libucrt:_test.obj
 0001:0006dd4b       __ld_int                   1006ed4b f   libucrt:_test.obj
 0001:0006dd58       __ldtest                   1006ed58 f   libucrt:_test.obj
 0001:0006ddfd       __controlfp_s              1006edfd f   libucrt:contrlfp.obj
 0001:0006de73       __d_inttype                1006ee73 f   libucrt:powhlp.obj
 0001:0006def7       __powhlp                   1006eef7 f   libucrt:powhlp.obj
 0001:0006e06c       __87except                 1006f06c f   libucrt:87except.obj
 0001:0006e1b9       __frnd                     1006f1b9 f   libucrt:frnd.obj
 0001:0006e1d4       _fegetexceptflag           1006f1d4 f   libucrt:fegetexceptflag.obj
 0001:0006e211       _fesetexceptflag           1006f211 f   libucrt:fesetexceptflag.obj
 0001:0006e272       _fetestexcept              1006f272 f   libucrt:fetestexcept.obj
 0001:0006e2a0       __FindPESection            1006f2a0 f   LIBCMT:pesect.obj
 0001:0006e300       __IsNonwritableInCurrentImage 1006f300 f   LIBCMT:pesect.obj
 0001:0006e3f0       __ValidateImageBase        1006f3f0 f   LIBCMT:pesect.obj
 0001:0006e430       __aulldvrm                 1006f430 f   LIBCMT:ulldvrm.obj
 0001:0006e4ea       ??1type_info@@UAE@XZ       1006f4ea f   LIBCMT:std_type_info_static.obj
 0001:0006e4f1       ??_Etype_info@@UAEPAXI@Z   1006f4f1 f i LIBCMT:std_type_info_static.obj
 0001:0006e4f1       ??_Gtype_info@@UAEPAXI@Z   1006f4f1 f i LIBCMT:std_type_info_static.obj
 0001:0006e520       __SEH_prolog4_GS           1006f520 f   LIBCMT:_sehprolg4gs_.obj
 0001:0006e569       __SEH_epilog4_GS           1006f569 f   LIBCMT:_sehprolg4gs_.obj
 0001:0006e590       __allmul                   1006f590 f   LIBCMT:llmul.obj
 0001:0006e5e0       __alldiv                   1006f5e0 f   LIBCMT:lldiv.obj
 0001:0006e6c0       __alloca_probe             1006f6c0 f   LIBCMT:chkstk.obj
 0001:0006e6c0       __chkstk                   1006f6c0 f   LIBCMT:chkstk.obj
 0001:0006e700       __alldvrm                  1006f700 f   LIBCMT:lldvrm.obj
 0001:0006e820       __aullshr                  1006f820 f   LIBCMT:ullshr.obj
 0001:0006e850       __alloca_probe_16          1006f850 f   LIBCMT:alloca16.obj
 0001:0006e866       __alloca_probe_8           1006f866     LIBCMT:alloca16.obj
 0001:0006e890       __allshl                   1006f890 f   LIBCMT:llshl.obj
 0001:0006e8c0       __ftol2_sse                1006f8c0 f   LIBCMT:_ftol2_.obj
 0001:0006e8c9       __ftol2_pentium4           1006f8c9 f   LIBCMT:_ftol2_.obj
 0001:0006e8dc       __ftol2_sse_excpt          1006f8dc f   LIBCMT:_ftol2_.obj
 0001:0006e900       __ftol2                    1006f900 f   LIBCMT:_ftol2_.obj
 0001:0006e9a2       __initialize_default_precision 1006f9a2 f   LIBCMT:default_precision.obj
 0001:0006e9cb       ??3@YAXPAXI@Z              1006f9cb f   LIBCMT:delete_scalar_size.obj
 0001:0006e9dc       ??3@YAXPAX@Z               1006f9dc f   LIBCMT:delete_scalar.obj
 0001:0006e9e2       _GetLastError@0            1006f9e2 f   kernel32:KERNEL32.dll
 0001:0006e9e8       _GetModuleFileNameW@12     1006f9e8 f   kernel32:KERNEL32.dll
 0001:0006e9ee       _InterlockedPushEntrySList@8 1006f9ee f   kernel32:KERNEL32.dll
 0001:0006e9f4       _InterlockedFlushSList@4   1006f9f4 f   kernel32:KERNEL32.dll
 0001:0006e9fa       _InitializeCriticalSectionAndSpinCount@8 1006f9fa f   kernel32:KERNEL32.dll
 0001:0006ea00       _TlsAlloc@0                1006fa00 f   kernel32:KERNEL32.dll
 0001:0006ea06       _TlsGetValue@4             1006fa06 f   kernel32:KERNEL32.dll
 0001:0006ea0c       _TlsSetValue@8             1006fa0c f   kernel32:KERNEL32.dll
 0001:0006ea12       _TlsFree@4                 1006fa12 f   kernel32:KERNEL32.dll
 0001:0006ea18       _FreeLibrary@4             1006fa18 f   kernel32:KERNEL32.dll
 0001:0006ea1e       _LoadLibraryExW@12         1006fa1e f   kernel32:KERNEL32.dll
 0001:0006ea24       _RtlUnwind@16              1006fa24 f   kernel32:KERNEL32.dll
 0001:0006ea2a       _SetLastError@4            1006fa2a f   kernel32:KERNEL32.dll
 0001:0006ea30       _EnterCriticalSection@4    1006fa30 f   kernel32:KERNEL32.dll
 0001:0006ea36       _LeaveCriticalSection@4    1006fa36 f   kernel32:KERNEL32.dll
 0001:0006ea3c       _DeleteCriticalSection@4   1006fa3c f   kernel32:KERNEL32.dll
 0001:0006ea42       _GetStdHandle@4            1006fa42 f   kernel32:KERNEL32.dll
 0001:0006ea48       _GetFileType@4             1006fa48 f   kernel32:KERNEL32.dll
 0001:0006ea4e       _GetModuleFileNameA@12     1006fa4e f   kernel32:KERNEL32.dll
 0001:0006ea54       _GetModuleHandleExW@12     1006fa54 f   kernel32:KERNEL32.dll
 0001:0006ea5a       _WriteConsoleW@20          1006fa5a f   kernel32:KERNEL32.dll
 0001:0006ea60       _ExitProcess@4             1006fa60 f   kernel32:KERNEL32.dll
 0001:0006ea66       _ReadFile@20               1006fa66 f   kernel32:KERNEL32.dll
 0001:0006ea6c       _RaiseException@16         1006fa6c f   kernel32:KERNEL32.dll
 0001:0006ea72       _MultiByteToWideChar@24    1006fa72 f   kernel32:KERNEL32.dll
 0001:0006ea78       _WideCharToMultiByte@32    1006fa78 f   kernel32:KERNEL32.dll
 0001:0006ea7e       _HeapFree@12               1006fa7e f   kernel32:KERNEL32.dll
 0001:0006ea84       _HeapAlloc@12              1006fa84 f   kernel32:KERNEL32.dll
 0001:0006ea8a       _GetDateFormatW@24         1006fa8a f   kernel32:KERNEL32.dll
 0001:0006ea90       _GetTimeFormatW@24         1006fa90 f   kernel32:KERNEL32.dll
 0001:0006ea96       _CompareStringW@24         1006fa96 f   kernel32:KERNEL32.dll
 0001:0006ea9c       _LCMapStringW@24           1006fa9c f   kernel32:KERNEL32.dll
 0001:0006eaa2       _GetLocaleInfoW@16         1006faa2 f   kernel32:KERNEL32.dll
 0001:0006eaa8       _IsValidLocale@8           1006faa8 f   kernel32:KERNEL32.dll
 0001:0006eaae       _GetUserDefaultLCID@0      1006faae f   kernel32:KERNEL32.dll
 0001:0006eab4       _EnumSystemLocalesW@8      1006fab4 f   kernel32:KERNEL32.dll
 0001:0006eaba       _GetCurrentThread@0        1006faba f   kernel32:KERNEL32.dll
 0001:0006eac0       _GetACP@0                  1006fac0 f   kernel32:KERNEL32.dll
 0001:0006eac6       _WriteFile@20              1006fac6 f   kernel32:KERNEL32.dll
 0001:0006eacc       _OutputDebugStringA@4      1006facc f   kernel32:KERNEL32.dll
 0001:0006ead2       _OutputDebugStringW@4      1006fad2 f   kernel32:KERNEL32.dll
 0001:0006ead8       _CloseHandle@4             1006fad8 f   kernel32:KERNEL32.dll
 0001:0006eade       _WaitForSingleObjectEx@12  1006fade f   kernel32:KERNEL32.dll
 0001:0006eae4       _CreateThread@24           1006fae4 f   kernel32:KERNEL32.dll
 0001:0006eaea       _SetConsoleCtrlHandler@8   1006faea f   kernel32:KERNEL32.dll
 0001:0006eaf0       _HeapReAlloc@16            1006faf0 f   kernel32:KERNEL32.dll
 0001:0006eaf6       _GetConsoleMode@8          1006faf6 f   kernel32:KERNEL32.dll
 0001:0006eafc       _ReadConsoleW@20           1006fafc f   kernel32:KERNEL32.dll
 0001:0006eb02       _GetConsoleCP@0            1006fb02 f   kernel32:KERNEL32.dll
 0001:0006eb08       _DeleteFileW@4             1006fb08 f   kernel32:KERNEL32.dll
 0001:0006eb0e       _SetFilePointerEx@20       1006fb0e f   kernel32:KERNEL32.dll
 0001:0006eb14       _GetStringTypeW@16         1006fb14 f   kernel32:KERNEL32.dll
 0001:0006eb1a       _IsValidCodePage@4         1006fb1a f   kernel32:KERNEL32.dll
 0001:0006eb20       _GetOEMCP@0                1006fb20 f   kernel32:KERNEL32.dll
 0001:0006eb26       _GetCPInfo@8               1006fb26 f   kernel32:KERNEL32.dll
 0001:0006eb2c       _GetEnvironmentStringsW@0  1006fb2c f   kernel32:KERNEL32.dll
 0001:0006eb32       _FreeEnvironmentStringsW@4 1006fb32 f   kernel32:KERNEL32.dll
 0001:0006eb38       _SetEnvironmentVariableA@8 1006fb38 f   kernel32:KERNEL32.dll
 0001:0006eb3e       _SetEnvironmentVariableW@8 1006fb3e f   kernel32:KERNEL32.dll
 0001:0006eb44       _GetProcessHeap@0          1006fb44 f   kernel32:KERNEL32.dll
 0001:0006eb4a       _GetCommandLineA@0         1006fb4a f   kernel32:KERNEL32.dll
 0001:0006eb50       _GetCommandLineW@0         1006fb50 f   kernel32:KERNEL32.dll
 0001:0006eb56       _FlushFileBuffers@4        1006fb56 f   kernel32:KERNEL32.dll
 0001:0006eb5c       _SetStdHandle@8            1006fb5c f   kernel32:KERNEL32.dll
 0001:0006eb62       _CreateFileW@28            1006fb62 f   kernel32:KERNEL32.dll
 0001:0006eb68       _HeapSize@12               1006fb68 f   kernel32:KERNEL32.dll
 0001:0006eb6e       _SetEndOfFile@4            1006fb6e f   kernel32:KERNEL32.dll
 0001:0006eb74       _EncodePointer@4           1006fb74 f   kernel32:KERNEL32.dll
 0001:0006eb7a       _DecodePointer@4           1006fb7a f   kernel32:KERNEL32.dll
 0001:0006eb80       _SystemFunction036@8       1006fb80 f   advapi32:ADVAPI32.dll
 0001:0006eb90       _strrchr                   1006fb90 f   libvcruntime:strrchr.obj
 0001:0006ee77       _memcmp                    1006fe77 f   libvcruntime:_memcmp_.obj
 0001:0007295f       _wcschr                    1007395f f   libvcruntime:wcschr.obj
 0002:00000000       ___xc_a                    10076000     LIBCMT:initializers.obj
 0002:00000104       ___xc_z                    10076104     LIBCMT:initializers.obj
 0002:00000208       ___xi_a                    10076208     LIBCMT:initializers.obj
 0002:0000030c       ___acrt_stdio_initializer  1007630c     libucrt:stdio_initializer.obj
 0002:00000310       ___acrt_multibyte_initializer 10076310     libucrt:multibyte_initializer.obj
 0002:00000314       ___acrt_tran_sse2_initializer 10076314     libucrt:sse2_initializer.obj
 0002:0000041c       ___xi_z                    1007641c     LIBCMT:initializers.obj
 0002:00000520       ___xp_a                    10076520     LIBCMT:initializers.obj
 0002:00000624       ___acrt_locale_terminator  10076624     libucrt:locale_initializer.obj
 0002:00000628       ___dcrt_console_output_terminator 10076628     libucrt:console_output_initializer.obj
 0002:00000730       ___acrt_stdio_terminator   10076730     libucrt:stdio_initializer.obj
 0002:00000834       ___xp_z                    10076834     LIBCMT:initializers.obj
 0002:00000938       ___xt_a                    10076938     LIBCMT:initializers.obj
 0002:00000a3c       ___xt_z                    10076a3c     LIBCMT:initializers.obj
 0002:00000b40       _speedgoat_test_SN2593_R2016b_M 10076b40     speedgoat_test_SN2593_R2016b.obj
 0002:00000b44       ??_C@_0BI@PEBACBDB@Error?5creating?5scope?53?6?$AA@ 10076b44     speedgoat_test_SN2593_R2016b.obj
 0002:00000b60       ??_C@_0BD@GJOLHIMM@IO751?1Byte?5Pack?1s1?$AA@ 10076b60     speedgoat_test_SN2593_R2016b.obj
 0002:00000b78       ??_C@_0BD@ECMGCLAP@IO751?1Byte?5Pack?1s2?$AA@ 10076b78     speedgoat_test_SN2593_R2016b.obj
 0002:00000b90       ??_C@_0BD@FLNNBKEO@IO751?1Byte?5Pack?1s3?$AA@ 10076b90     speedgoat_test_SN2593_R2016b.obj
 0002:00000ba8       ??_C@_0BD@BEJMIMIJ@IO751?1Byte?5Pack?1s4?$AA@ 10076ba8     speedgoat_test_SN2593_R2016b.obj
 0002:00000bc0       ??_C@_06KFNFIEK@?$CF15?46f?$AA@ 10076bc0     speedgoat_test_SN2593_R2016b.obj
 0002:00000bc8       ??_C@_0BI@PBFPDHLE@Error?5creating?5scope?54?6?$AA@ 10076bc8     speedgoat_test_SN2593_R2016b.obj
 0002:00000be4       ??_C@_0BD@NLEGHLJI@IO751?1Byte?5Unpack1?$AA@ 10076be4     speedgoat_test_SN2593_R2016b.obj
 0002:00000bfc       ??_C@_0BC@OJJPBDHH@FixedStepDiscrete?$AA@ 10076bfc     speedgoat_test_SN2593_R2016b.obj
 0002:00000c14       ??_C@_04EPKDLPPB@tout?$AA@ 10076c14     speedgoat_test_SN2593_R2016b.obj
 0002:00000c1a       ??_C@_00CNPNBAHC@?$AA@     10076c1a     speedgoat_test_SN2593_R2016b.obj
 0002:00000c1c       ??_C@_03HBFGMJOD@rt_?$AA@  10076c1c     speedgoat_test_SN2593_R2016b.obj
 0002:00000c20       ??_C@_0L@DCAFDGKC@PNM?5Setup1?$AA@ 10076c20     speedgoat_test_SN2593_R2016b.obj
 0002:00000c30       ??_C@_0CO@PAFBJMBM@speedgoat_test_SN2593_R2016b?1IO7@ 10076c30     speedgoat_test_SN2593_R2016b.obj
 0002:00000c68       ??_C@_09EHKGEBOO@PNM?5Send1?$AA@ 10076c68     speedgoat_test_SN2593_R2016b.obj
 0002:00000c74       ??_C@_0CN@MEPDFIFC@speedgoat_test_SN2593_R2016b?1IO7@ 10076c74     speedgoat_test_SN2593_R2016b.obj
 0002:00000cac       ??_C@_0M@MKDNHOHP@PNM?5Receive?$AA@ 10076cac     speedgoat_test_SN2593_R2016b.obj
 0002:00000cbc       ??_C@_0CP@OGCGLEFO@speedgoat_test_SN2593_R2016b?1IO7@ 10076cbc     speedgoat_test_SN2593_R2016b.obj
 0002:00000cf8       __real@3f847ae147ae147b    10076cf8     speedgoat_test_SN2593_R2016b.obj
 0002:00000d08       __real@3ff0000000000000    10076d08     speedgoat_test_SN2593_R2016b.obj
 0002:00000d18       __real@4008000000000000    10076d18     speedgoat_test_SN2593_R2016b.obj
 0002:00000d28       __real@41f0000000000000    10076d28     speedgoat_test_SN2593_R2016b.obj
 0002:00000d38       __real@bff0000000000000    10076d38     speedgoat_test_SN2593_R2016b.obj
 0002:00000d50       __xmm@00000038000000090000001900000002 10076d50     speedgoat_test_SN2593_R2016b.obj
 0002:00000d70       __xmm@3f847ae147ae147b0000000000000000 10076d70     speedgoat_test_SN2593_R2016b.obj
 0002:00000d90       __xmm@41f00000000000000000000000000000 10076d90     speedgoat_test_SN2593_R2016b.obj
 0002:00000da8       __real@3cb0000000000000    10076da8     rt_matrx.obj
 0002:00000db8       __real@3fe0000000000000    10076db8     rt_matrx.obj
 0002:00001284       ??_C@_0BA@HHPBIGOJ@IO751?1Byte?5Pack?$AA@ 10077284     speedgoat_test_SN2593_R2016b_capi.obj
 0002:00001298       ??_C@_0BC@FOKPNADP@IO751?1PNM?5Receive?$AA@ 10077298     speedgoat_test_SN2593_R2016b_capi.obj
 0002:000012b0       ??_C@_0CD@BPHDEJKC@IO751?1Counter?5Free?9Running2?1Outp@ 100772b0     speedgoat_test_SN2593_R2016b_capi.obj
 0002:000012dc       ??_C@_0CD@IAIFNOB@IO751?1Counter?5Free?9Running3?1Outp@ 100772dc     speedgoat_test_SN2593_R2016b_capi.obj
 0002:00001308       ??_C@_0DM@CLDPCLKO@IO751?1Counter?5Free?9Running2?1Incr@ 10077308     speedgoat_test_SN2593_R2016b_capi.obj
 0002:00001350       ??_C@_0DG@PPCHGEEH@IO751?1Counter?5Free?9Running2?1Wrap@ 10077350     speedgoat_test_SN2593_R2016b_capi.obj
 0002:00001390       ??_C@_0DM@PLNHKJI@IO751?1Counter?5Free?9Running3?1Incr@ 10077390     speedgoat_test_SN2593_R2016b_capi.obj
 0002:000013d8       ??_C@_0DG@POJCJJFK@IO751?1Counter?5Free?9Running3?1Wrap@ 100773d8     speedgoat_test_SN2593_R2016b_capi.obj
 0002:00001418       ??_C@_0P@BMIDPMFM@IO751?1Constant?$AA@ 10077418     speedgoat_test_SN2593_R2016b_capi.obj
 0002:0000142c       ??_C@_05LPIJGKJ@Value?$AA@ 1007742c     speedgoat_test_SN2593_R2016b_capi.obj
 0002:00001434       ??_C@_0BA@KEJMJJJB@IO751?1Constant1?$AA@ 10077434     speedgoat_test_SN2593_R2016b_capi.obj
 0002:00001448       ??_C@_02KKFPAPOP@P1?$AA@   10077448     speedgoat_test_SN2593_R2016b_capi.obj
 0002:0000144c       ??_C@_02IBHCFMCM@P2?$AA@   1007744c     speedgoat_test_SN2593_R2016b_capi.obj
 0002:00001450       ??_C@_02JIGJGNGN@P3?$AA@   10077450     speedgoat_test_SN2593_R2016b_capi.obj
 0002:00001454       ??_C@_02NHCIPLKK@P4?$AA@   10077454     speedgoat_test_SN2593_R2016b_capi.obj
 0002:00001458       ??_C@_0BA@GLEEJDDL@IO751?1PNM?5Send1?$AA@ 10077458     speedgoat_test_SN2593_R2016b_capi.obj
 0002:0000146c       ??_C@_0BB@MEJAPCCL@IO751?1PNM?5Setup1?$AA@ 1007746c     speedgoat_test_SN2593_R2016b_capi.obj
 0002:00001480       ??_C@_02MODDMKOL@P5?$AA@   10077480     speedgoat_test_SN2593_R2016b_capi.obj
 0002:00001484       ??_C@_02OFBOJJCI@P6?$AA@   10077484     speedgoat_test_SN2593_R2016b_capi.obj
 0002:00001488       ??_C@_02PMAFKIGJ@P7?$AA@   10077488     speedgoat_test_SN2593_R2016b_capi.obj
 0002:0000148c       ??_C@_0CJ@FKFANBAL@IO751?1Counter?5Free?9Running2?1Wrap@ 1007748c     speedgoat_test_SN2593_R2016b_capi.obj
 0002:000014c0       ??_C@_09HLCHFPPJ@Threshold?$AA@ 100774c0     speedgoat_test_SN2593_R2016b_capi.obj
 0002:000014cc       ??_C@_0BB@CFEOEMDC@InitialCondition?$AA@ 100774cc     speedgoat_test_SN2593_R2016b_capi.obj
 0002:000014e0       ??_C@_0CJ@ODKLAKOD@IO751?1Counter?5Free?9Running3?1Wrap@ 100774e0     speedgoat_test_SN2593_R2016b_capi.obj
 0002:00001518       ??_C@_0EA@NJNPEGJC@IO751?1Counter?5Free?9Running2?1Incr@ 10077518     speedgoat_test_SN2593_R2016b_capi.obj
 0002:00001564       ??_C@_0DC@EGENDLJH@IO751?1Counter?5Free?9Running2?1Wrap@ 10077564     speedgoat_test_SN2593_R2016b_capi.obj
 0002:000015a0       ??_C@_0EA@FEFHLLHA@IO751?1Counter?5Free?9Running3?1Incr@ 100775a0     speedgoat_test_SN2593_R2016b_capi.obj
 0002:000015ec       ??_C@_0DC@MHGIFOLA@IO751?1Counter?5Free?9Running3?1Wrap@ 100775ec     speedgoat_test_SN2593_R2016b_capi.obj
 0002:00001628       ??_C@_0O@PPAIJIHF@unsigned?5char?$AA@ 10077628     speedgoat_test_SN2593_R2016b_capi.obj
 0002:00001638       ??_C@_07NCEHLPOC@uint8_T?$AA@ 10077638     speedgoat_test_SN2593_R2016b_capi.obj
 0002:00001644       ??_C@_0N@OFHMGPAL@unsigned?5int?$AA@ 10077644     speedgoat_test_SN2593_R2016b_capi.obj
 0002:00001654       ??_C@_08CCMIKNJF@uint32_T?$AA@ 10077654     speedgoat_test_SN2593_R2016b_capi.obj
 0002:00001660       ??_C@_06BNJCAIGJ@double?$AA@ 10077660     speedgoat_test_SN2593_R2016b_capi.obj
 0002:00001668       ??_C@_06CNMIJIPB@real_T?$AA@ 10077668     speedgoat_test_SN2593_R2016b_capi.obj
 0002:00001670       ??_C@_05KNFBNCOH@float?$AA@ 10077670     speedgoat_test_SN2593_R2016b_capi.obj
 0002:00001678       _serialfifoground          10077678     xpc_datatype_ground.obj
 0002:00001684       _bcmsg1553ground           10077684     xpc_datatype_ground.obj
 0002:00001694       _bcstatground              10077694     xpc_datatype_ground.obj
 0002:000016ac       _bmmsg1553ground           100776ac     xpc_datatype_ground.obj
 0002:000016e8       ??_C@_0BI@INNPNFJN@Memory?5Allocation?5Error?$AA@ 100776e8     rtw_modelmap_utils.obj
 0002:00001708       ??_C@_1HC@IFMGIDHA@?$AAC?$AA?3?$AA?2?$AAP?$AAR?$AAO?$AAG?$AAR?$AAA?$AA?$HO?$AA1?$AA?2?$AAM?$AAA?$AAT?$AAL?$AAA?$AAB?$AA?2?$AAR?$AA2?$AA0?$AA1?$AA7?$AAa?$AA?2?$AAr?$AAt?$AAw?$AA?2?$AAc?$AA?2@ 10077708     rtw_modelmap_utils.obj
 0002:00001790       ??_C@_1CI@OEAJCJND@?$AAj?$AA?5?$AA?$DN?$AA?$DN?$AA?5?$AAe?$AAn?$AAc?$AAo?$AAd?$AAe?$AAd?$AAP?$AAa?$AAt?$AAh?$AAL?$AAe?$AAn?$AA?$AA@ 10077790     rtw_modelmap_utils.obj
 0002:000017c0       ??_C@_1DC@NFAOIFKB@?$AAe?$AAn?$AAc?$AAo?$AAd?$AAe?$AAd?$AAP?$AAa?$AAt?$AAh?$AA?$FL?$AAj?$AA?9?$AA1?$AA?$FN?$AA?5?$AA?$DN?$AA?$DN?$AA?5?$AA?8?$AA?2?$AA0?$AA?8?$AA?$AA@ 100777c0     rtw_modelmap_utils.obj
 0002:000017fc       ??_C@_1DI@FLNJGPEE@?$AAs?$AAi?$AAg?$AAC?$AAo?$AAm?$AAp?$AAl?$AAe?$AAx?$AAi?$AAt?$AAy?$AA?$FL?$AA?$CK?$AAs?$AAi?$AAg?$AAI?$AAd?$AAx?$AA?$FN?$AA?5?$AA?$CB?$AA?$DN?$AA?5?$AA1?$AA?$AA@ 100777fc     rtw_modelmap_utils.obj
 0002:00001840       ??_C@_1KI@OFELMGBG@?$AA?$CI?$AA?$CI?$AA?$CI?$AAd?$AAa?$AAt?$AAa?$AAT?$AAy?$AAp?$AAe?$AAM?$AAa?$AAp?$AA?$CJ?$AA?$FL?$AA?$CI?$AA?$CI?$AA?$CI?$AAs?$AAt?$AAa?$AAt?$AAe?$AAs?$AA?$CJ?$AA?$FL?$AA?$CI?$AAi?$AA?$CJ?$AA?$FN?$AA?4@ 10077840     rtw_modelmap_utils.obj
 0002:0000190c       ??_C@_1DA@ILCMPHNE@?$AAf?$AAu?$AAl?$AAl?$AAP?$AAa?$AAt?$AAh?$AA?5?$AA?$CB?$AA?$DN?$AA?5?$AA?$CI?$AA?$CI?$AAv?$AAo?$AAi?$AAd?$AA?5?$AA?$CK?$AA?$CJ?$AA0?$AA?$CJ?$AA?$AA@ 1007790c     rtw_modelmap_utils.obj
 0002:00001948       ??_C@_1CI@OEPPFCCA@?$AAp?$AAa?$AAt?$AAh?$AA?5?$AA?$CB?$AA?$DN?$AA?5?$AA?$CI?$AA?$CI?$AAv?$AAo?$AAi?$AAd?$AA?5?$AA?$CK?$AA?$CJ?$AA0?$AA?$CJ?$AA?$AA@ 10077948     rtw_modelmap_utils.obj
 0002:00001978       ??_C@_1FK@GLJIMFHB@?$AA?$CI?$AA?$CI?$AAm?$AAm?$AAi?$AA?$CJ?$AA?9?$AA?$DO?$AAI?$AAn?$AAs?$AAt?$AAa?$AAn?$AAc?$AAe?$AAM?$AAa?$AAp?$AA?4?$AAf?$AAu?$AAl?$AAl?$AAP?$AAa?$AAt?$AAh?$AA?$CJ?$AA?5?$AA?$DN?$AA?$DN@ 10077978     rtw_modelmap_utils.obj
 0002:000019e4       ??_C@_1DG@HPCJGNCE@?$AAm?$AAm?$AAi?$AAP?$AAa?$AAt?$AAh?$AA?$FL?$AAp?$AAa?$AAt?$AAh?$AAL?$AAe?$AAn?$AA?9?$AA1?$AA?$FN?$AA?5?$AA?$DN?$AA?$DN?$AA?5?$AA?8?$AA?2?$AA0?$AA?8?$AA?$AA@ 100779e4     rtw_modelmap_utils.obj
 0002:00001a24       ??_C@_1DM@DBAOGGOO@?$AAm?$AAm?$AAi?$AAP?$AAa?$AAt?$AAh?$AA?$FL?$AAm?$AAm?$AAi?$AAP?$AAa?$AAt?$AAh?$AAL?$AAe?$AAn?$AA?9?$AA1?$AA?$FN?$AA?5?$AA?$DN?$AA?$DN?$AA?5?$AA?8?$AA?2?$AA0?$AA?8?$AA?$AA@ 10077a24     rtw_modelmap_utils.obj
 0002:00001a6c       ??_C@_1DC@LHIAKAFE@?$AAb?$AAl?$AAo?$AAc?$AAk?$AAP?$AAa?$AAt?$AAh?$AA?5?$AA?$CB?$AA?$DN?$AA?5?$AA?$CI?$AA?$CI?$AAv?$AAo?$AAi?$AAd?$AA?5?$AA?$CK?$AA?$CJ?$AA0?$AA?$CJ?$AA?$AA@ 10077a6c     rtw_modelmap_utils.obj
 0002:00001aa8       ??_C@_1GI@KIEJKPGC@?$AAf?$AAu?$AAl?$AAl?$AAS?$AAt?$AAa?$AAt?$AAe?$AAB?$AAl?$AAo?$AAc?$AAk?$AAP?$AAa?$AAt?$AAh?$AA?$FL?$AAf?$AAu?$AAl?$AAl?$AAS?$AAt?$AAa?$AAt?$AAe?$AAB?$AAl?$AAo?$AAc@ 10077aa8     rtw_modelmap_utils.obj
 0002:00001b28       ??_C@_1EE@DNPIBJHC@?$AA?$CI?$AA?$CI?$AAd?$AAi?$AAm?$AAM?$AAa?$AAp?$AA?$CJ?$AA?$FL?$AA?$CI?$AAm?$AAa?$AAp?$AAI?$AAd?$AAx?$AA?$CJ?$AA?$FN?$AA?4?$AAn?$AAu?$AAm?$AAD?$AAi?$AAm?$AAs?$AA?$CJ?$AA?5?$AA?$DN?$AA?$DN?$AA?5@ 10077b28     rtw_modelmap_utils.obj
 0002:00001b7c       ??_C@_06JFOKFOED@CSTATE?$AA@ 10077b7c     rtw_modelmap_utils.obj
 0002:00001b84       ??_C@_06FAENGAMN@DSTATE?$AA@ 10077b84     rtw_modelmap_utils.obj
 0002:00001b8c       ??_C@_1BI@LEBJNOGG@?$AAc?$AAs?$AAv?$AAI?$AAd?$AAx?$AA?5?$AA?$DO?$AA?$DN?$AA?5?$AA0?$AA?$AA@ 10077b8c     rtw_modelmap_utils.obj
 0002:00001ba8       ??_C@_1BA@KDMGHCHP@?$AAT?$AAI?$AAD?$AA?$DN?$AA?$DN?$AA?9?$AA1?$AA?$AA@ 10077ba8     rtw_modelmap_utils.obj
 0002:00001bbc       ??_C@_1DM@DHGKBPCE@?$AAs?$AAi?$AAg?$AAP?$AAa?$AAt?$AAh?$AA?$FL?$AAs?$AAi?$AAg?$AAP?$AAa?$AAt?$AAh?$AAL?$AAe?$AAn?$AA?9?$AA1?$AA?$FN?$AA?5?$AA?$DN?$AA?$DN?$AA?5?$AA?8?$AA?2?$AA0?$AA?8?$AA?$AA@ 10077bbc     rtw_modelmap_utils.obj
 0002:00002468       ??_C@_0DJ@FHKINPLE@Unexpected?5itemKind?5?$DN?5DATA_ITEM?5@ 10078468     rt_logging.obj
 0002:000024ac       ??_C@_0DA@IEHFPFCJ@Unexpected?5itemKind?$DN?$CFd?5in?5rt_Pro@ 100784ac     rt_logging.obj
 0002:000024e8       ??_C@_0DA@IFLHJPBO@Unexpected?5itemKind?$DN?$CFd?5in?5rt_Pro@ 100784e8     rt_logging.obj
 0002:00002524       ??_C@_0DA@IAPIIJJL@Unexpected?5itemKind?$DN?$CFd?5in?5rt_Pro@ 10078524     rt_logging.obj
 0002:00002560       ??_C@_0BE@LCIGPJIG@MATLAB?55?40?5MAT?9file?$AA@ 10078560     rt_logging.obj
 0002:00002578       ??_C@_0FB@PCJEAJIB@?$CK?$CK?$CK?5Log?5variable?5?$CFs?5has?5wrapped?5@ 10078578     rt_logging.obj
 0002:000025e0       ??_C@_0MG@NKMLMOGF@?$CK?$CK?$CK?5To?5avoid?5wrapping?0?5explicitl@ 100785e0     rt_logging.obj
 0002:000026d0       ??_C@_0N@IPAEOLLP@_rtw_tmw?4tmw?$AA@ 100786d0     rt_logging.obj
 0002:000026e0       ??_C@_04HDOCAJNK@?$CFs?$CFs?$AA@ 100786e0     rt_logging.obj
 0002:000026e8       ??_C@_03ELIABIOC@w?$CLb?$AA@ 100786e8     rt_logging.obj
 0002:000026ec       ??_C@_0BF@JPILDDFA@?$CK?$CK?$CK?5Error?5opening?5?$CFs?$AA@ 100786ec     rt_logging.obj
 0002:00002708       ??_C@_0BK@EEMDELA@unable?5to?5open?5data?5file?6?$AA@ 10078708     rt_logging.obj
 0002:00002728       ??_C@_04CGFJFPFD@none?$AA@ 10078728     rt_logging.obj
 0002:00002730       ??_C@_0EE@LCGFPNON@?$CK?$CK?$CK?5Error?5creating?5signals?5struc@ 10078730     rt_logging.obj
 0002:00002784       ??_C@_0CE@NHECEDMK@?$CK?$CK?$CK?5Error?5creating?5log?5variable?5@ 10078784     rt_logging.obj
 0002:000027b0       ??_C@_0DB@IOCGKAGH@?$CK?$CK?$CK?5Errors?5occurred?5when?5startin@ 100787b0     rt_logging.obj
 0002:000027ec       ??_C@_0BO@BBLOGEBK@?$CK?$CK?$CK?5Memory?5allocation?5error?4?6?$AA@ 100787ec     rt_logging.obj
 0002:00002810       ??_C@_0N@LGFBAGEL@?5?$CIreal?5part?$CJ?$AA@ 10078810     rt_logging.obj
 0002:00002820       ??_C@_0KH@CGNMHNFE@?5?5?5?5varName?5?5?5?5?5?5?5?5?5?5?$DN?5?$CFs?$CFs?6?5?5?5?5@ 10078820     rt_logging.obj
 0002:000028e8       ??_C@_0LE@OALKKEFM@?5?5?5?5varName?5?5?5?5?5?5?5?5?5?5?$DN?5?$CFs?5?$CIcompl@ 100788e8     rt_logging.obj
 0002:000029c0       ??_C@_0KF@JDDLEOKO@?5?5?5?5varName?5?5?5?5?5?5?5?5?5?5?$DN?5?$CFs?6?5?5?5?5nR@ 100789c0     rt_logging.obj
 0002:00002a88       ??_C@_0DP@HPDMIOFM@?$CK?$CK?$CK?5Using?5a?5default?5buffer?5of?5si@ 10078a88     rt_logging.obj
 0002:00002ad8       ??_C@_0KE@JEFOLKNF@?6?$CK?$CK?$CK?5Memory?5required?5to?5log?5vari@ 10078ad8     rt_logging.obj
 0002:00002ba0       ??_C@_0JP@DKLMHCBI@?$CK?$CK?$CK?5Details?3?6?5?5?5?5?5?5?5varName?5?5?5?5?5@ 10078ba0     rt_logging.obj
 0002:00002c60       ??_C@_0CM@CAMILBED@?$CK?$CK?$CK?5Error?5allocating?5memory?5for?5@ 10078c60     rt_logging.obj
 0002:00002c94       ??_C@_0DF@BBCNMOPM@?$CK?$CK?$CK?5Error?5allocating?5memory?5for?5@ 10078c94     rt_logging.obj
 0002:00002cd8       ??_C@_0JP@DBCLPCCI@?$CK?$CK?$CK?5Details?3?6?5?5?5?5?5?5?5varName?5?5?5?5?5@ 10078cd8     rt_logging.obj
 0002:00002d98       ??_C@_0FK@DPGAOBGA@?$CK?$CK?$CK?5Error?5allocating?5memory?5for?5@ 10078d98     rt_logging.obj
 0002:00002e04       ??_C@_0BI@GGDNPHLJ@?$CK?$CK?$CK?5Error?5writing?5to?5?$CFs?$AA@ 10078e04     rt_logging.obj
 0002:00002e20       ??_C@_0CB@IBGJGELG@?$CK?$CK?$CK?5Error?5writing?5?$CFs?5due?5to?3?5?$CFs?6@ 10078e20     rt_logging.obj
 0002:00002e48       ??_C@_0CN@FLMCHCPB@?$CK?$CK?$CK?5Error?5writing?5log?5variable?5?$CF@ 10078e48     rt_logging.obj
 0002:00002e80       ??_C@_0DH@GAJCNOJP@?$CK?$CK?$CK?5Error?5writing?5structure?5log?5@ 10078e80     rt_logging.obj
 0002:00002ec4       ??_C@_0BD@POEALECL@?$CK?$CK?5created?5?$CFs?5?$CK?$CK?6?6?$AA@ 10078ec4     rt_logging.obj
 0002:00002ee0       __real@0000000000000000    10078ee0     rt_logging.obj
 0002:00002ef0       __real@4020000000000000    10078ef0     rt_logging.obj
 0002:00002f00       __real@41dfffffffc00000    10078f00     rt_logging.obj
 0002:00002f10       __real@41efffffffe00000    10078f10     rt_logging.obj
 0002:00002f20       __real@4330000000000000    10078f20     rt_logging.obj
 0002:00002f30       __real@8000000000000000    10078f30     rt_logging.obj
 0002:00002f40       __real@bfbf9add3afd2773    10078f40     rt_logging.obj
 0002:00002f50       __real@c000000000000000    10078f50     rt_logging.obj
 0002:00002f60       __xmm@20202020202020202020202020202020 10078f60     rt_logging.obj
 0002:00002f74       ??_C@_0BN@KLKFDKFN@speedgoat_test_SN2593_R2016b?$AA@ 10078f74     xpctarget.obj
 0002:00002f98       _ptsetfilename             10078f98     xpctarget.obj
 0002:00002f9c       _xmlfile                   10078f9c     xpctarget.obj
 0002:00002fa4       ??_C@_0L@CHBJKKFC@xpceSetVar?$AA@ 10078fa4     xpctarget.obj
 0002:00002fb4       ??_C@_03LADEHNAB@6?46?$AA@ 10078fb4     xpctarget.obj
 0002:00002fb8       __real@3fb999999999999a    10078fb8     xpctarget.obj
 0002:00002fc8       __real@4059000000000000    10078fc8     xpctarget.obj
 0002:00002fd8       _speedgoat_test_SN2593_R2016b_BIOMAP 10078fd8     appmappingData.obj
 0002:00003050       _speedgoat_test_SN2593_R2016b_LBLMAP 10079050     appmappingData.obj
 0002:000030c8       _speedgoat_test_SN2593_R2016b_SIDMAP 100790c8     appmappingData.obj
 0002:00003140       _speedgoat_test_SN2593_R2016b_SBIO 10079140     appmappingData.obj
 0002:00003168       _speedgoat_test_SN2593_R2016b_SLBL 10079168     appmappingData.obj
 0002:00003190       _speedgoat_test_SN2593_R2016b_PTIDSMAP 10079190     appmappingData.obj
 0002:00003260       _speedgoat_test_SN2593_R2016b_PTNAMESMAP 10079260     appmappingData.obj
 0002:00003330       _speedgoat_test_SN2593_R2016b_SPTMAP 10079330     appmappingData.obj
 0002:00003398       _speedgoat_test_SN2593_R2016b_dtmap 10079398     appmappingData.obj
 0002:000033c0       _appInfo                   100793c0     appmappingData.obj
 0002:000034e4       ??_C@_0DI@LHHNDFGF@Check?5list?5of?5parameters?0?5?$CFi?5par@ 100794e4     sg_IO751_receive_s.obj
 0002:00003528       ??_C@_0CE@BHCCCALC@IO751?5ID?$CFd?3?5communication?5runnin@ 10079528     sg_IO751_receive_s.obj
 0002:00003554       ??_C@_0CB@JBFONDJD@IO751?5ID?$CFd?3?5communication?5lost?$CB?6@ 10079554     sg_IO751_receive_s.obj
 0002:0000357c       ??_C@_05DFMICKLB@IO751?$AA@ 1007957c     sg_IO751_setup_s.obj
 0002:00003584       ??_C@_0CN@MCENDJMH@?6Speedgoat?5?$CFs?3?5PROFINET?5Controll@ 10079584     sg_IO751_setup_s.obj
 0002:000035bc       ??_C@_0BL@DCNLACGP@Module?5ID?$CFi?5?$CIauto?5search?$CJ?6?$AA@ 100795bc     sg_IO751_setup_s.obj
 0002:000035dc       ??_C@_0CE@NKBDNMIG@Module?5ID?$CFi?5on?5PCI?5bus?5?$CFi?0?5slot?5@ 100795dc     sg_IO751_setup_s.obj
 0002:00003608       ??_C@_0CD@BGNFKHBL@Cannot?5find?5I?1O?5module?5on?5PCI?5bu@ 10079608     sg_IO751_setup_s.obj
 0002:00003634       ??_C@_0M@DFMKMEPI@NETX100?4bin?$AA@ 10079634     sg_IO751_setup_s.obj
 0002:00003644       ??_C@_0BB@BPHDJGIK@Firmware?2NetX?2BL?$AA@ 10079644     sg_IO751_setup_s.obj
 0002:00003658       ??_C@_0M@GIADGEBP@cifxpnm?4nxf?$AA@ 10079658     sg_IO751_setup_s.obj
 0002:00003668       ??_C@_0O@JEPDOOHB@Firmware?2NetX?$AA@ 10079668     sg_IO751_setup_s.obj
 0002:00003678       ??_C@_0L@HNIPDPDD@CONFIG?4NXD?$AA@ 10079678     sg_IO751_setup_s.obj
 0002:00003688       ??_C@_08OGJPPKKJ@NWID?4NXD?$AA@ 10079688     sg_IO751_setup_s.obj
 0002:00003694       ??_C@_02FEEPBPGD@A?3?$AA@  10079694     sg_IO751_setup_s.obj
 0002:00003698       ??_C@_02FGAJKBDK@B?3?$AA@  10079698     sg_IO751_setup_s.obj
 0002:0000369c       ??_C@_02FHMLMLAN@C?3?$AA@  1007969c     sg_IO751_setup_s.obj
 0002:000036a0       ??_C@_02FCIENNII@D?3?$AA@  100796a0     sg_IO751_setup_s.obj
 0002:000036a4       ??_C@_02FDEGLHLP@E?3?$AA@  100796a4     sg_IO751_setup_s.obj
 0002:000036a8       ??_C@_02FBAAAJOG@F?3?$AA@  100796a8     sg_IO751_setup_s.obj
 0002:000036ac       ??_C@_01EEMJAFIK@?6?$AA@   100796ac     sg_IO751_setup_s.obj
 0002:000036b0       ??_C@_0IN@JJGOFHPH@Check?5?8Target?5machine?5drive?5lett@ 100796b0     sg_IO751_setup_s.obj
 0002:00003760       ??_C@_0EM@BKGBLHGG@Warmstart?5parameters?5for?5PROFINE@ 10079760     sg_IO751_setup_s.obj
 0002:000037bc       ??_C@_0O@NKDIMCMM@FIRMWARE?2NETX?$AA@ 100797bc     sg_netxLib_MSVC140_vc:sg_cifx_ext_fcn.obj
 0002:000037cc       ??_C@_09CGAELICL@Speedgoat?$AA@ 100797cc     sg_netxLib_MSVC140_vc:sg_cifx_ext_fcn.obj
 0002:000037d8       ??_C@_0GC@IAONANHL@?$CFs?5?$CFs?0?5Module?5?$CFi?3?5Directory?5for?5@ 100797d8     sg_netxLib_MSVC140_vc:sg_cifx_ext_fcn.obj
 0002:00003850       ??_C@_0BB@OHHCILBB@FIRMWARE?2NETX?2BL?$AA@ 10079850     sg_netxLib_MSVC140_vc:sg_cifx_ext_fcn.obj
 0002:00003868       ??_C@_0GC@JJJJMPLG@?$CFs?5?$CFs?0?5Module?5?$CFi?3?5Directory?5for?5@ 10079868     sg_netxLib_MSVC140_vc:sg_cifx_ext_fcn.obj
 0002:000038e0       ??_C@_08EFGGCJLD@?$CFs?2?$CFs?2?$CFs?$AA@ 100798e0     sg_netxLib_MSVC140_vc:sg_cifx_ext_fcn.obj
 0002:000038f0       ??_C@_0FI@PBDKFJJB@?$CFs?5?$CFs?0?5Module?5?$CFi?3?5BL?5file?5?8?$CFs?8?6i@ 100798f0     sg_netxLib_MSVC140_vc:sg_cifx_ext_fcn.obj
 0002:00003960       ??_C@_0FI@MIAODJFG@?$CFs?5?$CFs?0?5Module?5?$CFi?3?5FW?5file?5?8?$CFs?8?6i@ 10079960     sg_netxLib_MSVC140_vc:sg_cifx_ext_fcn.obj
 0002:000039cc       ??_C@_0N@KBBHKJLC@IO75X?2CARD?$CFi?$AA@ 100799cc     sg_netxLib_MSVC140_vc:sg_cifx_ext_fcn.obj
 0002:000039dc       ??_C@_0L@HNBBMHBE@IO75X?2CARD?$AA@ 100799dc     sg_netxLib_MSVC140_vc:sg_cifx_ext_fcn.obj
 0002:000039ec       ??_C@_0L@POLBNIGG@?$CFs?2?$CFs?$CFi?2?$CFs?$AA@ 100799ec     sg_netxLib_MSVC140_vc:sg_cifx_ext_fcn.obj
 0002:00003a00       ??_C@_0FM@MICOHPGK@?$CFs?5?$CFs?0?5Module?5?$CFi?5directory?5is?5no@ 10079a00     sg_netxLib_MSVC140_vc:sg_cifx_ext_fcn.obj
 0002:00003a70       ??_C@_0GB@HFHLMBEB@?$CFs?5?$CFs?0?5Module?5?$CFi?3?5Config?9File?51?5@ 10079a70     sg_netxLib_MSVC140_vc:sg_cifx_ext_fcn.obj
 0002:00003ae8       ??_C@_0GB@DJMIOLOI@?$CFs?5?$CFs?0?5Module?5?$CFi?3?5Config?9File?52?5@ 10079ae8     sg_netxLib_MSVC140_vc:sg_cifx_ext_fcn.obj
 0002:00003b5c       ??_C@_02IKAHHCAI@?$CFi?$AA@ 10079b5c     sg_netxLib_MSVC140_vc:sg_cifx_ext_fcn.obj
 0002:00003b60       ??_C@_0GD@BGILEACP@?$CFs?5?$CFs?0?5Module?5?$CFi?3?5initialization@ 10079b60     sg_netxLib_MSVC140_vc:sg_cifx_ext_fcn.obj
 0002:00003bd8       ??_C@_0BD@CKCEPDLI@Starting?5device?4?4?4?$AA@ 10079bd8     sg_netxLib_MSVC140_vc:sg_cifx_ext_fcn.obj
 0002:00003bf0       ??_C@_0EN@ENBCPPGK@?$CFs?5?$CFs?0?5Module?5?$CFi?3?5is?5not?5running@ 10079bf0     sg_netxLib_MSVC140_vc:sg_cifx_ext_fcn.obj
 0002:00003c4c       ??_C@_01LFCBOECM@?4?$AA@   10079c4c     sg_netxLib_MSVC140_vc:sg_cifx_ext_fcn.obj
 0002:00003c50       ??_C@_0BE@MKFAPIGP@Device?5is?5running?4?6?$AA@ 10079c50     sg_netxLib_MSVC140_vc:sg_cifx_ext_fcn.obj
 0002:00003c68       ??_C@_0FC@BEGPIDGI@?$CFs?5?$CFs?0?5Module?5?$CFi?3?5initialization@ 10079c68     sg_netxLib_MSVC140_vc:sg_cifx_ext_fcn.obj
 0002:00003ccc       ??_C@_0BC@BPJMDMEO@Device?5is?5ready?4?6?$AA@ 10079ccc     sg_netxLib_MSVC140_vc:sg_cifx_ext_fcn.obj
 0002:00003ce4       ??_C@_0BD@GFHBNNOP@Interrupt?5enabled?6?$AA@ 10079ce4     sg_netxLib_MSVC140_vc:sg_cifx_ext_fcn.obj
 0002:00003cfc       ??_C@_0BE@IDAFMOMM@Interrupt?5disabled?6?$AA@ 10079cfc     sg_netxLib_MSVC140_vc:sg_cifx_ext_fcn.obj
 0002:00003d18       ??_C@_0ED@CFFDDMGP@?6ERROR?5?9?5Cannot?5activate?5the?5fun@ 10079d18     sg_netxLib_MSVC140_vc:AcyclicCommunication.obj
 0002:00003d68       ??_C@_0GB@GAFIJGGE@?6ERROR?5?9?5Cannot?5activate?5the?5fun@ 10079d68     sg_netxLib_MSVC140_vc:AcyclicCommunication.obj
 0002:00003de0       ??_C@_0GO@KKFKACJ@?6ERROR?5?9?5Cannot?5activate?5service@ 10079de0     sg_netxLib_MSVC140_vc:AcyclicCommunication.obj
 0002:00003e68       ??_C@_0GD@GKJCFCLG@?6ERROR?5?9?5Deactivation?5of?5functio@ 10079e68     sg_netxLib_MSVC140_vc:AcyclicCommunication.obj
 0002:00003ee0       ??_C@_0FP@HMIJCLJO@?6ERROR?5?9?5Cannot?5deactivate?5funct@ 10079ee0     sg_netxLib_MSVC140_vc:AcyclicCommunication.obj
 0002:00003f58       ??_C@_0IG@KGAOFGDF@?6ERROR?5?9?5Cannot?5send?5acyclic?5pac@ 10079f58     sg_netxLib_MSVC140_vc:AcyclicCommunication.obj
 0002:00003ff8       ??_C@_02JDPG@rb?$AA@       10079ff8     sg_netxLib_MSVC140_vc:OS_Custom.obj
 0002:00003ffc       ??_C@_0CH@CPCLLNID@Speedgoat?5IO75x?5does?5not?5support@ 10079ffc     sg_netxLib_MSVC140_vc:OS_Custom.obj
 0002:00004030       __real@3f4b77862f95ab09    1007a030     sg_netxLib_MSVC140_vc:OS_Custom.obj
 0002:00004040       ??_C@_0EJ@POKBPFAB@cifXTKitISRHandler?$CI?$CJ?5?3?5We?5receiv@ 1007a040     sg_netxLib_MSVC140_vc:cifXInterrupt.obj
 0002:00004098       ??_C@_0EM@OPEKJNIP@DEV_CheckCOSFlags?$CI?$CJ?3?5Skipping?5CO@ 1007a098     sg_netxLib_MSVC140_vc:cifXHWFunctions.obj
 0002:000040f8       ??_C@_0EM@KGNLFDFO@DEV_CheckCOSFlags?$CI?$CJ?3?5Skipping?5Ch@ 1007a0f8     sg_netxLib_MSVC140_vc:cifXHWFunctions.obj
 0002:00004158       ??_C@_0FA@FAGMEFEE@DEV_DoChannelInit?$CI?$CJ?3?5Error?5getti@ 1007a158     sg_netxLib_MSVC140_vc:cifXHWFunctions.obj
 0002:000041b8       ??_C@_0GB@NBFDEJKF@DEV_DoChannelInit?$CI?$CJ?3?5Firmware?5re@ 1007a1b8     sg_netxLib_MSVC140_vc:cifXHWFunctions.obj
 0002:00004230       ??_C@_0EH@FDJLHJCP@DEV_DoChannelInit?$CI?$CJ?3?5Error?5waiti@ 1007a230     sg_netxLib_MSVC140_vc:cifXHWFunctions.obj
 0002:00004288       ??_C@_0EH@CMPDDBJM@DEV_DoChannelInit?$CI?$CJ?3?5Channel?5did@ 1007a288     sg_netxLib_MSVC140_vc:cifXHWFunctions.obj
 0002:000042e0       ??_C@_0DF@EDOCNLHO@DEV_DoSystemStart?$CI?$CJ?3?5Error?5locki@ 1007a2e0     sg_netxLib_MSVC140_vc:cifXHWFunctions.obj
 0002:00004320       ??_C@_0EE@IENEKCCM@DEV_DoSystemStart?$CI?$CJ?3?5Error?5waiti@ 1007a320     sg_netxLib_MSVC140_vc:cifXHWFunctions.obj
 0002:00004374       ??_C@_0DP@EONPLJMP@DEV_DoSystemStart?$CI?$CJ?3?5Error?5waiti@ 1007a374     sg_netxLib_MSVC140_vc:cifXHWFunctions.obj
 0002:000043c0       ??_C@_0DJ@NNHPDIBA@DEV_DoSystemBootstart?$CI?$CJ?3?5Error?5l@ 1007a3c0     sg_netxLib_MSVC140_vc:cifXHWFunctions.obj
 0002:00004408       ??_C@_0EI@IOPJAIBL@DEV_DoSystemBootstart?$CI?$CJ?3?5Error?5w@ 1007a408     sg_netxLib_MSVC140_vc:cifXHWFunctions.obj
 0002:00004460       ??_C@_0ED@IJDIJMGD@DEV_DoSystemBootstart?$CI?$CJ?3?5Error?5w@ 1007a460     sg_netxLib_MSVC140_vc:cifXHWFunctions.obj
 0002:000044b0       ??_C@_04HNIIBJAN@BOOT?$AA@ 1007a4b0     sg_netxLib_MSVC140_vc:cifXHWFunctions.obj
 0002:000044b8       ??_C@_0DM@INDLAHHA@DEV_DoSystemBootstart?$CI?$CJ?3?5Error?5s@ 1007a4b8     sg_netxLib_MSVC140_vc:cifXHWFunctions.obj
 0002:00004548       ??_C@_0DA@NHPFHOGM@DPM?5Content?5invalid?5after?5Reset?5@ 1007a548     sg_netxLib_MSVC140_vc:cifXInit.obj
 0002:00004584       ??_C@_04PPHFJACA@NXBL?$AA@ 1007a584     sg_netxLib_MSVC140_vc:cifXInit.obj
 0002:0000458c       ??_C@_0CK@OCJIKJKE@Downloading?5of?5bootloader?5to?5DPM@ 1007a58c     sg_netxLib_MSVC140_vc:cifXInit.obj
 0002:000045c0       ??_C@_0DA@FILKNJBH@Found?5netX50?5ROMloader?0?5DPM?5layo@ 1007a5c0     sg_netxLib_MSVC140_vc:cifXInit.obj
 0002:00004600       ??_C@_0FA@DJLHPELN@Invalid?5Bootloader?5file?4?5File?5mu@ 1007a600     sg_netxLib_MSVC140_vc:cifXInit.obj
 0002:00004660       ??_C@_0ED@HNACDDDA@Error?5transfering?5bootheader?5to?5@ 1007a660     sg_netxLib_MSVC140_vc:cifXInit.obj
 0002:000046b0       ??_C@_0DE@HGCNODKE@netX50?5ROMloader?5rejected?5bootbl@ 1007a6b0     sg_netxLib_MSVC140_vc:cifXInit.obj
 0002:000046f0       ??_C@_0EK@LJAJCBC@Error?5transferring?5data?5packet?5f@ 1007a6f0     sg_netxLib_MSVC140_vc:cifXInit.obj
 0002:00004748       ??_C@_0EA@FKCDBMNF@Error?5getting?5final?5packet?5from?5@ 1007a748     sg_netxLib_MSVC140_vc:cifXInit.obj
 0002:00004794       ??_C@_0CO@EBFKEEAG@netX50?5ROM?5Loader?5download?5error@ 1007a794     sg_netxLib_MSVC140_vc:cifXInit.obj
 0002:000047cc       ??_C@_0CF@DCADHAJP@Error?5opening?5bootloader?5file?5?8?$CF@ 1007a7cc     sg_netxLib_MSVC140_vc:cifXInit.obj
 0002:000047f8       ??_C@_0BM@PNIHJGGL@Downloading?5bootloder?5?8?$CFs?8?6?$AA@ 1007a7f8     sg_netxLib_MSVC140_vc:cifXInit.obj
 0002:0000481c       ??_C@_0BN@DOHCOCFE@Error?5creating?5file?5buffer?$CB?6?$AA@ 1007a81c     sg_netxLib_MSVC140_vc:cifXInit.obj
 0002:00004840       ??_C@_0CF@HKJPNDLL@Error?5reading?5bootloader?5file?5?8?$CF@ 1007a840     sg_netxLib_MSVC140_vc:cifXInit.obj
 0002:00004870       ??_C@_0EA@BBDGHBBE@Calling?5supplied?5function?5?$CI0x?$CF08@ 1007a870     sg_netxLib_MSVC140_vc:cifXInit.obj
 0002:000048bc       ??_C@_0DP@PKBGLFAO@Calling?5supplied?5function?5?$CI0x?$CF08@ 1007a8bc     sg_netxLib_MSVC140_vc:cifXInit.obj
 0002:00004908       ??_C@_0DF@NKBBMKLD@Bootloader?5was?5downloaded?5and?5st@ 1007a908     sg_netxLib_MSVC140_vc:cifXInit.obj
 0002:00004948       ??_C@_0DN@JOHOBAJA@DPM?5not?5accessible?5after?5startin@ 1007a948     sg_netxLib_MSVC140_vc:cifXInit.obj
 0002:00004998       ??_C@_0FG@DHKEHDE@RAM?5based?5device?5needs?5a?5DPM?5?$DO?$DN?5@ 1007a998     sg_netxLib_MSVC140_vc:cifXInit.obj
 0002:00004a00       ??_C@_0DD@PMCEIEID@New?5RAM?5based?5device?5found?0?5devi@ 1007aa00     sg_netxLib_MSVC140_vc:cifXInit.obj
 0002:00004a40       ??_C@_0EJ@DNGIFKDP@Calling?5supplied?5function?5?$CI0x?$CF08@ 1007aa40     sg_netxLib_MSVC140_vc:cifXInit.obj
 0002:00004a98       ??_C@_0GE@NNOPIHP@Hardware?5reset?5failed?0?5check?5if?5@ 1007aa98     sg_netxLib_MSVC140_vc:cifXInit.obj
 0002:00004b10       ??_C@_0DO@KPHFBFKO@Calling?5supplied?5function?5?$CI0x?$CF08@ 1007ab10     sg_netxLib_MSVC140_vc:cifXInit.obj
 0002:00004b5c       ??_C@_0DA@HEMHJKCM@Bootloader?5could?5not?5be?5started?$CB@ 1007ab5c     sg_netxLib_MSVC140_vc:cifXInit.obj
 0002:00004b98       ??_C@_0DK@GFPPKJIJ@O?1S?5file?5?$CI?$CFs?$CJ?5found?4?5Download?5an@ 1007ab98     sg_netxLib_MSVC140_vc:cifXInit.obj
 0002:00004be0       ??_C@_0BN@HNDKDDPJ@Error?5opening?5OS?5file?5?8?$CFs?8?$CB?6?$AA@ 1007abe0     sg_netxLib_MSVC140_vc:cifXInit.obj
 0002:00004c04       ??_C@_0CH@LBOHKMNN@Error?5reading?5OS?5file?5from?5disk?5@ 1007ac04     sg_netxLib_MSVC140_vc:cifXInit.obj
 0002:00004c34       ??_C@_0DN@FABOIBPL@Error?5downloading?5OS?5file?5to?5dev@ 1007ac34     sg_netxLib_MSVC140_vc:cifXInit.obj
 0002:00004c80       ??_C@_0CK@IGOHMPMG@OS?5file?5was?5downloaded?5successfu@ 1007ac80     sg_netxLib_MSVC140_vc:cifXInit.obj
 0002:00004cb4       ??_C@_0DN@NLLJFEIL@Error?5sending?5Start?5request?5to?5s@ 1007acb4     sg_netxLib_MSVC140_vc:cifXInit.obj
 0002:00004d00       ??_C@_0EA@HJIDGPEN@Error?5waiting?5for?5firmware?5to?5le@ 1007ad00     sg_netxLib_MSVC140_vc:cifXInit.obj
 0002:00004d4c       ??_C@_0DI@GMMFKNKC@Error?5device?5does?5not?5reach?5READ@ 1007ad4c     sg_netxLib_MSVC140_vc:cifXInit.obj
 0002:00004d90       ??_C@_04DCLNNBCP@netX?$AA@ 1007ad90     sg_netxLib_MSVC140_vc:cifXInit.obj
 0002:00004d98       ??_C@_0CD@LPNEFAO@Error?5checking?5for?5download?5?8?$CFs?8@ 1007ad98     sg_netxLib_MSVC140_vc:cifXInit.obj
 0002:00004dc4       ??_C@_0DI@GKFLFHCD@Skipping?5download?5for?5file?5?8?$CFs?8?$AN@ 1007adc4     sg_netxLib_MSVC140_vc:cifXInit.obj
 0002:00004e08       ??_C@_0CL@INCBHOEF@OS?5file?5was?5downloaded?5successfu@ 1007ae08     sg_netxLib_MSVC140_vc:cifXInit.obj
 0002:00004e3c       ??_C@_0DO@KABDGPEB@Error?5during?5Flash?5based?5Base?5OS@ 1007ae3c     sg_netxLib_MSVC140_vc:cifXInit.obj
 0002:00004e88       ??_C@_0EB@MANCBAMC@Firmware?5download?0?5checking?5?1?5st@ 1007ae88     sg_netxLib_MSVC140_vc:cifXInit.obj
 0002:00004ed8       ??_C@_0EH@NDHAMGPE@Error?5querying?5Firmware?5to?5load?5@ 1007aed8     sg_netxLib_MSVC140_vc:cifXInit.obj
 0002:00004f30       ??_C@_0CD@HEACEFPI@Error?5opening?5Firmware?5file?5?8?$CFs?8@ 1007af30     sg_netxLib_MSVC140_vc:cifXInit.obj
 0002:00004f5c       ??_C@_0CN@KJEDELCA@Error?5reading?5Firmware?5file?5from@ 1007af5c     sg_netxLib_MSVC140_vc:cifXInit.obj
 0002:00004f98       ??_C@_0EG@IGLLNIC@Configuration?5download?0?5checking@ 1007af98     sg_netxLib_MSVC140_vc:cifXInit.obj
 0002:00004ff0       ??_C@_0FA@LGOFGFFB@Error?5querying?5configuration?5to?5@ 1007aff0     sg_netxLib_MSVC140_vc:cifXInit.obj
 0002:00005050       ??_C@_0CI@MHFGKPDN@Error?5opening?5configuration?5file@ 1007b050     sg_netxLib_MSVC140_vc:cifXInit.obj
 0002:00005080       ??_C@_0DC@HDKLCOBC@Error?5reading?5configuration?5file@ 1007b080     sg_netxLib_MSVC140_vc:cifXInit.obj
 0002:000050c0       ??_C@_0ED@HFAABJNG@Error?5downloading?5configuration?5@ 1007b0c0     sg_netxLib_MSVC140_vc:cifXInit.obj
 0002:00005110       ??_C@_0DL@OEHDEBOF@Successfully?5downloaded?5the?5conf@ 1007b110     sg_netxLib_MSVC140_vc:cifXInit.obj
 0002:00005158       ??_C@_0DE@BIJCOKBI@Error?5querying?5firmware?5informat@ 1007b158     sg_netxLib_MSVC140_vc:cifXInit.obj
 0002:00005198       ??_C@_0DL@MBOPBKBJ@Error?5starting?5module?5?8?$CFs?8?5on?5Ch@ 1007b198     sg_netxLib_MSVC140_vc:cifXInit.obj
 0002:000051e0       ??_C@_0DK@JEMMAFLB@Error?5sending?5Start?5request?5for?5@ 1007b1e0     sg_netxLib_MSVC140_vc:cifXInit.obj
 0002:00005228       ??_C@_0DB@JHGPDLBN@System?5error?5information?0?5?$CISyste@ 1007b228     sg_netxLib_MSVC140_vc:cifXInit.obj
 0002:00005264       ??_C@_0DB@MLFKPDPE@System?5state?5information?0?5?$CISyste@ 1007b264     sg_netxLib_MSVC140_vc:cifXInit.obj
 0002:000052a0       ??_C@_0BK@GAMFPBHG@System?5channel?5is?5READY?$CB?6?$AA@ 1007b2a0     sg_netxLib_MSVC140_vc:cifXInit.obj
 0002:000052c0       ??_C@_0CK@KDKBCMII@Error?5during?5system?5start?$CB?5?$CIlRet@ 1007b2c0     sg_netxLib_MSVC140_vc:cifXInit.obj
 0002:000052f4       ??_C@_0BE@FAECDIHK@System?5start?5done?$CB?6?$AA@ 1007b2f4     sg_netxLib_MSVC140_vc:cifXInit.obj
 0002:0000530c       ??_C@_0DF@LONKCMJK@Successfully?5performed?5channel?5i@ 1007b30c     sg_netxLib_MSVC140_vc:cifXInit.obj
 0002:0000534c       ??_C@_0DN@MDDLJCIH@Error?5performing?5channel?5init?5on@ 1007b34c     sg_netxLib_MSVC140_vc:cifXInit.obj
 0002:00005398       ??_C@_0O@BFHILBAM@Device?5Info?3?6?$AA@ 1007b398     sg_netxLib_MSVC140_vc:cifXInit.obj
 0002:000053a8       ??_C@_0BJ@MPEEIOIN@?5?9?5Device?5Number?5?3?50x?$CFx?6?$AA@ 1007b3a8     sg_netxLib_MSVC140_vc:cifXInit.obj
 0002:000053c8       ??_C@_0BJ@CJOFPOIL@?5?9?5Serial?5Number?5?3?50x?$CFx?6?$AA@ 1007b3c8     sg_netxLib_MSVC140_vc:cifXInit.obj
 0002:000053e8       ??_C@_0BH@DGHHMMKM@?5?9?5Slot?5Number?5?3?50x?$CFx?6?$AA@ 1007b3e8     sg_netxLib_MSVC140_vc:cifXInit.obj
 0002:00005408       ??_C@_0EK@OBBPJINB@Duplicate?5alias?5?8?$CFs?8?5passed?5?$CIDev@ 1007b408     sg_netxLib_MSVC140_vc:cifXInit.obj
 0002:00005460       ??_C@_0EN@MBIDHNJO@Reading?5Channel?5Info?5on?5Channel?$CD@ 1007b460     sg_netxLib_MSVC140_vc:cifXInit.obj
 0002:000054c0       ??_C@_0EL@MMOIOEPI@?9?9?9?9?9?9?9?9?9?9?9?9?9?9?9?9?9?9?9?9?9?9?9?9?9?9?9?9?9?9?9?9@ 1007b4c0     sg_netxLib_MSVC140_vc:cifXInit.obj
 0002:00005520       ??_C@_0FG@GADHIIGP@Error?5reading?5subblock?5informati@ 1007b520     sg_netxLib_MSVC140_vc:cifXInit.obj
 0002:00005588       ??_C@_0GO@PPDOAFE@Error?5reading?5subblock?5informati@ 1007b588     sg_netxLib_MSVC140_vc:cifXInit.obj
 0002:00005610       ??_C@_0EG@GDPINMHD@Undefined?1Unknown?5subblock?5type?5@ 1007b610     sg_netxLib_MSVC140_vc:cifXInit.obj
 0002:00005668       ??_C@_0EO@KDCIPLDB@I?1O?5Output?5Subblock?5found?5?6?$CIChan@ 1007b668     sg_netxLib_MSVC140_vc:cifXInit.obj
 0002:000056c8       ??_C@_0EN@CDEJFBOD@I?1O?5Input?5Subblock?5found?5?6?$CIChann@ 1007b6c8     sg_netxLib_MSVC140_vc:cifXInit.obj
 0002:00005728       ??_C@_0EB@MKDPOKHA@Invalid?5I?1O?5direction?5found?$CB?5?6?$CIC@ 1007b728     sg_netxLib_MSVC140_vc:cifXInit.obj
 0002:00005778       ??_C@_0EJ@IGPHKFME@Output?5Mailbox?5found?5?6?$CIChannel?$DN?$CF@ 1007b778     sg_netxLib_MSVC140_vc:cifXInit.obj
 0002:000057d0       ??_C@_0EI@BEOONNHJ@Input?5Mailbox?5found?5?6?$CIChannel?$DN?$CFd@ 1007b7d0     sg_netxLib_MSVC140_vc:cifXInit.obj
 0002:00005828       ??_C@_0EF@NLPJAEGJ@Invalid?5mailbox?5direction?5found?$CB@ 1007b828     sg_netxLib_MSVC140_vc:cifXInit.obj
 0002:00005880       ??_C@_0EI@NOKIPOCK@Control?5block?5found?5?6?$CIChannel?$DN?$CFd@ 1007b880     sg_netxLib_MSVC140_vc:cifXInit.obj
 0002:000058d8       ??_C@_0EO@EGFPMKCN@Common?5Status?5block?5found?5?6?$CIChan@ 1007b8d8     sg_netxLib_MSVC140_vc:cifXInit.obj
 0002:00005938       ??_C@_0EP@OJGFJBIO@Extended?5Status?5block?5found?6?$CICha@ 1007b938     sg_netxLib_MSVC140_vc:cifXInit.obj
 0002:00005998       ??_C@_0EE@JFJOMBCD@User?5block?5found?6?$CIChannel?$DN?$CFd?0?5Bl@ 1007b998     sg_netxLib_MSVC140_vc:cifXInit.obj
 0002:000059f0       ??_C@_0GB@MOKEOKFC@Invalid?5subblock?5information?5fou@ 1007b9f0     sg_netxLib_MSVC140_vc:cifXInit.obj
 0002:00005a64       ??_C@_0CN@FCCIKFGM@No?5warm?5start?5parameter?5found?5or@ 1007ba64     sg_netxLib_MSVC140_vc:cifXInit.obj
 0002:00005aa0       ??_C@_0FD@PLAFDKAI@Error?5sending?5warm?5start?5paramet@ 1007baa0     sg_netxLib_MSVC140_vc:cifXInit.obj
 0002:00005b04       ??_C@_0DJ@HKHENJOA@Successfully?5sent?5warm?5start?5par@ 1007bb04     sg_netxLib_MSVC140_vc:cifXInit.obj
 0002:00005b48       ??_C@_0DG@PKAEPDLC@Hardware?5not?5Ready?1Running?5after@ 1007bb48     sg_netxLib_MSVC140_vc:cifXInit.obj
 0002:00005b88       ??_C@_0DB@JPBALEJE@Channel?5?$CI?$CFu?$CJ?5size?5exceeds?5the?5ma@ 1007bb88     sg_netxLib_MSVC140_vc:cifXInit.obj
 0002:00005bc8       ??_C@_0EA@HNDLFKLC@Channel?5?$CI?$CFu?$CJ?5does?5not?5meet?5minim@ 1007bbc8     sg_netxLib_MSVC140_vc:cifXInit.obj
 0002:00005c14       ??_C@_0CJ@DPOHBJPM@Error?5channel?5not?5READY?0?5channel@ 1007bc14     sg_netxLib_MSVC140_vc:cifXInit.obj
 0002:00005c48       ??_C@_0ED@EKKMANBA@Error?5querying?5firmware?5informat@ 1007bc48     sg_netxLib_MSVC140_vc:cifXInit.obj
 0002:00005c98       ??_C@_0CP@FFFGOOCN@Device?5successfully?5created?5for?5@ 1007bc98     sg_netxLib_MSVC140_vc:cifXInit.obj
 0002:00005cd0       ??_C@_0DD@OHCIMKMP@NO?5CHANNEL?5INFORMATION?5FOUND?0?5No@ 1007bcd0     sg_netxLib_MSVC140_vc:cifXInit.obj
 0002:00005d10       ??_C@_0FB@NGGNHFJK@DPM?5device?5without?5bootloader?5de@ 1007bd10     sg_netxLib_MSVC140_vc:cifXInit.obj
 0002:00005d78       ??_C@_0EB@JMNKFKEH@Driver?5is?5unable?5to?5start?5a?5RAM?5@ 1007bd78     sg_netxLib_MSVC140_vc:cifXInit.obj
 0002:00005dc8       ??_C@_0GG@IJGAAFCM@RAM?5based?5device?5detected?5?$CINo?5FW@ 1007bdc8     sg_netxLib_MSVC140_vc:cifXInit.obj
 0002:00005e44       ??_C@_0DE@MDPCEOAJ@Device?5Type?5autodetection?3?5RAM?5B@ 1007be44     sg_netxLib_MSVC140_vc:cifXInit.obj
 0002:00005e84       ??_C@_0DG@FFFMEIJC@Device?5Type?5autodetection?3?5Flash@ 1007be84     sg_netxLib_MSVC140_vc:cifXInit.obj
 0002:00005ec4       ??_C@_0DC@BIOLGFFM@Device?5Type?5autodetection?5FAILED@ 1007bec4     sg_netxLib_MSVC140_vc:cifXInit.obj
 0002:00005f00       ??_C@_0GP@KNGPDMIN@Unable?5to?5access?5the?5hardware?5wh@ 1007bf00     sg_netxLib_MSVC140_vc:cifXInit.obj
 0002:00005f88       ??_C@_0GE@KKNFGPCJ@Unable?5to?5automatically?5detect?5d@ 1007bf88     sg_netxLib_MSVC140_vc:cifXInit.obj
 0002:00006000       ??_C@_05BMGBEOOC@?$CFs?2?$CFs?$AA@ 1007c000     sg_netxLib_MSVC140_vc:Cifx_DriverManager.obj
 0002:00006008       ??_C@_01KDCPPGHE@r?$AA@    1007c008     sg_netxLib_MSVC140_vc:Cifx_DriverManager.obj
 0002:0000600c       ??_C@_0DB@KDOCOLIC@?$CFs?0?5Module?5?$CFs?3?5Selected?5FW?5?$CB?$DN?5lo@ 1007c00c     sg_netxLib_MSVC140_vc:Cifx_DriverManager.obj
 0002:00006048       ??_C@_0DB@IKIIAFFG@?$CFs?0?5Module?5?$CFs?3?5Expected?5FW?5?$CB?$DN?5lo@ 1007c048     sg_netxLib_MSVC140_vc:Cifx_DriverManager.obj
 0002:00006084       ??_C@_05IMLGCHOD@IO641?$AA@ 1007c084     sg_netxLib_MSVC140_vc:Cifx_DriverManager.obj
 0002:0000608c       ??_C@_0BD@DKNFEAKG@PROFIBUS?5DP?5Master?$AA@ 1007c08c     sg_netxLib_MSVC140_vc:Cifx_DriverManager.obj
 0002:000060a4       ??_C@_08JAJCBMCP@2?46?413?40?$AA@ 1007c0a4     sg_netxLib_MSVC140_vc:Cifx_DriverManager.obj
 0002:000060b0       ??_C@_05KHJLHECA@IO642?$AA@ 1007c0b0     sg_netxLib_MSVC140_vc:Cifx_DriverManager.obj
 0002:000060b8       ??_C@_0BC@OGMCJEFB@PROFIBUS?5DP?5Slave?$AA@ 1007c0b8     sg_netxLib_MSVC140_vc:Cifx_DriverManager.obj
 0002:000060d0       ??_C@_07BCIOPNBE@2?47?42?40?$AA@ 1007c0d0     sg_netxLib_MSVC140_vc:Cifx_DriverManager.obj
 0002:000060dc       ??_C@_05CMNDBLPA@IO750?$AA@ 1007c0dc     sg_netxLib_MSVC140_vc:Cifx_DriverManager.obj
 0002:000060e4       ??_C@_0P@NPNNGIJN@EtherCAT?5Slave?$AA@ 1007c0e4     sg_netxLib_MSVC140_vc:Cifx_DriverManager.obj
 0002:000060f8       ??_C@_08EGGNGNGL@2?45?434?40?$AA@ 1007c0f8     sg_netxLib_MSVC140_vc:Cifx_DriverManager.obj
 0002:00006104       ??_C@_0BH@ICCDPFJJ@PROFINET?5IO?5Controller?$AA@ 1007c104     sg_netxLib_MSVC140_vc:Cifx_DriverManager.obj
 0002:00006120       ??_C@_08ICCHLDMB@2?46?410?40?$AA@ 1007c120     sg_netxLib_MSVC140_vc:Cifx_DriverManager.obj
 0002:0000612c       ??_C@_05BOOFHJHC@IO752?$AA@ 1007c12c     sg_netxLib_MSVC140_vc:Cifx_DriverManager.obj
 0002:00006134       ??_C@_0BD@DDKMGHBN@PROFINET?5IO?5Device?$AA@ 1007c134     sg_netxLib_MSVC140_vc:Cifx_DriverManager.obj
 0002:0000614c       ??_C@_08EFEBKOIM@3?44?444?40?$AA@ 1007c14c     sg_netxLib_MSVC140_vc:Cifx_DriverManager.obj
 0002:00006158       ??_C@_05HPOEIDD@IO753?$AA@ 1007c158     sg_netxLib_MSVC140_vc:Cifx_DriverManager.obj
 0002:00006160       ??_C@_0BA@DNIKBOB@Open?5Modbus?1TCP?$AA@ 1007c160     sg_netxLib_MSVC140_vc:Cifx_DriverManager.obj
 0002:00006174       ??_C@_07EBONIELI@2?46?40?42?$AA@ 1007c174     sg_netxLib_MSVC140_vc:Cifx_DriverManager.obj
 0002:00006180       ??_C@_05EILPNOPE@IO754?$AA@ 1007c180     sg_netxLib_MSVC140_vc:Cifx_DriverManager.obj
 0002:00006188       ??_C@_05FBKEOPLF@IO755?$AA@ 1007c188     sg_netxLib_MSVC140_vc:Cifx_DriverManager.obj
 0002:00006190       ??_C@_0BE@PFKGCFFM@EtherNet?1IP?5Scanner?$AA@ 1007c190     sg_netxLib_MSVC140_vc:Cifx_DriverManager.obj
 0002:000061a8       ??_C@_07PHBHOPMC@2?46?47?41?$AA@ 1007c1a8     sg_netxLib_MSVC140_vc:Cifx_DriverManager.obj
 0002:000061b4       ??_C@_05HKIJLMHG@IO756?$AA@ 1007c1b4     sg_netxLib_MSVC140_vc:Cifx_DriverManager.obj
 0002:000061bc       ??_C@_0BE@OOOLLDJM@EtherNet?1IP?5Adapter?$AA@ 1007c1bc     sg_netxLib_MSVC140_vc:Cifx_DriverManager.obj
 0002:000061d4       ??_C@_08DGOFBHJL@2?47?413?40?$AA@ 1007c1d4     sg_netxLib_MSVC140_vc:Cifx_DriverManager.obj
 0002:000061e0       ??_C@_05OEAKJBPI@IO758?$AA@ 1007c1e0     sg_netxLib_MSVC140_vc:Cifx_DriverManager.obj
 0002:000061e8       ??_C@_0CD@JNBHKCBD@Ethernet?5Powerlink?5Controlled?5No@ 1007c1e8     sg_netxLib_MSVC140_vc:Cifx_DriverManager.obj
 0002:00006214       ??_C@_08EAEIJBKF@2?41?439?40?$AA@ 1007c214     sg_netxLib_MSVC140_vc:Cifx_DriverManager.obj
 0002:00006220       ??_C@_0P@GAGHMNNE@not?5supported?$AA?$AA@ 1007c220     sg_netxLib_MSVC140_vc:Cifx_DriverManager.obj
 0002:00006234       ??_C@_0N@JGOGEKLD@?$CFi?4?$CFi?4?$CFi?4?$CFi?$AA?$AA@ 1007c234     sg_netxLib_MSVC140_vc:Cifx_DriverManager.obj
 0002:00006244       ??_C@_0DI@MKMACDIA@?6DEBUG?5?9?5Send?5PBS?5read?5indicatio@ 1007c244     sg_netxLib_MSVC140_vc:ProfibusSlaveAcyclic.obj
 0002:00006288       ??_C@_0GP@MLIMFNMG@?6ERROR?5?9?5PBS?5read?5indication?5not@ 1007c288     sg_netxLib_MSVC140_vc:ProfibusSlaveAcyclic.obj
 0002:00006310       ??_C@_0DJ@OJOJBPIG@?6DEBUG?5?9?5Send?5PBS?5write?5indicati@ 1007c310     sg_netxLib_MSVC140_vc:ProfibusSlaveAcyclic.obj
 0002:00006358       ??_C@_0HA@GMPJEOGJ@?6ERROR?5?9?5PBS?5write?5indication?5no@ 1007c358     sg_netxLib_MSVC140_vc:ProfibusSlaveAcyclic.obj
 0002:000063e0       ??_C@_0CP@LNEBEPOM@?6DEBUG?5?9?5Slave?5Write?5error?3?5?$CF?$CDX?5@ 1007c3e0     sg_netxLib_MSVC140_vc:ProfibusSlaveAcyclic.obj
 0002:00006418       ??_C@_0CP@MCBMPAJE@?6ERROR?5?9?5Slave?5Write?5error?3?5?$CF?$CDX?5@ 1007c418     sg_netxLib_MSVC140_vc:ProfibusSlaveAcyclic.obj
 0002:00006450       ??_C@_0DI@JNNBIELE@?6INFO?5?9?5The?5values?5of?5the?5I?$CGM0?5a@ 1007c450     sg_netxLib_MSVC140_vc:ProfibusSlaveAcyclic.obj
 0002:00006494       ??_C@_0DP@IKPOEMBD@?6ERROR?5?9?5The?5values?5of?5the?5I?$CGM0?5@ 1007c494     sg_netxLib_MSVC140_vc:ProfibusSlaveAcyclic.obj
 0002:000064e0       ??_C@_0EC@PJHFFLCC@?6ERROR?5?9?5Cannot?5receive?5response@ 1007c4e0     sg_netxLib_MSVC140_vc:ProfibusSlaveAcyclic.obj
 0002:00006530       ??_C@_0DB@OPIGOKKN@?6ERROR?5?9?5Cannot?5send?5request?5?8Ch@ 1007c530     sg_netxLib_MSVC140_vc:ProfibusSlaveAcyclic.obj
 0002:0000656c       ??_C@_0DF@BIGAGFM@?6DEBUG?5?9?5Get?5configuration?5resul@ 1007c56c     sg_netxLib_MSVC140_vc:ProfibusSlaveAcyclic.obj
 0002:000065ac       ??_C@_06HDGOJLAH@?$CF?$CDX?5?9?5?$AA@ 1007c5ac     sg_netxLib_MSVC140_vc:ProfibusSlaveAcyclic.obj
 0002:000065b4       ??_C@_0DE@MCPCAHED@?6DEBUG?5?9?5Get?5config?5receive?5erro@ 1007c5b4     sg_netxLib_MSVC140_vc:ProfibusSlaveAcyclic.obj
 0002:000065f4       ??_C@_0DE@NKPLJGIB@?6DEBUG?5?9?5Cannot?5send?5Get?5config?5@ 1007c5f4     sg_netxLib_MSVC140_vc:ProfibusSlaveAcyclic.obj
 0002:00006634       ??_C@_0BD@KILIMIED@?$CFs?2IO75X?2card?$CFi?2?$CFs?$AA@ 1007c634     sg_netxLib_MSVC140_vc:TKitUser_Custom.obj
 0002:0000664c       ??_C@_0CG@EAPNBGEI@?6EtherCAT?5Slave?5warmstart?5parame@ 1007c64c     sg_netxLib_MSVC140_vc:TKitUser_Custom.obj
 0002:0000667c       ??_C@_0CH@JKOCDANG@?6PowerLink?5Slave?5warmstart?5param@ 1007c67c     sg_netxLib_MSVC140_vc:TKitUser_Custom.obj
 0002:000066ac       ??_C@_0CJ@KBCOIFGN@?6Open?5Modbus?5Slave?5warmstart?5par@ 1007c6ac     sg_netxLib_MSVC140_vc:TKitUser_Custom.obj
 0002:000066e0       ??_C@_0CC@EOJPHAFH@EtherNet?1IP?5warmstart?5parameters@ 1007c6e0     sg_netxLib_MSVC140_vc:TKitUser_Custom.obj
 0002:00006708       ??_C@_0CF@DICIJID@Profibus?5Slave?5warmstart?5paramet@ 1007c708     sg_netxLib_MSVC140_vc:TKitUser_Custom.obj
 0002:00006734       ??_C@_0CD@DLOLEHMB@Warmstart?5parameter?5not?5availabl@ 1007c734     sg_netxLib_MSVC140_vc:TKitUser_Custom.obj
 0002:00006760       ??_C@_0CN@CBOEBHLN@Invalid?5pointer?5?$CIe?4g?4?5NULL?$CJ?5pass@ 1007c760     sg_netxLib_MSVC140_vc:cifXFunctions.obj
 0002:00006798       ??_C@_0CP@OAOEPIO@No?5board?5with?5the?5given?5name?5?1?5i@ 1007c798     sg_netxLib_MSVC140_vc:cifXFunctions.obj
 0002:000067d0       ??_C@_0CK@CCLCNOOH@No?5channel?5with?5the?5given?5index?5@ 1007c7d0     sg_netxLib_MSVC140_vc:cifXFunctions.obj
 0002:00006804       ??_C@_0CA@ELEPIADM@Invalid?5handle?5passed?5to?5driver?$AA@ 1007c804     sg_netxLib_MSVC140_vc:cifXFunctions.obj
 0002:0000682c       ??_C@_0BC@DBAKKFEN@Invalid?5parameter?$AA@ 1007c82c     sg_netxLib_MSVC140_vc:cifXFunctions.obj
 0002:00006844       ??_C@_0BA@OEOIKJGO@Invalid?5command?$AA@ 1007c844     sg_netxLib_MSVC140_vc:cifXFunctions.obj
 0002:00006858       ??_C@_0BE@JIJEOMJI@Invalid?5buffer?5size?$AA@ 1007c858     sg_netxLib_MSVC140_vc:cifXFunctions.obj
 0002:00006870       ??_C@_0BE@GKEOPEHJ@Invalid?5access?5size?$AA@ 1007c870     sg_netxLib_MSVC140_vc:cifXFunctions.obj
 0002:00006888       ??_C@_0BA@GPHAAJMO@Function?5failed?$AA@ 1007c888     sg_netxLib_MSVC140_vc:cifXFunctions.obj
 0002:0000689c       ??_C@_0BJ@JECFDHPF@File?5could?5not?5be?5opened?$AA@ 1007c89c     sg_netxLib_MSVC140_vc:cifXFunctions.obj
 0002:000068bc       ??_C@_0BC@BIINLDFB@File?5size?5is?5zero?$AA@ 1007c8bc     sg_netxLib_MSVC140_vc:cifXFunctions.obj
 0002:000068d4       ??_C@_0CB@ENCKLHHI@Insufficient?5memory?5to?5load?5file@ 1007c8d4     sg_netxLib_MSVC140_vc:cifXFunctions.obj
 0002:000068fc       ??_C@_0BI@EHCNLMNH@Error?5reading?5from?5file?$AA@ 1007c8fc     sg_netxLib_MSVC140_vc:cifXFunctions.obj
 0002:00006918       ??_C@_0BC@DOFOGLKA@Invalid?5file?5type?$AA@ 1007c918     sg_netxLib_MSVC140_vc:cifXFunctions.obj
 0002:00006930       ??_C@_0BC@JFFNKLNA@Invalid?5file?5name?$AA@ 1007c930     sg_netxLib_MSVC140_vc:cifXFunctions.obj
 0002:00006948       ??_C@_0BO@FFFEOBAK@Driver?5function?5not?5available?$AA@ 1007c948     sg_netxLib_MSVC140_vc:cifXFunctions.obj
 0002:0000696c       ??_C@_0BK@FIIHCBPM@Given?5buffer?5is?5too?5short?$AA@ 1007c96c     sg_netxLib_MSVC140_vc:cifXFunctions.obj
 0002:0000698c       ??_C@_0BJ@BKJJKFEN@Failed?5to?5map?5the?5memory?$AA@ 1007c98c     sg_netxLib_MSVC140_vc:cifXFunctions.obj
 0002:000069ac       ??_C@_0BK@NJNMCDAL@No?5more?5entries?5available?$AA@ 1007c9ac     sg_netxLib_MSVC140_vc:cifXFunctions.obj
 0002:000069cc       ??_C@_0BO@OLLHEHIL@Unkown?5callback?5handling?5mode?$AA@ 1007c9cc     sg_netxLib_MSVC140_vc:cifXFunctions.obj
 0002:000069f0       ??_C@_0CB@FABFGACD@Failed?5to?5create?5callback?5events@ 1007c9f0     sg_netxLib_MSVC140_vc:cifXFunctions.obj
 0002:00006a18       ??_C@_0CJ@PDKFJKIE@Failed?5to?5create?5callback?5receiv@ 1007ca18     sg_netxLib_MSVC140_vc:cifXFunctions.obj
 0002:00006a4c       ??_C@_0BH@FCBELCDH@Driver?5not?5initialized?$AA@ 1007ca4c     sg_netxLib_MSVC140_vc:cifXFunctions.obj
 0002:00006a68       ??_C@_0BI@HNNKOFEL@Driver?5init?5state?5error?$AA@ 1007ca68     sg_netxLib_MSVC140_vc:cifXFunctions.obj
 0002:00006a84       ??_C@_0BI@CMOBLDHK@Driver?5read?5state?5error?$AA@ 1007ca84     sg_netxLib_MSVC140_vc:cifXFunctions.obj
 0002:00006aa0       ??_C@_0BM@LBEOLILD@Command?5is?5active?5on?5device?$AA@ 1007caa0     sg_netxLib_MSVC140_vc:cifXFunctions.obj
 0002:00006ac4       ??_C@_0BO@HMDFNMCF@General?5error?5during?5download?$AA@ 1007cac4     sg_netxLib_MSVC140_vc:cifXFunctions.obj
 0002:00006ae8       ??_C@_0BF@JKMGLJBN@Wrong?5driver?5version?$AA@ 1007cae8     sg_netxLib_MSVC140_vc:cifXFunctions.obj
 0002:00006b04       ??_C@_0BL@GFFEIBPN@CIFx?5driver?5is?5not?5running?$AA@ 1007cb04     sg_netxLib_MSVC140_vc:cifXFunctions.obj
 0002:00006b24       ??_C@_0CA@LBCIDOO@Failed?5to?5initialize?5the?5device?$AA@ 1007cb24     sg_netxLib_MSVC140_vc:cifXFunctions.obj
 0002:00006b4c       ??_C@_0DC@BEHOGNHL@Channel?5not?5initialized?5?$CIxChanne@ 1007cb4c     sg_netxLib_MSVC140_vc:cifXFunctions.obj
 0002:00006b88       ??_C@_0BG@EMMECGKO@IOControl?5call?5failed?$AA@ 1007cb88     sg_netxLib_MSVC140_vc:cifXFunctions.obj
 0002:00006ba4       ??_C@_0BG@MNJBDCGN@Driver?5was?5not?5opened?$AA@ 1007cba4     sg_netxLib_MSVC140_vc:cifXFunctions.obj
 0002:00006bc0       ??_C@_0DG@GCKKLPAO@Unknown?5download?5storage?5type?5?$CIR@ 1007cbc0     sg_netxLib_MSVC140_vc:cifXFunctions.obj
 0002:00006c00       ??_C@_0DF@KIJJOKIJ@Channel?5number?5for?5a?5firmware?5do@ 1007cc00     sg_netxLib_MSVC140_vc:cifXFunctions.obj
 0002:00006c40       ??_C@_0DD@HBGPLOHL@Modules?5are?5not?5allowed?5without?5@ 1007cc40     sg_netxLib_MSVC140_vc:cifXFunctions.obj
 0002:00006c80       ??_C@_0DC@NKKJOCJI@Dual?5port?5memory?5not?5accessable?5@ 1007cc80     sg_netxLib_MSVC140_vc:cifXFunctions.obj
 0002:00006cbc       ??_C@_0CF@BGKDPHCD@Device?5not?5ready?5?$CIready?5flag?5fai@ 1007ccbc     sg_netxLib_MSVC140_vc:cifXFunctions.obj
 0002:00006ce8       ??_C@_0CJ@PAJMFBHC@Device?5not?5running?5?$CIrunning?5flag@ 1007cce8     sg_netxLib_MSVC140_vc:cifXFunctions.obj
 0002:00006d1c       ??_C@_0BF@EENFLBFE@Watchdog?5test?5failed?$AA@ 1007cd1c     sg_netxLib_MSVC140_vc:cifXFunctions.obj
 0002:00006d38       ??_C@_0BJ@DFAMBOOL@Error?5in?5handshake?5flags?$AA@ 1007cd38     sg_netxLib_MSVC140_vc:cifXFunctions.obj
 0002:00006d58       ??_C@_0BF@IJOHEDIN@Send?5mailbox?5is?5full?$AA@ 1007cd58     sg_netxLib_MSVC140_vc:cifXFunctions.obj
 0002:00006d74       ??_C@_0BE@DOIIDAMP@Send?5packet?5timeout?$AA@ 1007cd74     sg_netxLib_MSVC140_vc:cifXFunctions.obj
 0002:00006d8c       ??_C@_0BH@JLDICAFG@Receive?5packet?5timeout?$AA@ 1007cd8c     sg_netxLib_MSVC140_vc:cifXFunctions.obj
 0002:00006da8       ??_C@_0BE@NELHFBBL@No?5packet?5available?$AA@ 1007cda8     sg_netxLib_MSVC140_vc:cifXFunctions.obj
 0002:00006dc0       ??_C@_0BG@BLPELDIF@Reset?5command?5timeout?$AA@ 1007cdc0     sg_netxLib_MSVC140_vc:cifXFunctions.obj
 0002:00006ddc       ??_C@_0BB@OCMFAEEF@COM?9flag?5not?5set?$AA@ 1007cddc     sg_netxLib_MSVC140_vc:cifXFunctions.obj
 0002:00006df0       ??_C@_0BJ@IMNIBFPH@I?1O?5data?5exchange?5failed?$AA@ 1007cdf0     sg_netxLib_MSVC140_vc:cifXFunctions.obj
 0002:00006e10       ??_C@_0BK@IBKPHCCN@I?1O?5data?5exchange?5timeout?$AA@ 1007ce10     sg_netxLib_MSVC140_vc:cifXFunctions.obj
 0002:00006e30       ??_C@_0BL@LKAHFCHM@Unknown?5I?1O?5exchange?5mode?5?$AA@ 1007ce30     sg_netxLib_MSVC140_vc:cifXFunctions.obj
 0002:00006e50       ??_C@_0BI@LGFLNJBL@Device?5function?5failed?5?$AA@ 1007ce50     sg_netxLib_MSVC140_vc:cifXFunctions.obj
 0002:00006e6c       ??_C@_0CE@LBDLMNCN@DPM?5size?5differs?5from?5configurat@ 1007ce6c     sg_netxLib_MSVC140_vc:cifXFunctions.obj
 0002:00006e98       ??_C@_0BD@GBLMMJFK@Unknown?5state?5mode?$AA@ 1007ce98     sg_netxLib_MSVC140_vc:cifXFunctions.obj
 0002:00006eb0       ??_C@_0BL@MGOHLPOF@Output?5port?5already?5in?5use?$AA@ 1007ceb0     sg_netxLib_MSVC140_vc:cifXFunctions.obj
 0002:00006ed0       ??_C@_0BO@EIBCFLFN@Configuration?5locking?5timeout?$AA@ 1007ced0     sg_netxLib_MSVC140_vc:cifXFunctions.obj
 0002:00006ef4       ??_C@_0CA@KNIONJHK@Configuration?5unlocking?5timeout?$AA@ 1007cef4     sg_netxLib_MSVC140_vc:cifXFunctions.obj
 0002:00006f1c       ??_C@_0BH@FODJGCGK@Set?5HOST?5state?5timeout?$AA@ 1007cf1c     sg_netxLib_MSVC140_vc:cifXFunctions.obj
 0002:00006f38       ??_C@_0BJ@GMFGKNEN@Clear?5HOST?5state?5timeout?$AA@ 1007cf38     sg_netxLib_MSVC140_vc:cifXFunctions.obj
 0002:00006f58       ??_C@_0CG@DOKANDBN@Timeout?5during?5channel?5initializ@ 1007cf58     sg_netxLib_MSVC140_vc:cifXFunctions.obj
 0002:00006f88       ??_C@_0BD@CGHFFLHL@Set?5Bus?5ON?5timeout?$AA@ 1007cf88     sg_netxLib_MSVC140_vc:cifXFunctions.obj
 0002:00006fa0       ??_C@_0BF@JHELNICC@?5Set?5Bus?5OFF?5timeout?$AA@ 1007cfa0     sg_netxLib_MSVC140_vc:cifXFunctions.obj
 0002:00006fbc       ??_C@_0BH@IHGNPPDB@Module?5already?5running?$AA@ 1007cfbc     sg_netxLib_MSVC140_vc:cifXFunctions.obj
 0002:00006fd8       ??_C@_0BG@FDKMKJJJ@Module?5already?5exists?$AA@ 1007cfd8     sg_netxLib_MSVC140_vc:cifXFunctions.obj
 0002:00006ff4       ??_C@_0CO@HAIBGCNN@Number?5of?5configured?5DMA?5buffers@ 1007cff4     sg_netxLib_MSVC140_vc:cifXFunctions.obj
 0002:0000702c       ??_C@_0CO@KNBCNBJ@DMA?5buffers?5size?5too?5small?5?$CImin?5@ 1007d02c     sg_netxLib_MSVC140_vc:cifXFunctions.obj
 0002:00007064       ??_C@_0CP@KFNNILHJ@DMA?5buffers?5size?5too?5big?5?$CImax?5si@ 1007d064     sg_netxLib_MSVC140_vc:cifXFunctions.obj
 0002:0000709c       ??_C@_0CO@KACEBDGF@DMA?5buffer?5alignment?5failed?5?$CImus@ 1007d09c     sg_netxLib_MSVC140_vc:cifXFunctions.obj
 0002:000070d4       ??_C@_0DD@PMLECNHJ@I?1O?5data?5uncontrolled?5handshake?5@ 1007d0d4     sg_netxLib_MSVC140_vc:cifXFunctions.obj
 0002:00007114       ??_C@_0DK@GHIFMOJH@I?1O?5area?5in?5DMA?5mode?5not?5support@ 1007d114     sg_netxLib_MSVC140_vc:cifXFunctions.obj
 0002:0000715c       ??_C@_0BD@PLCFINGP@Set?5DMA?5ON?5timeout?$AA@ 1007d15c     sg_netxLib_MSVC140_vc:cifXFunctions.obj
 0002:00007174       ??_C@_0BE@FEFFCHFH@Set?5DMA?5OFF?5timeout?$AA@ 1007d174     sg_netxLib_MSVC140_vc:cifXFunctions.obj
 0002:000072a0       ??_C@_0BF@LBKJEIJH@cifX?5Toolkit?51?41?42?40?$AA@ 1007d2a0     sg_netxLib_MSVC140_vc:cifXFunctions.obj
 0002:000072bc       ??_C@_04PIGLCBAC@?4NXF?$AA@ 1007d2bc     sg_netxLib_MSVC140_vc:cifXDownload.obj
 0002:000072c4       ??_C@_04BLJPPIMJ@?4NXM?$AA@ 1007d2c4     sg_netxLib_MSVC140_vc:cifXDownload.obj
 0002:000072cc       ??_C@_04CJKJJKEL@?4NXO?$AA@ 1007d2cc     sg_netxLib_MSVC140_vc:cifXDownload.obj
 0002:000072d4       ??_C@_04MBIBFJJL@?4MOD?$AA@ 1007d2d4     sg_netxLib_MSVC140_vc:cifXDownload.obj
 0002:000072dc       ??_C@_0CK@OCBDDG@Failed?5to?5send?5MD5?5request?0?5lRet@ 1007d2dc     sg_netxLib_MSVC140_vc:cifXDownload.obj
 0002:00007310       ??_C@_0FN@LBIPNINM@No?5MD5?5Information?5available?4?5Pr@ 1007d310     sg_netxLib_MSVC140_vc:cifXDownload.obj
 0002:00007380       ??_C@_0DC@ENDOBLIC@MD5?5checksum?5is?5identical?0?5downl@ 1007d380     sg_netxLib_MSVC140_vc:cifXDownload.obj
 0002:000073bc       ??_C@_0CN@BBMIGKE@MD5?5not?5identical?0?5process?5firmw@ 1007d3bc     sg_netxLib_MSVC140_vc:cifXDownload.obj
 0002:000073f4       ??_C@_0DI@LONAPCAL@Error?5channel?5number?5?$CFu?5for?5a?5fi@ 1007d3f4     sg_netxLib_MSVC140_vc:cifXDownload.obj
 0002:00007438       ??_C@_0DL@GKEICGBI@Error?5NXO?5files?5are?5not?5allowed?5@ 1007d438     sg_netxLib_MSVC140_vc:cifXDownload.obj
 0002:00007480       ??_C@_0DN@LKOONNEO@Error?5downloading?5firmware?5to?5de@ 1007d480     sg_netxLib_MSVC140_vc:cifXDownload.obj
 0002:000074cc       ??_C@_0DF@BGOKBCNA@Successfully?5downloaded?5the?5firm@ 1007d4cc     sg_netxLib_MSVC140_vc:cifXDownload.obj
 0002:0000750c       ??_C@_0CC@MGEPMGNB@Error?5checking?5for?5download?5?8?$CFs?8@ 1007d50c     sg_netxLib_MSVC140_vc:cifXDownload.obj
 0002:00007534       ??_C@_0DH@LKCDIAP@Skipping?5download?5for?5file?5?8?$CFs?8?$AN@ 1007d534     sg_netxLib_MSVC140_vc:cifXDownload.obj
 0002:00007578       ??_C@_0DO@LHLBHHJJ@Error?5unsupported?5device?5type?5?$CFu@ 1007d578     sg_netxLib_MSVC140_vc:cifXDownload.obj
 0002:000075c4       ??_C@_0BJ@NNCJLICH@Input?5Data?5Bytes?5?5?5?$DN?5?$CFi?6?$AA@ 1007d5c4     sg_netxLib_MSVC140_vc:sg_cifx_int_ecs.obj
 0002:000075e4       ??_C@_0BJ@CGDEPMJJ@Output?5Data?5Bytes?5?5?$DN?5?$CFi?6?$AA@ 1007d5e4     sg_netxLib_MSVC140_vc:sg_cifx_int_ecs.obj
 0002:00007604       ??_C@_0BH@GGKBHIHO@?6DEBUG?5?9?5Send?5data?5OK?4?$AA@ 1007d604     sg_netxLib_MSVC140_vc:sg_cifx_int_mbs.obj
 0002:00007620       ??_C@_0CJ@JPMDNPMK@?6DEBUG?5?9?5Error?5by?5PutPacket?0?5uRe@ 1007d620     sg_netxLib_MSVC140_vc:sg_cifx_int_mbs.obj
 0002:00007654       ??_C@_0CJ@EBPPILGJ@?6DEBUG?5?9?5Error?5by?5GetPacket?0?5uRe@ 1007d654     sg_netxLib_MSVC140_vc:sg_cifx_int_mbs.obj
 0002:00007688       ??_C@_0BN@EPHMKEJH@?6DEBUG?5?9?5Register?9Activation?$AA@ 1007d688     sg_netxLib_MSVC140_vc:sg_cifx_int_mbs.obj
 0002:000076ac       ??_C@_0DK@GDCOJPDN@?6DEBUG?5?9?5Error?5during?5set?5Regist@ 1007d6ac     sg_netxLib_MSVC140_vc:sg_cifx_int_mbs.obj
 0002:000076f4       ??_C@_0DG@BCFIKHNE@?6DEBUG?5?9?5Start?5Register?9Activati@ 1007d6f4     sg_netxLib_MSVC140_vc:sg_cifx_int_mbs.obj
 0002:00007790       ??_C@_0BL@LBJPFGAE@?6Insert?5card?5data?5to?5array?$AA@ 1007d790     sg_netxLib_MSVC140_vc:sg_cifx_ext_mbs.obj
 0002:000077b0       ??_C@_0DJ@MADKIEIH@?6ERROR?5?9?5Cannot?5set?5bus?5communic@ 1007d7b0     sg_netxLib_MSVC140_vc:sg_cifx_ext_mbs.obj
 0002:000077f8       ??_C@_0FL@KBFIGEFL@?6ERROR?5?9?5Cannot?5receive?5confirma@ 1007d7f8     sg_netxLib_MSVC140_vc:sg_cifx_ext_mbs.obj
 0002:00007868       ??_C@_0CB@LDILCPOM@IO756?5Error?3?5ptCardData?5is?5NULL?6@ 1007d868     sg_netxLib_MSVC140_vc:sg_cifx_ext_eis.obj
 0002:00007890       ??_C@_0CC@PMNMCGDE@IO756?5Error?3?5cardId?5out?5of?5range@ 1007d890     sg_netxLib_MSVC140_vc:sg_cifx_ext_eis.obj
 0002:000078b8       ??_C@_0BN@HDCODIFH@IO756?5Error?3?5invalid?5access?6?$AA@ 1007d8b8     sg_netxLib_MSVC140_vc:sg_cifx_ext_eis.obj
 0002:000078dc       ??_C@_0L@EFKJBCIC@DPM?3?50x?$CFx?6?$AA@ 1007d8dc     sg_netxLib_MSVC140_vc:sg_cifx_ext_eis.obj
 0002:000078ec       ??_C@_0BD@HPCFJHOL@DPM?5IOInput?3?50x?$CFx?6?$AA@ 1007d8ec     sg_netxLib_MSVC140_vc:sg_cifx_ext_eis.obj
 0002:00007904       ??_C@_0N@MDBONOIN@lRet?5?$DN?50x?$CFx?6?$AA@ 1007d904     sg_netxLib_MSVC140_vc:sg_cifx_ext_eis.obj
 0002:00007914       ??_C@_0O@HODEMHH@?5Instance?5?$CFi?6?$AA@ 1007d914     sg_netxLib_MSVC140_vc:sg_cifx_ext_eis.obj
 0002:00007924       ??_C@_0BC@JILNJHMH@?5DPM?5offset?50x?$CFx?6?$AA@ 1007d924     sg_netxLib_MSVC140_vc:sg_cifx_ext_eis.obj
 0002:0000793c       ??_C@_09KOEHKJHI@?5size?5?$CFi?6?$AA@ 1007d93c     sg_netxLib_MSVC140_vc:sg_cifx_ext_eis.obj
 0002:00007948       ??_C@_0CC@DMFKNLL@VendorId?5?$DN?50x?$CFx?0?5DeviceId?5?$DN?50x?$CFx@ 1007d948     xpcruntime:xpcimports.obj
 0002:00007970       ??_C@_0DH@OHCBLNMG@Subsystem?5Device?5ID?5?$DN?50x?$CFx?6Subsy@ 1007d970     xpcruntime:xpcimports.obj
 0002:000079b4       ??_C@_0BD@MMMMEFCM@Class?5Code?5?$DN?50x?$CFx?6?$AA@ 1007d9b4     xpcruntime:xpcimports.obj
 0002:000079cc       ??_C@_0BE@OLDDDNHM@InterruptLine?5?$DN?5?$CFd?6?$AA@ 1007d9cc     xpcruntime:xpcimports.obj
 0002:000079e4       ??_C@_0BF@OLKLEKBD@bus?5?$DN?5?$CFd?0?5slot?5?$DN?5?$CFd?6?$AA@ 1007d9e4     xpcruntime:xpcimports.obj
 0002:00007a00       ??_C@_0CE@DGLLGDFH@?5?5?5?5Phys?5?5?5Virtual?5?5?5Length?5IO?1M@ 1007da00     xpcruntime:xpcimports.obj
 0002:00007a2c       ??_C@_0BI@FEOPLEMG@?$CF08x?5?$CF08x?5?$CF08x?5?5?5?5?5?5?$CFc?6?$AA@ 1007da2c     xpcruntime:xpcimports.obj
 0002:00007a48       ??_C@_0BB@BNNCEDPC@rl32eScopeExists?$AA@ 1007da48     xpcruntime:xpcimports.obj
 0002:00007a5c       ??_C@_0BM@FJBFEGFG@rl32eScopeExists?5not?5found?6?$AA@ 1007da5c     xpcruntime:xpcimports.obj
 0002:00007a80       ??_C@_0O@BNNGKJEA@rl32eDefScope?$AA@ 1007da80     xpcruntime:xpcimports.obj
 0002:00007a90       ??_C@_0BJ@CDNOENKA@rl32eDefScope?5not?5found?6?$AA@ 1007da90     xpcruntime:xpcimports.obj
 0002:00007ab0       ??_C@_0P@CKNKILDP@rl32eAddSignal?$AA@ 1007dab0     xpcruntime:xpcimports.obj
 0002:00007ac4       ??_C@_0BK@GMJAJBAI@rl32eAddSignal?5not?5found?6?$AA@ 1007dac4     xpcruntime:xpcimports.obj
 0002:00007ae4       ??_C@_0BB@LDMIHGCE@rl32eGetSignalNo?$AA@ 1007dae4     xpcruntime:xpcimports.obj
 0002:00007af8       ??_C@_0BM@LGAMBAID@rl32eGetSignalNo?5not?5found?6?$AA@ 1007daf8     xpcruntime:xpcimports.obj
 0002:00007b1c       ??_C@_0O@CFDGALBP@rl32eSetScope?$AA@ 1007db1c     xpcruntime:xpcimports.obj
 0002:00007b2c       ??_C@_0BJ@JCLHHIN@rl32eSetScope?5not?5found?6?$AA@ 1007db2c     xpcruntime:xpcimports.obj
 0002:00007b4c       ??_C@_0P@IKMCBMHH@xpceFSScopeSet?$AA@ 1007db4c     xpcruntime:xpcimports.obj
 0002:00007b60       ??_C@_0BK@JODJPNNH@xpceFSScopeSet?5not?5found?6?$AA@ 1007db60     xpcruntime:xpcimports.obj
 0002:00007b80       ??_C@_0BE@DLACEEJM@rl32eSetTargetScope?$AA@ 1007db80     xpcruntime:xpcimports.obj
 0002:00007b98       ??_C@_0BP@JCHFMKPJ@rl32eSetTargetScope?5not?5found?6?$AA@ 1007db98     xpcruntime:xpcimports.obj
 0002:00007bc0       ??_C@_0BJ@LIDLNDHC@rl32eSetTargetScopeSigFt?$AA@ 1007dbc0     xpcruntime:xpcimports.obj
 0002:00007be0       ??_C@_0CE@JLGHCFHI@rl32eSetTargetScopeSigFt?5not?5fou@ 1007dbe0     xpcruntime:xpcimports.obj
 0002:00007c0c       ??_C@_0BI@JAPOIDNG@rl32eRestartAcquisition?$AA@ 1007dc0c     xpcruntime:xpcimports.obj
 0002:00007c28       ??_C@_0CD@LLBEFFBO@rl32eRestartAcquisition?5not?5foun@ 1007dc28     xpcruntime:xpcimports.obj
 0002:00007c54       ??_C@_0P@IEIIADJB@xpceScopeAcqOK?$AA@ 1007dc54     xpcruntime:xpcimports.obj
 0002:00007c68       ??_C@_0BK@NJCKNFPN@xpceScopeAcqOK?5not?5found?6?$AA@ 1007dc68     xpcruntime:xpcimports.obj
 0002:00007c88       ??_C@_0BA@IJINKAHF@xpceRegisterISR?$AA@ 1007dc88     xpcruntime:xpcimports.obj
 0002:00007c9c       ??_C@_0BL@NNDLOEJE@xpceRegisterISR?5not?5found?6?$AA@ 1007dc9c     xpcruntime:xpcimports.obj
 0002:00007cbc       ??_C@_0BC@NLBADGKF@xpceDeRegisterISR?$AA@ 1007dcbc     xpcruntime:xpcimports.obj
 0002:00007cd4       ??_C@_0BN@DCAIKFFD@xpceDeRegisterISR?5not?5found?6?$AA@ 1007dcd4     xpcruntime:xpcimports.obj
 0002:00007cf8       ??_C@_07JPMEPILD@xpcInpB?$AA@ 1007dcf8     xpcruntime:xpcimports.obj
 0002:00007d04       ??_C@_0BD@PGABEJOL@xpcInpB?5not?5found?6?$AA@ 1007dd04     xpcruntime:xpcimports.obj
 0002:00007d1c       ??_C@_07KIHBBOKH@xpcInpW?$AA@ 1007dd1c     xpcruntime:xpcimports.obj
 0002:00007d28       ??_C@_0BD@FPCJFMCC@xpcInpW?5not?5found?6?$AA@ 1007dd28     xpcruntime:xpcimports.obj
 0002:00007d40       ??_C@_08KDIAJBOP@xpcInpDW?$AA@ 1007dd40     xpcruntime:xpcimports.obj
 0002:00007d4c       ??_C@_0BE@PIELDNIL@xpcInpDW?5not?5found?6?$AA@ 1007dd4c     xpcruntime:xpcimports.obj
 0002:00007d64       ??_C@_08PJFMOIGO@xpcOutpB?$AA@ 1007dd64     xpcruntime:xpcimports.obj
 0002:00007d70       ??_C@_0BE@HCKNCEKF@xpcOutpB?5not?5found?6?$AA@ 1007dd70     xpcruntime:xpcimports.obj
 0002:00007d88       ??_C@_08MOOJAOHK@xpcOutpW?$AA@ 1007dd88     xpcruntime:xpcimports.obj
 0002:00007d94       ??_C@_0BE@NLIFDBGM@xpcOutpW?5not?5found?6?$AA@ 1007dd94     xpcruntime:xpcimports.obj
 0002:00007dac       ??_C@_09FLIEKHJG@xpcOutpDW?$AA@ 1007ddac     xpcruntime:xpcimports.obj
 0002:00007db8       ??_C@_0BF@GJKLPNHB@xpcOutpDW?5not?5found?6?$AA@ 1007ddb8     xpcruntime:xpcimports.obj
 0002:00007dd4       ??_C@_0BH@EHOLELHH@xpcReserveMemoryRegion?$AA@ 1007ddd4     xpcruntime:xpcimports.obj
 0002:00007df0       ??_C@_0CC@KAAAGPI@xpcReserveMemoryRegion?5not?5found@ 1007ddf0     xpcruntime:xpcimports.obj
 0002:00007e18       ??_C@_0BA@JGPMHGAF@rl32eShowPCIDev?$AA@ 1007de18     xpcruntime:xpcimports.obj
 0002:00007e2c       ??_C@_0BL@DDFFLNHI@rl32eShowPCIDev?5not?5found?6?$AA@ 1007de2c     xpcruntime:xpcimports.obj
 0002:00007e4c       ??_C@_0BB@KBCOJPFB@rl32eShowPCIInfo?$AA@ 1007de4c     xpcruntime:xpcimports.obj
 0002:00007e60       ??_C@_0BM@IFDMAGLO@rl32eShowPCIInfo?5not?5found?6?$AA@ 1007de60     xpcruntime:xpcimports.obj
 0002:00007e84       ??_C@_0BA@BGPAADB@rl32eGetPCIInfo?$AA@ 1007de84     xpcruntime:xpcimports.obj
 0002:00007e98       ??_C@_0BL@IGOMLDCK@rl32eGetPCIInfo?5not?5found?6?$AA@ 1007de98     xpcruntime:xpcimports.obj
 0002:00007eb8       ??_C@_0BG@NJPFKFDP@rl32eGetPCIInfoAtSlot?$AA@ 1007deb8     xpcruntime:xpcimports.obj
 0002:00007ed4       ??_C@_0CB@BBKIPMLA@rl32eGetPCIInfoAtSlot?5not?5found?6@ 1007ded4     xpcruntime:xpcimports.obj
 0002:00007efc       ??_C@_0BH@OKBOPNFG@xpceAssignPCIInterrupt?$AA@ 1007defc     xpcruntime:xpcimports.obj
 0002:00007f18       ??_C@_0CC@CDNDNJBJ@xpceAssignPCIInterrupt?5not?5found@ 1007df18     xpcruntime:xpcimports.obj
 0002:00007f40       ??_C@_0BD@PCKOKHO@xpceGetSignalValue?$AA@ 1007df40     xpcruntime:xpcimports.obj
 0002:00007f58       ??_C@_0BO@GCBDJHMB@xpceGetSignalValue?5not?5found?6?$AA@ 1007df58     xpcruntime:xpcimports.obj
 0002:00007f7c       ??_C@_0BB@BJONJAGA@xpceSetParameter?$AA@ 1007df7c     xpcruntime:xpcimports.obj
 0002:00007f90       ??_C@_0BM@BJIKDLHA@xpceSetParameter?5not?5found?6?$AA@ 1007df90     xpcruntime:xpcimports.obj
 0002:00007fb4       ??_C@_0BB@GNFDFMCM@xpceGetParameter?$AA@ 1007dfb4     xpcruntime:xpcimports.obj
 0002:00007fc8       ??_C@_0BM@POHNKBC@xpceGetParameter?5not?5found?6?$AA@ 1007dfc8     xpcruntime:xpcimports.obj
 0002:00007fec       ??_C@_0BB@CEIJLFCD@xpceGetParamDims?$AA@ 1007dfec     xpcruntime:xpcimports.obj
 0002:00008000       ??_C@_0BM@OABDBKAO@xpceGetParamDims?5not?5found?6?$AA@ 1007e000     xpcruntime:xpcimports.obj
 0002:00008024       ??_C@_0L@OCBLLHBM@xpceGetTET?$AA@ 1007e024     xpcruntime:xpcimports.obj
 0002:00008034       ??_C@_0BG@HNOFBOB@xpceGetTET?5not?5found?6?$AA@ 1007e034     xpcruntime:xpcimports.obj
 0002:00008050       ??_C@_0P@OKGNGAGH@xpcIsModelInit?$AA@ 1007e050     xpcruntime:xpcimports.obj
 0002:00008064       ??_C@_0BK@DHEMLBIM@xpcIsModelInit?5not?5found?6?$AA@ 1007e064     xpcruntime:xpcimports.obj
 0002:00008084       ??_C@_0BH@KJJLCAOJ@xpcAllocPhysicalMemory?$AA@ 1007e084     xpcruntime:xpcimports.obj
 0002:000080a0       ??_C@_0CC@MOJPNHKL@xpcAllocPhysicalMemory?5not?5found@ 1007e0a0     xpcruntime:xpcimports.obj
 0002:000080c8       ??_C@_0BG@CBNPGAEL@xpcFreePhysicalMemory?$AA@ 1007e0c8     xpcruntime:xpcimports.obj
 0002:000080e4       ??_C@_0CB@PKJEBPOG@xpcFreePhysicalMemory?5not?5found?6@ 1007e0e4     xpcruntime:xpcimports.obj
 0002:0000810c       ??_C@_0BC@JGKNLICL@xpcGetElapsedTime?$AA@ 1007e10c     xpcruntime:xpcimports.obj
 0002:00008124       ??_C@_0BN@OEOAHCIO@xpcGetElapsedTime?5not?5found?6?$AA@ 1007e124     xpcruntime:xpcimports.obj
 0002:00008148       ??_C@_0M@ICBLMODA@xpcBusyWait?$AA@ 1007e148     xpcruntime:xpcimports.obj
 0002:00008158       ??_C@_0BH@FBOPECBI@xpcBusyWait?5not?5found?6?$AA@ 1007e158     xpcruntime:xpcimports.obj
 0002:00008174       ??_C@_0N@LKKJEKKA@TBCreateSpin?$AA@ 1007e174     xpcruntime:xpcimports.obj
 0002:00008184       ??_C@_0BI@FHKMLKOE@TBCreateSpin?5not?5found?6?$AA@ 1007e184     xpcruntime:xpcimports.obj
 0002:000081a0       ??_C@_0N@HOAJHNBD@TBDeleteSpin?$AA@ 1007e1a0     xpcruntime:xpcimports.obj
 0002:000081b0       ??_C@_0BI@BKCPAAG@TBDeleteSpin?5not?5found?6?$AA@ 1007e1b0     xpcruntime:xpcimports.obj
 0002:000081cc       ??_C@_0P@DAHDDBJG@TBTakeSpinFast?$AA@ 1007e1cc     xpcruntime:xpcimports.obj
 0002:000081e0       ??_C@_0BK@NKAIBHGB@TBTakeSpinFast?5not?5found?6?$AA@ 1007e1e0     xpcruntime:xpcimports.obj
 0002:00008200       ??_C@_0P@FKNAAELA@TBGiveSpinFast?$AA@ 1007e200     xpcruntime:xpcimports.obj
 0002:00008214       ??_C@_0BK@KGPJBJND@TBGiveSpinFast?5not?5found?6?$AA@ 1007e214     xpcruntime:xpcimports.obj
 0002:00008234       ??_C@_0BE@IIGBFDHK@xpceCreateSemaphore?$AA@ 1007e234     xpcruntime:xpcimports.obj
 0002:0000824c       ??_C@_0BP@KFBAFFKJ@xpceCreateSemaphore?5not?5found?6?$AA@ 1007e24c     xpcruntime:xpcimports.obj
 0002:00008274       ??_C@_0BC@IFNIONKJ@xpceWaitSemaphore?$AA@ 1007e274     xpcruntime:xpcimports.obj
 0002:0000828c       ??_C@_0BN@NMFAADIO@xpceWaitSemaphore?5not?5found?6?$AA@ 1007e28c     xpcruntime:xpcimports.obj
 0002:000082b0       ??_C@_0BE@NNDIOBKE@xpceSignalSemaphore?$AA@ 1007e2b0     xpcruntime:xpcimports.obj
 0002:000082c8       ??_C@_0BP@LBANMHJP@xpceSignalSemaphore?5not?5found?6?$AA@ 1007e2c8     xpcruntime:xpcimports.obj
 0002:000082f0       ??_C@_0BE@MEBEKOIM@xpceDeleteSemaphore?$AA@ 1007e2f0     xpcruntime:xpcimports.obj
 0002:00008308       ??_C@_0BP@OFNCKOJH@xpceDeleteSemaphore?5not?5found?6?$AA@ 1007e308     xpcruntime:xpcimports.obj
 0002:00008330       ??_C@_0BD@MFNDMBOF@FindUsbVideoDevice?$AA@ 1007e330     xpcruntime:xpcimports.obj
 0002:00008348       ??_C@_0BO@POKLDHMI@FindUsbVideoDevice?5not?5found?6?$AA@ 1007e348     xpcruntime:xpcimports.obj
 0002:0000836c       ??_C@_0BA@PLPAPNAB@GetVideoConfigs?$AA@ 1007e36c     xpcruntime:xpcimports.obj
 0002:00008380       ??_C@_0BL@DALDHKHC@GetVideoConfigs?5not?5found?6?$AA@ 1007e380     xpcruntime:xpcimports.obj
 0002:000083a0       ??_C@_0L@GBAEMHMH@StartVideo?$AA@ 1007e3a0     xpcruntime:xpcimports.obj
 0002:000083b0       ??_C@_0BG@HDCELEBP@StartVideo?5not?5found?6?$AA@ 1007e3b0     xpcruntime:xpcimports.obj
 0002:000083cc       ??_C@_0BA@FDNPOCLN@ReadFrameBuffer?$AA@ 1007e3cc     xpcruntime:xpcimports.obj
 0002:000083e0       ??_C@_0BL@JHGHPNBI@ReadFrameBuffer?5not?5found?6?$AA@ 1007e3e0     xpcruntime:xpcimports.obj
 0002:00008400       ??_C@_09FAHCLKAG@StopVideo?$AA@ 1007e400     xpcruntime:xpcimports.obj
 0002:0000840c       ??_C@_0BF@NKGKKADL@StopVideo?5not?5found?6?$AA@ 1007e40c     xpcruntime:xpcimports.obj
 0002:00008428       ??_C@_0O@MCPKDLLL@ConvertUImage?$AA@ 1007e428     xpcruntime:xpcimports.obj
 0002:00008438       ??_C@_0BJ@PHJKOAFL@ConvertUImage?5not?5found?6?$AA@ 1007e438     xpcruntime:xpcimports.obj
 0002:00008458       ??_C@_0BD@NKCBPBJJ@CreateVideoDisplay?$AA@ 1007e458     xpcruntime:xpcimports.obj
 0002:00008470       ??_C@_0BO@HPPLLNFP@CreateVideoDisplay?5not?5found?6?$AA@ 1007e470     xpcruntime:xpcimports.obj
 0002:00008494       ??_C@_0BE@KJCKGPHA@DestroyVideoDisplay?$AA@ 1007e494     xpcruntime:xpcimports.obj
 0002:000084ac       ??_C@_0BP@FMGLJAIJ@DestroyVideoDisplay?5not?5found?6?$AA@ 1007e4ac     xpcruntime:xpcimports.obj
 0002:000084d4       ??_C@_0BC@HCMIMIDN@StartVideoDisplay?$AA@ 1007e4d4     xpcruntime:xpcimports.obj
 0002:000084ec       ??_C@_0BN@EFIEBGOO@StartVideoDisplay?5not?5found?6?$AA@ 1007e4ec     xpcruntime:xpcimports.obj
 0002:00008510       ??_C@_0BB@JBBLMILG@StopVideoDisplay?$AA@ 1007e510     xpcruntime:xpcimports.obj
 0002:00008524       ??_C@_0BM@DBJBPLEL@StopVideoDisplay?5not?5found?6?$AA@ 1007e524     xpcruntime:xpcimports.obj
 0002:00008548       ??_C@_0M@MFJEGMHC@StreamVideo?$AA@ 1007e548     xpcruntime:xpcimports.obj
 0002:00008558       ??_C@_0BH@OINCDMLA@StreamVideo?5not?5found?6?$AA@ 1007e558     xpcruntime:xpcimports.obj
 0002:00008574       ??_C@_0N@IGGLCIGE@xpceaddEvent?$AA@ 1007e574     xpcruntime:xpcimports.obj
 0002:00008584       ??_C@_0BI@NHJNFMKH@xpceaddEvent?5not?5found?6?$AA@ 1007e584     xpcruntime:xpcimports.obj
 0002:000085a0       ??_C@_0BB@HDPOIJAB@xpceDAQPostEvent?$AA@ 1007e5a0     xpcruntime:xpcimports.obj
 0002:000085b4       ??_C@_0BM@IHANBKGN@xpceDAQPostEvent?5not?5found?6?$AA@ 1007e5b4     xpcruntime:xpcimports.obj
 0002:000085d8       ??_C@_0BH@MBACMOD@xpceDAQUpdateTimeStamp?$AA@ 1007e5d8     xpcruntime:xpcimports.obj
 0002:000085f4       ??_C@_0CC@DAKBBINL@xpceDAQUpdateTimeStamp?5not?5found@ 1007e5f4     xpcruntime:xpcimports.obj
 0002:0000861c       ??_C@_0BN@HJOHIFOM@xpceGetIntTimerGranularityNS?$AA@ 1007e61c     xpcruntime:xpcimports.obj
 0002:00008640       ??_C@_0CI@OADDPMKB@xpceGetIntTimerGranularityNS?5not@ 1007e640     xpcruntime:xpcimports.obj
 0002:00008670       ??_C@_0BG@CCHICKPN@slrteSetStepSizeDelta?$AA@ 1007e670     xpcruntime:xpcimports.obj
 0002:0000868c       ??_C@_0CB@MKHINEIJ@slrteSetStepSizeDelta?5not?5found?6@ 1007e68c     xpcruntime:xpcimports.obj
 0002:000086b4       ??_C@_0BI@CLNBLDKJ@slrteGetCurrentStepSize?$AA@ 1007e6b4     xpcruntime:xpcimports.obj
 0002:000086d0       ??_C@_0CD@GIOJPGJA@slrteGetCurrentStepSize?5not?5foun@ 1007e6d0     xpcruntime:xpcimports.obj
 0002:000086fc       ??_C@_0BE@FCLCBOC@registerPTPTimeRead?$AA@ 1007e6fc     xpcruntime:xpcimports.obj
 0002:00008714       ??_C@_0BP@LHPKAJIP@registerPTPTimeRead?5not?5found?6?$AA@ 1007e714     xpcruntime:xpcimports.obj
 0002:0000873c       ??_C@_0BG@KIGCDDJI@unRegisterPTPTimeRead?$AA@ 1007e73c     xpcruntime:xpcimports.obj
 0002:00008758       ??_C@_0CB@MLFFBFCM@unRegisterPTPTimeRead?5not?5found?6@ 1007e758     xpcruntime:xpcimports.obj
 0002:00008780       ??_C@_0BB@IPMDDBHK@slTestInitialize?$AA@ 1007e780     xpcruntime:xpcimports.obj
 0002:00008794       ??_C@_0BM@LAJFCCJH@slTestInitialize?5not?5found?6?$AA@ 1007e794     xpcruntime:xpcimports.obj
 0002:000087b8       ??_C@_0BF@OOMPMEBC@slTestLogAssessments?$AA@ 1007e7b8     xpcruntime:xpcimports.obj
 0002:000087d4       ??_C@_0CA@FGJCEBAG@slTestLogAssessments?5not?5found?6?$AA@ 1007e7d4     xpcruntime:xpcimports.obj
 0002:000087fc       ??_C@_0BB@HJHKONHO@slTestEvalOnFail?$AA@ 1007e7fc     xpcruntime:xpcimports.obj
 0002:00008810       ??_C@_0BM@JIKCFFNJ@slTestEvalOnFail?5not?5found?6?$AA@ 1007e810     xpcruntime:xpcimports.obj
 0002:00008834       ??_C@_0BA@LBHLABFP@slTestTerminate?$AA@ 1007e834     xpcruntime:xpcimports.obj
 0002:00008848       ??_C@_0BL@EMFGKAPA@slTestTerminate?5not?5found?6?$AA@ 1007e848     xpcruntime:xpcimports.obj
 0002:00008868       ??_C@_0BE@JPNPBBEO@slTestRegAssessment?$AA@ 1007e868     xpcruntime:xpcimports.obj
 0002:00008880       ??_C@_0BP@FBDEJJJH@slTestRegAssessment?5not?5found?6?$AA@ 1007e880     xpcruntime:xpcimports.obj
 0002:000088a8       ??_C@_0O@NCLGDNIB@slrteSetupMSI?$AA@ 1007e8a8     xpcruntime:xpcimports.obj
 0002:000088b8       ??_C@_0BJ@HEFMECLM@slrteSetupMSI?5not?5found?6?$AA@ 1007e8b8     xpcruntime:xpcimports.obj
 0002:000088d8       ??_C@_0BH@BPOLALHD@slrtGetCRBScratchSpace?$AA@ 1007e8d8     xpcruntime:xpcimports.obj
 0002:000088f4       ??_C@_0CC@KCKAJKKJ@slrtGetCRBScratchSpace?5not?5found@ 1007e8f4     xpcruntime:xpcimports.obj
 0002:0000891c       ??_C@_0BC@MKFDAKOL@slrtGetSgCRBSpace?$AA@ 1007e91c     xpcruntime:xpcimports.obj
 0002:00008934       ??_C@_0BN@JDPHPLHL@slrtGetSgCRBSpace?5not?5found?6?$AA@ 1007e934     xpcruntime:xpcimports.obj
 0002:00008958       ??_C@_0P@EPAPKLIF@slrtfsOpenFile?$AA@ 1007e958     xpcruntime:xpcimports.obj
 0002:0000896c       ??_C@_0BK@FIHCBOHG@slrtfsOpenFile?5not?5found?6?$AA@ 1007e96c     xpcruntime:xpcimports.obj
 0002:0000898c       ??_C@_0BA@LILAFDDL@slrtfsCloseFile?$AA@ 1007e98c     xpcruntime:xpcimports.obj
 0002:000089a0       ??_C@_0BL@DEGHJFIB@slrtfsCloseFile?5not?5found?6?$AA@ 1007e9a0     xpcruntime:xpcimports.obj
 0002:000089c0       ??_C@_0BC@OKMJDIEH@slrtfsWriteToFile?$AA@ 1007e9c0     xpcruntime:xpcimports.obj
 0002:000089d8       ??_C@_0BN@KCFLCLAH@slrtfsWriteToFile?5not?5found?6?$AA@ 1007e9d8     xpcruntime:xpcimports.obj
 0002:000089fc       ??_C@_0BK@GIPNFFFF@slrtfsGetFileErrorMessage?$AA@ 1007e9fc     xpcruntime:xpcimports.obj
 0002:00008a1c       ??_C@_0CF@BCBLMKLE@slrtfsGetFileErrorMessage?5not?5fo@ 1007ea1c     xpcruntime:xpcimports.obj
 0002:00008a48       ??_C@_0BD@ICBOKMK@slrtfsGetFileError?$AA@ 1007ea48     xpcruntime:xpcimports.obj
 0002:00008a60       ??_C@_0BO@FNBANAE@slrtfsGetFileError?5not?5found?6?$AA@ 1007ea60     xpcruntime:xpcimports.obj
 0002:00008a84       ??_C@_0BE@PPAJMHJP@slrtfsOpenFileAsync?$AA@ 1007ea84     xpcruntime:xpcimports.obj
 0002:00008a9c       ??_C@_0BP@HKBMMJOK@slrtfsOpenFileAsync?5not?5found?6?$AA@ 1007ea9c     xpcruntime:xpcimports.obj
 0002:00008ac4       ??_C@_0BF@IGNDIBPF@slrtfsCloseFileAsync?$AA@ 1007eac4     xpcruntime:xpcimports.obj
 0002:00008ae0       ??_C@_0CA@GJPFDBKN@slrtfsCloseFileAsync?5not?5found?6?$AA@ 1007eae0     xpcruntime:xpcimports.obj
 0002:00008b08       ??_C@_0BE@IOLEBNB@slrtfsGetFileStatus?$AA@ 1007eb08     xpcruntime:xpcimports.obj
 0002:00008b20       ??_C@_0BP@PEFHDGHL@slrtfsGetFileStatus?5not?5found?6?$AA@ 1007eb20     xpcruntime:xpcimports.obj
 0002:00008b48       ??_C@_0M@HKIJIMG@slrtfsFread?$AA@ 1007eb48     xpcruntime:xpcimports.obj
 0002:00008b58       ??_C@_0BH@OOKBGONO@slrtfsFread?5not?5found?6?$AA@ 1007eb58     xpcruntime:xpcimports.obj
 0002:00008b74       ??_C@_0BE@OGCMPLAP@slrtGetDefaultDrive?$AA@ 1007eb74     xpcruntime:xpcimports.obj
 0002:00008b8c       ??_C@_0BP@HKFGLHOE@slrtGetDefaultDrive?5not?5found?6?$AA@ 1007eb8c     xpcruntime:xpcimports.obj
 0002:00008bb4       ??_C@_0N@NAJIKFFI@slrtLogEvent?$AA@ 1007ebb4     xpcruntime:xpcimports.obj
 0002:00008bc4       ??_C@_0BI@NKCEACND@slrtLogEvent?5not?5found?6?$AA@ 1007ebc4     xpcruntime:xpcimports.obj
 0002:00008be0       ??_C@_0N@IDKFJOHI@getlasterror?$AA@ 1007ebe0     xpcruntime:xpcimports.obj
 0002:00008bf0       ??_C@_0BI@MIHMCHGL@getlasterror?5not?5found?6?$AA@ 1007ebf0     xpcruntime:xpcimports.obj
 0002:00008c0c       ??_C@_0P@OKHGKJKN@geterrorstring?$AA@ 1007ec0c     xpcruntime:xpcimports.obj
 0002:00008c20       ??_C@_0BK@NOHFDMLP@geterrorstring?5not?5found?6?$AA@ 1007ec20     xpcruntime:xpcimports.obj
 0002:00008c40       ??_C@_0BD@HNFFKMGJ@slrtGetCPUTCelsius?$AA@ 1007ec40     xpcruntime:xpcimports.obj
 0002:00008c58       ??_C@_0BO@LHBFKLIH@slrtGetCPUTCelsius?5not?5found?6?$AA@ 1007ec58     xpcruntime:xpcimports.obj
 0002:00008c7c       ??_C@_0M@OONCNCLM@slrtWarning?$AA@ 1007ec7c     xpcruntime:xpcimports.obj
 0002:00008c8c       ??_C@_0BH@ICKGIEMB@slrtWarning?5not?5found?6?$AA@ 1007ec8c     xpcruntime:xpcimports.obj
 0002:00008ca8       ??_C@_0N@EAAOMIIE@isUsedByRTIP?$AA@ 1007eca8     xpcruntime:xpcimports.obj
 0002:00008cb8       ??_C@_0BI@GNHHHICK@isUsedByRTIP?5not?5found?6?$AA@ 1007ecb8     xpcruntime:xpcimports.obj
 0002:00008cd4       ??_C@_0BC@HLDKJAG@SetIPTASKPriority?$AA@ 1007ecd4     xpcruntime:xpcimports.obj
 0002:00008cec       ??_C@_0BN@OGKMHHAE@SetIPTASKPriority?5not?5found?6?$AA@ 1007ecec     xpcruntime:xpcimports.obj
 0002:00008d10       ??_C@_0O@LHENMBDD@OpenInterface?$AA@ 1007ed10     xpcruntime:xpcimports.obj
 0002:00008d20       ??_C@_0BJ@PFGDBKHB@OpenInterface?5not?5found?6?$AA@ 1007ed20     xpcruntime:xpcimports.obj
 0002:00008d40       ??_C@_0P@IINFELKD@CloseInterface?$AA@ 1007ed40     xpcruntime:xpcimports.obj
 0002:00008d54       ??_C@_0BK@PAPDNDBK@CloseInterface?5not?5found?6?$AA@ 1007ed54     xpcruntime:xpcimports.obj
 0002:00008d74       ??_C@_05LEFIAAOI@SetIP?$AA@ 1007ed74     xpcruntime:xpcimports.obj
 0002:00008d7c       ??_C@_0BB@CGLIBAMM@SetIP?5not?5found?6?$AA@ 1007ed7c     xpcruntime:xpcimports.obj
 0002:00008d90       ??_C@_0BA@HIJJHHMD@AddGatewayRoute?$AA@ 1007ed90     xpcruntime:xpcimports.obj
 0002:00008da4       ??_C@_0BL@BFCFMDMN@AddGatewayRoute?5not?5found?6?$AA@ 1007eda4     xpcruntime:xpcimports.obj
 0002:00008dc4       ??_C@_0M@PHMABFPI@DeleteRoute?$AA@ 1007edc4     xpcruntime:xpcimports.obj
 0002:00008dd4       ??_C@_0BH@JPJGLLID@DeleteRoute?5not?5found?6?$AA@ 1007edd4     xpcruntime:xpcimports.obj
 0002:00008df0       ??_C@_0BA@FCDIMKIJ@GetHostTarIPAdd?$AA@ 1007edf0     xpcruntime:xpcimports.obj
 0002:00008e04       ??_C@_0BL@MBKDGKBO@GetHostTarIPAdd?5not?5found?6?$AA@ 1007ee04     xpcruntime:xpcimports.obj
 0002:00008e24       ??_C@_0M@HPMIPIBI@GetDCUUsage?$AA@ 1007ee24     xpcruntime:xpcimports.obj
 0002:00008e34       ??_C@_0BH@EBLJKCJC@GetDCUUsage?5not?5found?6?$AA@ 1007ee34     xpcruntime:xpcimports.obj
 0002:00008e50       ??_C@_06MPKMECK@accept?$AA@ 1007ee50     xpcruntime:xpcimports.obj
 0002:00008e58       ??_C@_0BC@GBGIEMNO@accept?5not?5found?6?$AA@ 1007ee58     xpcruntime:xpcimports.obj
 0002:00008e70       ??_C@_04NPNJNMMP@bind?$AA@ 1007ee70     xpcruntime:xpcimports.obj
 0002:00008e78       ??_C@_0BA@DAJNENLO@bind?5not?5found?6?$AA@ 1007ee78     xpcruntime:xpcimports.obj
 0002:00008e8c       ??_C@_0L@CKHNIFCM@setsockopt?$AA@ 1007ee8c     xpcruntime:xpcimports.obj
 0002:00008e9c       ??_C@_0BG@MFIIOMFE@setsockopt?5not?5found?6?$AA@ 1007ee9c     xpcruntime:xpcimports.obj
 0002:00008eb8       ??_C@_0M@ODDJDCDK@closesocket?$AA@ 1007eeb8     xpcruntime:xpcimports.obj
 0002:00008ec8       ??_C@_0BH@JHGHMIL@closesocket?5not?5found?6?$AA@ 1007eec8     xpcruntime:xpcimports.obj
 0002:00008ee4       ??_C@_07KAIBNCHO@connect?$AA@ 1007eee4     xpcruntime:xpcimports.obj
 0002:00008ef0       ??_C@_0BD@MKLLMBM@connect?5not?5found?6?$AA@ 1007eef0     xpcruntime:xpcimports.obj
 0002:00008f08       ??_C@_0M@PBPOCKDG@ioctlsocket?$AA@ 1007ef08     xpcruntime:xpcimports.obj
 0002:00008f18       ??_C@_0BH@NFCNHHIH@ioctlsocket?5not?5found?6?$AA@ 1007ef18     xpcruntime:xpcimports.obj
 0002:00008f34       ??_C@_06OODDLKLE@listen?$AA@ 1007ef34     xpcruntime:xpcimports.obj
 0002:00008f3c       ??_C@_0BC@NHBILEKI@listen?5not?5found?6?$AA@ 1007ef3c     xpcruntime:xpcimports.obj
 0002:00008f54       ??_C@_08HMBBGFHE@recvfrom?$AA@ 1007ef54     xpcruntime:xpcimports.obj
 0002:00008f60       ??_C@_0BE@BJAJFFLF@recvfrom?5not?5found?6?$AA@ 1007ef60     xpcruntime:xpcimports.obj
 0002:00008f78       ??_C@_06MEPBGKEC@sendto?$AA@ 1007ef78     xpcruntime:xpcimports.obj
 0002:00008f80       ??_C@_0BC@BHPIMDJO@sendto?5not?5found?6?$AA@ 1007ef80     xpcruntime:xpcimports.obj
 0002:00008f98       ??_C@_09JKBDEEOB@inet_addr?$AA@ 1007ef98     xpcruntime:xpcimports.obj
 0002:00008fa4       ??_C@_0BF@HKJPGECN@inet_addr?5not?5found?6?$AA@ 1007efa4     xpcruntime:xpcimports.obj
 0002:00008fc0       ??_C@_06HBELJPBO@socket?$AA@ 1007efc0     xpcruntime:xpcimports.obj
 0002:00008fc8       ??_C@_0BC@NAGFFJGA@socket?5not?5found?6?$AA@ 1007efc8     xpcruntime:xpcimports.obj
 0002:00008fe0       ??_C@_09ICJIFGNC@GetSocket?$AA@ 1007efe0     xpcruntime:xpcimports.obj
 0002:00008fec       ??_C@_0BF@KDBCKMOJ@GetSocket?5not?5found?6?$AA@ 1007efec     xpcruntime:xpcimports.obj
 0002:00009008       ??_C@_0P@KJEGJMJI@GetSocketState?$AA@ 1007f008     xpcruntime:xpcimports.obj
 0002:0000901c       ??_C@_0BK@IALBJHEB@GetSocketState?5not?5found?6?$AA@ 1007f01c     xpcruntime:xpcimports.obj
 0002:0000903c       ??_C@_0L@MEAJHNHB@SocketSend?$AA@ 1007f03c     xpcruntime:xpcimports.obj
 0002:0000904c       ??_C@_0BG@EOCMBFJA@SocketSend?5not?5found?6?$AA@ 1007f04c     xpcruntime:xpcimports.obj
 0002:00009068       ??_C@_0O@PFPCLEMF@SocketReceive?$AA@ 1007f068     xpcruntime:xpcimports.obj
 0002:00009078       ??_C@_0BJ@HIBADDFO@SocketReceive?5not?5found?6?$AA@ 1007f078     xpcruntime:xpcimports.obj
 0002:00009098       ??_C@_0BD@OOGFNAIK@CreateServerSocket?$AA@ 1007f098     xpcruntime:xpcimports.obj
 0002:000090b0       ??_C@_0BO@GKIJHIPH@CreateServerSocket?5not?5found?6?$AA@ 1007f0b0     xpcruntime:xpcimports.obj
 0002:000090d4       ??_C@_0BB@KGHJGFFO@OpenServerListen?$AA@ 1007f0d4     xpcruntime:xpcimports.obj
 0002:000090e8       ??_C@_0BM@NFMMLIO@OpenServerListen?5not?5found?6?$AA@ 1007f0e8     xpcruntime:xpcimports.obj
 0002:0000910c       ??_C@_0BE@BAJLDJAH@ConnectServerSocket?$AA@ 1007f10c     xpcruntime:xpcimports.obj
 0002:00009124       ??_C@_0BP@KJNODIKE@ConnectServerSocket?5not?5found?6?$AA@ 1007f124     xpcruntime:xpcimports.obj
 0002:0000914c       ??_C@_0BC@PLKKJDIM@CloseServerSocket?$AA@ 1007f14c     xpcruntime:xpcimports.obj
 0002:00009164       ??_C@_0BN@KEJEPNMB@CloseServerSocket?5not?5found?6?$AA@ 1007f164     xpcruntime:xpcimports.obj
 0002:00009188       ??_C@_0BD@MCLPKCPP@CreateClientSocket?$AA@ 1007f188     xpcruntime:xpcimports.obj
 0002:000091a0       ??_C@_0BO@DILAGPFN@CreateClientSocket?5not?5found?6?$AA@ 1007f1a0     xpcruntime:xpcimports.obj
 0002:000091c4       ??_C@_0BB@DAPKNNLG@BindClientSocket?$AA@ 1007f1c4     xpcruntime:xpcimports.obj
 0002:000091d8       ??_C@_0BM@LLLMMDFN@BindClientSocket?5not?5found?6?$AA@ 1007f1d8     xpcruntime:xpcimports.obj
 0002:000091fc       ??_C@_0BE@DMEBELHC@ConnectClientSocket?$AA@ 1007f1fc     xpcruntime:xpcimports.obj
 0002:00009214       ??_C@_0BP@PLOHCPAO@ConnectClientSocket?5not?5found?6?$AA@ 1007f214     xpcruntime:xpcimports.obj
 0002:0000923c       ??_C@_0BC@NHHAOBPJ@CloseClientSocket?$AA@ 1007f23c     xpcruntime:xpcimports.obj
 0002:00009254       ??_C@_0BN@PGKNOKGL@CloseClientSocket?5not?5found?6?$AA@ 1007f254     xpcruntime:xpcimports.obj
 0002:00009278       __real@3e112e0be826d695    1007f278     xpcruntime:xpcPCFunctions.obj
 0002:00009288       __real@3f538bcdfefbf402    1007f288     xpcruntime:xpcPCFunctions.obj
 0002:00009298       __real@40112e0be826d695    1007f298     xpcruntime:xpcPCFunctions.obj
 0002:000092a8       __real@40f0000000000000    1007f2a8     xpcruntime:xpcPCFunctions.obj
 0002:00009368       __pRawDllMain              1007f368     LIBCMT:dll_dllmain.obj
 0002:00009368       __pDefaultRawDllMain       1007f368     LIBCMT:dll_dllmain.obj
 0002:0000936c       __Microsoft_CRTProvider    1007f36c     libvcruntime:telemetry.obj
 0002:00009370       ??_C@_11LOCGONAA@?$AA?$AA@ 1007f370     libvcruntime:telemetry.obj
 0002:00009374       ??_C@_0O@JEOPJOMI@Main?5Invoked?4?$AA@ 1007f374     libvcruntime:telemetry.obj
 0002:00009384       ??_C@_0P@NEAEIBDO@Main?5Returned?4?$AA@ 1007f384     libvcruntime:telemetry.obj
 0002:000093ac       ??_C@_1BC@DNHGCMLG@?$AAa?$AAd?$AAv?$AAa?$AAp?$AAi?$AA3?$AA2?$AA?$AA@ 1007f3ac     libvcruntime:winapi_downlevel.obj
 0002:000093c4       ??_C@_1DM@KHCHBNEB@?$AAa?$AAp?$AAi?$AA?9?$AAm?$AAs?$AA?9?$AAw?$AAi?$AAn?$AA?9?$AAc?$AAo?$AAr?$AAe?$AA?9?$AAf?$AAi?$AAb?$AAe?$AAr?$AAs?$AA?9?$AAl?$AA1?$AA?9?$AA1?$AA?9?$AA1?$AA?$AA@ 1007f3c4     libvcruntime:winapi_downlevel.obj
 0002:0000940c       ??_C@_1DK@LPPGFMPP@?$AAa?$AAp?$AAi?$AA?9?$AAm?$AAs?$AA?9?$AAw?$AAi?$AAn?$AA?9?$AAc?$AAo?$AAr?$AAe?$AA?9?$AAs?$AAy?$AAn?$AAc?$AAh?$AA?9?$AAl?$AA1?$AA?9?$AA2?$AA?9?$AA0?$AA?$AA@ 1007f40c     libvcruntime:winapi_downlevel.obj
 0002:00009454       ??_C@_1BC@GDMECMAK@?$AAk?$AAe?$AAr?$AAn?$AAe?$AAl?$AA3?$AA2?$AA?$AA@ 1007f454     libvcruntime:winapi_downlevel.obj
 0002:00009470       ??_C@_0O@BAMBGLIE@EventRegister?$AA@ 1007f470     libvcruntime:winapi_downlevel.obj
 0002:00009484       ??_C@_0BE@BJEEGHGK@EventSetInformation?$AA@ 1007f484     libvcruntime:winapi_downlevel.obj
 0002:000094a0       ??_C@_0BA@FAKLIPIC@EventUnregister?$AA@ 1007f4a0     libvcruntime:winapi_downlevel.obj
 0002:000094b8       ??_C@_0BD@PKLHJPHD@EventWriteTransfer?$AA@ 1007f4b8     libvcruntime:winapi_downlevel.obj
 0002:000094dc       ??_C@_08KNHFBNJ@FlsAlloc?$AA@ 1007f4dc     libvcruntime:winapi_downlevel.obj
 0002:000094f4       ??_C@_07PEJMOBNF@FlsFree?$AA@ 1007f4f4     libvcruntime:winapi_downlevel.obj
 0002:0000950c       ??_C@_0M@GDNOONDI@FlsGetValue?$AA@ 1007f50c     libvcruntime:winapi_downlevel.obj
 0002:00009528       ??_C@_0M@JCPCPOEF@FlsSetValue?$AA@ 1007f528     libvcruntime:winapi_downlevel.obj
 0002:00009544       ??_C@_0BM@HCFOFFN@InitializeCriticalSectionEx?$AA@ 1007f544     libvcruntime:winapi_downlevel.obj
 0002:00009748       ??_C@_08EHJDFFNH@__based?$CI?$AA@ 1007f748     libvcruntime:undname.obj
 0002:00009754       ??_C@_07KOLFKCDI@__cdecl?$AA@ 1007f754     libvcruntime:undname.obj
 0002:00009760       ??_C@_08GHMPAG@__pascal?$AA@ 1007f760     libvcruntime:undname.obj
 0002:0000976c       ??_C@_09IFJBGAPI@__stdcall?$AA@ 1007f76c     libvcruntime:undname.obj
 0002:00009778       ??_C@_0L@NPHFGOKO@__thiscall?$AA@ 1007f778     libvcruntime:undname.obj
 0002:00009788       ??_C@_0L@JMKHOMEK@__fastcall?$AA@ 1007f788     libvcruntime:undname.obj
 0002:00009798       ??_C@_0N@BCKKPABJ@__vectorcall?$AA@ 1007f798     libvcruntime:undname.obj
 0002:000097a8       ??_C@_09HIJEGCPM@__clrcall?$AA@ 1007f7a8     libvcruntime:undname.obj
 0002:000097b4       ??_C@_06GHPCKEAG@__eabi?$AA@ 1007f7b4     libvcruntime:undname.obj
 0002:000097bc       ??_C@_07JOMMBBKO@__ptr64?$AA@ 1007f7bc     libvcruntime:undname.obj
 0002:000097c8       ??_C@_0L@PILCLIHE@__restrict?$AA@ 1007f7c8     libvcruntime:undname.obj
 0002:000097d8       ??_C@_0M@GFIIJFMG@__unaligned?$AA@ 1007f7d8     libvcruntime:undname.obj
 0002:000097e8       ??_C@_09DHDLOLLB@restrict?$CI?$AA@ 1007f7e8     libvcruntime:undname.obj
 0002:000097f4       ??_C@_04NIHEBCM@?5new?$AA@ 1007f7f4     libvcruntime:undname.obj
 0002:000097fc       ??_C@_07FPCDHGMM@?5delete?$AA@ 1007f7fc     libvcruntime:undname.obj
 0002:00009808       ??_C@_01NEMOKFLO@?$DN?$AA@ 1007f808     libvcruntime:undname.obj
 0002:0000980c       ??_C@_02GPIOPFAK@?$DO?$DO?$AA@ 1007f80c     libvcruntime:undname.obj
 0002:00009810       ??_C@_02FODMEDOG@?$DM?$DM?$AA@ 1007f810     libvcruntime:undname.obj
 0002:00009814       ??_C@_01DCLJPIOD@?$CB?$AA@ 1007f814     libvcruntime:undname.obj
 0002:00009818       ??_C@_02EGOFBIJA@?$DN?$DN?$AA@ 1007f818     libvcruntime:undname.obj
 0002:0000981c       ??_C@_02FDNJECIE@?$CB?$DN?$AA@ 1007f81c     libvcruntime:undname.obj
 0002:00009820       ??_C@_02GPECMEKF@?$FL?$FN?$AA@ 1007f820     libvcruntime:undname.obj
 0002:00009824       ??_C@_08LHJFAFGD@operator?$AA@ 1007f824     libvcruntime:undname.obj
 0002:00009830       ??_C@_02HBOOOICD@?9?$DO?$AA@ 1007f830     libvcruntime:undname.obj
 0002:00009834       ??_C@_01NBENCBCI@?$CK?$AA@ 1007f834     libvcruntime:undname.obj
 0002:00009838       ??_C@_02ECNGHCIF@?$CL?$CL?$AA@ 1007f838     libvcruntime:undname.obj
 0002:0000983c       ??_C@_02BAABKJLB@?9?9?$AA@ 1007f83c     libvcruntime:undname.obj
 0002:00009840       ??_C@_01JOAMLHOP@?9?$AA@   1007f840     libvcruntime:undname.obj
 0002:00009844       ??_C@_01MIFGBAGJ@?$CL?$AA@ 1007f844     libvcruntime:undname.obj
 0002:00009848       ??_C@_01HNPIGOCE@?$CG?$AA@ 1007f848     libvcruntime:undname.obj
 0002:0000984c       ??_C@_03MNHNFDLC@?9?$DO?$CK?$AA@ 1007f84c     libvcruntime:undname.obj
 0002:00009850       ??_C@_01KMDKNFGN@?1?$AA@   1007f850     libvcruntime:undname.obj
 0002:00009854       ??_C@_01FGNFDNOH@?$CF?$AA@ 1007f854     libvcruntime:undname.obj
 0002:00009858       ??_C@_01MNNFJEPP@?$DM?$AA@ 1007f858     libvcruntime:undname.obj
 0002:0000985c       ??_C@_02EHCHHCKH@?$DM?$DN?$AA@ 1007f85c     libvcruntime:undname.obj
 0002:00009860       ??_C@_01PPODPGHN@?$DO?$AA@ 1007f860     libvcruntime:undname.obj
 0002:00009864       ??_C@_02EEKDKGMJ@?$DO?$DN?$AA@ 1007f864     libvcruntime:undname.obj
 0002:00009868       ??_C@_01IHBHIGKO@?0?$AA@   1007f868     libvcruntime:undname.obj
 0002:0000986c       ??_C@_02HCKGKOFO@?$CI?$CJ?$AA@ 1007f86c     libvcruntime:undname.obj
 0002:00009870       ??_C@_01PJKLJHI@?$HO?$AA@  1007f870     libvcruntime:undname.obj
 0002:00009874       ??_C@_01JKBOJNNK@?$FO?$AA@ 1007f874     libvcruntime:undname.obj
 0002:00009878       ??_C@_01DNKMNLPK@?$HM?$AA@ 1007f878     libvcruntime:undname.obj
 0002:0000987c       ??_C@_02PPKAJPJL@?$CG?$CG?$AA@ 1007f87c     libvcruntime:undname.obj
 0002:00009880       ??_C@_02NONPIBCD@?$HM?$HM?$AA@ 1007f880     libvcruntime:undname.obj
 0002:00009884       ??_C@_02FPIMKNGF@?$CK?$DN?$AA@ 1007f884     libvcruntime:undname.obj
 0002:00009888       ??_C@_02FOEOMHFC@?$CL?$DN?$AA@ 1007f888     libvcruntime:undname.obj
 0002:0000988c       ??_C@_02FKMDLLOA@?9?$DN?$AA@ 1007f88c     libvcruntime:undname.obj
 0002:00009890       ??_C@_02FJEHGPIO@?1?$DN?$AA@ 1007f890     libvcruntime:undname.obj
 0002:00009894       ??_C@_02FENAOKFI@?$CF?$DN?$AA@ 1007f894     libvcruntime:undname.obj
 0002:00009898       ??_C@_03IKFCCPFF@?$DO?$DO?$DN?$AA@ 1007f898     libvcruntime:undname.obj
 0002:0000989c       ??_C@_03CDNPDDLA@?$DM?$DM?$DN?$AA@ 1007f89c     libvcruntime:undname.obj
 0002:000098a0       ??_C@_02FGJGFEAB@?$CG?$DN?$AA@ 1007f8a0     libvcruntime:undname.obj
 0002:000098a4       ??_C@_02DHLNPPGH@?$HM?$DN?$AA@ 1007f8a4     libvcruntime:undname.obj
 0002:000098a8       ??_C@_02MHEGNOJ@?$FO?$DN?$AA@ 1007f8a8     libvcruntime:undname.obj
 0002:000098ac       ??_C@_09IFPLHPGF@?$GAvftable?8?$AA@ 1007f8ac     libvcruntime:undname.obj
 0002:000098b8       ??_C@_09BLBHBJP@?$GAvbtable?8?$AA@ 1007f8b8     libvcruntime:undname.obj
 0002:000098c4       ??_C@_07FEEIOKP@?$GAvcall?8?$AA@ 1007f8c4     libvcruntime:undname.obj
 0002:000098d0       ??_C@_08LLFFHHDJ@?$GAtypeof?8?$AA@ 1007f8d0     libvcruntime:undname.obj
 0002:000098dc       ??_C@_0BF@KDPPACIK@?$GAlocal?5static?5guard?8?$AA@ 1007f8dc     libvcruntime:undname.obj
 0002:000098f8       ??_C@_08OBABFOLI@?$GAstring?8?$AA@ 1007f8f8     libvcruntime:undname.obj
 0002:00009904       ??_C@_0BD@JDLKDPAB@?$GAvbase?5destructor?8?$AA@ 1007f904     libvcruntime:undname.obj
 0002:0000991c       ??_C@_0BN@DEGPLNFK@?$GAvector?5deleting?5destructor?8?$AA@ 1007f91c     libvcruntime:undname.obj
 0002:00009940       ??_C@_0BO@OBMKPJIG@?$GAdefault?5constructor?5closure?8?$AA@ 1007f940     libvcruntime:undname.obj
 0002:00009964       ??_C@_0BN@IMDCHIKM@?$GAscalar?5deleting?5destructor?8?$AA@ 1007f964     libvcruntime:undname.obj
 0002:00009988       ??_C@_0BO@PFGOCPJJ@?$GAvector?5constructor?5iterator?8?$AA@ 1007f988     libvcruntime:undname.obj
 0002:000099ac       ??_C@_0BN@LFPFMEDL@?$GAvector?5destructor?5iterator?8?$AA@ 1007f9ac     libvcruntime:undname.obj
 0002:000099d0       ??_C@_0CE@IKBNEHA@?$GAvector?5vbase?5constructor?5iterat@ 1007f9d0     libvcruntime:undname.obj
 0002:000099fc       ??_C@_0BL@NILFHHPC@?$GAvirtual?5displacement?5map?8?$AA@ 1007f9fc     libvcruntime:undname.obj
 0002:00009a1c       ??_C@_0CB@JONCMFFK@?$GAeh?5vector?5constructor?5iterator?8@ 1007fa1c     libvcruntime:undname.obj
 0002:00009a44       ??_C@_0CA@GCEOPDGL@?$GAeh?5vector?5destructor?5iterator?8?$AA@ 1007fa44     libvcruntime:undname.obj
 0002:00009a6c       ??_C@_0CH@OOJPLCPH@?$GAeh?5vector?5vbase?5constructor?5ite@ 1007fa6c     libvcruntime:undname.obj
 0002:00009a9c       ??_C@_0BL@LLKPOHJI@?$GAcopy?5constructor?5closure?8?$AA@ 1007fa9c     libvcruntime:undname.obj
 0002:00009abc       ??_C@_0BA@KBCDOMBN@?$GAudt?5returning?8?$AA@ 1007fabc     libvcruntime:undname.obj
 0002:00009ad0       ??_C@_03KLGMFNMG@?$GAEH?$AA@ 1007fad0     libvcruntime:undname.obj
 0002:00009ad4       ??_C@_05KHLCHHI@?$GARTTI?$AA@ 1007fad4     libvcruntime:undname.obj
 0002:00009adc       ??_C@_0BA@KKLDJDLB@?$GAlocal?5vftable?8?$AA@ 1007fadc     libvcruntime:undname.obj
 0002:00009af0       ??_C@_0CE@IIHCMGGL@?$GAlocal?5vftable?5constructor?5closu@ 1007faf0     libvcruntime:undname.obj
 0002:00009b1c       ??_C@_06FHBGPFGH@?5new?$FL?$FN?$AA@ 1007fb1c     libvcruntime:undname.obj
 0002:00009b24       ??_C@_09LBNFPBCA@?5delete?$FL?$FN?$AA@ 1007fb24     libvcruntime:undname.obj
 0002:00009b30       ??_C@_0P@HJKNJFNN@?$GAomni?5callsig?8?$AA@ 1007fb30     libvcruntime:undname.obj
 0002:00009b44       ??_C@_0BL@CNOONJFP@?$GAplacement?5delete?5closure?8?$AA@ 1007fb44     libvcruntime:undname.obj
 0002:00009b64       ??_C@_0BN@CKNJLHMB@?$GAplacement?5delete?$FL?$FN?5closure?8?$AA@ 1007fb64     libvcruntime:undname.obj
 0002:00009b88       ??_C@_0CG@CFDHKGGD@?$GAmanaged?5vector?5constructor?5iter@ 1007fb88     libvcruntime:undname.obj
 0002:00009bb8       ??_C@_0CF@IMGKMJNO@?$GAmanaged?5vector?5destructor?5itera@ 1007fbb8     libvcruntime:undname.obj
 0002:00009be4       ??_C@_0CG@HLDDJMAG@?$GAeh?5vector?5copy?5constructor?5iter@ 1007fbe4     libvcruntime:undname.obj
 0002:00009c14       ??_C@_0CM@FCBBDIGB@?$GAeh?5vector?5vbase?5copy?5constructo@ 1007fc14     libvcruntime:undname.obj
 0002:00009c48       ??_C@_0BL@CLIPGLGB@?$GAdynamic?5initializer?5for?5?8?$AA@ 1007fc48     libvcruntime:undname.obj
 0002:00009c68       ??_C@_0CB@PDBIFEP@?$GAdynamic?5atexit?5destructor?5for?5?8@ 1007fc68     libvcruntime:undname.obj
 0002:00009c90       ??_C@_0CD@CGAJBKEJ@?$GAvector?5copy?5constructor?5iterato@ 1007fc90     libvcruntime:undname.obj
 0002:00009cbc       ??_C@_0CJ@GJELGAMM@?$GAvector?5vbase?5copy?5constructor?5i@ 1007fcbc     libvcruntime:undname.obj
 0002:00009cf0       ??_C@_0CL@FGIJHLCE@?$GAmanaged?5vector?5copy?5constructor@ 1007fcf0     libvcruntime:undname.obj
 0002:00009d24       ??_C@_0BM@PMGGMLDN@?$GAlocal?5static?5thread?5guard?8?$AA@ 1007fd24     libvcruntime:undname.obj
 0002:00009d48       ??_C@_0N@BDNMDMOL@operator?5?$CC?$CC?5?$AA@ 1007fd48     libvcruntime:undname.obj
 0002:00009d58       ??_C@_0BC@DAFEJGAK@?5Type?5Descriptor?8?$AA@ 1007fd58     libvcruntime:undname.obj
 0002:00009d70       ??_C@_0BM@LDKODKLH@?5Base?5Class?5Descriptor?5at?5?$CI?$AA@ 1007fd70     libvcruntime:undname.obj
 0002:00009d94       ??_C@_0BD@LGICGFMM@?5Base?5Class?5Array?8?$AA@ 1007fd94     libvcruntime:undname.obj
 0002:00009dac       ??_C@_0BN@MECKDCOJ@?5Class?5Hierarchy?5Descriptor?8?$AA@ 1007fdac     libvcruntime:undname.obj
 0002:00009dd0       ??_C@_0BK@CFCOFLF@?5Complete?5Object?5Locator?8?$AA@ 1007fdd0     libvcruntime:undname.obj
 0002:00009df0       ??_C@_04HEJADOOB@CV?3?5?$AA@ 1007fdf0     libvcruntime:undname.obj
 0002:00009df8       ??_C@_02MOLJINC@?3?3?$AA@  1007fdf8     libvcruntime:undname.obj
 0002:00009dfc       ??_C@_0BE@JAEOCHPE@template?9parameter?9?$AA@ 1007fdfc     libvcruntime:undname.obj
 0002:00009e14       ??_C@_0O@KHGCOMHP@generic?9type?9?$AA@ 1007fe14     libvcruntime:undname.obj
 0002:00009e24       ??_C@_01NLNLIGKH@?$GA?$AA@ 1007fe24     libvcruntime:undname.obj
 0002:00009e28       ??_C@_01GEODFPGF@?8?$AA@   1007fe28     libvcruntime:undname.obj
 0002:00009e2c       ??_C@_0BG@JNJLAMPM@?$GAanonymous?5namespace?8?$AA@ 1007fe2c     libvcruntime:undname.obj
 0002:00009e48       ??_C@_02OHHJMEON@?8?8?$AA@ 1007fe48     libvcruntime:undname.obj
 0002:00009e4c       ??_C@_0BN@IBLMMFAP@?$GAnon?9type?9template?9parameter?$AA@ 1007fe4c     libvcruntime:undname.obj
 0002:00009e70       ??_C@_04GKJNKENE@void?$AA@ 1007fe70     libvcruntime:undname.obj
 0002:00009e78       ??_C@_0BE@EODMJLIF@?$GAtemplate?9parameter?$AA@ 1007fe78     libvcruntime:undname.obj
 0002:00009e90       ??_C@_03KHICJKCI@?4?4?4?$AA@ 1007fe90     libvcruntime:undname.obj
 0002:00009e94       ??_C@_04HIBGFPH@NULL?$AA@  1007fe94     libvcruntime:undname.obj
 0002:00009e9c       ??_C@_02DPKJAMEF@?$CFd?$AA@ 1007fe9c     libvcruntime:undname.obj
 0002:00009ea0       ??_C@_0BK@IHCCFNEL@?$GAtemplate?9type?9parameter?9?$AA@ 1007fea0     libvcruntime:undname.obj
 0002:00009ec0       ??_C@_0BK@OFCNNNKO@?$GAgeneric?9class?9parameter?9?$AA@ 1007fec0     libvcruntime:undname.obj
 0002:00009ee0       ??_C@_0BL@NGJBLFIL@?$GAgeneric?9method?9parameter?9?$AA@ 1007fee0     libvcruntime:undname.obj
 0002:00009f00       ??_C@_03OPGICMGF@?$HN?8?5?$AA@ 1007ff00     libvcruntime:undname.obj
 0002:00009f04       ??_C@_02IGFCGPIL@?$HN?8?$AA@ 1007ff04     libvcruntime:undname.obj
 0002:00009f08       ??_C@_01CLKCMJKC@?5?$AA@   1007ff08     libvcruntime:undname.obj
 0002:00009f0c       ??_C@_0N@CBHHHENL@?$GAvtordispex?$HL?$AA@ 1007ff0c     libvcruntime:undname.obj
 0002:00009f1c       ??_C@_0L@GHPFDFH@?$GAvtordisp?$HL?$AA@ 1007ff1c     libvcruntime:undname.obj
 0002:00009f2c       ??_C@_0L@HNGCOGAE@?$GAadjustor?$HL?$AA@ 1007ff2c     libvcruntime:undname.obj
 0002:00009f3c       ??_C@_0CB@KJDOOODE@?$GAlocal?5static?5destructor?5helper?8@ 1007ff3c     libvcruntime:undname.obj
 0002:00009f64       ??_C@_0DB@ILEFOCIJ@?$GAtemplate?5static?5data?5member?5con@ 1007ff64     libvcruntime:undname.obj
 0002:00009fa0       ??_C@_0DA@HGFJFBBE@?$GAtemplate?5static?5data?5member?5des@ 1007ffa0     libvcruntime:undname.obj
 0002:00009fdc       ??_C@_07PGOEDBHP@static?5?$AA@ 1007ffdc     libvcruntime:undname.obj
 0002:00009fe8       ??_C@_08NIEOINHE@virtual?5?$AA@ 1007ffe8     libvcruntime:undname.obj
 0002:00009ff4       ??_C@_09LAPHOOG@private?3?5?$AA@ 1007fff4     libvcruntime:undname.obj
 0002:0000a000       ??_C@_0M@GAIFPFIP@protected?3?5?$AA@ 10080000     libvcruntime:undname.obj
 0002:0000a010       ??_C@_08GPDDCMKI@public?3?5?$AA@ 10080010     libvcruntime:undname.obj
 0002:0000a01c       ??_C@_08KJLFOPNE@?$FLthunk?$FN?3?$AA@ 1008001c     libvcruntime:undname.obj
 0002:0000a028       ??_C@_0M@DHNBOJMP@extern?5?$CCC?$CC?5?$AA@ 10080028     libvcruntime:undname.obj
 0002:0000a038       ??_C@_02KCKGHPCA@?$CJ?5?$AA@ 10080038     libvcruntime:undname.obj
 0002:0000a03c       ??_C@_05CIHEBHNO@char?5?$AA@ 1008003c     libvcruntime:undname.obj
 0002:0000a044       ??_C@_06EHJMALKF@short?5?$AA@ 10080044     libvcruntime:undname.obj
 0002:0000a04c       ??_C@_04LAHKHJMA@int?5?$AA@ 1008004c     libvcruntime:undname.obj
 0002:0000a054       ??_C@_05CJIMAING@long?5?$AA@ 10080054     libvcruntime:undname.obj
 0002:0000a05c       ??_C@_09EBBEKKIH@unsigned?5?$AA@ 1008005c     libvcruntime:undname.obj
 0002:0000a068       ??_C@_05BEFAKPML@void?5?$AA@ 10080068     libvcruntime:undname.obj
 0002:0000a070       ??_C@_08PABEKFH@volatile?$AA@ 10080070     libvcruntime:undname.obj
 0002:0000a07c       ??_C@_0P@GCOCNKDM@std?3?3nullptr_t?$AA@ 1008007c     libvcruntime:undname.obj
 0002:0000a090       ??_C@_0L@EGPHHEKN@?$DMellipsis?$DO?$AA@ 10080090     libvcruntime:undname.obj
 0002:0000a0a0       ??_C@_04EENFHACM@?0?4?4?4?$AA@ 100800a0     libvcruntime:undname.obj
 0002:0000a0a8       ??_C@_0M@ELJOJFFH@?0?$DMellipsis?$DO?$AA@ 100800a8     libvcruntime:undname.obj
 0002:0000a0b8       ??_C@_07HDJPLPEK@?5throw?$CI?$AA@ 100800b8     libvcruntime:undname.obj
 0002:0000a0c4       ??_C@_03PBJBJNON@cpu?$AA@  100800c4     libvcruntime:undname.obj
 0002:0000a0c8       ??_C@_03DCBBJBAA@amp?$AA@  100800c8     libvcruntime:undname.obj
 0002:0000a0cc       ??_C@_02KEGNLNML@?0?5?$AA@ 100800cc     libvcruntime:undname.obj
 0002:0000a0d0       ??_C@_04ENMBGAPA@char?$AA@ 100800d0     libvcruntime:undname.obj
 0002:0000a0d8       ??_C@_05BFKKPKCG@short?$AA@ 100800d8     libvcruntime:undname.obj
 0002:0000a0e0       ??_C@_03JBIPMCLC@int?$AA@  100800e0     libvcruntime:undname.obj
 0002:0000a0e4       ??_C@_04GOKPGOLB@long?$AA@ 100800e4     libvcruntime:undname.obj
 0002:0000a0ec       ??_C@_04DDKJGDCM@bool?$AA@ 100800ec     libvcruntime:undname.obj
 0002:0000a0f4       ??_C@_06EBGKOKIG@__int8?$AA@ 100800f4     libvcruntime:undname.obj
 0002:0000a0fc       ??_C@_07ICFHOGAF@__int16?$AA@ 100800fc     libvcruntime:undname.obj
 0002:0000a108       ??_C@_07OFLPPHGP@__int32?$AA@ 10080108     libvcruntime:undname.obj
 0002:0000a114       ??_C@_07LFCOJCAC@__int64?$AA@ 10080114     libvcruntime:undname.obj
 0002:0000a120       ??_C@_08GAHOLHEO@__int128?$AA@ 10080120     libvcruntime:undname.obj
 0002:0000a12c       ??_C@_09EEKGDCPH@?$DMunknown?$DO?$AA@ 1008012c     libvcruntime:undname.obj
 0002:0000a138       ??_C@_08HBIPOFJB@char16_t?$AA@ 10080138     libvcruntime:undname.obj
 0002:0000a144       ??_C@_08IECNCBKG@char32_t?$AA@ 10080144     libvcruntime:undname.obj
 0002:0000a150       ??_C@_07CLGGIAMF@wchar_t?$AA@ 10080150     libvcruntime:undname.obj
 0002:0000a15c       ??_C@_06GCICPBLB@__w64?5?$AA@ 1008015c     libvcruntime:undname.obj
 0002:0000a164       ??_C@_07NFANNNEC@UNKNOWN?$AA@ 10080164     libvcruntime:undname.obj
 0002:0000a170       ??_C@_07EDHNAJHC@signed?5?$AA@ 10080170     libvcruntime:undname.obj
 0002:0000a17c       ??_C@_05BNCCCJPP@const?$AA@ 1008017c     libvcruntime:undname.obj
 0002:0000a184       ??_C@_09EFNPDFFP@?5volatile?$AA@ 10080184     libvcruntime:undname.obj
 0002:0000a190       ??_C@_0P@GCIFDJCJ@?$GAunknown?5ecsu?8?$AA@ 10080190     libvcruntime:undname.obj
 0002:0000a1a4       ??_C@_06MOJHIBMG@union?5?$AA@ 100801a4     libvcruntime:undname.obj
 0002:0000a1ac       ??_C@_07DIBCDNGL@struct?5?$AA@ 100801ac     libvcruntime:undname.obj
 0002:0000a1b8       ??_C@_06LJBABKPM@class?5?$AA@ 100801b8     libvcruntime:undname.obj
 0002:0000a1c0       ??_C@_08KOFANOFK@coclass?5?$AA@ 100801c0     libvcruntime:undname.obj
 0002:0000a1cc       ??_C@_0N@DLIEFKNA@cointerface?5?$AA@ 100801cc     libvcruntime:undname.obj
 0002:0000a1dc       ??_C@_05LJGMCFOG@enum?5?$AA@ 100801dc     libvcruntime:undname.obj
 0002:0000a1e4       ??_C@_09GAIEOBLP@volatile?5?$AA@ 100801e4     libvcruntime:undname.obj
 0002:0000a1f0       ??_C@_06LIJLOJAG@const?5?$AA@ 100801f0     libvcruntime:undname.obj
 0002:0000a1f8       ??_C@_02KJPKDIBN@?$CG?5?$AA@ 100801f8     libvcruntime:undname.obj
 0002:0000a1fc       ??_C@_03PCKGMOPB@?$CG?$CG?5?$AA@ 100801fc     libvcruntime:undname.obj
 0002:0000a200       ??_C@_0M@EALIELKG@cli?3?3array?$DM?$AA@ 10080200     libvcruntime:undname.obj
 0002:0000a210       ??_C@_0O@GKABPPIF@cli?3?3pin_ptr?$DM?$AA@ 10080210     libvcruntime:undname.obj
 0002:0000a220       ??_C@_02GOGNNPBN@?$CJ?$FL?$AA@ 10080220     libvcruntime:undname.obj
 0002:0000a224       ??_C@_06EEGAIFAK@?$HLflat?$HN?$AA@ 10080224     libvcruntime:undname.obj
 0002:0000a22c       ??_C@_05JIBOFOHK@?$HLfor?5?$AA@ 1008022c     libvcruntime:undname.obj
 0002:0000a234       ??_C@_02MDINNEEG@s?5?$AA@  10080234     libvcruntime:undname.obj
 0002:0000a23c       ??_7DNameNode@@6B@         1008023c     libvcruntime:undname.obj
 0002:0000a250       ??_7charNode@@6B@          10080250     libvcruntime:undname.obj
 0002:0000a264       ??_7pcharNode@@6B@         10080264     libvcruntime:undname.obj
 0002:0000a278       ??_7pDNameNode@@6B@        10080278     libvcruntime:undname.obj
 0002:0000a28c       ??_7DNameStatusNode@@6B@   1008028c     libvcruntime:undname.obj
 0002:0000a2a0       ??_7pairNode@@6B@          100802a0     libvcruntime:undname.obj
 0002:0000a2b0       ??_C@_04OKOHEJBO@?5?$DP?$DP?5?$AA@ 100802b0     libvcruntime:undname.obj
 0002:0000a2b8       _standard_lookup_table     100802b8     libucrt:output.obj
 0002:0000a328       _format_validation_lookup_table 10080328     libucrt:output.obj
 0002:0000a398       ??_C@_06OJHGLDPL@?$CInull?$CJ?$AA@ 10080398     libucrt:output.obj
 0002:0000a3a0       ??_C@_1O@CEDCILHN@?$AA?$CI?$AAn?$AAu?$AAl?$AAl?$AA?$CJ?$AA?$AA@ 100803a0     libucrt:output.obj
 0002:0000a3b0       ??_C@_0CF@GOGNBNAK@Microsoft?5Visual?5C?$CL?$CL?5Runtime?5Lib@ 100803b0     libucrt:assert.obj
 0002:0000a3e0       ??_C@_1EK@MBDPDCGA@?$AAM?$AAi?$AAc?$AAr?$AAo?$AAs?$AAo?$AAf?$AAt?$AA?5?$AAV?$AAi?$AAs?$AAu?$AAa?$AAl?$AA?5?$AAC?$AA?$CL?$AA?$CL?$AA?5?$AAR?$AAu?$AAn?$AAt?$AAi?$AAm?$AAe?$AA?5?$AAL?$AAi?$AAb@ 100803e0     libucrt:assert.obj
 0002:0000a438       ??_C@_0CK@CFPGFGGO@Assertion?5failed?3?5?$CFTs?0?5file?5?$CFTs?0@ 10080438     libucrt:assert.obj
 0002:0000a470       ??_C@_1FE@LHBLIKM@?$AAA?$AAs?$AAs?$AAe?$AAr?$AAt?$AAi?$AAo?$AAn?$AA?5?$AAf?$AAa?$AAi?$AAl?$AAe?$AAd?$AA?3?$AA?5?$AA?$CF?$AAT?$AAs?$AA?0?$AA?5?$AAf?$AAi?$AAl?$AAe?$AA?5?$AA?$CF?$AAT?$AAs?$AA?0@ 10080470     libucrt:assert.obj
 0002:0000a4d4       ??_C@_0BC@LAIDCHCH@Assertion?5failed?$CB?$AA@ 100804d4     libucrt:assert.obj
 0002:0000a4ec       ??_C@_1CE@OJBNHDMO@?$AAA?$AAs?$AAs?$AAe?$AAr?$AAt?$AAi?$AAo?$AAn?$AA?5?$AAf?$AAa?$AAi?$AAl?$AAe?$AAd?$AA?$CB?$AA?$AA@ 100804ec     libucrt:assert.obj
 0002:0000a518       ??_C@_09KLGCKDOD@Program?3?5?$AA@ 10080518     libucrt:assert.obj
 0002:0000a524       ??_C@_1BE@PHKBBGE@?$AAP?$AAr?$AAo?$AAg?$AAr?$AAa?$AAm?$AA?3?$AA?5?$AA?$AA@ 10080524     libucrt:assert.obj
 0002:0000a53c       ??_C@_06IGPBOHMJ@File?3?5?$AA@ 1008053c     libucrt:assert.obj
 0002:0000a544       ??_C@_1O@HEMHKNDC@?$AAF?$AAi?$AAl?$AAe?$AA?3?$AA?5?$AA?$AA@ 10080544     libucrt:assert.obj
 0002:0000a554       ??_C@_06FIEBOLOH@Line?3?5?$AA@ 10080554     libucrt:assert.obj
 0002:0000a55c       ??_C@_1O@KCAFKHJE@?$AAL?$AAi?$AAn?$AAe?$AA?3?$AA?5?$AA?$AA@ 1008055c     libucrt:assert.obj
 0002:0000a56c       ??_C@_0N@MEECIJGN@Expression?3?5?$AA@ 1008056c     libucrt:assert.obj
 0002:0000a57c       ??_C@_1BK@PEDCIPMA@?$AAE?$AAx?$AAp?$AAr?$AAe?$AAs?$AAs?$AAi?$AAo?$AAn?$AA?3?$AA?5?$AA?$AA@ 1008057c     libucrt:assert.obj
 0002:0000a5a0       ??_C@_0HA@OJHAGA@For?5information?5on?5how?5your?5prog@ 100805a0     libucrt:assert.obj
 0002:0000a628       ??_C@_1OA@EGMLFBHJ@?$AAF?$AAo?$AAr?$AA?5?$AAi?$AAn?$AAf?$AAo?$AAr?$AAm?$AAa?$AAt?$AAi?$AAo?$AAn?$AA?5?$AAo?$AAn?$AA?5?$AAh?$AAo?$AAw?$AA?5?$AAy?$AAo?$AAu?$AAr?$AA?5?$AAp?$AAr?$AAo?$AAg@ 10080628     libucrt:assert.obj
 0002:0000a734       ??_C@_0DN@EBBNMLME@?$CIPress?5Retry?5to?5debug?5the?5applic@ 10080734     libucrt:assert.obj
 0002:0000a780       ??_C@_1HK@POCJMFGK@?$AA?$CI?$AAP?$AAr?$AAe?$AAs?$AAs?$AA?5?$AAR?$AAe?$AAt?$AAr?$AAy?$AA?5?$AAt?$AAo?$AA?5?$AAd?$AAe?$AAb?$AAu?$AAg?$AA?5?$AAt?$AAh?$AAe?$AA?5?$AAa?$AAp?$AAp?$AAl?$AAi?$AAc@ 10080780     libucrt:assert.obj
 0002:0000a814       ??_C@_17LGKOMLJ@?$AA?4?$AA?4?$AA?4?$AA?$AA@ 10080814     libucrt:assert.obj
 0002:0000a820       ??_C@_13LBAGMAIH@?$AA?6?$AA?$AA@ 10080820     libucrt:assert.obj
 0002:0000a824       ??_C@_02PHMGELLB@?6?6?$AA@ 10080824     libucrt:assert.obj
 0002:0000a828       ??_C@_15IABLJNFO@?$AA?6?$AA?6?$AA?$AA@ 10080828     libucrt:assert.obj
 0002:0000a830       ??_C@_0BH@DNAGHKFM@?$DMprogram?5name?5unknown?$DO?$AA@ 10080830     libucrt:assert.obj
 0002:0000a84c       ??_C@_1CO@EAEJAADC@?$AA?$DM?$AAp?$AAr?$AAo?$AAg?$AAr?$AAa?$AAm?$AA?5?$AAn?$AAa?$AAm?$AAe?$AA?5?$AAu?$AAn?$AAk?$AAn?$AAo?$AAw?$AAn?$AA?$DO?$AA?$AA@ 1008084c     libucrt:assert.obj
 0002:0000a884       _RtlNtPathSeperatorString  10080884     libucrt:exit.obj
 0002:0000a890       ??_C@_13FPGAJAPJ@?$AA?2?$AA?$AA@ 10080890     libucrt:exit.obj
 0002:0000a894       _RtlDosPathSeperatorsString 10080894     libucrt:exit.obj
 0002:0000a8a0       ??_C@_15MNCACJLI@?$AA?2?$AA?1?$AA?$AA@ 100808a0     libucrt:exit.obj
 0002:0000a8a8       _RtlAlternateDosPathSeperatorString 100808a8     libucrt:exit.obj
 0002:0000a8b4       ??_C@_13CGOKJPIL@?$AA?1?$AA?$AA@ 100808b4     libucrt:exit.obj
 0002:0000a8b8       ??_C@_1BI@BGOHAHKC@?$AAm?$AAs?$AAc?$AAo?$AAr?$AAe?$AAe?$AA?4?$AAd?$AAl?$AAl?$AA?$AA@ 100808b8     libucrt:exit.obj
 0002:0000a8d4       ??_C@_0P@MIGLKIOC@CorExitProcess?$AA@ 100808d4     libucrt:exit.obj
 0002:0000a8e8       __Fenv0                    100808e8     libucrt:atox.obj
 0002:0000a8f4       ??_C@_04FJHINJAO@tanh?$AA@ 100808f4     libucrt:fpexcept.obj
 0002:0000a8fc       ??_C@_04FIHNOPOL@asin?$AA@ 100808fc     libucrt:fpexcept.obj
 0002:0000a904       ??_C@_04PDIFKINK@acos?$AA@ 10080904     libucrt:fpexcept.obj
 0002:0000a90c       ??_C@_04MLLJIGOK@atan?$AA@ 1008090c     libucrt:fpexcept.obj
 0002:0000a914       ??_C@_05KNGEOGJB@atan2?$AA@ 10080914     libucrt:fpexcept.obj
 0002:0000a91c       ??_C@_04EIAKFFMI@sqrt?$AA@ 1008091c     libucrt:fpexcept.obj
 0002:0000a924       ??_C@_03BLEJJJBH@sin?$AA@  10080924     libucrt:fpexcept.obj
 0002:0000a928       ??_C@_03LALBNOCG@cos?$AA@  10080928     libucrt:fpexcept.obj
 0002:0000a92c       ??_C@_03IIINPABG@tan?$AA@  1008092c     libucrt:fpexcept.obj
 0002:0000a930       ??_C@_04GFPJNGEK@ceil?$AA@ 10080930     libucrt:fpexcept.obj
 0002:0000a938       ??_C@_05PBJFFIGL@floor?$AA@ 10080938     libucrt:fpexcept.obj
 0002:0000a940       ??_C@_04ODHECPBC@fabs?$AA@ 10080940     libucrt:fpexcept.obj
 0002:0000a948       ??_C@_04EHEDPDJG@modf?$AA@ 10080948     libucrt:fpexcept.obj
 0002:0000a950       ??_C@_05CEJMAHNP@ldexp?$AA@ 10080950     libucrt:fpexcept.obj
 0002:0000a958       ??_C@_05KBKMEMPO@_cabs?$AA@ 10080958     libucrt:fpexcept.obj
 0002:0000a960       ??_C@_06MEIMCGCF@_hypot?$AA@ 10080960     libucrt:fpexcept.obj
 0002:0000a968       ??_C@_04KEPJIHGP@fmod?$AA@ 10080968     libucrt:fpexcept.obj
 0002:0000a970       ??_C@_05GKKHEGJL@frexp?$AA@ 10080970     libucrt:fpexcept.obj
 0002:0000a978       ??_C@_03MJLDFKDL@_y0?$AA@  10080978     libucrt:fpexcept.obj
 0002:0000a97c       ??_C@_03NAKIGLHK@_y1?$AA@  1008097c     libucrt:fpexcept.obj
 0002:0000a980       ??_C@_03ONILCKOB@_yn?$AA@  10080980     libucrt:fpexcept.obj
 0002:0000a984       ??_C@_05JGDBENOH@_logb?$AA@ 10080984     libucrt:fpexcept.obj
 0002:0000a98c       ??_C@_0L@KDOEJCKC@_nextafter?$AA@ 1008098c     libucrt:fpexcept.obj
 0002:0000aab8       ??_C@_03KHJOGHMM@exp?$AA@  10080ab8     libucrt:fpexcept.obj
 0002:0000aabc       ??_C@_03JGHBODFD@pow?$AA@  10080abc     libucrt:fpexcept.obj
 0002:0000aac0       ??_C@_03MGHMBJCF@log?$AA@  10080ac0     libucrt:fpexcept.obj
 0002:0000aac4       ??_C@_05HGHHAHAP@log10?$AA@ 10080ac4     libucrt:fpexcept.obj
 0002:0000aacc       ??_C@_04COOMCNPB@sinh?$AA@ 10080acc     libucrt:fpexcept.obj
 0002:0000aad4       ??_C@_04HPJJNFIM@cosh?$AA@ 10080ad4     libucrt:fpexcept.obj
 0002:0000aae0       ___acrt_exception_action_table 10080ae0     libucrt:exception_filter.obj
 0002:0000ab8c       ___acrt_signal_action_table_count 10080b8c     libucrt:exception_filter.obj
 0002:0000ab90       ___acrt_signal_action_table_size 10080b90     libucrt:exception_filter.obj
 0002:0000ab94       ___acrt_signal_action_first_fpe_index 10080b94     libucrt:exception_filter.obj
 0002:0000ab98       ___acrt_signal_action_fpe_count 10080b98     libucrt:exception_filter.obj
 0002:0000ac30       ??_C@_1BG@HHIFPOEK@?$AAm?$AAs?$AAv?$AAc?$AAr?$AAt?$AA?4?$AAd?$AAl?$AAl?$AA?$AA@ 10080c30     libucrt:free_base.obj
 0002:0000ae60       ??_C@_1EG@CNNIPFIM@?$AAa?$AAp?$AAi?$AA?9?$AAm?$AAs?$AA?9?$AAw?$AAi?$AAn?$AA?9?$AAa?$AAp?$AAp?$AAm?$AAo?$AAd?$AAe?$AAl?$AA?9?$AAr?$AAu?$AAn?$AAt?$AAi?$AAm?$AAe?$AA?9?$AAl?$AA1?$AA?9?$AA1@ 10080e60     libucrt:winapi_thunks.obj
 0002:0000aeb8       ??_C@_1EA@JGEFHKEI@?$AAa?$AAp?$AAi?$AA?9?$AAm?$AAs?$AA?9?$AAw?$AAi?$AAn?$AA?9?$AAc?$AAo?$AAr?$AAe?$AA?9?$AAd?$AAa?$AAt?$AAe?$AAt?$AAi?$AAm?$AAe?$AA?9?$AAl?$AA1?$AA?9?$AA1?$AA?9?$AA1?$AA?$AA@ 10080eb8     libucrt:winapi_thunks.obj
 0002:0000af04       ??_C@_1DI@GCIAAENM@?$AAa?$AAp?$AAi?$AA?9?$AAm?$AAs?$AA?9?$AAw?$AAi?$AAn?$AA?9?$AAc?$AAo?$AAr?$AAe?$AA?9?$AAf?$AAi?$AAl?$AAe?$AA?9?$AAl?$AA2?$AA?9?$AA1?$AA?9?$AA1?$AA?$AA@ 10080f04     libucrt:winapi_thunks.obj
 0002:0000af48       ??_C@_1EI@MPIAOHOC@?$AAa?$AAp?$AAi?$AA?9?$AAm?$AAs?$AA?9?$AAw?$AAi?$AAn?$AA?9?$AAc?$AAo?$AAr?$AAe?$AA?9?$AAl?$AAo?$AAc?$AAa?$AAl?$AAi?$AAz?$AAa?$AAt?$AAi?$AAo?$AAn?$AA?9?$AAl?$AA1?$AA?9@ 10080f48     libucrt:winapi_thunks.obj
 0002:0000afa0       ??_C@_1FK@FPHCKFIE@?$AAa?$AAp?$AAi?$AA?9?$AAm?$AAs?$AA?9?$AAw?$AAi?$AAn?$AA?9?$AAc?$AAo?$AAr?$AAe?$AA?9?$AAl?$AAo?$AAc?$AAa?$AAl?$AAi?$AAz?$AAa?$AAt?$AAi?$AAo?$AAn?$AA?9?$AAo?$AAb?$AAs@ 10080fa0     libucrt:winapi_thunks.obj
 0002:0000b010       ??_C@_1EM@DILCGIIO@?$AAa?$AAp?$AAi?$AA?9?$AAm?$AAs?$AA?9?$AAw?$AAi?$AAn?$AA?9?$AAc?$AAo?$AAr?$AAe?$AA?9?$AAp?$AAr?$AAo?$AAc?$AAe?$AAs?$AAs?$AAt?$AAh?$AAr?$AAe?$AAa?$AAd?$AAs?$AA?9?$AAl@ 10081010     libucrt:winapi_thunks.obj
 0002:0000b06c       ??_C@_1DM@LNCGDDPN@?$AAa?$AAp?$AAi?$AA?9?$AAm?$AAs?$AA?9?$AAw?$AAi?$AAn?$AA?9?$AAc?$AAo?$AAr?$AAe?$AA?9?$AAs?$AAt?$AAr?$AAi?$AAn?$AAg?$AA?9?$AAl?$AA1?$AA?9?$AA1?$AA?9?$AA0?$AA?$AA@ 1008106c     libucrt:winapi_thunks.obj
 0002:0000b0b4       ??_C@_1DO@FPAPJEMD@?$AAa?$AAp?$AAi?$AA?9?$AAm?$AAs?$AA?9?$AAw?$AAi?$AAn?$AA?9?$AAc?$AAo?$AAr?$AAe?$AA?9?$AAs?$AAy?$AAs?$AAi?$AAn?$AAf?$AAo?$AA?9?$AAl?$AA1?$AA?9?$AA2?$AA?9?$AA1?$AA?$AA@ 100810b4     libucrt:winapi_thunks.obj
 0002:0000b100       ??_C@_1DK@NDHNAHIO@?$AAa?$AAp?$AAi?$AA?9?$AAm?$AAs?$AA?9?$AAw?$AAi?$AAn?$AA?9?$AAc?$AAo?$AAr?$AAe?$AA?9?$AAw?$AAi?$AAn?$AAr?$AAt?$AA?9?$AAl?$AA1?$AA?9?$AA1?$AA?9?$AA0?$AA?$AA@ 10081100     libucrt:winapi_thunks.obj
 0002:0000b148       ??_C@_1DM@KGHDGBCM@?$AAa?$AAp?$AAi?$AA?9?$AAm?$AAs?$AA?9?$AAw?$AAi?$AAn?$AA?9?$AAc?$AAo?$AAr?$AAe?$AA?9?$AAx?$AAs?$AAt?$AAa?$AAt?$AAe?$AA?9?$AAl?$AA2?$AA?9?$AA1?$AA?9?$AA0?$AA?$AA@ 10081148     libucrt:winapi_thunks.obj
 0002:0000b190       ??_C@_1EO@IJIOEFOH@?$AAa?$AAp?$AAi?$AA?9?$AAm?$AAs?$AA?9?$AAw?$AAi?$AAn?$AA?9?$AAr?$AAt?$AAc?$AAo?$AAr?$AAe?$AA?9?$AAn?$AAt?$AAu?$AAs?$AAe?$AAr?$AA?9?$AAw?$AAi?$AAn?$AAd?$AAo?$AAw?$AA?9@ 10081190     libucrt:winapi_thunks.obj
 0002:0000b1f0       ??_C@_1FG@HHGEKANL@?$AAa?$AAp?$AAi?$AA?9?$AAm?$AAs?$AA?9?$AAw?$AAi?$AAn?$AA?9?$AAs?$AAe?$AAc?$AAu?$AAr?$AAi?$AAt?$AAy?$AA?9?$AAs?$AAy?$AAs?$AAt?$AAe?$AAm?$AAf?$AAu?$AAn?$AAc?$AAt?$AAi@ 100811f0     libucrt:winapi_thunks.obj
 0002:0000b258       ??_C@_1FG@NCKKOLKO@?$AAe?$AAx?$AAt?$AA?9?$AAm?$AAs?$AA?9?$AAw?$AAi?$AAn?$AA?9?$AAk?$AAe?$AAr?$AAn?$AAe?$AAl?$AA3?$AA2?$AA?9?$AAp?$AAa?$AAc?$AAk?$AAa?$AAg?$AAe?$AA?9?$AAc?$AAu?$AAr?$AAr@ 10081258     libucrt:winapi_thunks.obj
 0002:0000b2c0       ??_C@_1EG@DBIOJECG@?$AAe?$AAx?$AAt?$AA?9?$AAm?$AAs?$AA?9?$AAw?$AAi?$AAn?$AA?9?$AAn?$AAt?$AAu?$AAs?$AAe?$AAr?$AA?9?$AAd?$AAi?$AAa?$AAl?$AAo?$AAg?$AAb?$AAo?$AAx?$AA?9?$AAl?$AA1?$AA?9?$AA1@ 100812c0     libucrt:winapi_thunks.obj
 0002:0000b318       ??_C@_1EO@FIHMJCLF@?$AAe?$AAx?$AAt?$AA?9?$AAm?$AAs?$AA?9?$AAw?$AAi?$AAn?$AA?9?$AAn?$AAt?$AAu?$AAs?$AAe?$AAr?$AA?9?$AAw?$AAi?$AAn?$AAd?$AAo?$AAw?$AAs?$AAt?$AAa?$AAt?$AAi?$AAo?$AAn?$AA?9@ 10081318     libucrt:winapi_thunks.obj
 0002:0000b378       ??_C@_1O@BCCLBEOE@?$AAu?$AAs?$AAe?$AAr?$AA3?$AA2?$AA?$AA@ 10081378     libucrt:winapi_thunks.obj
 0002:0000b38c       ??_C@_0BA@FHFNEAED@AreFileApisANSI?$AA@ 1008138c     libucrt:winapi_thunks.obj
 0002:0000b3ac       ??_C@_0BA@IHGNDAEB@CompareStringEx?$AA@ 100813ac     libucrt:winapi_thunks.obj
 0002:0000b3cc       ??_C@_0BE@LJANKFHF@EnumSystemLocalesEx?$AA@ 100813cc     libucrt:winapi_thunks.obj
 0002:0000b420       ??_C@_0BA@HNOPNCHB@GetActiveWindow?$AA@ 10081420     libucrt:winapi_thunks.obj
 0002:0000b440       ??_C@_0BE@JOGNEJCI@GetCurrentPackageId?$AA@ 10081440     libucrt:winapi_thunks.obj
 0002:0000b464       ??_C@_0BA@EPCJIIPD@GetDateFormatEx?$AA@ 10081464     libucrt:winapi_thunks.obj
 0002:0000b484       ??_C@_0BJ@DIBIJBHA@GetEnabledXStateFeatures?$AA@ 10081484     libucrt:winapi_thunks.obj
 0002:0000b4b0       ??_C@_0BN@NEEHBBPO@GetFileInformationByHandleEx?$AA@ 100814b0     libucrt:winapi_thunks.obj
 0002:0000b4e0       ??_C@_0BD@HHGDFDBJ@GetLastActivePopup?$AA@ 100814e0     libucrt:winapi_thunks.obj
 0002:0000b504       ??_C@_0BA@ONOKGCMP@GetLocaleInfoEx?$AA@ 10081504     libucrt:winapi_thunks.obj
 0002:0000b524       ??_C@_0BI@DFKBFLJE@GetProcessWindowStation?$AA@ 10081524     libucrt:winapi_thunks.obj
 0002:0000b544       ??_C@_0BP@FPNJPEJC@GetSystemTimePreciseAsFileTime?$AA@ 10081544     libucrt:winapi_thunks.obj
 0002:0000b578       ??_C@_0BA@CIJJKCJJ@GetTimeFormatEx?$AA@ 10081578     libucrt:winapi_thunks.obj
 0002:0000b598       ??_C@_0BJ@PBCCBIPI@GetUserDefaultLocaleName?$AA@ 10081598     libucrt:winapi_thunks.obj
 0002:0000b5c4       ??_C@_0BK@DEKFELLI@GetUserObjectInformationW?$AA@ 100815c4     libucrt:winapi_thunks.obj
 0002:0000b5f0       ??_C@_0BG@IKLDMBLM@GetXStateFeaturesMask?$AA@ 100815f0     libucrt:winapi_thunks.obj
 0002:0000b624       ??_C@_0BC@CELBKLLA@IsValidLocaleName?$AA@ 10081624     libucrt:winapi_thunks.obj
 0002:0000b648       ??_C@_0O@KKBNKAPF@LCMapStringEx?$AA@ 10081648     libucrt:winapi_thunks.obj
 0002:0000b664       ??_C@_0BB@CDHDDLLP@LCIDToLocaleName?$AA@ 10081664     libucrt:winapi_thunks.obj
 0002:0000b684       ??_C@_0BB@HBDEELFH@LocaleNameToLCID?$AA@ 10081684     libucrt:winapi_thunks.obj
 0002:0000b6a4       ??_C@_0BE@KINNKFDA@LocateXStateFeature?$AA@ 100816a4     libucrt:winapi_thunks.obj
 0002:0000b6c8       ??_C@_0M@CHKKJDAI@MessageBoxA?$AA@ 100816c8     libucrt:winapi_thunks.obj
 0002:0000b6e4       ??_C@_0M@DLDCCGNP@MessageBoxW?$AA@ 100816e4     libucrt:winapi_thunks.obj
 0002:0000b6f8       ??_C@_0N@PPOMPGGK@RoInitialize?$AA@ 100816f8     libucrt:winapi_thunks.obj
 0002:0000b70c       ??_C@_0P@LLFHBIJD@RoUninitialize?$AA@ 1008170c     libucrt:winapi_thunks.obj
 0002:0000b72c       ??_C@_0BI@BKLFFAPO@SetThreadStackGuarantee?$AA@ 1008172c     libucrt:winapi_thunks.obj
 0002:0000b754       ??_C@_0BC@JEAENNKH@SystemFunction036?$AA@ 10081754     libucrt:winapi_thunks.obj
 0002:0000b76c       ??_C@_03OEIAHPBN@INF?$AA@  1008176c     libucrt:cvt.obj
 0002:0000b770       ??_C@_03OJHLLCGB@inf?$AA@  10081770     libucrt:cvt.obj
 0002:0000b774       ??_C@_03LKNCIKJB@NAN?$AA@  10081774     libucrt:cvt.obj
 0002:0000b778       ??_C@_03LHCJEHON@nan?$AA@  10081778     libucrt:cvt.obj
 0002:0000b77c       ??_C@_09OFJJIMPC@NAN?$CISNAN?$CJ?$AA@ 1008177c     libucrt:cvt.obj
 0002:0000b788       ??_C@_09IPFBKMDL@nan?$CIsnan?$CJ?$AA@ 10081788     libucrt:cvt.obj
 0002:0000b794       ??_C@_08IKHNHAJ@NAN?$CIIND?$CJ?$AA@ 10081794     libucrt:cvt.obj
 0002:0000b7a0       ??_C@_08OFCDMILK@nan?$CIind?$CJ?$AA@ 100817a0     libucrt:cvt.obj
 0002:0000b7ac       ??_C@_05KLBDPFGC@e?$CL000?$AA@ 100817ac     libucrt:cvt.obj
 0002:0000b7b8       ___lc_category             100817b8     libucrt:wsetlocale.obj
 0002:0000b810       ??_C@_1O@GIFLHMA@?$AAL?$AAC?$AA_?$AAA?$AAL?$AAL?$AA?$AA@ 10081810     libucrt:wsetlocale.obj
 0002:0000b820       ??_C@_1BG@PPOMIBNJ@?$AAL?$AAC?$AA_?$AAC?$AAO?$AAL?$AAL?$AAA?$AAT?$AAE?$AA?$AA@ 10081820     libucrt:wsetlocale.obj
 0002:0000b83c       ??_C@_1BC@FFJGAPJM@?$AAL?$AAC?$AA_?$AAC?$AAT?$AAY?$AAP?$AAE?$AA?$AA@ 1008183c     libucrt:wsetlocale.obj
 0002:0000b854       ??_C@_1BI@PCKFNJFB@?$AAL?$AAC?$AA_?$AAM?$AAO?$AAN?$AAE?$AAT?$AAA?$AAR?$AAY?$AA?$AA@ 10081854     libucrt:wsetlocale.obj
 0002:0000b870       ??_C@_1BG@ENIEDKID@?$AAL?$AAC?$AA_?$AAN?$AAU?$AAM?$AAE?$AAR?$AAI?$AAC?$AA?$AA@ 10081870     libucrt:wsetlocale.obj
 0002:0000b88c       ??_C@_1BA@HAAOMIIG@?$AAL?$AAC?$AA_?$AAT?$AAI?$AAM?$AAE?$AA?$AA@ 1008188c     libucrt:wsetlocale.obj
 0002:0000b938       ??_C@_15NBPDDFIP@?$AA?$DN?$AA?$DL?$AA?$AA@ 10081938     libucrt:wsetlocale.obj
 0002:0000b940       ??_C@_13PJJBFPED@?$AA?$DL?$AA?$AA@ 10081940     libucrt:wsetlocale.obj
 0002:0000b944       ??_C@_13NMPKAAJP@?$AA?$DN?$AA?$AA@ 10081944     libucrt:wsetlocale.obj
 0002:0000b948       ??_C@_13FHBKNHDA@?$AAC?$AA?$AA@ 10081948     libucrt:wsetlocale.obj
 0002:0000b94c       ??_C@_17MBJJLFDM@?$AA_?$AA?4?$AA?0?$AA?$AA@ 1008194c     libucrt:wsetlocale.obj
 0002:0000b958       ??_C@_13ENNFDPBH@?$AA_?$AA?$AA@ 10081958     libucrt:wsetlocale.obj
 0002:0000b95c       ??_C@_13JOFGPIOO@?$AA?4?$AA?$AA@ 1008195c     libucrt:wsetlocale.obj
 0002:0000b960       ??_C@_03KOEHGMDN@Sun?$AA@  10081960     libucrt:nlsdata.obj
 0002:0000b964       ??_C@_03PDAGKDH@Mon?$AA@   10081964     libucrt:nlsdata.obj
 0002:0000b968       ??_C@_03NAGEINEP@Tue?$AA@  10081968     libucrt:nlsdata.obj
 0002:0000b96c       ??_C@_03MHOMLAJA@Wed?$AA@  1008196c     libucrt:nlsdata.obj
 0002:0000b970       ??_C@_03IOFIKPDN@Thu?$AA@  10081970     libucrt:nlsdata.obj
 0002:0000b974       ??_C@_03IDIOELNC@Fri?$AA@  10081974     libucrt:nlsdata.obj
 0002:0000b978       ??_C@_03FEFJNEK@Sat?$AA@   10081978     libucrt:nlsdata.obj
 0002:0000b97c       ??_C@_06OOPIFAJ@Sunday?$AA@ 1008197c     libucrt:nlsdata.obj
 0002:0000b984       ??_C@_06JLEDEDGH@Monday?$AA@ 10081984     libucrt:nlsdata.obj
 0002:0000b98c       ??_C@_07BAAGCFCM@Tuesday?$AA@ 1008198c     libucrt:nlsdata.obj
 0002:0000b998       ??_C@_09DLIGFAKA@Wednesday?$AA@ 10081998     libucrt:nlsdata.obj
 0002:0000b9a4       ??_C@_08HACCIKIA@Thursday?$AA@ 100819a4     libucrt:nlsdata.obj
 0002:0000b9b0       ??_C@_06JECMNKMI@Friday?$AA@ 100819b0     libucrt:nlsdata.obj
 0002:0000b9b8       ??_C@_08INBOOONO@Saturday?$AA@ 100819b8     libucrt:nlsdata.obj
 0002:0000b9c4       ??_C@_03JIHJHPIE@Jan?$AA@  100819c4     libucrt:nlsdata.obj
 0002:0000b9c8       ??_C@_03HJBDCHOM@Feb?$AA@  100819c8     libucrt:nlsdata.obj
 0002:0000b9cc       ??_C@_03ODNJBKGA@Mar?$AA@  100819cc     libucrt:nlsdata.obj
 0002:0000b9d0       ??_C@_03LEOLGMJP@Apr?$AA@  100819d0     libucrt:nlsdata.obj
 0002:0000b9d4       ??_C@_03CNMDKL@May?$AA@    100819d4     libucrt:nlsdata.obj
 0002:0000b9d8       ??_C@_03IDFGHECI@Jun?$AA@  100819d8     libucrt:nlsdata.obj
 0002:0000b9dc       ??_C@_03LBGABGKK@Jul?$AA@  100819dc     libucrt:nlsdata.obj
 0002:0000b9e0       ??_C@_03IFJFEIGA@Aug?$AA@  100819e0     libucrt:nlsdata.obj
 0002:0000b9e4       ??_C@_03GGCAPAJC@Sep?$AA@  100819e4     libucrt:nlsdata.obj
 0002:0000b9e8       ??_C@_03BMAOKBAD@Oct?$AA@  100819e8     libucrt:nlsdata.obj
 0002:0000b9ec       ??_C@_03JPJOFNIA@Nov?$AA@  100819ec     libucrt:nlsdata.obj
 0002:0000b9f0       ??_C@_03MKABNOCG@Dec?$AA@  100819f0     libucrt:nlsdata.obj
 0002:0000b9f4       ??_C@_07CGJPFGJA@January?$AA@ 100819f4     libucrt:nlsdata.obj
 0002:0000ba00       ??_C@_08GNJGEPFN@February?$AA@ 10081a00     libucrt:nlsdata.obj
 0002:0000ba0c       ??_C@_05HPCKOFNC@March?$AA@ 10081a0c     libucrt:nlsdata.obj
 0002:0000ba14       ??_C@_05DMJDNLEJ@April?$AA@ 10081a14     libucrt:nlsdata.obj
 0002:0000ba1c       ??_C@_04CNLMGBGM@June?$AA@ 10081a1c     libucrt:nlsdata.obj
 0002:0000ba24       ??_C@_04MIEPOIFP@July?$AA@ 10081a24     libucrt:nlsdata.obj
 0002:0000ba2c       ??_C@_06LBBHFDDG@August?$AA@ 10081a2c     libucrt:nlsdata.obj
 0002:0000ba34       ??_C@_09BHHEALKD@September?$AA@ 10081a34     libucrt:nlsdata.obj
 0002:0000ba40       ??_C@_07JJNFCEND@October?$AA@ 10081a40     libucrt:nlsdata.obj
 0002:0000ba4c       ??_C@_08HCHEGEOA@November?$AA@ 10081a4c     libucrt:nlsdata.obj
 0002:0000ba58       ??_C@_08EDHMEBNP@December?$AA@ 10081a58     libucrt:nlsdata.obj
 0002:0000ba64       ??_C@_02DEDBPAFC@AM?$AA@   10081a64     libucrt:nlsdata.obj
 0002:0000ba68       ??_C@_02CJNFDJBF@PM?$AA@   10081a68     libucrt:nlsdata.obj
 0002:0000ba6c       ??_C@_08BPBNCDIB@MM?1dd?1yy?$AA@ 10081a6c     libucrt:nlsdata.obj
 0002:0000ba78       ??_C@_0BE@CKGJFCPC@dddd?0?5MMMM?5dd?0?5yyyy?$AA@ 10081a78     libucrt:nlsdata.obj
 0002:0000ba90       ??_C@_08JCCMCCIL@HH?3mm?3ss?$AA@ 10081a90     libucrt:nlsdata.obj
 0002:0000ba9c       ??_C@_17MBGCMIPB@?$AAS?$AAu?$AAn?$AA?$AA@ 10081a9c     libucrt:nlsdata.obj
 0002:0000baa8       ??_C@_17KBOMKBF@?$AAM?$AAo?$AAn?$AA?$AA@ 10081aa8     libucrt:nlsdata.obj
 0002:0000bab4       ??_C@_17BMKGEGOJ@?$AAT?$AAu?$AAe?$AA?$AA@ 10081ab4     libucrt:nlsdata.obj
 0002:0000bac0       ??_C@_17CJEDCEPE@?$AAW?$AAe?$AAd?$AA?$AA@ 10081ac0     libucrt:nlsdata.obj
 0002:0000bacc       ??_C@_17PDPHAADD@?$AAT?$AAh?$AAu?$AA?$AA@ 10081acc     libucrt:nlsdata.obj
 0002:0000bad8       ??_C@_17HFOLPPLP@?$AAF?$AAr?$AAi?$AA?$AA@ 10081ad8     libucrt:nlsdata.obj
 0002:0000bae4       ??_C@_17GGIBDPIH@?$AAS?$AAa?$AAt?$AA?$AA@ 10081ae4     libucrt:nlsdata.obj
 0002:0000baf0       ??_C@_1O@IHNHDHPB@?$AAS?$AAu?$AAn?$AAd?$AAa?$AAy?$AA?$AA@ 10081af0     libucrt:nlsdata.obj
 0002:0000bb00       ??_C@_1O@MMNBFLIA@?$AAM?$AAo?$AAn?$AAd?$AAa?$AAy?$AA?$AA@ 10081b00     libucrt:nlsdata.obj
 0002:0000bb10       ??_C@_1BA@ENFBFFEK@?$AAT?$AAu?$AAe?$AAs?$AAd?$AAa?$AAy?$AA?$AA@ 10081b10     libucrt:nlsdata.obj
 0002:0000bb24       ??_C@_1BE@EBOGMDOH@?$AAW?$AAe?$AAd?$AAn?$AAe?$AAs?$AAd?$AAa?$AAy?$AA?$AA@ 10081b24     libucrt:nlsdata.obj
 0002:0000bb3c       ??_C@_1BC@HHMNLIHE@?$AAT?$AAh?$AAu?$AAr?$AAs?$AAd?$AAa?$AAy?$AA?$AA@ 10081b3c     libucrt:nlsdata.obj
 0002:0000bb54       ??_C@_1O@PDICJHAG@?$AAF?$AAr?$AAi?$AAd?$AAa?$AAy?$AA?$AA@ 10081b54     libucrt:nlsdata.obj
 0002:0000bb64       ??_C@_1BC@ENMNNPAJ@?$AAS?$AAa?$AAt?$AAu?$AAr?$AAd?$AAa?$AAy?$AA?$AA@ 10081b64     libucrt:nlsdata.obj
 0002:0000bb7c       ??_C@_17DKNBKCHM@?$AAJ?$AAa?$AAn?$AA?$AA@ 10081b7c     libucrt:nlsdata.obj
 0002:0000bb88       ??_C@_17LMDJEKJN@?$AAF?$AAe?$AAb?$AA?$AA@ 10081b88     libucrt:nlsdata.obj
 0002:0000bb94       ??_C@_17CKNLEDEC@?$AAM?$AAa?$AAr?$AA?$AA@ 10081b94     libucrt:nlsdata.obj
 0002:0000bba0       ??_C@_17LFPOIHDD@?$AAA?$AAp?$AAr?$AA?$AA@ 10081ba0     libucrt:nlsdata.obj
 0002:0000bbac       ??_C@_17PNNKMEED@?$AAM?$AAa?$AAy?$AA?$AA@ 10081bac     libucrt:nlsdata.obj
 0002:0000bbb8       ??_C@_17KCJGOCPB@?$AAJ?$AAu?$AAn?$AA?$AA@ 10081bb8     libucrt:nlsdata.obj
 0002:0000bbc4       ??_C@_17IJPCKHK@?$AAJ?$AAu?$AAl?$AA?$AA@ 10081bc4     libucrt:nlsdata.obj
 0002:0000bbd0       ??_C@_17ICPELBCN@?$AAA?$AAu?$AAg?$AA?$AA@ 10081bd0     libucrt:nlsdata.obj
 0002:0000bbdc       ??_C@_17HCHCOKMG@?$AAS?$AAe?$AAp?$AA?$AA@ 10081bdc     libucrt:nlsdata.obj
 0002:0000bbe8       ??_C@_17FNLKOI@?$AAO?$AAc?$AAt?$AA?$AA@ 10081be8     libucrt:nlsdata.obj
 0002:0000bbf4       ??_C@_17BBDMLCIG@?$AAN?$AAo?$AAv?$AA?$AA@ 10081bf4     libucrt:nlsdata.obj
 0002:0000bc00       ??_C@_17EGKACKIF@?$AAD?$AAe?$AAc?$AA?$AA@ 10081c00     libucrt:nlsdata.obj
 0002:0000bc0c       ??_C@_1BA@EFMEIEBA@?$AAJ?$AAa?$AAn?$AAu?$AAa?$AAr?$AAy?$AA?$AA@ 10081c0c     libucrt:nlsdata.obj
 0002:0000bc20       ??_C@_1BC@JGDDFFAM@?$AAF?$AAe?$AAb?$AAr?$AAu?$AAa?$AAr?$AAy?$AA?$AA@ 10081c20     libucrt:nlsdata.obj
 0002:0000bc38       ??_C@_1M@IKEENEDF@?$AAM?$AAa?$AAr?$AAc?$AAh?$AA?$AA@ 10081c38     libucrt:nlsdata.obj
 0002:0000bc48       ??_C@_1M@GJNLMHFD@?$AAA?$AAp?$AAr?$AAi?$AAl?$AA?$AA@ 10081c48     libucrt:nlsdata.obj
 0002:0000bc58       ??_C@_19EPFLPGAP@?$AAJ?$AAu?$AAn?$AAe?$AA?$AA@ 10081c58     libucrt:nlsdata.obj
 0002:0000bc64       ??_C@_19BIFMLPCD@?$AAJ?$AAu?$AAl?$AAy?$AA?$AA@ 10081c64     libucrt:nlsdata.obj
 0002:0000bc70       ??_C@_1O@PAHLKOAC@?$AAA?$AAu?$AAg?$AAu?$AAs?$AAt?$AA?$AA@ 10081c70     libucrt:nlsdata.obj
 0002:0000bc80       ??_C@_1BE@DKAAMBJL@?$AAS?$AAe?$AAp?$AAt?$AAe?$AAm?$AAb?$AAe?$AAr?$AA?$AA@ 10081c80     libucrt:nlsdata.obj
 0002:0000bc98       ??_C@_1BA@EPANDLNG@?$AAO?$AAc?$AAt?$AAo?$AAb?$AAe?$AAr?$AA?$AA@ 10081c98     libucrt:nlsdata.obj
 0002:0000bcac       ??_C@_1BC@BGLIFPF@?$AAN?$AAo?$AAv?$AAe?$AAm?$AAb?$AAe?$AAr?$AA?$AA@ 10081cac     libucrt:nlsdata.obj
 0002:0000bcc4       ??_C@_1BC@FEMKIFH@?$AAD?$AAe?$AAc?$AAe?$AAm?$AAb?$AAe?$AAr?$AA?$AA@ 10081cc4     libucrt:nlsdata.obj
 0002:0000bcdc       ??_C@_15ODEHAHHF@?$AAA?$AAM?$AA?$AA@ 10081cdc     libucrt:nlsdata.obj
 0002:0000bce4       ??_C@_15CLMNNGEL@?$AAP?$AAM?$AA?$AA@ 10081ce4     libucrt:nlsdata.obj
 0002:0000bcec       ??_C@_1BC@IEBCMHCM@?$AAM?$AAM?$AA?1?$AAd?$AAd?$AA?1?$AAy?$AAy?$AA?$AA@ 10081cec     libucrt:nlsdata.obj
 0002:0000bd04       ??_C@_1CI@KNAKOEBC@?$AAd?$AAd?$AAd?$AAd?$AA?0?$AA?5?$AAM?$AAM?$AAM?$AAM?$AA?5?$AAd?$AAd?$AA?0?$AA?5?$AAy?$AAy?$AAy?$AAy?$AA?$AA@ 10081d04     libucrt:nlsdata.obj
 0002:0000bd34       ??_C@_1BC@GDGBMEMK@?$AAH?$AAH?$AA?3?$AAm?$AAm?$AA?3?$AAs?$AAs?$AA?$AA@ 10081d34     libucrt:nlsdata.obj
 0002:0000bd4c       ??_C@_1M@BMHNFIME@?$AAe?$AAn?$AA?9?$AAU?$AAS?$AA?$AA@ 10081d4c     libucrt:nlsdata.obj
 0002:0000bd60       ___lc_time_c               10081d60     libucrt:nlsdata.obj
 0002:0000bf0c       ??_C@_1DE@JNGNBFGO@?$AAR?$AAu?$AAn?$AAt?$AAi?$AAm?$AAe?$AA?5?$AAE?$AAr?$AAr?$AAo?$AAr?$AA?$CB?$AA?6?$AA?6?$AAP?$AAr?$AAo?$AAg?$AAr?$AAa?$AAm?$AA?3?$AA?5?$AA?$AA@ 10081f0c     libucrt:report_runtime_error.obj
 0002:0000bf4c       ?ccs@?BL@???$__acrt_stdio_parse_mode@D@@YA?AU__acrt_stdio_stream_mode@@QBD@Z@4QBDB 10081f4c     libucrt:openfile.obj
 0002:0000bf50       ?utf8_encoding@?BL@???$__acrt_stdio_parse_mode@D@@YA?AU__acrt_stdio_stream_mode@@QBD@Z@4QBDB 10081f50     libucrt:openfile.obj
 0002:0000bf58       ?utf16_encoding@?BL@???$__acrt_stdio_parse_mode@D@@YA?AU__acrt_stdio_stream_mode@@QBD@Z@4QBDB 10081f58     libucrt:openfile.obj
 0002:0000bf64       ?unicode_encoding@?BL@???$__acrt_stdio_parse_mode@D@@YA?AU__acrt_stdio_stream_mode@@QBD@Z@4QBDB 10081f64     libucrt:openfile.obj
 0002:0000bf6c       ?ccs@?BL@???$__acrt_stdio_parse_mode@_W@@YA?AU__acrt_stdio_stream_mode@@QB_W@Z@4QB_WB 10081f6c     libucrt:openfile.obj
 0002:0000bf74       ?utf8_encoding@?BL@???$__acrt_stdio_parse_mode@_W@@YA?AU__acrt_stdio_stream_mode@@QB_W@Z@4QB_WB 10081f74     libucrt:openfile.obj
 0002:0000bf80       ?utf16_encoding@?BL@???$__acrt_stdio_parse_mode@_W@@YA?AU__acrt_stdio_stream_mode@@QB_W@Z@4QB_WB 10081f80     libucrt:openfile.obj
 0002:0000bf94       ?unicode_encoding@?BL@???$__acrt_stdio_parse_mode@_W@@YA?AU__acrt_stdio_stream_mode@@QB_W@Z@4QB_WB 10081f94     libucrt:openfile.obj
 0002:0000bfa8       __d_inf                    10081fa8     libucrt:util.obj
 0002:0000bfb8       __d_ind                    10081fb8     libucrt:util.obj
 0002:0000bfc8       __d_max                    10081fc8     libucrt:util.obj
 0002:0000bfd8       __d_min                    10081fd8     libucrt:util.obj
 0002:0000bfe8       __d_mzero                  10081fe8     libucrt:util.obj
 0002:0000c018       __wctype                   10082018     libucrt:ctype.obj
 0002:0000c288       ___newctype                10082288     libucrt:ctype.obj
 0002:0000c628       ___newclmap                10082628     libucrt:ctype.obj
 0002:0000c7f8       ___newcumap                100827f8     libucrt:ctype.obj
 0002:0000c9d8       ??_C@_1M@HPNHIDJI@?$AAj?$AAa?$AA?9?$AAJ?$AAP?$AA?$AA@ 100829d8     libucrt:mbctype.obj
 0002:0000c9e8       ??_C@_1M@BIBDDEMK@?$AAz?$AAh?$AA?9?$AAC?$AAN?$AA?$AA@ 100829e8     libucrt:mbctype.obj
 0002:0000c9f8       ??_C@_1M@JLOOOEGK@?$AAk?$AAo?$AA?9?$AAK?$AAR?$AA?$AA@ 100829f8     libucrt:mbctype.obj
 0002:0000ca08       ??_C@_1M@CLNBBOPM@?$AAz?$AAh?$AA?9?$AAT?$AAW?$AA?$AA@ 10082a08     libucrt:mbctype.obj
 0002:0000d2a4       ??_C@_15EMKDOKLE@?$AAa?$AAr?$AA?$AA@ 100832a4     libucrt:lcidtoname_downlevel.obj
 0002:0000d2ac       ??_C@_15KNPADPLH@?$AAb?$AAg?$AA?$AA@ 100832ac     libucrt:lcidtoname_downlevel.obj
 0002:0000d2b4       ??_C@_15EDMHLDMO@?$AAc?$AAa?$AA?$AA@ 100832b4     libucrt:lcidtoname_downlevel.obj
 0002:0000d2bc       ??_C@_1O@BPEAJADD@?$AAz?$AAh?$AA?9?$AAC?$AAH?$AAS?$AA?$AA@ 100832bc     libucrt:lcidtoname_downlevel.obj
 0002:0000d2cc       ??_C@_15LJNHCMNK@?$AAc?$AAs?$AA?$AA@ 100832cc     libucrt:lcidtoname_downlevel.obj
 0002:0000d2d4       ??_C@_15FOMCIDHG@?$AAd?$AAa?$AA?$AA@ 100832d4     libucrt:lcidtoname_downlevel.obj
 0002:0000d2dc       ??_C@_15NBKABECB@?$AAd?$AAe?$AA?$AA@ 100832dc     libucrt:lcidtoname_downlevel.obj
 0002:0000d2e4       ??_C@_15GHPEIIAO@?$AAe?$AAl?$AA?$AA@ 100832e4     libucrt:lcidtoname_downlevel.obj
 0002:0000d2ec       ??_C@_15MNPNEAIF@?$AAe?$AAn?$AA?$AA@ 100832ec     libucrt:lcidtoname_downlevel.obj
 0002:0000d2f4       ??_C@_15GPIOMPMH@?$AAe?$AAs?$AA?$AA@ 100832f4     libucrt:lcidtoname_downlevel.obj
 0002:0000d2fc       ??_C@_15NGLOAKJC@?$AAf?$AAi?$AA?$AA@ 100832fc     libucrt:lcidtoname_downlevel.obj
 0002:0000d304       ??_C@_15FBKGNKAM@?$AAf?$AAr?$AA?$AA@ 10083304     libucrt:lcidtoname_downlevel.obj
 0002:0000d30c       ??_C@_15KGGCNEFK@?$AAh?$AAe?$AA?$AA@ 1008330c     libucrt:lcidtoname_downlevel.obj
 0002:0000d314       ??_C@_15PGHLIDMF@?$AAh?$AAu?$AA?$AA@ 10083314     libucrt:lcidtoname_downlevel.obj
 0002:0000d31c       ??_C@_15BIEMAPLM@?$AAi?$AAs?$AA?$AA@ 1008331c     libucrt:lcidtoname_downlevel.obj
 0002:0000d324       ??_C@_15IFJLDHAF@?$AAi?$AAt?$AA?$AA@ 10083324     libucrt:lcidtoname_downlevel.obj
 0002:0000d32c       ??_C@_15GEMIOCAG@?$AAj?$AAa?$AA?$AA@ 1008332c     libucrt:lcidtoname_downlevel.obj
 0002:0000d334       ??_C@_15EPELEGJA@?$AAk?$AAo?$AA?$AA@ 10083334     libucrt:lcidtoname_downlevel.obj
 0002:0000d33c       ??_C@_15NDDHIMN@?$AAn?$AAl?$AA?$AA@ 1008333c     libucrt:lcidtoname_downlevel.obj
 0002:0000d344       ??_C@_15BPIGNHCD@?$AAn?$AAo?$AA?$AA@ 10083344     libucrt:lcidtoname_downlevel.obj
 0002:0000d34c       ??_C@_15DEOPBLCG@?$AAp?$AAl?$AA?$AA@ 1008334c     libucrt:lcidtoname_downlevel.obj
 0002:0000d354       ??_C@_15KBECGEFG@?$AAp?$AAt?$AA?$AA@ 10083354     libucrt:lcidtoname_downlevel.obj
 0002:0000d35c       ??_C@_15GLJCBFMD@?$AAr?$AAo?$AA?$AA@ 1008335c     libucrt:lcidtoname_downlevel.obj
 0002:0000d364       ??_C@_15FEDGKCDI@?$AAr?$AAu?$AA?$AA@ 10083364     libucrt:lcidtoname_downlevel.obj
 0002:0000d36c       ??_C@_15GLKMLLHM@?$AAh?$AAr?$AA?$AA@ 1008336c     libucrt:lcidtoname_downlevel.obj
 0002:0000d374       ??_C@_15CPKMFBDB@?$AAs?$AAk?$AA?$AA@ 10083374     libucrt:lcidtoname_downlevel.obj
 0002:0000d37c       ??_C@_15BAAIOGMK@?$AAs?$AAq?$AA?$AA@ 1008337c     libucrt:lcidtoname_downlevel.obj
 0002:0000d384       ??_C@_15INNPNOHD@?$AAs?$AAv?$AA?$AA@ 10083384     libucrt:lcidtoname_downlevel.obj
 0002:0000d38c       ??_C@_15CABMMOGH@?$AAt?$AAh?$AA?$AA@ 1008338c     libucrt:lcidtoname_downlevel.obj
 0002:0000d394       ??_C@_15BPLIHJJM@?$AAt?$AAr?$AA?$AA@ 10083394     libucrt:lcidtoname_downlevel.obj
 0002:0000d39c       ??_C@_15NEOEKKDJ@?$AAu?$AAr?$AA?$AA@ 1008339c     libucrt:lcidtoname_downlevel.obj
 0002:0000d3a4       ??_C@_15NFICGAJK@?$AAi?$AAd?$AA?$AA@ 100833a4     libucrt:lcidtoname_downlevel.obj
 0002:0000d3ac       ??_C@_15PJPFLCCM@?$AAu?$AAk?$AA?$AA@ 100833ac     libucrt:lcidtoname_downlevel.obj
 0002:0000d3b4       ??_C@_15HPJPHDM@?$AAb?$AAe?$AA?$AA@ 100833b4     libucrt:lcidtoname_downlevel.obj
 0002:0000d3bc       ??_C@_15LCHLGJII@?$AAs?$AAl?$AA?$AA@ 100833bc     libucrt:lcidtoname_downlevel.obj
 0002:0000d3c4       ??_C@_15PCFJPHHO@?$AAe?$AAt?$AA?$AA@ 100833c4     libucrt:lcidtoname_downlevel.obj
 0002:0000d3cc       ??_C@_15HPFPGODN@?$AAl?$AAv?$AA?$AA@ 100833cc     libucrt:lcidtoname_downlevel.obj
 0002:0000d3d4       ??_C@_15NFFGKGLG@?$AAl?$AAt?$AA?$AA@ 100833d4     libucrt:lcidtoname_downlevel.obj
 0002:0000d3dc       ??_C@_15BDAKCCHN@?$AAf?$AAa?$AA?$AA@ 100833dc     libucrt:lcidtoname_downlevel.obj
 0002:0000d3e4       ??_C@_15NFGIAIAJ@?$AAv?$AAi?$AA?$AA@ 100833e4     libucrt:lcidtoname_downlevel.obj
 0002:0000d3ec       ??_C@_15LMKNDMHN@?$AAh?$AAy?$AA?$AA@ 100833ec     libucrt:lcidtoname_downlevel.obj
 0002:0000d3f4       ??_C@_15IJBHMCFL@?$AAa?$AAz?$AA?$AA@ 100833f4     libucrt:lcidtoname_downlevel.obj
 0002:0000d3fc       ??_C@_15EKOFJABL@?$AAe?$AAu?$AA?$AA@ 100833fc     libucrt:lcidtoname_downlevel.obj
 0002:0000d404       ??_C@_15BGHADCNK@?$AAm?$AAk?$AA?$AA@ 10083404     libucrt:lcidtoname_downlevel.obj
 0002:0000d40c       ??_C@_15JDNICKHM@?$AAa?$AAf?$AA?$AA@ 1008340c     libucrt:lcidtoname_downlevel.obj
 0002:0000d414       ??_C@_15KPJEDBKD@?$AAk?$AAa?$AA?$AA@ 10083414     libucrt:lcidtoname_downlevel.obj
 0002:0000d41c       ??_C@_15PDNFFFEO@?$AAf?$AAo?$AA?$AA@ 1008341c     libucrt:lcidtoname_downlevel.obj
 0002:0000d424       ??_C@_15OMLEGLOC@?$AAh?$AAi?$AA?$AA@ 10083424     libucrt:lcidtoname_downlevel.obj
 0002:0000d42c       ??_C@_15IDNNENKK@?$AAm?$AAs?$AA?$AA@ 1008342c     libucrt:lcidtoname_downlevel.obj
 0002:0000d434       ??_C@_15MACJNBMH@?$AAk?$AAk?$AA?$AA@ 10083434     libucrt:lcidtoname_downlevel.obj
 0002:0000d43c       ??_C@_15DKDJEOND@?$AAk?$AAy?$AA?$AA@ 1008343c     libucrt:lcidtoname_downlevel.obj
 0002:0000d444       ??_C@_15DFGDLJBG@?$AAs?$AAw?$AA?$AA@ 10083444     libucrt:lcidtoname_downlevel.obj
 0002:0000d44c       ??_C@_15BBFAICNG@?$AAu?$AAz?$AA?$AA@ 1008344c     libucrt:lcidtoname_downlevel.obj
 0002:0000d454       ??_C@_15DKNDCGEA@?$AAt?$AAt?$AA?$AA@ 10083454     libucrt:lcidtoname_downlevel.obj
 0002:0000d45c       ??_C@_15MGIFMDPL@?$AAp?$AAa?$AA?$AA@ 1008345c     libucrt:lcidtoname_downlevel.obj
 0002:0000d464       ??_C@_15HCNDBBA@?$AAg?$AAu?$AA?$AA@ 10083464     libucrt:lcidtoname_downlevel.obj
 0002:0000d46c       ??_C@_15FNBEIBON@?$AAt?$AAa?$AA?$AA@ 1008346c     libucrt:lcidtoname_downlevel.obj
 0002:0000d474       ??_C@_15NCHGBGLK@?$AAt?$AAe?$AA?$AA@ 10083474     libucrt:lcidtoname_downlevel.obj
 0002:0000d47c       ??_C@_15PHPHCBPF@?$AAk?$AAn?$AA?$AA@ 1008347c     libucrt:lcidtoname_downlevel.obj
 0002:0000d484       ??_C@_15DLGBCKMP@?$AAm?$AAr?$AA?$AA@ 10083484     libucrt:lcidtoname_downlevel.obj
 0002:0000d48c       ??_C@_15EABBLBFF@?$AAs?$AAa?$AA?$AA@ 1008348c     libucrt:lcidtoname_downlevel.obj
 0002:0000d494       ??_C@_15CBKOMCOI@?$AAm?$AAn?$AA?$AA@ 10083494     libucrt:lcidtoname_downlevel.obj
 0002:0000d49c       ??_C@_15CKDMCJAF@?$AAg?$AAl?$AA?$AA@ 1008349c     libucrt:lcidtoname_downlevel.obj
 0002:0000d4a4       ??_C@_17CNJFBPG@?$AAk?$AAo?$AAk?$AA?$AA@ 100834a4     libucrt:lcidtoname_downlevel.obj
 0002:0000d4b0       ??_C@_17FFBJICPL@?$AAs?$AAy?$AAr?$AA?$AA@ 100834b0     libucrt:lcidtoname_downlevel.obj
 0002:0000d4bc       ??_C@_17KPNDCPAF@?$AAd?$AAi?$AAv?$AA?$AA@ 100834bc     libucrt:lcidtoname_downlevel.obj
 0002:0000d4c8       ??_C@_1M@OKAHONE@?$AAa?$AAr?$AA?9?$AAS?$AAA?$AA?$AA@ 100834c8     libucrt:lcidtoname_downlevel.obj
 0002:0000d4d8       ??_C@_1M@FFFIGIGK@?$AAb?$AAg?$AA?9?$AAB?$AAG?$AA?$AA@ 100834d8     libucrt:lcidtoname_downlevel.obj
 0002:0000d4e8       ??_C@_1M@BJNKEDC@?$AAc?$AAa?$AA?9?$AAE?$AAS?$AA?$AA@ 100834e8     libucrt:lcidtoname_downlevel.obj
 0002:0000d4f8       ??_C@_1M@IJJHFJHA@?$AAc?$AAs?$AA?9?$AAC?$AAZ?$AA?$AA@ 100834f8     libucrt:lcidtoname_downlevel.obj
 0002:0000d508       ??_C@_1M@CLPEOBGI@?$AAd?$AAa?$AA?9?$AAD?$AAK?$AA?$AA@ 10083508     libucrt:lcidtoname_downlevel.obj
 0002:0000d518       ??_C@_1M@MCMADGCB@?$AAd?$AAe?$AA?9?$AAD?$AAE?$AA?$AA@ 10083518     libucrt:lcidtoname_downlevel.obj
 0002:0000d528       ??_C@_1M@OOCKEMAM@?$AAe?$AAl?$AA?9?$AAG?$AAR?$AA?$AA@ 10083528     libucrt:lcidtoname_downlevel.obj
 0002:0000d538       ??_C@_1M@DDNJFGID@?$AAf?$AAi?$AA?9?$AAF?$AAI?$AA?$AA@ 10083538     libucrt:lcidtoname_downlevel.obj
 0002:0000d548       ??_C@_1M@GLIPPMAC@?$AAf?$AAr?$AA?9?$AAF?$AAR?$AA?$AA@ 10083548     libucrt:lcidtoname_downlevel.obj
 0002:0000d558       ??_C@_1M@GFMCHPE@?$AAh?$AAe?$AA?9?$AAI?$AAL?$AA?$AA@ 10083558     libucrt:lcidtoname_downlevel.obj
 0002:0000d568       ??_C@_1M@MHLPGNKM@?$AAh?$AAu?$AA?9?$AAH?$AAU?$AA?$AA@ 10083568     libucrt:lcidtoname_downlevel.obj
 0002:0000d578       ??_C@_1M@LPDDNNPN@?$AAi?$AAs?$AA?9?$AAI?$AAS?$AA?$AA@ 10083578     libucrt:lcidtoname_downlevel.obj
 0002:0000d588       ??_C@_1M@MADIPODN@?$AAi?$AAt?$AA?9?$AAI?$AAT?$AA?$AA@ 10083588     libucrt:lcidtoname_downlevel.obj
 0002:0000d598       ??_C@_1M@IHBJJGG@?$AAn?$AAl?$AA?9?$AAN?$AAL?$AA?$AA@ 10083598     libucrt:lcidtoname_downlevel.obj
 0002:0000d5a8       ??_C@_1M@EANAGDL@?$AAn?$AAb?$AA?9?$AAN?$AAO?$AA?$AA@ 100835a8     libucrt:lcidtoname_downlevel.obj
 0002:0000d5b8       ??_C@_1M@NEIEMEGP@?$AAp?$AAl?$AA?9?$AAP?$AAL?$AA?$AA@ 100835b8     libucrt:lcidtoname_downlevel.obj
 0002:0000d5c8       ??_C@_1M@BOCFIGEP@?$AAp?$AAt?$AA?9?$AAB?$AAR?$AA?$AA@ 100835c8     libucrt:lcidtoname_downlevel.obj
 0002:0000d5d8       ??_C@_1M@IMPFOPBG@?$AAr?$AAo?$AA?9?$AAR?$AAO?$AA?$AA@ 100835d8     libucrt:lcidtoname_downlevel.obj
 0002:0000d5e8       ??_C@_1M@IDNNEJMM@?$AAr?$AAu?$AA?9?$AAR?$AAU?$AA?$AA@ 100835e8     libucrt:lcidtoname_downlevel.obj
 0002:0000d5f8       ??_C@_1M@LILEEOGM@?$AAh?$AAr?$AA?9?$AAH?$AAR?$AA?$AA@ 100835f8     libucrt:lcidtoname_downlevel.obj
 0002:0000d608       ??_C@_1M@FKIFEHPB@?$AAs?$AAk?$AA?9?$AAS?$AAK?$AA?$AA@ 10083608     libucrt:lcidtoname_downlevel.obj
 0002:0000d618       ??_C@_1M@LJMAMNPJ@?$AAs?$AAq?$AA?9?$AAA?$AAL?$AA?$AA@ 10083618     libucrt:lcidtoname_downlevel.obj
 0002:0000d628       ??_C@_1M@GIAKDKJK@?$AAs?$AAv?$AA?9?$AAS?$AAE?$AA?$AA@ 10083628     libucrt:lcidtoname_downlevel.obj
 0002:0000d638       ??_C@_1M@MKJKIKCL@?$AAt?$AAh?$AA?9?$AAT?$AAH?$AA?$AA@ 10083638     libucrt:lcidtoname_downlevel.obj
 0002:0000d648       ??_C@_1M@MFLCCMPB@?$AAt?$AAr?$AA?9?$AAT?$AAR?$AA?$AA@ 10083648     libucrt:lcidtoname_downlevel.obj
 0002:0000d658       ??_C@_1M@OIJHDKJN@?$AAu?$AAr?$AA?9?$AAP?$AAK?$AA?$AA@ 10083658     libucrt:lcidtoname_downlevel.obj
 0002:0000d668       ??_C@_1M@LHIPCIEK@?$AAi?$AAd?$AA?9?$AAI?$AAD?$AA?$AA@ 10083668     libucrt:lcidtoname_downlevel.obj
 0002:0000d678       ??_C@_1M@MFMOBGI@?$AAu?$AAk?$AA?9?$AAU?$AAA?$AA?$AA@ 10083678     libucrt:lcidtoname_downlevel.obj
 0002:0000d688       ??_C@_1M@OBGLJIPL@?$AAb?$AAe?$AA?9?$AAB?$AAY?$AA?$AA@ 10083688     libucrt:lcidtoname_downlevel.obj
 0002:0000d698       ??_C@_1M@BCFAJEAD@?$AAs?$AAl?$AA?9?$AAS?$AAI?$AA?$AA@ 10083698     libucrt:lcidtoname_downlevel.obj
 0002:0000d6a8       ??_C@_1M@FKFFEDDN@?$AAe?$AAt?$AA?9?$AAE?$AAE?$AA?$AA@ 100836a8     libucrt:lcidtoname_downlevel.obj
 0002:0000d6b8       ??_C@_1M@KGKKAACI@?$AAl?$AAv?$AA?9?$AAL?$AAV?$AA?$AA@ 100836b8     libucrt:lcidtoname_downlevel.obj
 0002:0000d6c8       ??_C@_1M@IFGBIJO@?$AAl?$AAt?$AA?9?$AAL?$AAT?$AA?$AA@ 100836c8     libucrt:lcidtoname_downlevel.obj
 0002:0000d6d8       ??_C@_1M@FGEAHEDM@?$AAf?$AAa?$AA?9?$AAI?$AAR?$AA?$AA@ 100836d8     libucrt:lcidtoname_downlevel.obj
 0002:0000d6e8       ??_C@_1M@KBMAIBFN@?$AAv?$AAi?$AA?9?$AAV?$AAN?$AA?$AA@ 100836e8     libucrt:lcidtoname_downlevel.obj
 0002:0000d6f8       ??_C@_1M@GPCBKDJK@?$AAh?$AAy?$AA?9?$AAA?$AAM?$AA?$AA@ 100836f8     libucrt:lcidtoname_downlevel.obj
 0002:0000d708       ??_C@_1BG@BECMDDJB@?$AAa?$AAz?$AA?9?$AAA?$AAZ?$AA?9?$AAL?$AAa?$AAt?$AAn?$AA?$AA@ 10083708     libucrt:lcidtoname_downlevel.obj
 0002:0000d724       ??_C@_1M@MAOFCAEA@?$AAe?$AAu?$AA?9?$AAE?$AAS?$AA?$AA@ 10083724     libucrt:lcidtoname_downlevel.obj
 0002:0000d734       ??_C@_1M@IGHABKPI@?$AAm?$AAk?$AA?9?$AAM?$AAK?$AA?$AA@ 10083734     libucrt:lcidtoname_downlevel.obj
 0002:0000d744       ??_C@_1M@IAIGNEJG@?$AAt?$AAn?$AA?9?$AAZ?$AAA?$AA?$AA@ 10083744     libucrt:lcidtoname_downlevel.obj
 0002:0000d754       ??_C@_1M@IIJCOJFA@?$AAx?$AAh?$AA?9?$AAZ?$AAA?$AA?$AA@ 10083754     libucrt:lcidtoname_downlevel.obj
 0002:0000d764       ??_C@_1M@LGPJHNJH@?$AAz?$AAu?$AA?9?$AAZ?$AAA?$AA?$AA@ 10083764     libucrt:lcidtoname_downlevel.obj
 0002:0000d774       ??_C@_1M@HOKAOIO@?$AAa?$AAf?$AA?9?$AAZ?$AAA?$AA?$AA@ 10083774     libucrt:lcidtoname_downlevel.obj
 0002:0000d784       ??_C@_1M@DPCLHLIE@?$AAk?$AAa?$AA?9?$AAG?$AAE?$AA?$AA@ 10083784     libucrt:lcidtoname_downlevel.obj
 0002:0000d794       ??_C@_1M@BLKMHJBI@?$AAf?$AAo?$AA?9?$AAF?$AAO?$AA?$AA@ 10083794     libucrt:lcidtoname_downlevel.obj
 0002:0000d7a4       ??_C@_1M@LGGJAPPB@?$AAh?$AAi?$AA?9?$AAI?$AAN?$AA?$AA@ 100837a4     libucrt:lcidtoname_downlevel.obj
 0002:0000d7b4       ??_C@_1M@FIKPIHFE@?$AAm?$AAt?$AA?9?$AAM?$AAT?$AA?$AA@ 100837b4     libucrt:lcidtoname_downlevel.obj
 0002:0000d7c4       ??_C@_1M@HEGGPBFA@?$AAs?$AAe?$AA?9?$AAN?$AAO?$AA?$AA@ 100837c4     libucrt:lcidtoname_downlevel.obj
 0002:0000d7d4       ??_C@_1M@EIBJEEPA@?$AAm?$AAs?$AA?9?$AAM?$AAY?$AA?$AA@ 100837d4     libucrt:lcidtoname_downlevel.obj
 0002:0000d7e4       ??_C@_1M@FHLBGMPP@?$AAk?$AAk?$AA?9?$AAK?$AAZ?$AA?$AA@ 100837e4     libucrt:lcidtoname_downlevel.obj
 0002:0000d7f4       ??_C@_1M@NGJJLCGI@?$AAk?$AAy?$AA?9?$AAK?$AAG?$AA?$AA@ 100837f4     libucrt:lcidtoname_downlevel.obj
 0002:0000d804       ??_C@_1M@GIENNBFC@?$AAs?$AAw?$AA?9?$AAK?$AAE?$AA?$AA@ 10083804     libucrt:lcidtoname_downlevel.obj
 0002:0000d814       ??_C@_1BG@NDGMJIMJ@?$AAu?$AAz?$AA?9?$AAU?$AAZ?$AA?9?$AAL?$AAa?$AAt?$AAn?$AA?$AA@ 10083814     libucrt:lcidtoname_downlevel.obj
 0002:0000d830       ??_C@_1M@IDCCIHBC@?$AAt?$AAt?$AA?9?$AAR?$AAU?$AA?$AA@ 10083830     libucrt:lcidtoname_downlevel.obj
 0002:0000d840       ??_C@_1M@LOICPMOJ@?$AAb?$AAn?$AA?9?$AAI?$AAN?$AA?$AA@ 10083840     libucrt:lcidtoname_downlevel.obj
 0002:0000d850       ??_C@_1M@KPKKNEAH@?$AAp?$AAa?$AA?9?$AAI?$AAN?$AA?$AA@ 10083850     libucrt:lcidtoname_downlevel.obj
 0002:0000d860       ??_C@_1M@PJGPPBOG@?$AAg?$AAu?$AA?9?$AAI?$AAN?$AA?$AA@ 10083860     libucrt:lcidtoname_downlevel.obj
 0002:0000d870       ??_C@_1M@KMKMOPHI@?$AAt?$AAa?$AA?9?$AAI?$AAN?$AA?$AA@ 10083870     libucrt:lcidtoname_downlevel.obj
 0002:0000d880       ??_C@_1M@KFEHEPAC@?$AAt?$AAe?$AA?9?$AAI?$AAN?$AA?$AA@ 10083880     libucrt:lcidtoname_downlevel.obj
 0002:0000d890       ??_C@_1M@CDCLMGHI@?$AAk?$AAn?$AA?9?$AAI?$AAN?$AA?$AA@ 10083890     libucrt:lcidtoname_downlevel.obj
 0002:0000d8a0       ??_C@_1M@MIODLDKF@?$AAm?$AAl?$AA?9?$AAI?$AAN?$AA?$AA@ 100838a0     libucrt:lcidtoname_downlevel.obj
 0002:0000d8b0       ??_C@_1M@PBIEACPO@?$AAm?$AAr?$AA?9?$AAI?$AAN?$AA?$AA@ 100838b0     libucrt:lcidtoname_downlevel.obj
 0002:0000d8c0       ??_C@_1M@NIDEAGPH@?$AAs?$AAa?$AA?9?$AAI?$AAN?$AA?$AA@ 100838c0     libucrt:lcidtoname_downlevel.obj
 0002:0000d8d0       ??_C@_1M@FHIHCBIO@?$AAm?$AAn?$AA?9?$AAM?$AAN?$AA?$AA@ 100838d0     libucrt:lcidtoname_downlevel.obj
 0002:0000d8e0       ??_C@_1M@JAIJPENP@?$AAc?$AAy?$AA?9?$AAG?$AAB?$AA?$AA@ 100838e0     libucrt:lcidtoname_downlevel.obj
 0002:0000d8f0       ??_C@_1M@PHGFBEPN@?$AAg?$AAl?$AA?9?$AAE?$AAS?$AA?$AA@ 100838f0     libucrt:lcidtoname_downlevel.obj
 0002:0000d900       ??_C@_1O@KPIPDNCP@?$AAk?$AAo?$AAk?$AA?9?$AAI?$AAN?$AA?$AA@ 10083900     libucrt:lcidtoname_downlevel.obj
 0002:0000d910       ??_C@_1O@KNHJLDJA@?$AAs?$AAy?$AAr?$AA?9?$AAS?$AAY?$AA?$AA@ 10083910     libucrt:lcidtoname_downlevel.obj
 0002:0000d920       ??_C@_1O@MKEKBLAH@?$AAd?$AAi?$AAv?$AA?9?$AAM?$AAV?$AA?$AA@ 10083920     libucrt:lcidtoname_downlevel.obj
 0002:0000d930       ??_C@_1O@OHDCKDDF@?$AAq?$AAu?$AAz?$AA?9?$AAB?$AAO?$AA?$AA@ 10083930     libucrt:lcidtoname_downlevel.obj
 0002:0000d940       ??_C@_1M@LEPJNLFD@?$AAn?$AAs?$AA?9?$AAZ?$AAA?$AA?$AA@ 10083940     libucrt:lcidtoname_downlevel.obj
 0002:0000d950       ??_C@_1M@OMLEIIJB@?$AAm?$AAi?$AA?9?$AAN?$AAZ?$AA?$AA@ 10083950     libucrt:lcidtoname_downlevel.obj
 0002:0000d960       ??_C@_1M@PMPEAILG@?$AAa?$AAr?$AA?9?$AAI?$AAQ?$AA?$AA@ 10083960     libucrt:lcidtoname_downlevel.obj
 0002:0000d970       ??_C@_1M@CNKPNOEE@?$AAd?$AAe?$AA?9?$AAC?$AAH?$AA?$AA@ 10083970     libucrt:lcidtoname_downlevel.obj
 0002:0000d980       ??_C@_1M@LKMGMLKO@?$AAe?$AAn?$AA?9?$AAG?$AAB?$AA?$AA@ 10083980     libucrt:lcidtoname_downlevel.obj
 0002:0000d990       ??_C@_1M@PGKJFFGL@?$AAe?$AAs?$AA?9?$AAM?$AAX?$AA?$AA@ 10083990     libucrt:lcidtoname_downlevel.obj
 0002:0000d9a0       ??_C@_1M@DNNANBDC@?$AAf?$AAr?$AA?9?$AAB?$AAE?$AA?$AA@ 100839a0     libucrt:lcidtoname_downlevel.obj
 0002:0000d9b0       ??_C@_1M@HLGMDFHM@?$AAi?$AAt?$AA?9?$AAC?$AAH?$AA?$AA@ 100839b0     libucrt:lcidtoname_downlevel.obj
 0002:0000d9c0       ??_C@_1M@CLLBGJH@?$AAn?$AAl?$AA?9?$AAB?$AAE?$AA?$AA@ 100839c0     libucrt:lcidtoname_downlevel.obj
 0002:0000d9d0       ??_C@_1M@BODBOGLF@?$AAn?$AAn?$AA?9?$AAN?$AAO?$AA?$AA@ 100839d0     libucrt:lcidtoname_downlevel.obj
 0002:0000d9e0       ??_C@_1M@HFFAHKAD@?$AAp?$AAt?$AA?9?$AAP?$AAT?$AA?$AA@ 100839e0     libucrt:lcidtoname_downlevel.obj
 0002:0000d9f0       ??_C@_1BG@LNOAKHIE@?$AAs?$AAr?$AA?9?$AAS?$AAP?$AA?9?$AAL?$AAa?$AAt?$AAn?$AA?$AA@ 100839f0     libucrt:lcidtoname_downlevel.obj
 0002:0000da0c       ??_C@_1M@HBMHBGAK@?$AAs?$AAv?$AA?9?$AAF?$AAI?$AA?$AA@ 10083a0c     libucrt:lcidtoname_downlevel.obj
 0002:0000da1c       ??_C@_1BG@DGCJGJBE@?$AAa?$AAz?$AA?9?$AAA?$AAZ?$AA?9?$AAC?$AAy?$AAr?$AAl?$AA?$AA@ 10083a1c     libucrt:lcidtoname_downlevel.obj
 0002:0000da38       ??_C@_1M@KEJDAAHB@?$AAs?$AAe?$AA?9?$AAS?$AAE?$AA?$AA@ 10083a38     libucrt:lcidtoname_downlevel.obj
 0002:0000da48       ??_C@_1M@HEIBJJAD@?$AAm?$AAs?$AA?9?$AAB?$AAN?$AA?$AA@ 10083a48     libucrt:lcidtoname_downlevel.obj
 0002:0000da58       ??_C@_1BG@PBGJMCEM@?$AAu?$AAz?$AA?9?$AAU?$AAZ?$AA?9?$AAC?$AAy?$AAr?$AAl?$AA?$AA@ 10083a58     libucrt:lcidtoname_downlevel.obj
 0002:0000da74       ??_C@_1O@LAOBCMDF@?$AAq?$AAu?$AAz?$AA?9?$AAE?$AAC?$AA?$AA@ 10083a74     libucrt:lcidtoname_downlevel.obj
 0002:0000da84       ??_C@_1M@POEEMAIO@?$AAa?$AAr?$AA?9?$AAE?$AAG?$AA?$AA@ 10083a84     libucrt:lcidtoname_downlevel.obj
 0002:0000da94       ??_C@_1M@EFAKDEDL@?$AAz?$AAh?$AA?9?$AAH?$AAK?$AA?$AA@ 10083a94     libucrt:lcidtoname_downlevel.obj
 0002:0000daa4       ??_C@_1M@HKKIJHGI@?$AAd?$AAe?$AA?9?$AAA?$AAT?$AA?$AA@ 10083aa4     libucrt:lcidtoname_downlevel.obj
 0002:0000dab4       ??_C@_1M@KBFBEHJF@?$AAe?$AAn?$AA?9?$AAA?$AAU?$AA?$AA@ 10083ab4     libucrt:lcidtoname_downlevel.obj
 0002:0000dac4       ??_C@_1M@MNPLFAAH@?$AAe?$AAs?$AA?9?$AAE?$AAS?$AA?$AA@ 10083ac4     libucrt:lcidtoname_downlevel.obj
 0002:0000dad4       ??_C@_1M@HJOOJFMA@?$AAf?$AAr?$AA?9?$AAC?$AAA?$AA?$AA@ 10083ad4     libucrt:lcidtoname_downlevel.obj
 0002:0000dae4       ??_C@_1BG@JPOFPNAB@?$AAs?$AAr?$AA?9?$AAS?$AAP?$AA?9?$AAC?$AAy?$AAr?$AAl?$AA?$AA@ 10083ae4     libucrt:lcidtoname_downlevel.obj
 0002:0000db00       ??_C@_1M@LNFOCMOB@?$AAs?$AAe?$AA?9?$AAF?$AAI?$AA?$AA@ 10083b00     libucrt:lcidtoname_downlevel.obj
 0002:0000db10       ??_C@_1O@MGJBOAMB@?$AAq?$AAu?$AAz?$AA?9?$AAP?$AAE?$AA?$AA@ 10083b10     libucrt:lcidtoname_downlevel.obj
 0002:0000db20       ??_C@_1M@GJINLBOK@?$AAa?$AAr?$AA?9?$AAL?$AAY?$AA?$AA@ 10083b20     libucrt:lcidtoname_downlevel.obj
 0002:0000db30       ??_C@_1M@GGMNHJNL@?$AAz?$AAh?$AA?9?$AAS?$AAG?$AA?$AA@ 10083b30     libucrt:lcidtoname_downlevel.obj
 0002:0000db40       ??_C@_1M@HOIKODND@?$AAd?$AAe?$AA?9?$AAL?$AAU?$AA?$AA@ 10083b40     libucrt:lcidtoname_downlevel.obj
 0002:0000db50       ??_C@_1M@DDOCCGFG@?$AAe?$AAn?$AA?9?$AAC?$AAA?$AA?$AA@ 10083b50     libucrt:lcidtoname_downlevel.obj
 0002:0000db60       ??_C@_1M@BNOEMJLF@?$AAe?$AAs?$AA?9?$AAG?$AAT?$AA?$AA@ 10083b60     libucrt:lcidtoname_downlevel.obj
 0002:0000db70       ??_C@_1M@EOGNKEK@?$AAf?$AAr?$AA?9?$AAC?$AAH?$AA?$AA@ 10083b70     libucrt:lcidtoname_downlevel.obj
 0002:0000db80       ??_C@_1M@FLIDJFHL@?$AAh?$AAr?$AA?9?$AAB?$AAA?$AA?$AA@ 10083b80     libucrt:lcidtoname_downlevel.obj
 0002:0000db90       ??_C@_1O@FMCELNAJ@?$AAs?$AAm?$AAj?$AA?9?$AAN?$AAO?$AA?$AA@ 10083b90     libucrt:lcidtoname_downlevel.obj
 0002:0000dba0       ??_C@_1M@JHGLJMGJ@?$AAa?$AAr?$AA?9?$AAD?$AAZ?$AA?$AA@ 10083ba0     libucrt:lcidtoname_downlevel.obj
 0002:0000dbb0       ??_C@_1M@JKKFDCNP@?$AAz?$AAh?$AA?9?$AAM?$AAO?$AA?$AA@ 10083bb0     libucrt:lcidtoname_downlevel.obj
 0002:0000dbc0       ??_C@_1M@GEEFALPE@?$AAd?$AAe?$AA?9?$AAL?$AAI?$AA?$AA@ 10083bc0     libucrt:lcidtoname_downlevel.obj
 0002:0000dbd0       ??_C@_1M@IGEOFBG@?$AAe?$AAn?$AA?9?$AAN?$AAZ?$AA?$AA@ 10083bd0     libucrt:lcidtoname_downlevel.obj
 0002:0000dbe0       ??_C@_1M@KDBONEHP@?$AAe?$AAs?$AA?9?$AAC?$AAR?$AA?$AA@ 10083be0     libucrt:lcidtoname_downlevel.obj
 0002:0000dbf0       ??_C@_1M@FHMDOHNN@?$AAf?$AAr?$AA?9?$AAL?$AAU?$AA?$AA@ 10083bf0     libucrt:lcidtoname_downlevel.obj
 0002:0000dc00       ??_C@_1BG@NFKKMAFG@?$AAb?$AAs?$AA?9?$AAB?$AAA?$AA?9?$AAL?$AAa?$AAt?$AAn?$AA?$AA@ 10083c00     libucrt:lcidtoname_downlevel.obj
 0002:0000dc1c       ??_C@_1O@IMNBEMCI@?$AAs?$AAm?$AAj?$AA?9?$AAS?$AAE?$AA?$AA@ 10083c1c     libucrt:lcidtoname_downlevel.obj
 0002:0000dc2c       ??_C@_1M@DHHMBNDP@?$AAa?$AAr?$AA?9?$AAM?$AAA?$AA?$AA@ 10083c2c     libucrt:lcidtoname_downlevel.obj
 0002:0000dc3c       ??_C@_1M@BNBLJCGH@?$AAe?$AAn?$AA?9?$AAI?$AAE?$AA?$AA@ 10083c3c     libucrt:lcidtoname_downlevel.obj
 0002:0000dc4c       ??_C@_1M@GEPAFMDL@?$AAe?$AAs?$AA?9?$AAP?$AAA?$AA?$AA@ 10083c4c     libucrt:lcidtoname_downlevel.obj
 0002:0000dc5c       ??_C@_1M@OJONDMDL@?$AAf?$AAr?$AA?9?$AAM?$AAC?$AA?$AA@ 10083c5c     libucrt:lcidtoname_downlevel.obj
 0002:0000dc6c       ??_C@_1BG@OBCNFJB@?$AAs?$AAr?$AA?9?$AAB?$AAA?$AA?9?$AAL?$AAa?$AAt?$AAn?$AA?$AA@ 10083c6c     libucrt:lcidtoname_downlevel.obj
 0002:0000dc88       ??_C@_1O@KEMEEGPO@?$AAs?$AAm?$AAa?$AA?9?$AAN?$AAO?$AA?$AA@ 10083c88     libucrt:lcidtoname_downlevel.obj
 0002:0000dc98       ??_C@_1M@ELMGFODK@?$AAa?$AAr?$AA?9?$AAT?$AAN?$AA?$AA@ 10083c98     libucrt:lcidtoname_downlevel.obj
 0002:0000dca8       ??_C@_1M@BHDLHFAF@?$AAe?$AAn?$AA?9?$AAZ?$AAA?$AA?$AA@ 10083ca8     libucrt:lcidtoname_downlevel.obj
 0002:0000dcb8       ??_C@_1M@BMGIGLIF@?$AAe?$AAs?$AA?9?$AAD?$AAO?$AA?$AA@ 10083cb8     libucrt:lcidtoname_downlevel.obj
 0002:0000dcc8       ??_C@_1BG@CMBHIPBE@?$AAs?$AAr?$AA?9?$AAB?$AAA?$AA?9?$AAC?$AAy?$AAr?$AAl?$AA?$AA@ 10083cc8     libucrt:lcidtoname_downlevel.obj
 0002:0000dce4       ??_C@_1O@HEDBLHNP@?$AAs?$AAm?$AAa?$AA?9?$AAS?$AAE?$AA?$AA@ 10083ce4     libucrt:lcidtoname_downlevel.obj
 0002:0000dcf4       ??_C@_1M@DAGCADIM@?$AAa?$AAr?$AA?9?$AAO?$AAM?$AA?$AA@ 10083cf4     libucrt:lcidtoname_downlevel.obj
 0002:0000dd04       ??_C@_1M@FODLMICG@?$AAe?$AAn?$AA?9?$AAJ?$AAM?$AA?$AA@ 10083d04     libucrt:lcidtoname_downlevel.obj
 0002:0000dd14       ??_C@_1M@DNMLCIHB@?$AAe?$AAs?$AA?9?$AAV?$AAE?$AA?$AA@ 10083d14     libucrt:lcidtoname_downlevel.obj
 0002:0000dd24       ??_C@_1O@EOKHMKJK@?$AAs?$AAm?$AAs?$AA?9?$AAF?$AAI?$AA?$AA@ 10083d24     libucrt:lcidtoname_downlevel.obj
 0002:0000dd34       ??_C@_1M@CAFJMKOF@?$AAa?$AAr?$AA?9?$AAY?$AAE?$AA?$AA@ 10083d34     libucrt:lcidtoname_downlevel.obj
 0002:0000dd44       ??_C@_1M@CBFHIJLI@?$AAe?$AAn?$AA?9?$AAC?$AAB?$AA?$AA@ 10083d44     libucrt:lcidtoname_downlevel.obj
 0002:0000dd54       ??_C@_1M@BGNFLDN@?$AAe?$AAs?$AA?9?$AAC?$AAO?$AA?$AA@ 10083d54     libucrt:lcidtoname_downlevel.obj
 0002:0000dd64       ??_C@_1O@JMPHMAMC@?$AAs?$AAm?$AAn?$AA?9?$AAF?$AAI?$AA?$AA@ 10083d64     libucrt:lcidtoname_downlevel.obj
 0002:0000dd74       ??_C@_1M@JLANABKE@?$AAa?$AAr?$AA?9?$AAS?$AAY?$AA?$AA@ 10083d74     libucrt:lcidtoname_downlevel.obj
 0002:0000dd84       ??_C@_1M@HPKGCFGN@?$AAe?$AAn?$AA?9?$AAB?$AAZ?$AA?$AA@ 10083d84     libucrt:lcidtoname_downlevel.obj
 0002:0000dd94       ??_C@_1M@OLJCMLGM@?$AAe?$AAs?$AA?9?$AAP?$AAE?$AA?$AA@ 10083d94     libucrt:lcidtoname_downlevel.obj
 0002:0000dda4       ??_C@_1M@MKKGFKLE@?$AAa?$AAr?$AA?9?$AAJ?$AAO?$AA?$AA@ 10083da4     libucrt:lcidtoname_downlevel.obj
 0002:0000ddb4       ??_C@_1M@EKPGLDNI@?$AAe?$AAn?$AA?9?$AAT?$AAT?$AA?$AA@ 10083db4     libucrt:lcidtoname_downlevel.obj
 0002:0000ddc4       ??_C@_1M@OONGHFHE@?$AAe?$AAs?$AA?9?$AAA?$AAR?$AA?$AA@ 10083dc4     libucrt:lcidtoname_downlevel.obj
 0002:0000ddd4       ??_C@_1M@OOJFGBHE@?$AAa?$AAr?$AA?9?$AAL?$AAB?$AA?$AA@ 10083dd4     libucrt:lcidtoname_downlevel.obj
 0002:0000dde4       ??_C@_1M@GCEJHNEG@?$AAe?$AAn?$AA?9?$AAZ?$AAW?$AA?$AA@ 10083de4     libucrt:lcidtoname_downlevel.obj
 0002:0000ddf4       ??_C@_1M@JNOCAHJI@?$AAe?$AAs?$AA?9?$AAE?$AAC?$AA?$AA@ 10083df4     libucrt:lcidtoname_downlevel.obj
 0002:0000de04       ??_C@_1M@JEFHPGGB@?$AAa?$AAr?$AA?9?$AAK?$AAW?$AA?$AA@ 10083e04     libucrt:lcidtoname_downlevel.obj
 0002:0000de14       ??_C@_1M@MLKIBJOJ@?$AAe?$AAn?$AA?9?$AAP?$AAH?$AA?$AA@ 10083e14     libucrt:lcidtoname_downlevel.obj
 0002:0000de24       ??_C@_1M@BDNIPEND@?$AAe?$AAs?$AA?9?$AAC?$AAL?$AA?$AA@ 10083e24     libucrt:lcidtoname_downlevel.obj
 0002:0000de34       ??_C@_1M@MPNMEKBD@?$AAa?$AAr?$AA?9?$AAA?$AAE?$AA?$AA@ 10083e34     libucrt:lcidtoname_downlevel.obj
 0002:0000de44       ??_C@_1M@KBJALCPI@?$AAe?$AAs?$AA?9?$AAU?$AAY?$AA?$AA@ 10083e44     libucrt:lcidtoname_downlevel.obj
 0002:0000de54       ??_C@_1M@LLCCOAGA@?$AAa?$AAr?$AA?9?$AAB?$AAH?$AA?$AA@ 10083e54     libucrt:lcidtoname_downlevel.obj
 0002:0000de64       ??_C@_1M@PBFNCDEL@?$AAe?$AAs?$AA?9?$AAP?$AAY?$AA?$AA@ 10083e64     libucrt:lcidtoname_downlevel.obj
 0002:0000de74       ??_C@_1M@EDGINPNP@?$AAa?$AAr?$AA?9?$AAQ?$AAA?$AA?$AA@ 10083e74     libucrt:lcidtoname_downlevel.obj
 0002:0000de84       ??_C@_1M@MKDBIIJI@?$AAe?$AAs?$AA?9?$AAB?$AAO?$AA?$AA@ 10083e84     libucrt:lcidtoname_downlevel.obj
 0002:0000de94       ??_C@_1M@CPKKEBLD@?$AAe?$AAs?$AA?9?$AAS?$AAV?$AA?$AA@ 10083e94     libucrt:lcidtoname_downlevel.obj
 0002:0000dea4       ??_C@_1M@NDBGMMJL@?$AAe?$AAs?$AA?9?$AAH?$AAN?$AA?$AA@ 10083ea4     libucrt:lcidtoname_downlevel.obj
 0002:0000deb4       ??_C@_1M@JIJIBHDP@?$AAe?$AAs?$AA?9?$AAN?$AAI?$AA?$AA@ 10083eb4     libucrt:lcidtoname_downlevel.obj
 0002:0000dec4       ??_C@_1M@CGFMKEEK@?$AAe?$AAs?$AA?9?$AAP?$AAR?$AA?$AA@ 10083ec4     libucrt:lcidtoname_downlevel.obj
 0002:0000ded4       ??_C@_1O@ICJHKIIK@?$AAz?$AAh?$AA?9?$AAC?$AAH?$AAT?$AA?$AA@ 10083ed4     libucrt:lcidtoname_downlevel.obj
 0002:0000dee4       ??_C@_15CLNEJCE@?$AAs?$AAr?$AA?$AA@ 10083ee4     libucrt:lcidtoname_downlevel.obj
 0002:0000e77c       ??_C@_1M@KAHEKEIG@?$AAa?$AAf?$AA?9?$AAz?$AAa?$AA?$AA@ 1008477c     libucrt:lcidtoname_downlevel.obj
 0002:0000e78c       ??_C@_1M@GIECOABL@?$AAa?$AAr?$AA?9?$AAa?$AAe?$AA?$AA@ 1008478c     libucrt:lcidtoname_downlevel.obj
 0002:0000e79c       ??_C@_1M@BMLMEKGI@?$AAa?$AAr?$AA?9?$AAb?$AAh?$AA?$AA@ 1008479c     libucrt:lcidtoname_downlevel.obj
 0002:0000e7ac       ??_C@_1M@DAPFDGGB@?$AAa?$AAr?$AA?9?$AAd?$AAz?$AA?$AA@ 100847ac     libucrt:lcidtoname_downlevel.obj
 0002:0000e7bc       ??_C@_1M@FJNKGKIG@?$AAa?$AAr?$AA?9?$AAe?$AAg?$AA?$AA@ 100847bc     libucrt:lcidtoname_downlevel.obj
 0002:0000e7cc       ??_C@_1M@FLGKKCLO@?$AAa?$AAr?$AA?9?$AAi?$AAq?$AA?$AA@ 100847cc     libucrt:lcidtoname_downlevel.obj
 0002:0000e7dc       ??_C@_1M@GNDIPALM@?$AAa?$AAr?$AA?9?$AAj?$AAo?$AA?$AA@ 100847dc     libucrt:lcidtoname_downlevel.obj
 0002:0000e7ec       ??_C@_1M@DDMJFMGJ@?$AAa?$AAr?$AA?9?$AAk?$AAw?$AA?$AA@ 100847ec     libucrt:lcidtoname_downlevel.obj
 0002:0000e7fc       ??_C@_1M@EJALMLHM@?$AAa?$AAr?$AA?9?$AAl?$AAb?$AA?$AA@ 100847fc     libucrt:lcidtoname_downlevel.obj
 0002:0000e80c       ??_C@_1M@MOBDBLOC@?$AAa?$AAr?$AA?9?$AAl?$AAy?$AA?$AA@ 1008480c     libucrt:lcidtoname_downlevel.obj
 0002:0000e81c       ??_C@_1M@JAOCLHDH@?$AAa?$AAr?$AA?9?$AAm?$AAa?$AA?$AA@ 1008481c     libucrt:lcidtoname_downlevel.obj
 0002:0000e82c       ??_C@_1M@JHPMKJIE@?$AAa?$AAr?$AA?9?$AAo?$AAm?$AA?$AA@ 1008482c     libucrt:lcidtoname_downlevel.obj
 0002:0000e83c       ??_C@_1M@OEPGHFNH@?$AAa?$AAr?$AA?9?$AAq?$AAa?$AA?$AA@ 1008483c     libucrt:lcidtoname_downlevel.obj
 0002:0000e84c       ??_C@_1M@KJDONENM@?$AAa?$AAr?$AA?9?$AAs?$AAa?$AA?$AA@ 1008484c     libucrt:lcidtoname_downlevel.obj
 0002:0000e85c       ??_C@_1M@DMJDKLKM@?$AAa?$AAr?$AA?9?$AAs?$AAy?$AA?$AA@ 1008485c     libucrt:lcidtoname_downlevel.obj
 0002:0000e86c       ??_C@_1M@OMFIPEDC@?$AAa?$AAr?$AA?9?$AAt?$AAn?$AA?$AA@ 1008486c     libucrt:lcidtoname_downlevel.obj
 0002:0000e87c       ??_C@_1M@IHMHGAON@?$AAa?$AAr?$AA?9?$AAy?$AAe?$AA?$AA@ 1008487c     libucrt:lcidtoname_downlevel.obj
 0002:0000e88c       ??_C@_1BG@KDCPGJGB@?$AAa?$AAz?$AA?9?$AAa?$AAz?$AA?9?$AAc?$AAy?$AAr?$AAl?$AA?$AA@ 1008488c     libucrt:lcidtoname_downlevel.obj
 0002:0000e8a8       ??_C@_1BG@IBCKDDOE@?$AAa?$AAz?$AA?9?$AAa?$AAz?$AA?9?$AAl?$AAa?$AAt?$AAn?$AA?$AA@ 100848a8     libucrt:lcidtoname_downlevel.obj
 0002:0000e8c4       ??_C@_1M@EGPFDCPD@?$AAb?$AAe?$AA?9?$AAb?$AAy?$AA?$AA@ 100848c4     libucrt:lcidtoname_downlevel.obj
 0002:0000e8d4       ??_C@_1M@PCMGMCGC@?$AAb?$AAg?$AA?9?$AAb?$AAg?$AA?$AA@ 100848d4     libucrt:lcidtoname_downlevel.obj
 0002:0000e8e4       ??_C@_1M@BJBMFGOB@?$AAb?$AAn?$AA?9?$AAi?$AAn?$AA?$AA@ 100848e4     libucrt:lcidtoname_downlevel.obj
 0002:0000e8f4       ??_C@_1BG@EAKMMACD@?$AAb?$AAs?$AA?9?$AAb?$AAa?$AA?9?$AAl?$AAa?$AAt?$AAn?$AA?$AA@ 100848f4     libucrt:lcidtoname_downlevel.obj
 0002:0000e910       ??_C@_1M@KGADAODK@?$AAc?$AAa?$AA?9?$AAe?$AAs?$AA?$AA@ 10084910     libucrt:lcidtoname_downlevel.obj
 0002:0000e920       ??_C@_1M@COAJPDHI@?$AAc?$AAs?$AA?9?$AAc?$AAz?$AA?$AA@ 10084920     libucrt:lcidtoname_downlevel.obj
 0002:0000e930       ??_C@_1M@DHBHFONH@?$AAc?$AAy?$AA?9?$AAg?$AAb?$AA?$AA@ 10084930     libucrt:lcidtoname_downlevel.obj
 0002:0000e940       ??_C@_1M@IMGKELGA@?$AAd?$AAa?$AA?9?$AAd?$AAk?$AA?$AA@ 10084940     libucrt:lcidtoname_downlevel.obj
 0002:0000e950       ??_C@_1M@NNDGDNGA@?$AAd?$AAe?$AA?9?$AAa?$AAt?$AA?$AA@ 10084950     libucrt:lcidtoname_downlevel.obj
 0002:0000e960       ??_C@_1M@IKDBHEEM@?$AAd?$AAe?$AA?9?$AAc?$AAh?$AA?$AA@ 10084960     libucrt:lcidtoname_downlevel.obj
 0002:0000e970       ??_C@_1M@GFFOJMCJ@?$AAd?$AAe?$AA?9?$AAd?$AAe?$AA?$AA@ 10084970     libucrt:lcidtoname_downlevel.obj
 0002:0000e980       ??_C@_1M@MDNLKBPM@?$AAd?$AAe?$AA?9?$AAl?$AAi?$AA?$AA@ 10084980     libucrt:lcidtoname_downlevel.obj
 0002:0000e990       ??_C@_1M@NJBEEJNL@?$AAd?$AAe?$AA?9?$AAl?$AAu?$AA?$AA@ 10084990     libucrt:lcidtoname_downlevel.obj
 0002:0000e9a0       ??_C@_1O@GNNELBAP@?$AAd?$AAi?$AAv?$AA?9?$AAm?$AAv?$AA?$AA@ 100849a0     libucrt:lcidtoname_downlevel.obj
 0002:0000e9b0       ??_C@_1M@EJLEOGAE@?$AAe?$AAl?$AA?9?$AAg?$AAr?$AA?$AA@ 100849b0     libucrt:lcidtoname_downlevel.obj
 0002:0000e9c0       ??_C@_1M@GMPONJN@?$AAe?$AAn?$AA?9?$AAa?$AAu?$AA?$AA@ 100849c0     libucrt:lcidtoname_downlevel.obj
 0002:0000e9d0       ??_C@_1M@NIDIIPGF@?$AAe?$AAn?$AA?9?$AAb?$AAz?$AA?$AA@ 100849d0     libucrt:lcidtoname_downlevel.obj
 0002:0000e9e0       ??_C@_1M@JEHMIMFO@?$AAe?$AAn?$AA?9?$AAc?$AAa?$AA?$AA@ 100849e0     libucrt:lcidtoname_downlevel.obj
 0002:0000e9f0       ??_C@_1M@IGMJCDLA@?$AAe?$AAn?$AA?9?$AAc?$AAb?$AA?$AA@ 100849f0     libucrt:lcidtoname_downlevel.obj
 0002:0000ea00       ??_C@_1M@BNFIGBKG@?$AAe?$AAn?$AA?9?$AAg?$AAb?$AA?$AA@ 10084a00     libucrt:lcidtoname_downlevel.obj
 0002:0000ea10       ??_C@_1M@LKIFDIGP@?$AAe?$AAn?$AA?9?$AAi?$AAe?$AA?$AA@ 10084a10     libucrt:lcidtoname_downlevel.obj
 0002:0000ea20       ??_C@_1M@PJKFGCCO@?$AAe?$AAn?$AA?9?$AAj?$AAm?$AA?$AA@ 10084a20     libucrt:lcidtoname_downlevel.obj
 0002:0000ea30       ??_C@_1M@KPPKEPBO@?$AAe?$AAn?$AA?9?$AAn?$AAz?$AA?$AA@ 10084a30     libucrt:lcidtoname_downlevel.obj
 0002:0000ea40       ??_C@_1M@GMDGLDOB@?$AAe?$AAn?$AA?9?$AAp?$AAh?$AA?$AA@ 10084a40     libucrt:lcidtoname_downlevel.obj
 0002:0000ea50       ??_C@_1M@ONGIBJNA@?$AAe?$AAn?$AA?9?$AAt?$AAt?$AA?$AA@ 10084a50     libucrt:lcidtoname_downlevel.obj
 0002:0000ea60       ??_C@_1M@LLODPCMM@?$AAe?$AAn?$AA?9?$AAu?$AAs?$AA?$AA@ 10084a60     libucrt:lcidtoname_downlevel.obj
 0002:0000ea70       ??_C@_1M@LAKFNPAN@?$AAe?$AAn?$AA?9?$AAz?$AAa?$AA?$AA@ 10084a70     libucrt:lcidtoname_downlevel.obj
 0002:0000ea80       ??_C@_1M@MFNHNHEO@?$AAe?$AAn?$AA?9?$AAz?$AAw?$AA?$AA@ 10084a80     libucrt:lcidtoname_downlevel.obj
 0002:0000ea90       ??_C@_1M@EJEINPHM@?$AAe?$AAs?$AA?9?$AAa?$AAr?$AA?$AA@ 10084a90     libucrt:lcidtoname_downlevel.obj
 0002:0000eaa0       ??_C@_1M@GNKPCCJA@?$AAe?$AAs?$AA?9?$AAb?$AAo?$AA?$AA@ 10084aa0     libucrt:lcidtoname_downlevel.obj
 0002:0000eab0       ??_C@_1M@LEEGFONL@?$AAe?$AAs?$AA?9?$AAc?$AAl?$AA?$AA@ 10084ab0     libucrt:lcidtoname_downlevel.obj
 0002:0000eac0       ??_C@_1M@KGPDPBDF@?$AAe?$AAs?$AA?9?$AAc?$AAo?$AA?$AA@ 10084ac0     libucrt:lcidtoname_downlevel.obj
 0002:0000ead0       ??_C@_1M@EIAHOHH@?$AAe?$AAs?$AA?9?$AAc?$AAr?$AA?$AA@ 10084ad0     libucrt:lcidtoname_downlevel.obj
 0002:0000eae0       ??_C@_1M@LLPGMBIN@?$AAe?$AAs?$AA?9?$AAd?$AAo?$AA?$AA@ 10084ae0     libucrt:lcidtoname_downlevel.obj
 0002:0000eaf0       ??_C@_1M@DKHMKNJA@?$AAe?$AAs?$AA?9?$AAe?$AAc?$AA?$AA@ 10084af0     libucrt:lcidtoname_downlevel.obj
 0002:0000eb00       ??_C@_1M@GKGFPKAP@?$AAe?$AAs?$AA?9?$AAe?$AAs?$AA?$AA@ 10084b00     libucrt:lcidtoname_downlevel.obj
 0002:0000eb10       ??_C@_1M@LKHKGDLN@?$AAe?$AAs?$AA?9?$AAg?$AAt?$AA?$AA@ 10084b10     libucrt:lcidtoname_downlevel.obj
 0002:0000eb20       ??_C@_1M@HEIIGGJD@?$AAe?$AAs?$AA?9?$AAh?$AAn?$AA?$AA@ 10084b20     libucrt:lcidtoname_downlevel.obj
 0002:0000eb30       ??_C@_1M@FBDHPPGD@?$AAe?$AAs?$AA?9?$AAm?$AAx?$AA?$AA@ 10084b30     libucrt:lcidtoname_downlevel.obj
 0002:0000eb40       ??_C@_1M@DPAGLNDH@?$AAe?$AAs?$AA?9?$AAn?$AAi?$AA?$AA@ 10084b40     libucrt:lcidtoname_downlevel.obj
 0002:0000eb50       ??_C@_1M@MDGOPGDD@?$AAe?$AAs?$AA?9?$AAp?$AAa?$AA?$AA@ 10084b50     libucrt:lcidtoname_downlevel.obj
 0002:0000eb60       ??_C@_1M@EMAMGBGE@?$AAe?$AAs?$AA?9?$AAp?$AAe?$AA?$AA@ 10084b60     libucrt:lcidtoname_downlevel.obj
 0002:0000eb70       ??_C@_1M@IBMCAOEC@?$AAe?$AAs?$AA?9?$AAp?$AAr?$AA?$AA@ 10084b70     libucrt:lcidtoname_downlevel.obj
 0002:0000eb80       ??_C@_1M@FGMDIJED@?$AAe?$AAs?$AA?9?$AAp?$AAy?$AA?$AA@ 10084b80     libucrt:lcidtoname_downlevel.obj
 0002:0000eb90       ??_C@_1M@IIDEOLLL@?$AAe?$AAs?$AA?9?$AAs?$AAv?$AA?$AA@ 10084b90     libucrt:lcidtoname_downlevel.obj
 0002:0000eba0       ??_C@_1M@GAOBIPA@?$AAe?$AAs?$AA?9?$AAu?$AAy?$AA?$AA@ 10084ba0     libucrt:lcidtoname_downlevel.obj
 0002:0000ebb0       ??_C@_1M@JKFFICHJ@?$AAe?$AAs?$AA?9?$AAv?$AAe?$AA?$AA@ 10084bb0     libucrt:lcidtoname_downlevel.obj
 0002:0000ebc0       ??_C@_1M@PNMLOJDF@?$AAe?$AAt?$AA?9?$AAe?$AAe?$AA?$AA@ 10084bc0     libucrt:lcidtoname_downlevel.obj
 0002:0000ebd0       ??_C@_1M@GHHLIKEI@?$AAe?$AAu?$AA?9?$AAe?$AAs?$AA?$AA@ 10084bd0     libucrt:lcidtoname_downlevel.obj
 0002:0000ebe0       ??_C@_1M@PBNONODE@?$AAf?$AAa?$AA?9?$AAi?$AAr?$AA?$AA@ 10084be0     libucrt:lcidtoname_downlevel.obj
 0002:0000ebf0       ??_C@_1M@JEEHPMIL@?$AAf?$AAi?$AA?9?$AAf?$AAi?$AA?$AA@ 10084bf0     libucrt:lcidtoname_downlevel.obj
 0002:0000ec00       ??_C@_1M@LMDCNDBA@?$AAf?$AAo?$AA?9?$AAf?$AAo?$AA?$AA@ 10084c00     libucrt:lcidtoname_downlevel.obj
 0002:0000ec10       ??_C@_1M@JKEOHLDK@?$AAf?$AAr?$AA?9?$AAb?$AAe?$AA?$AA@ 10084c10     libucrt:lcidtoname_downlevel.obj
 0002:0000ec20       ??_C@_1M@NOHADPMI@?$AAf?$AAr?$AA?9?$AAc?$AAa?$AA?$AA@ 10084c20     libucrt:lcidtoname_downlevel.obj
 0002:0000ec30       ??_C@_1M@KDHIHAEC@?$AAf?$AAr?$AA?9?$AAc?$AAh?$AA?$AA@ 10084c30     libucrt:lcidtoname_downlevel.obj
 0002:0000ec40       ??_C@_1M@MMBBFGAK@?$AAf?$AAr?$AA?9?$AAf?$AAr?$AA?$AA@ 10084c40     libucrt:lcidtoname_downlevel.obj
 0002:0000ec50       ??_C@_1M@PAFNENNF@?$AAf?$AAr?$AA?9?$AAl?$AAu?$AA?$AA@ 10084c50     libucrt:lcidtoname_downlevel.obj
 0002:0000ec60       ??_C@_1M@EOHDJGDD@?$AAf?$AAr?$AA?9?$AAm?$AAc?$AA?$AA@ 10084c60     libucrt:lcidtoname_downlevel.obj
 0002:0000ec70       ??_C@_1M@FAPLLOPF@?$AAg?$AAl?$AA?9?$AAe?$AAs?$AA?$AA@ 10084c70     libucrt:lcidtoname_downlevel.obj
 0002:0000ec80       ??_C@_1M@FOPBFLOO@?$AAg?$AAu?$AA?9?$AAi?$AAn?$AA?$AA@ 10084c80     libucrt:lcidtoname_downlevel.obj
 0002:0000ec90       ??_C@_1M@KBMCINPM@?$AAh?$AAe?$AA?9?$AAi?$AAl?$AA?$AA@ 10084c90     libucrt:lcidtoname_downlevel.obj
 0002:0000eca0       ??_C@_1M@BBPHKFPJ@?$AAh?$AAi?$AA?9?$AAi?$AAn?$AA?$AA@ 10084ca0     libucrt:lcidtoname_downlevel.obj
 0002:0000ecb0       ??_C@_1M@PMBNDPHD@?$AAh?$AAr?$AA?9?$AAb?$AAa?$AA?$AA@ 10084cb0     libucrt:lcidtoname_downlevel.obj
 0002:0000ecc0       ??_C@_1M@BPCKOEGE@?$AAh?$AAr?$AA?9?$AAh?$AAr?$AA?$AA@ 10084cc0     libucrt:lcidtoname_downlevel.obj
 0002:0000ecd0       ??_C@_1M@GACBMHKE@?$AAh?$AAu?$AA?9?$AAh?$AAu?$AA?$AA@ 10084cd0     libucrt:lcidtoname_downlevel.obj
 0002:0000ece0       ??_C@_1M@MILPAJJC@?$AAh?$AAy?$AA?9?$AAa?$AAm?$AA?$AA@ 10084ce0     libucrt:lcidtoname_downlevel.obj
 0002:0000ecf0       ??_C@_1M@BABBICEC@?$AAi?$AAd?$AA?9?$AAi?$AAd?$AA?$AA@ 10084cf0     libucrt:lcidtoname_downlevel.obj
 0002:0000ed00       ??_C@_1M@BIKNHHPF@?$AAi?$AAs?$AA?9?$AAi?$AAs?$AA?$AA@ 10084d00     libucrt:lcidtoname_downlevel.obj
 0002:0000ed10       ??_C@_1M@NMPCJPHE@?$AAi?$AAt?$AA?9?$AAc?$AAh?$AA?$AA@ 10084d10     libucrt:lcidtoname_downlevel.obj
 0002:0000ed20       ??_C@_1M@GHKGFEDF@?$AAi?$AAt?$AA?9?$AAi?$AAt?$AA?$AA@ 10084d20     libucrt:lcidtoname_downlevel.obj
 0002:0000ed30       ??_C@_1M@NIEJCJJA@?$AAj?$AAa?$AA?9?$AAj?$AAp?$AA?$AA@ 10084d30     libucrt:lcidtoname_downlevel.obj
 0002:0000ed40       ??_C@_1M@JILFNBIM@?$AAk?$AAa?$AA?9?$AAg?$AAe?$AA?$AA@ 10084d40     libucrt:lcidtoname_downlevel.obj
 0002:0000ed50       ??_C@_1M@PACPMGPH@?$AAk?$AAk?$AA?9?$AAk?$AAz?$AA?$AA@ 10084d50     libucrt:lcidtoname_downlevel.obj
 0002:0000ed60       ??_C@_1M@IELFGMHA@?$AAk?$AAn?$AA?9?$AAi?$AAn?$AA?$AA@ 10084d60     libucrt:lcidtoname_downlevel.obj
 0002:0000ed70       ??_C@_1O@IBBJHCH@?$AAk?$AAo?$AAk?$AA?9?$AAi?$AAn?$AA?$AA@ 10084d70     libucrt:lcidtoname_downlevel.obj
 0002:0000ed80       ??_C@_1M@DMHAEOGC@?$AAk?$AAo?$AA?9?$AAk?$AAr?$AA?$AA@ 10084d80     libucrt:lcidtoname_downlevel.obj
 0002:0000ed90       ??_C@_1M@HBAHBIGA@?$AAk?$AAy?$AA?9?$AAk?$AAg?$AA?$AA@ 10084d90     libucrt:lcidtoname_downlevel.obj
 0002:0000eda0       ??_C@_1M@KPMILCJG@?$AAl?$AAt?$AA?9?$AAl?$AAt?$AA?$AA@ 10084da0     libucrt:lcidtoname_downlevel.obj
 0002:0000edb0       ??_C@_1M@BDEKKCA@?$AAl?$AAv?$AA?9?$AAl?$AAv?$AA?$AA@ 10084db0     libucrt:lcidtoname_downlevel.obj
 0002:0000edc0       ??_C@_1M@ELCKCCJJ@?$AAm?$AAi?$AA?9?$AAn?$AAz?$AA?$AA@ 10084dc0     libucrt:lcidtoname_downlevel.obj
 0002:0000edd0       ??_C@_1M@CBOOLAPA@?$AAm?$AAk?$AA?9?$AAm?$AAk?$AA?$AA@ 10084dd0     libucrt:lcidtoname_downlevel.obj
 0002:0000ede0       ??_C@_1M@GPHNBJKN@?$AAm?$AAl?$AA?9?$AAi?$AAn?$AA?$AA@ 10084de0     libucrt:lcidtoname_downlevel.obj
 0002:0000edf0       ??_C@_1M@PABJILIG@?$AAm?$AAn?$AA?9?$AAm?$AAn?$AA?$AA@ 10084df0     libucrt:lcidtoname_downlevel.obj
 0002:0000ee00       ??_C@_1M@FGBKKIPG@?$AAm?$AAr?$AA?9?$AAi?$AAn?$AA?$AA@ 10084e00     libucrt:lcidtoname_downlevel.obj
 0002:0000ee10       ??_C@_1M@NDBPDDAL@?$AAm?$AAs?$AA?9?$AAb?$AAn?$AA?$AA@ 10084e10     libucrt:lcidtoname_downlevel.obj
 0002:0000ee20       ??_C@_1M@OPIHOOPI@?$AAm?$AAs?$AA?9?$AAm?$AAy?$AA?$AA@ 10084e20     libucrt:lcidtoname_downlevel.obj
 0002:0000ee30       ??_C@_1M@PPDBCNFM@?$AAm?$AAt?$AA?9?$AAm?$AAt?$AA?$AA@ 10084e30     libucrt:lcidtoname_downlevel.obj
 0002:0000ee40       ??_C@_1M@KDJDKMDD@?$AAn?$AAb?$AA?9?$AAn?$AAo?$AA?$AA@ 10084e40     libucrt:lcidtoname_downlevel.obj
 0002:0000ee50       ??_C@_1M@KFCFLMJP@?$AAn?$AAl?$AA?9?$AAb?$AAe?$AA?$AA@ 10084e50     libucrt:lcidtoname_downlevel.obj
 0002:0000ee60       ??_C@_1M@KPOPDDGO@?$AAn?$AAl?$AA?9?$AAn?$AAl?$AA?$AA@ 10084e60     libucrt:lcidtoname_downlevel.obj
 0002:0000ee70       ??_C@_1M@LJKPEMLN@?$AAn?$AAn?$AA?9?$AAn?$AAo?$AA?$AA@ 10084e70     libucrt:lcidtoname_downlevel.obj
 0002:0000ee80       ??_C@_1M@BDGHHBFL@?$AAn?$AAs?$AA?9?$AAz?$AAa?$AA?$AA@ 10084e80     libucrt:lcidtoname_downlevel.obj
 0002:0000ee90       ??_C@_1M@IDEHOAP@?$AAp?$AAa?$AA?9?$AAi?$AAn?$AA?$AA@ 10084e90     libucrt:lcidtoname_downlevel.obj
 0002:0000eea0       ??_C@_1M@HDBKGOGH@?$AAp?$AAl?$AA?9?$AAp?$AAl?$AA?$AA@ 10084ea0     libucrt:lcidtoname_downlevel.obj
 0002:0000eeb0       ??_C@_1M@LJLLCMEH@?$AAp?$AAt?$AA?9?$AAb?$AAr?$AA?$AA@ 10084eb0     libucrt:lcidtoname_downlevel.obj
 0002:0000eec0       ??_C@_1M@NCMONAAL@?$AAp?$AAt?$AA?9?$AAp?$AAt?$AA?$AA@ 10084ec0     libucrt:lcidtoname_downlevel.obj
 0002:0000eed0       ??_C@_1O@EAKMAJDN@?$AAq?$AAu?$AAz?$AA?9?$AAb?$AAo?$AA?$AA@ 10084ed0     libucrt:lcidtoname_downlevel.obj
 0002:0000eee0       ??_C@_1O@BHHPIGDN@?$AAq?$AAu?$AAz?$AA?9?$AAe?$AAc?$AA?$AA@ 10084ee0     libucrt:lcidtoname_downlevel.obj
 0002:0000eef0       ??_C@_1O@GBAPEKMJ@?$AAq?$AAu?$AAz?$AA?9?$AAp?$AAe?$AA?$AA@ 10084ef0     libucrt:lcidtoname_downlevel.obj
 0002:0000ef00       ??_C@_1M@CLGLEFBO@?$AAr?$AAo?$AA?9?$AAr?$AAo?$AA?$AA@ 10084f00     libucrt:lcidtoname_downlevel.obj
 0002:0000ef10       ??_C@_1M@CEEDODME@?$AAr?$AAu?$AA?9?$AAr?$AAu?$AA?$AA@ 10084f10     libucrt:lcidtoname_downlevel.obj
 0002:0000ef20       ??_C@_1M@HPKKKMPP@?$AAs?$AAa?$AA?9?$AAi?$AAn?$AA?$AA@ 10084f20     libucrt:lcidtoname_downlevel.obj
 0002:0000ef30       ??_C@_1M@BKMAIGOJ@?$AAs?$AAe?$AA?9?$AAf?$AAi?$AA?$AA@ 10084f30     libucrt:lcidtoname_downlevel.obj
 0002:0000ef40       ??_C@_1M@NDPIFLFI@?$AAs?$AAe?$AA?9?$AAn?$AAo?$AA?$AA@ 10084f40     libucrt:lcidtoname_downlevel.obj
 0002:0000ef50       ??_C@_1M@DANKKHJ@?$AAs?$AAe?$AA?9?$AAs?$AAe?$AA?$AA@ 10084f50     libucrt:lcidtoname_downlevel.obj
 0002:0000ef60       ??_C@_1M@PNBLONPJ@?$AAs?$AAk?$AA?9?$AAs?$AAk?$AA?$AA@ 10084f60     libucrt:lcidtoname_downlevel.obj
 0002:0000ef70       ??_C@_1M@LFMODOAL@?$AAs?$AAl?$AA?9?$AAs?$AAi?$AA?$AA@ 10084f70     libucrt:lcidtoname_downlevel.obj
 0002:0000ef80       ??_C@_1O@DFKOMPG@?$AAs?$AAm?$AAa?$AA?9?$AAn?$AAo?$AA?$AA@ 10084f80     libucrt:lcidtoname_downlevel.obj
 0002:0000ef90       ??_C@_1O@NDKPBNNH@?$AAs?$AAm?$AAa?$AA?9?$AAs?$AAe?$AA?$AA@ 10084f90     libucrt:lcidtoname_downlevel.obj
 0002:0000efa0       ??_C@_1O@PLLKBHAB@?$AAs?$AAm?$AAj?$AA?9?$AAn?$AAo?$AA?$AA@ 10084fa0     libucrt:lcidtoname_downlevel.obj
 0002:0000efb0       ??_C@_1O@CLEPOGCA@?$AAs?$AAm?$AAj?$AA?9?$AAs?$AAe?$AA?$AA@ 10084fb0     libucrt:lcidtoname_downlevel.obj
 0002:0000efc0       ??_C@_1O@DLGJGKMK@?$AAs?$AAm?$AAn?$AA?9?$AAf?$AAi?$AA?$AA@ 10084fc0     libucrt:lcidtoname_downlevel.obj
 0002:0000efd0       ??_C@_1O@OJDJGAJC@?$AAs?$AAm?$AAs?$AA?9?$AAf?$AAi?$AA?$AA@ 10084fd0     libucrt:lcidtoname_downlevel.obj
 0002:0000efe0       ??_C@_1M@BOFOGHPB@?$AAs?$AAq?$AA?9?$AAa?$AAl?$AA?$AA@ 10084fe0     libucrt:lcidtoname_downlevel.obj
 0002:0000eff0       ??_C@_1BG@LJBBIPGB@?$AAs?$AAr?$AA?9?$AAb?$AAa?$AA?9?$AAc?$AAy?$AAr?$AAl?$AA?$AA@ 10084ff0     libucrt:lcidtoname_downlevel.obj
 0002:0000f00c       ??_C@_1BG@JLBENFOE@?$AAs?$AAr?$AA?9?$AAb?$AAa?$AA?9?$AAl?$AAa?$AAt?$AAn?$AA?$AA@ 1008500c     libucrt:lcidtoname_downlevel.obj
 0002:0000f028       ??_C@_1BG@KODPNHE@?$AAs?$AAr?$AA?9?$AAs?$AAp?$AA?9?$AAc?$AAy?$AAr?$AAl?$AA?$AA@ 10085028     libucrt:lcidtoname_downlevel.obj
 0002:0000f044       ??_C@_1BG@CIOGKHPB@?$AAs?$AAr?$AA?9?$AAs?$AAp?$AA?9?$AAl?$AAa?$AAt?$AAn?$AA?$AA@ 10085044     libucrt:lcidtoname_downlevel.obj
 0002:0000f060       ??_C@_1M@NGFJLMAC@?$AAs?$AAv?$AA?9?$AAf?$AAi?$AA?$AA@ 10085060     libucrt:lcidtoname_downlevel.obj
 0002:0000f070       ??_C@_1M@MPJEJAJC@?$AAs?$AAv?$AA?9?$AAs?$AAe?$AA?$AA@ 10085070     libucrt:lcidtoname_downlevel.obj
 0002:0000f080       ??_C@_1M@MPNDHLFK@?$AAs?$AAw?$AA?9?$AAk?$AAe?$AA?$AA@ 10085080     libucrt:lcidtoname_downlevel.obj
 0002:0000f090       ??_C@_1O@KOHBJJI@?$AAs?$AAy?$AAr?$AA?9?$AAs?$AAy?$AA?$AA@ 10085090     libucrt:lcidtoname_downlevel.obj
 0002:0000f0a0       ??_C@_1M@LDCEFHA@?$AAt?$AAa?$AA?9?$AAi?$AAn?$AA?$AA@ 100850a0     libucrt:lcidtoname_downlevel.obj
 0002:0000f0b0       ??_C@_1M@CNJOFAK@?$AAt?$AAe?$AA?9?$AAi?$AAn?$AA?$AA@ 100850b0     libucrt:lcidtoname_downlevel.obj
 0002:0000f0c0       ??_C@_1M@GNAECACD@?$AAt?$AAh?$AA?9?$AAt?$AAh?$AA?$AA@ 100850c0     libucrt:lcidtoname_downlevel.obj
 0002:0000f0d0       ??_C@_1M@CHBIHOJO@?$AAt?$AAn?$AA?9?$AAz?$AAa?$AA?$AA@ 100850d0     libucrt:lcidtoname_downlevel.obj
 0002:0000f0e0       ??_C@_1M@GCCMIGPJ@?$AAt?$AAr?$AA?9?$AAt?$AAr?$AA?$AA@ 100850e0     libucrt:lcidtoname_downlevel.obj
 0002:0000f0f0       ??_C@_1M@CELMCNBK@?$AAt?$AAt?$AA?9?$AAr?$AAu?$AA?$AA@ 100850f0     libucrt:lcidtoname_downlevel.obj
 0002:0000f100       ??_C@_1M@KLMCELGA@?$AAu?$AAk?$AA?9?$AAu?$AAa?$AA?$AA@ 10085100     libucrt:lcidtoname_downlevel.obj
 0002:0000f110       ??_C@_1M@EPAJJAJF@?$AAu?$AAr?$AA?9?$AAp?$AAk?$AA?$AA@ 10085110     libucrt:lcidtoname_downlevel.obj
 0002:0000f120       ??_C@_1BG@GEGPMCDJ@?$AAu?$AAz?$AA?9?$AAu?$AAz?$AA?9?$AAc?$AAy?$AAr?$AAl?$AA?$AA@ 10085120     libucrt:lcidtoname_downlevel.obj
 0002:0000f13c       ??_C@_1BG@EGGKJILM@?$AAu?$AAz?$AA?9?$AAu?$AAz?$AA?9?$AAl?$AAa?$AAt?$AAn?$AA?$AA@ 1008513c     libucrt:lcidtoname_downlevel.obj
 0002:0000f158       ??_C@_1M@GFOCLFF@?$AAv?$AAi?$AA?9?$AAv?$AAn?$AA?$AA@ 10085158     libucrt:lcidtoname_downlevel.obj
 0002:0000f168       ??_C@_1M@CPAMEDFI@?$AAx?$AAh?$AA?9?$AAz?$AAa?$AA?$AA@ 10085168     libucrt:lcidtoname_downlevel.obj
 0002:0000f178       ??_C@_1O@EBKIFIGN@?$AAz?$AAh?$AA?9?$AAc?$AAh?$AAs?$AA?$AA@ 10085178     libucrt:lcidtoname_downlevel.obj
 0002:0000f188       ??_C@_1O@NMHPGANE@?$AAz?$AAh?$AA?9?$AAc?$AAh?$AAt?$AA?$AA@ 10085188     libucrt:lcidtoname_downlevel.obj
 0002:0000f198       ??_C@_1M@LPINJOMC@?$AAz?$AAh?$AA?9?$AAc?$AAn?$AA?$AA@ 10085198     libucrt:lcidtoname_downlevel.obj
 0002:0000f1a8       ??_C@_1M@OCJEJODD@?$AAz?$AAh?$AA?9?$AAh?$AAk?$AA?$AA@ 100851a8     libucrt:lcidtoname_downlevel.obj
 0002:0000f1b8       ??_C@_1M@DNDLJINH@?$AAz?$AAh?$AA?9?$AAm?$AAo?$AA?$AA@ 100851b8     libucrt:lcidtoname_downlevel.obj
 0002:0000f1c8       ??_C@_1M@MBFDNDND@?$AAz?$AAh?$AA?9?$AAs?$AAg?$AA?$AA@ 100851c8     libucrt:lcidtoname_downlevel.obj
 0002:0000f1d8       ??_C@_1M@IMEPLEPE@?$AAz?$AAh?$AA?9?$AAt?$AAw?$AA?$AA@ 100851d8     libucrt:lcidtoname_downlevel.obj
 0002:0000f1e8       ??_C@_1M@BBGHNHJP@?$AAz?$AAu?$AA?9?$AAz?$AAa?$AA?$AA@ 100851e8     libucrt:lcidtoname_downlevel.obj
 0002:0000f1f8       ?large_power_data@?1??multiply_by_power_of_ten@__crt_strtox@@YA_NAAUbig_integer@2@I@Z@4QBIB 100851f8     libucrt:cfout.obj
 0002:0000fcd0       ?large_power_indices@?1??multiply_by_power_of_ten@__crt_strtox@@YA_NAAUbig_integer@2@I@Z@4QBUunpack_index@?1??12@YA_N0I@Z@B 10085cd0     libucrt:cfout.obj
 0002:0000fd88       ?small_powers_of_ten@?6??multiply_by_power_of_ten@__crt_strtox@@YA_NAAUbig_integer@2@I@Z@4QBIB 10085d88     libucrt:cfout.obj
 0002:0000fdb4       ??_C@_01GBGANLPD@0?$AA@    10085db4     libucrt:cfout.obj
 0002:0000fdb8       ??_C@_05DNEBIAHO@1?$CDINF?$AA@ 10085db8     libucrt:cfout.obj
 0002:0000fdc0       ??_C@_06IMKFLFPG@1?$CDQNAN?$AA@ 10085dc0     libucrt:cfout.obj
 0002:0000fdc8       ??_C@_06PGGFOGJG@1?$CDSNAN?$AA@ 10085dc8     libucrt:cfout.obj
 0002:0000fdd0       ??_C@_05PHHOCPM@1?$CDIND?$AA@ 10085dd0     libucrt:cfout.obj
 0002:0000fdd8       ??_C@_1BC@LLOKLNP@?$AAa?$AAm?$AAe?$AAr?$AAi?$AAc?$AAa?$AAn?$AA?$AA@ 10085dd8     libucrt:get_qualified_locale.obj
 0002:0000fdf0       ??_C@_1CC@HEIGCDGG@?$AAa?$AAm?$AAe?$AAr?$AAi?$AAc?$AAa?$AAn?$AA?5?$AAe?$AAn?$AAg?$AAl?$AAi?$AAs?$AAh?$AA?$AA@ 10085df0     libucrt:get_qualified_locale.obj
 0002:0000fe18       ??_C@_1CC@IHCNOMIN@?$AAa?$AAm?$AAe?$AAr?$AAi?$AAc?$AAa?$AAn?$AA?9?$AAe?$AAn?$AAg?$AAl?$AAi?$AAs?$AAh?$AA?$AA@ 10085e18     libucrt:get_qualified_locale.obj
 0002:0000fe40       ??_C@_1BG@GKAGPCGG@?$AAa?$AAu?$AAs?$AAt?$AAr?$AAa?$AAl?$AAi?$AAa?$AAn?$AA?$AA@ 10085e40     libucrt:get_qualified_locale.obj
 0002:0000fe5c       ??_C@_1BA@GMENCENF@?$AAb?$AAe?$AAl?$AAg?$AAi?$AAa?$AAn?$AA?$AA@ 10085e5c     libucrt:get_qualified_locale.obj
 0002:0000fe70       ??_C@_1BC@PJMIIAAN@?$AAc?$AAa?$AAn?$AAa?$AAd?$AAi?$AAa?$AAn?$AA?$AA@ 10085e70     libucrt:get_qualified_locale.obj
 0002:0000fe88       ??_C@_17NOIMNFBF@?$AAc?$AAh?$AAh?$AA?$AA@ 10085e88     libucrt:get_qualified_locale.obj
 0002:0000fe94       ??_C@_17GGDALCHA@?$AAc?$AAh?$AAi?$AA?$AA@ 10085e94     libucrt:get_qualified_locale.obj
 0002:0000fea0       ??_C@_1BA@NPNJKIBL@?$AAc?$AAh?$AAi?$AAn?$AAe?$AAs?$AAe?$AA?$AA@ 10085ea0     libucrt:get_qualified_locale.obj
 0002:0000feb4       ??_C@_1CC@DINBAMMJ@?$AAc?$AAh?$AAi?$AAn?$AAe?$AAs?$AAe?$AA?9?$AAh?$AAo?$AAn?$AAg?$AAk?$AAo?$AAn?$AAg?$AA?$AA@ 10085eb4     libucrt:get_qualified_locale.obj
 0002:0000fedc       ??_C@_1CG@IOBJPACO@?$AAc?$AAh?$AAi?$AAn?$AAe?$AAs?$AAe?$AA?9?$AAs?$AAi?$AAm?$AAp?$AAl?$AAi?$AAf?$AAi?$AAe?$AAd?$AA?$AA@ 10085edc     libucrt:get_qualified_locale.obj
 0002:0000ff0c       ??_C@_1CE@GAJNDCKG@?$AAc?$AAh?$AAi?$AAn?$AAe?$AAs?$AAe?$AA?9?$AAs?$AAi?$AAn?$AAg?$AAa?$AAp?$AAo?$AAr?$AAe?$AA?$AA@ 10085f0c     libucrt:get_qualified_locale.obj
 0002:0000ff38       ??_C@_1CI@PAJPIOOD@?$AAc?$AAh?$AAi?$AAn?$AAe?$AAs?$AAe?$AA?9?$AAt?$AAr?$AAa?$AAd?$AAi?$AAt?$AAi?$AAo?$AAn?$AAa?$AAl?$AA?$AA@ 10085f38     libucrt:get_qualified_locale.obj
 0002:0000ff68       ??_C@_1BM@NILJBMMD@?$AAd?$AAu?$AAt?$AAc?$AAh?$AA?9?$AAb?$AAe?$AAl?$AAg?$AAi?$AAa?$AAn?$AA?$AA@ 10085f68     libucrt:get_qualified_locale.obj
 0002:0000ff8c       ??_C@_1CC@OOJPJNEJ@?$AAe?$AAn?$AAg?$AAl?$AAi?$AAs?$AAh?$AA?9?$AAa?$AAm?$AAe?$AAr?$AAi?$AAc?$AAa?$AAn?$AA?$AA@ 10085f8c     libucrt:get_qualified_locale.obj
 0002:0000ffb4       ??_C@_1BI@IOLFEEM@?$AAe?$AAn?$AAg?$AAl?$AAi?$AAs?$AAh?$AA?9?$AAa?$AAu?$AAs?$AA?$AA@ 10085fb4     libucrt:get_qualified_locale.obj
 0002:0000ffd0       ??_C@_1BO@HFFNLENJ@?$AAe?$AAn?$AAg?$AAl?$AAi?$AAs?$AAh?$AA?9?$AAb?$AAe?$AAl?$AAi?$AAz?$AAe?$AA?$AA@ 10085fd0     libucrt:get_qualified_locale.obj
 0002:0000fff4       ??_C@_1BI@HAPKJMPO@?$AAe?$AAn?$AAg?$AAl?$AAi?$AAs?$AAh?$AA?9?$AAc?$AAa?$AAn?$AA?$AA@ 10085ff4     libucrt:get_qualified_locale.obj
 0002:00010010       ??_C@_1CE@HLNDMIOJ@?$AAe?$AAn?$AAg?$AAl?$AAi?$AAs?$AAh?$AA?9?$AAc?$AAa?$AAr?$AAi?$AAb?$AAb?$AAe?$AAa?$AAn?$AA?$AA@ 10086010     libucrt:get_qualified_locale.obj
 0002:0001003c       ??_C@_1BI@LDHJHHAC@?$AAe?$AAn?$AAg?$AAl?$AAi?$AAs?$AAh?$AA?9?$AAi?$AAr?$AAe?$AA?$AA@ 1008603c     libucrt:get_qualified_locale.obj
 0002:00010058       ??_C@_1CA@NJMMCFOC@?$AAe?$AAn?$AAg?$AAl?$AAi?$AAs?$AAh?$AA?9?$AAj?$AAa?$AAm?$AAa?$AAi?$AAc?$AAa?$AA?$AA@ 10086058     libucrt:get_qualified_locale.obj
 0002:00010080       ??_C@_1BG@BHJEBBGG@?$AAe?$AAn?$AAg?$AAl?$AAi?$AAs?$AAh?$AA?9?$AAn?$AAz?$AA?$AA@ 10086080     libucrt:get_qualified_locale.obj
 0002:0001009c       ??_C@_1CK@FGOEJJCO@?$AAe?$AAn?$AAg?$AAl?$AAi?$AAs?$AAh?$AA?9?$AAs?$AAo?$AAu?$AAt?$AAh?$AA?5?$AAa?$AAf?$AAr?$AAi?$AAc?$AAa?$AA?$AA@ 1008609c     libucrt:get_qualified_locale.obj
 0002:000100d0       ??_C@_1DE@PDBJPCJ@?$AAe?$AAn?$AAg?$AAl?$AAi?$AAs?$AAh?$AA?9?$AAt?$AAr?$AAi?$AAn?$AAi?$AAd?$AAa?$AAd?$AA?5?$AAy?$AA?5?$AAt?$AAo?$AAb?$AAa?$AAg?$AAo?$AA?$AA@ 100860d0     libucrt:get_qualified_locale.obj
 0002:00010110       ??_C@_1BG@JGCANDME@?$AAe?$AAn?$AAg?$AAl?$AAi?$AAs?$AAh?$AA?9?$AAu?$AAk?$AA?$AA@ 10086110     libucrt:get_qualified_locale.obj
 0002:0001012c       ??_C@_1BG@DINKMLE@?$AAe?$AAn?$AAg?$AAl?$AAi?$AAs?$AAh?$AA?9?$AAu?$AAs?$AA?$AA@ 1008612c     libucrt:get_qualified_locale.obj
 0002:00010148       ??_C@_1BI@NMFDBHJE@?$AAe?$AAn?$AAg?$AAl?$AAi?$AAs?$AAh?$AA?9?$AAu?$AAs?$AAa?$AA?$AA@ 10086148     libucrt:get_qualified_locale.obj
 0002:00010164       ??_C@_1BO@OIHKJKII@?$AAf?$AAr?$AAe?$AAn?$AAc?$AAh?$AA?9?$AAb?$AAe?$AAl?$AAg?$AAi?$AAa?$AAn?$AA?$AA@ 10086164     libucrt:get_qualified_locale.obj
 0002:00010188       ??_C@_1CA@NKAELJKI@?$AAf?$AAr?$AAe?$AAn?$AAc?$AAh?$AA?9?$AAc?$AAa?$AAn?$AAa?$AAd?$AAi?$AAa?$AAn?$AA?$AA@ 10086188     libucrt:get_qualified_locale.obj
 0002:000101b0       ??_C@_1CE@MGKCNLGN@?$AAf?$AAr?$AAe?$AAn?$AAc?$AAh?$AA?9?$AAl?$AAu?$AAx?$AAe?$AAm?$AAb?$AAo?$AAu?$AAr?$AAg?$AA?$AA@ 100861b0     libucrt:get_qualified_locale.obj
 0002:000101dc       ??_C@_1BK@CEGEAILM@?$AAf?$AAr?$AAe?$AAn?$AAc?$AAh?$AA?9?$AAs?$AAw?$AAi?$AAs?$AAs?$AA?$AA@ 100861dc     libucrt:get_qualified_locale.obj
 0002:000101fc       ??_C@_1CA@PAFKEOCC@?$AAg?$AAe?$AAr?$AAm?$AAa?$AAn?$AA?9?$AAa?$AAu?$AAs?$AAt?$AAr?$AAi?$AAa?$AAn?$AA?$AA@ 100861fc     libucrt:get_qualified_locale.obj
 0002:00010224       ??_C@_1CI@HCFHGOFD@?$AAg?$AAe?$AAr?$AAm?$AAa?$AAn?$AA?9?$AAl?$AAi?$AAc?$AAh?$AAt?$AAe?$AAn?$AAs?$AAt?$AAe?$AAi?$AAn?$AA?$AA@ 10086224     libucrt:get_qualified_locale.obj
 0002:00010254       ??_C@_1CE@FEDDNPDG@?$AAg?$AAe?$AAr?$AAm?$AAa?$AAn?$AA?9?$AAl?$AAu?$AAx?$AAe?$AAm?$AAb?$AAo?$AAu?$AAr?$AAg?$AA?$AA@ 10086254     libucrt:get_qualified_locale.obj
 0002:00010280       ??_C@_1BK@LIMINNMN@?$AAg?$AAe?$AAr?$AAm?$AAa?$AAn?$AA?9?$AAs?$AAw?$AAi?$AAs?$AAs?$AA?$AA@ 10086280     libucrt:get_qualified_locale.obj
 0002:000102a0       ??_C@_1BM@LGMDBEPD@?$AAi?$AAr?$AAi?$AAs?$AAh?$AA?9?$AAe?$AAn?$AAg?$AAl?$AAi?$AAs?$AAh?$AA?$AA@ 100862a0     libucrt:get_qualified_locale.obj
 0002:000102c4       ??_C@_1BM@NNCFBAEE@?$AAi?$AAt?$AAa?$AAl?$AAi?$AAa?$AAn?$AA?9?$AAs?$AAw?$AAi?$AAs?$AAs?$AA?$AA@ 100862c4     libucrt:get_qualified_locale.obj
 0002:000102e8       ??_C@_1BE@FEDJNPIB@?$AAn?$AAo?$AAr?$AAw?$AAe?$AAg?$AAi?$AAa?$AAn?$AA?$AA@ 100862e8     libucrt:get_qualified_locale.obj
 0002:00010300       ??_C@_1CC@CILKDEIE@?$AAn?$AAo?$AAr?$AAw?$AAe?$AAg?$AAi?$AAa?$AAn?$AA?9?$AAb?$AAo?$AAk?$AAm?$AAa?$AAl?$AA?$AA@ 10086300     libucrt:get_qualified_locale.obj
 0002:00010328       ??_C@_1CE@DHMMHEPL@?$AAn?$AAo?$AAr?$AAw?$AAe?$AAg?$AAi?$AAa?$AAn?$AA?9?$AAn?$AAy?$AAn?$AAo?$AAr?$AAs?$AAk?$AA?$AA@ 10086328     libucrt:get_qualified_locale.obj
 0002:00010354       ??_C@_1CK@OPNMHECD@?$AAp?$AAo?$AAr?$AAt?$AAu?$AAg?$AAu?$AAe?$AAs?$AAe?$AA?9?$AAb?$AAr?$AAa?$AAz?$AAi?$AAl?$AAi?$AAa?$AAn?$AA?$AA@ 10086354     libucrt:get_qualified_locale.obj
 0002:00010388       ??_C@_1CE@KEEHCDB@?$AAs?$AAp?$AAa?$AAn?$AAi?$AAs?$AAh?$AA?9?$AAa?$AAr?$AAg?$AAe?$AAn?$AAt?$AAi?$AAn?$AAa?$AA?$AA@ 10086388     libucrt:get_qualified_locale.obj
 0002:000103b4       ??_C@_1CA@GIAOLHJD@?$AAs?$AAp?$AAa?$AAn?$AAi?$AAs?$AAh?$AA?9?$AAb?$AAo?$AAl?$AAi?$AAv?$AAi?$AAa?$AA?$AA@ 100863b4     libucrt:get_qualified_locale.obj
 0002:000103dc       ??_C@_1BM@OJNDFNPD@?$AAs?$AAp?$AAa?$AAn?$AAi?$AAs?$AAh?$AA?9?$AAc?$AAh?$AAi?$AAl?$AAe?$AA?$AA@ 100863dc     libucrt:get_qualified_locale.obj
 0002:00010400       ??_C@_1CC@OCOLPALL@?$AAs?$AAp?$AAa?$AAn?$AAi?$AAs?$AAh?$AA?9?$AAc?$AAo?$AAl?$AAo?$AAm?$AAb?$AAi?$AAa?$AA?$AA@ 10086400     libucrt:get_qualified_locale.obj
 0002:00010428       ??_C@_1CG@BPOFMKBB@?$AAs?$AAp?$AAa?$AAn?$AAi?$AAs?$AAh?$AA?9?$AAc?$AAo?$AAs?$AAt?$AAa?$AA?5?$AAr?$AAi?$AAc?$AAa?$AA?$AA@ 10086428     libucrt:get_qualified_locale.obj
 0002:00010458       ??_C@_1DG@IGOBAPBB@?$AAs?$AAp?$AAa?$AAn?$AAi?$AAs?$AAh?$AA?9?$AAd?$AAo?$AAm?$AAi?$AAn?$AAi?$AAc?$AAa?$AAn?$AA?5?$AAr?$AAe?$AAp?$AAu?$AAb?$AAl?$AAi?$AAc?$AA?$AA@ 10086458     libucrt:get_qualified_locale.obj
 0002:00010498       ??_C@_1CA@JHAPGEGI@?$AAs?$AAp?$AAa?$AAn?$AAi?$AAs?$AAh?$AA?9?$AAe?$AAc?$AAu?$AAa?$AAd?$AAo?$AAr?$AA?$AA@ 10086498     libucrt:get_qualified_locale.obj
 0002:000104c0       ??_C@_1CI@LAPALJPP@?$AAs?$AAp?$AAa?$AAn?$AAi?$AAs?$AAh?$AA?9?$AAe?$AAl?$AA?5?$AAs?$AAa?$AAl?$AAv?$AAa?$AAd?$AAo?$AAr?$AA?$AA@ 100864c0     libucrt:get_qualified_locale.obj
 0002:000104f0       ??_C@_1CE@PDGBOFOM@?$AAs?$AAp?$AAa?$AAn?$AAi?$AAs?$AAh?$AA?9?$AAg?$AAu?$AAa?$AAt?$AAe?$AAm?$AAa?$AAl?$AAa?$AA?$AA@ 100864f0     libucrt:get_qualified_locale.obj
 0002:0001051c       ??_C@_1CC@NBEBAODI@?$AAs?$AAp?$AAa?$AAn?$AAi?$AAs?$AAh?$AA?9?$AAh?$AAo?$AAn?$AAd?$AAu?$AAr?$AAa?$AAs?$AA?$AA@ 1008651c     libucrt:get_qualified_locale.obj
 0002:00010544       ??_C@_1CA@LLKGHBMF@?$AAs?$AAp?$AAa?$AAn?$AAi?$AAs?$AAh?$AA?9?$AAm?$AAe?$AAx?$AAi?$AAc?$AAa?$AAn?$AA?$AA@ 10086544     libucrt:get_qualified_locale.obj
 0002:0001056c       ??_C@_1BO@LKNDOIGD@?$AAs?$AAp?$AAa?$AAn?$AAi?$AAs?$AAh?$AA?9?$AAm?$AAo?$AAd?$AAe?$AAr?$AAn?$AA?$AA@ 1008656c     libucrt:get_qualified_locale.obj
 0002:00010590       ??_C@_1CE@NMDMOEEB@?$AAs?$AAp?$AAa?$AAn?$AAi?$AAs?$AAh?$AA?9?$AAn?$AAi?$AAc?$AAa?$AAr?$AAa?$AAg?$AAu?$AAa?$AA?$AA@ 10086590     libucrt:get_qualified_locale.obj
 0002:000105bc       ??_C@_1BO@LLCBEJGB@?$AAs?$AAp?$AAa?$AAn?$AAi?$AAs?$AAh?$AA?9?$AAp?$AAa?$AAn?$AAa?$AAm?$AAa?$AA?$AA@ 100865bc     libucrt:get_qualified_locale.obj
 0002:000105e0       ??_C@_1CC@FKPGGIHO@?$AAs?$AAp?$AAa?$AAn?$AAi?$AAs?$AAh?$AA?9?$AAp?$AAa?$AAr?$AAa?$AAg?$AAu?$AAa?$AAy?$AA?$AA@ 100865e0     libucrt:get_qualified_locale.obj
 0002:00010608       ??_C@_1BK@CDEIHOOP@?$AAs?$AAp?$AAa?$AAn?$AAi?$AAs?$AAh?$AA?9?$AAp?$AAe?$AAr?$AAu?$AA?$AA@ 10086608     libucrt:get_qualified_locale.obj
 0002:00010628       ??_C@_1CI@GAHAKKGP@?$AAs?$AAp?$AAa?$AAn?$AAi?$AAs?$AAh?$AA?9?$AAp?$AAu?$AAe?$AAr?$AAt?$AAo?$AA?5?$AAr?$AAi?$AAc?$AAo?$AA?$AA@ 10086628     libucrt:get_qualified_locale.obj
 0002:00010658       ??_C@_1CA@NKJBCAGP@?$AAs?$AAp?$AAa?$AAn?$AAi?$AAs?$AAh?$AA?9?$AAu?$AAr?$AAu?$AAg?$AAu?$AAa?$AAy?$AA?$AA@ 10086658     libucrt:get_qualified_locale.obj
 0002:00010680       ??_C@_1CE@ODILCONM@?$AAs?$AAp?$AAa?$AAn?$AAi?$AAs?$AAh?$AA?9?$AAv?$AAe?$AAn?$AAe?$AAz?$AAu?$AAe?$AAl?$AAa?$AA?$AA@ 10086680     libucrt:get_qualified_locale.obj
 0002:000106ac       ??_C@_1CA@OBNMCGFO@?$AAs?$AAw?$AAe?$AAd?$AAi?$AAs?$AAh?$AA?9?$AAf?$AAi?$AAn?$AAl?$AAa?$AAn?$AAd?$AA?$AA@ 100866ac     libucrt:get_qualified_locale.obj
 0002:000106d4       ??_C@_1M@PIPDDPPI@?$AAs?$AAw?$AAi?$AAs?$AAs?$AA?$AA@ 100866d4     libucrt:get_qualified_locale.obj
 0002:000106e4       ??_C@_15GMFIMNFM@?$AAu?$AAs?$AA?$AA@ 100866e4     libucrt:get_qualified_locale.obj
 0002:000106ec       ??_C@_17HAEBFAGL@?$AAu?$AAs?$AAa?$AA?$AA@ 100866ec     libucrt:get_qualified_locale.obj
 0002:000106f8       ??_C@_1BA@DPFJEPHB@?$AAa?$AAm?$AAe?$AAr?$AAi?$AAc?$AAa?$AA?$AA@ 100866f8     libucrt:get_qualified_locale.obj
 0002:0001070c       ??_C@_1BA@ELOGGFK@?$AAb?$AAr?$AAi?$AAt?$AAa?$AAi?$AAn?$AA?$AA@ 1008670c     libucrt:get_qualified_locale.obj
 0002:00010720       ??_C@_1M@GHBGIGDA@?$AAc?$AAh?$AAi?$AAn?$AAa?$AA?$AA@ 10086720     libucrt:get_qualified_locale.obj
 0002:00010730       ??_C@_1M@NCHEJOPO@?$AAc?$AAz?$AAe?$AAc?$AAh?$AA?$AA@ 10086730     libucrt:get_qualified_locale.obj
 0002:00010740       ??_C@_1BA@BKPAPBLA@?$AAe?$AAn?$AAg?$AAl?$AAa?$AAn?$AAd?$AA?$AA@ 10086740     libucrt:get_qualified_locale.obj
 0002:00010754       ??_C@_1BM@HKBCKIPC@?$AAg?$AAr?$AAe?$AAa?$AAt?$AA?5?$AAb?$AAr?$AAi?$AAt?$AAa?$AAi?$AAn?$AA?$AA@ 10086754     libucrt:get_qualified_locale.obj
 0002:00010778       ??_C@_1BA@PPCHPGJB@?$AAh?$AAo?$AAl?$AAl?$AAa?$AAn?$AAd?$AA?$AA@ 10086778     libucrt:get_qualified_locale.obj
 0002:0001078c       ??_C@_1BE@JBMPEGDG@?$AAh?$AAo?$AAn?$AAg?$AA?9?$AAk?$AAo?$AAn?$AAg?$AA?$AA@ 1008678c     libucrt:get_qualified_locale.obj
 0002:000107a4       ??_C@_1BI@KOELBBPJ@?$AAn?$AAe?$AAw?$AA?9?$AAz?$AAe?$AAa?$AAl?$AAa?$AAn?$AAd?$AA?$AA@ 100867a4     libucrt:get_qualified_locale.obj
 0002:000107c0       ??_C@_15HIEBHAIO@?$AAn?$AAz?$AA?$AA@ 100867c0     libucrt:get_qualified_locale.obj
 0002:000107c8       ??_C@_1BC@CHBCPFPI@?$AAp?$AAr?$AA?5?$AAc?$AAh?$AAi?$AAn?$AAa?$AA?$AA@ 100867c8     libucrt:get_qualified_locale.obj
 0002:000107e0       ??_C@_1BC@JAOIIFKD@?$AAp?$AAr?$AA?9?$AAc?$AAh?$AAi?$AAn?$AAa?$AA?$AA@ 100867e0     libucrt:get_qualified_locale.obj
 0002:000107f8       ??_C@_1BI@BEHPPHKC@?$AAp?$AAu?$AAe?$AAr?$AAt?$AAo?$AA?9?$AAr?$AAi?$AAc?$AAo?$AA?$AA@ 100867f8     libucrt:get_qualified_locale.obj
 0002:00010814       ??_C@_1O@PAEOFKDI@?$AAs?$AAl?$AAo?$AAv?$AAa?$AAk?$AA?$AA@ 10086814     libucrt:get_qualified_locale.obj
 0002:00010824       ??_C@_1BK@FIHMCKAM@?$AAs?$AAo?$AAu?$AAt?$AAh?$AA?5?$AAa?$AAf?$AAr?$AAi?$AAc?$AAa?$AA?$AA@ 10086824     libucrt:get_qualified_locale.obj
 0002:00010844       ??_C@_1BI@NAEOODKB@?$AAs?$AAo?$AAu?$AAt?$AAh?$AA?5?$AAk?$AAo?$AAr?$AAe?$AAa?$AA?$AA@ 10086844     libucrt:get_qualified_locale.obj
 0002:00010860       ??_C@_1BK@FBDGGIFF@?$AAs?$AAo?$AAu?$AAt?$AAh?$AA?9?$AAa?$AAf?$AAr?$AAi?$AAc?$AAa?$AA?$AA@ 10086860     libucrt:get_qualified_locale.obj
 0002:00010880       ??_C@_1BI@GHLEJDPK@?$AAs?$AAo?$AAu?$AAt?$AAh?$AA?9?$AAk?$AAo?$AAr?$AAe?$AAa?$AA?$AA@ 10086880     libucrt:get_qualified_locale.obj
 0002:0001089c       ??_C@_1CE@PLHLOMJF@?$AAt?$AAr?$AAi?$AAn?$AAi?$AAd?$AAa?$AAd?$AA?5?$AA?$CG?$AA?5?$AAt?$AAo?$AAb?$AAa?$AAg?$AAo?$AA?$AA@ 1008689c     libucrt:get_qualified_locale.obj
 0002:000108c8       ??_C@_1BO@MODIMHHI@?$AAu?$AAn?$AAi?$AAt?$AAe?$AAd?$AA?9?$AAk?$AAi?$AAn?$AAg?$AAd?$AAo?$AAm?$AA?$AA@ 100868c8     libucrt:get_qualified_locale.obj
 0002:000108ec       ??_C@_1BM@FFHJONBJ@?$AAu?$AAn?$AAi?$AAt?$AAe?$AAd?$AA?9?$AAs?$AAt?$AAa?$AAt?$AAe?$AAs?$AA?$AA@ 100868ec     libucrt:get_qualified_locale.obj
 0002:00010910       ___acrt_rg_language        10086910     libucrt:get_qualified_locale.obj
 0002:00010cb8       ___acrt_rg_language_count  10086cb8     libucrt:get_qualified_locale.obj
 0002:00010cc0       ___acrt_rg_country         10086cc0     libucrt:get_qualified_locale.obj
 0002:00010e0c       ___acrt_rg_country_count   10086e0c     libucrt:get_qualified_locale.obj
 0002:00010e10       ??_C@_17DNCLJFIF@?$AAA?$AAC?$AAP?$AA?$AA@ 10086e10     libucrt:get_qualified_locale.obj
 0002:00010e1c       ??_C@_17CIKBIHLH@?$AAO?$AAC?$AAP?$AA?$AA@ 10086e1c     libucrt:get_qualified_locale.obj
 0002:00010e28       ___rglangidNotDefault      10086e28     libucrt:getqloc_downlevel.obj
 0002:00010ea8       ??_C@_1BA@BALFACEM@?$AAC?$AAO?$AAN?$AAO?$AAU?$AAT?$AA$?$AA?$AA@ 10086ea8     libucrt:initcon.obj
 0002:00011000       __infinity                 10087000     libucrt:87tran.obj
 0002:0001100a       __minfinity                1008700a     libucrt:87tran.obj
 0002:00011014       __logemax                  10087014     libucrt:87tran.obj
 0002:0001103a       __OP_EXPjmptab             1008703a     libucrt:87tran.obj
 0002:00011070       __indefinite               10087070     libucrt:87disp.obj
 0002:0001107a       __piby2                    1008707a     libucrt:87disp.obj
 0002:00011084       __piby4                    10087084     libucrt:87disp.obj
 0002:000110c8       __DEFAULT_CW_in_mem        100870c8     libucrt:common.obj
 0002:000110ca       __pi_by_2_to_61            100870ca     libucrt:common.obj
 0002:00011220       ___acrt_log10_table_t      10087220     libucrt:log10_tables.obj
 0002:00011700       ___acrt_log10_table_cb     10087700     libucrt:log10_tables.obj
 0002:00011be4       ??_7type_info@@6B@         10087be4     LIBCMT:std_type_info_static.obj
 0002:00011c28       __load_config_used         10087c28     LIBCMT:loadcfg.obj
 0002:000122cc       ??_R4DNameNode@@6B@        100882cc     libvcruntime:undname.obj
 0002:000122e4       ??_R3DNameNode@@8          100882e4     libvcruntime:undname.obj
 0002:000122f8       ??_R2DNameNode@@8          100882f8     libvcruntime:undname.obj
 0002:00012300       ??_R1A@?0A@EA@DNameNode@@8 10088300     libvcruntime:undname.obj
 0002:00012324       ??_R4charNode@@6B@         10088324     libvcruntime:undname.obj
 0002:0001233c       ??_R3charNode@@8           1008833c     libvcruntime:undname.obj
 0002:00012350       ??_R2charNode@@8           10088350     libvcruntime:undname.obj
 0002:0001235c       ??_R1A@?0A@EA@charNode@@8  1008835c     libvcruntime:undname.obj
 0002:00012380       ??_R4pcharNode@@6B@        10088380     libvcruntime:undname.obj
 0002:00012398       ??_R3pcharNode@@8          10088398     libvcruntime:undname.obj
 0002:000123ac       ??_R2pcharNode@@8          100883ac     libvcruntime:undname.obj
 0002:000123b8       ??_R1A@?0A@EA@pcharNode@@8 100883b8     libvcruntime:undname.obj
 0002:000123dc       ??_R4pDNameNode@@6B@       100883dc     libvcruntime:undname.obj
 0002:000123f4       ??_R3pDNameNode@@8         100883f4     libvcruntime:undname.obj
 0002:00012408       ??_R2pDNameNode@@8         10088408     libvcruntime:undname.obj
 0002:00012414       ??_R1A@?0A@EA@pDNameNode@@8 10088414     libvcruntime:undname.obj
 0002:00012438       ??_R4DNameStatusNode@@6B@  10088438     libvcruntime:undname.obj
 0002:00012450       ??_R3DNameStatusNode@@8    10088450     libvcruntime:undname.obj
 0002:00012464       ??_R2DNameStatusNode@@8    10088464     libvcruntime:undname.obj
 0002:00012470       ??_R1A@?0A@EA@DNameStatusNode@@8 10088470     libvcruntime:undname.obj
 0002:00012494       ??_R4pairNode@@6B@         10088494     libvcruntime:undname.obj
 0002:000124ac       ??_R3pairNode@@8           100884ac     libvcruntime:undname.obj
 0002:000124c0       ??_R2pairNode@@8           100884c0     libvcruntime:undname.obj
 0002:000124cc       ??_R1A@?0A@EA@pairNode@@8  100884cc     libvcruntime:undname.obj
 0002:000124f0       ??_R4type_info@@6B@        100884f0     LIBCMT:std_type_info_static.obj
 0002:00012508       ??_R3type_info@@8          10088508     LIBCMT:std_type_info_static.obj
 0002:0001251c       ??_R2type_info@@8          1008851c     LIBCMT:std_type_info_static.obj
 0002:00012524       ??_R1A@?0A@EA@type_info@@8 10088524     LIBCMT:std_type_info_static.obj
 0002:00012660       ___safe_se_handler_table   10088660     <linker-defined>
 0002:00012770       ?_TraceLoggingMetadata@?1??_TlgWrite@__vcrt_trace_logging_provider@@YAJPBU_TlgProvider_t@2@PBXPBU_GUID@@2IPAU_EVENT_DATA_DESCRIPTOR@@@Z@4U_TraceLoggingMetadata_t@2@B 10088770     libvcruntime:telemetry.obj
 0002:00012b45       ?_TraceLoggingMetadataEnd@?1??_TlgWrite@__vcrt_trace_logging_provider@@YAJPBU_TlgProvider_t@2@PBXPBU_GUID@@2IPAU_EVENT_DATA_DESCRIPTOR@@@Z@4EB 10088b45     libvcruntime:telemetry.obj
 0002:00012e2c       ___rtc_iaa                 10088e2c     LIBCMT:_initsect_.obj
 0002:00012f30       ___rtc_izz                 10088f30     LIBCMT:_initsect_.obj
 0002:00013034       ___rtc_taa                 10089034     LIBCMT:_initsect_.obj
 0002:00013138       ___rtc_tzz                 10089138     LIBCMT:_initsect_.obj
 0003:00000120       _speedgoat_test_SN2593_R2016b_P 1008a120     speedgoat_test_SN2593_R2016b_data.obj
 0003:000003d8       _pci20041digout            1008a3d8     xpctarget.obj
 0003:000003dc       _nipcdio24cnfg             1008a3dc     xpctarget.obj
 0003:000003e0       _rtddm6604cnfg             1008a3e0     xpctarget.obj
 0003:00000414       _g_ulTraceLevel            1008a414     sg_netxLib_MSVC140_vc:cifXInit.obj
 0003:00000b94       _DefaultCOMIOBase          1008ab94     xpcruntime:xpcimports.obj
 0003:00000ba4       _DefaultCOMIRQ             1008aba4     xpcruntime:xpcimports.obj
 0003:00000bbc       __fltused                  1008abbc     LIBCMT:fltused.obj
 0003:00000bc0       ___isa_enabled             1008abc0     LIBCMT:_cpu_disp_.obj
 0003:00000bc4       ___security_cookie_complement 1008abc4     LIBCMT:gs_cookie.obj
 0003:00000bc8       ___security_cookie         1008abc8     LIBCMT:gs_cookie.obj
 0003:00000bd0       ___scrt_native_dllmain_reason 1008abd0     LIBCMT:utility.obj
 0003:00000c40       __NLG_Destination          1008ac40     libvcruntime:_exsup_.obj
 0003:00000c58       __iob                      1008ac58     libucrt:_file.obj
 0003:00000d34       ___abort_behavior          1008ad34     libucrt:abort.obj
 0003:00000d40       ___badioinfo               1008ad40     libucrt:ioinit.obj
 0003:00000d84       ___mb_cur_max              1008ad84     libucrt:nlsdata.obj
 0003:00000d88       ___acrt_initial_locale_data 1008ad88     libucrt:nlsdata.obj
 0003:00000e64       ___acrt_initial_locale_pointers 1008ae64     libucrt:nlsdata.obj
 0003:00000e70       ___acrt_wide_c_locale_string 1008ae70     libucrt:nlsdata.obj
 0003:00000e78       __lookuptrailbytes         1008ae78     libucrt:read.obj
 0003:00000fb0       __pctype                   1008afb0     libucrt:ctype.obj
 0003:00000fb4       __pwctype                  1008afb4     libucrt:ctype.obj
 0003:000010e8       __mbctype                  1008b0e8     libucrt:mbctype.obj
 0003:00001220       __mbcasemap                1008b220     libucrt:mbctype.obj
 0003:00001358       ___acrt_initial_multibyte_data 1008b358     libucrt:mbctype.obj
 0003:000015e4       ___acrt_current_multibyte_data 1008b5e4     libucrt:mbctype.obj
 0003:000015e8       ___globallocalestatus      1008b5e8     libucrt:glstatus.obj
 0003:000015ec       ___acrt_lconv_static_decimal 1008b5ec     libucrt:localeconv.obj
 0003:000015f0       ___acrt_lconv_static_W_decimal 1008b5f0     libucrt:localeconv.obj
 0003:000015f8       ___acrt_lconv_c            1008b5f8     libucrt:localeconv.obj
 0003:00001658       ___acrt_lconv              1008b658     libucrt:localeconv.obj
 0003:00001660       ___dcrt_lowio_console_output_handle 1008b660     libucrt:initcon.obj
 0003:000017a4       ??_R0?AVDNameNode@@@8      1008b7a4     libvcruntime:undname.obj
 0003:000017c0       ??_R0?AVcharNode@@@8       1008b7c0     libvcruntime:undname.obj
 0003:000017dc       ??_R0?AVpcharNode@@@8      1008b7dc     libvcruntime:undname.obj
 0003:000017f8       ??_R0?AVpDNameNode@@@8     1008b7f8     libvcruntime:undname.obj
 0003:00001818       ??_R0?AVDNameStatusNode@@@8 1008b818     libvcruntime:undname.obj
 0003:0000183c       ??_R0?AVpairNode@@@8       1008b83c     libvcruntime:undname.obj
 0003:00001858       ??_R0?AVtype_info@@@8      1008b858     LIBCMT:std_type_info_static.obj
 0003:000019e8       ___isa_available_default   1008b9e8     rt_logging.obj
 0003:000019ec       _pci20098PortA             1008b9ec     xpctarget.obj
 0003:000019f0       _pci20098PortB             1008b9f0     xpctarget.obj
 0003:000019f4       _xmlsize                   1008b9f4     xpctarget.obj
 0003:000019f8       _siepowercan_firmware_initialized 1008b9f8     xpctarget.obj
 0003:000019fc       _siepowercan_port1_configured 1008b9fc     xpctarget.obj
 0003:00001a00       _siepowercan_port2_configured 1008ba00     xpctarget.obj
 0003:00001a04       _CANAC2_FIRMWARE_LOADED    1008ba04     xpctarget.obj
 0003:00001a08       _rs232ports                1008ba08     xpctarget.obj
 0003:00001a18       _NI_AT_MIO_16F_5_commreg2  1008ba18     xpctarget.obj
 0003:00001a1c       _RTD_DM6430_init           1008ba1c     xpctarget.obj
 0003:00001a20       _RTD_DM6420_init           1008ba20     xpctarget.obj
 0003:00001a24       _CANAC2_FIRMWARE_LOADED_mb1 1008ba24     xpctarget.obj
 0003:00001a28       _CANAC2_FIRMWARE_LOADED_mb2 1008ba28     xpctarget.obj
 0003:00001a2c       _CANAC2_FIRMWARE_LOADED_mb3 1008ba2c     xpctarget.obj
 0003:00012868       _g_IsDoneSetGeneralProcessInfo 1009c868     sg_netxLib_MSVC140_vc:GeneralCifxData.obj
 0003:00012869       _g_IsAcyclicProcessActive  1009c869     sg_netxLib_MSVC140_vc:AcyclicCommunication.obj
 0003:0001286c       _g_ulDeviceCount           1009c86c     sg_netxLib_MSVC140_vc:cifXInit.obj
 0003:00012870       _g_pptDevices              1009c870     sg_netxLib_MSVC140_vc:cifXInit.obj
 0003:00012874       _g_tDriverInfo             1009c874     sg_netxLib_MSVC140_vc:cifXInit.obj
 0003:0001287c       _g_pvTkitLock              1009c87c     sg_netxLib_MSVC140_vc:cifXInit.obj
 0003:00030524       ___isa_available           100ba524     LIBCMT:_cpu_disp_.obj
 0003:00030528       ___favor                   100ba528     LIBCMT:_cpu_disp_.obj
 0003:00030534       ___scrt_current_native_startup_state 100ba534     LIBCMT:utility.obj
 0003:00030538       ___scrt_native_startup_lock 100ba538     LIBCMT:utility.obj
 0003:00030560       ?__type_info_root_node@@3U__type_info_node@@A 100ba560     LIBCMT:tncleanup.obj
 0003:00030570       ?_OptionsStorage@?1??__local_stdio_printf_options@@9@4_KA 100ba570     LIBCMT:default_local_stdio_options.obj
 0003:00030580       ?_OptionsStorage@?1??__local_stdio_scanf_options@@9@4_KA 100ba580     LIBCMT:default_local_stdio_options.obj
 0003:0003058c       ___scrt_debugger_hook_flag 100ba58c     LIBCMT:utility_desktop.obj
 0003:00030624       ___pPurecall               100ba624     libvcruntime:purevirt_data.obj
 0003:00030628       ?pArgList@UnDecorator@@0PAVReplicator@@A 100ba628     libvcruntime:undname.obj
 0003:0003062c       ?pZNameList@UnDecorator@@0PAVReplicator@@A 100ba62c     libvcruntime:undname.obj
 0003:00030630       ?pTemplateArgList@UnDecorator@@0PAVReplicator@@A 100ba630     libvcruntime:undname.obj
 0003:00030634       ?gName@UnDecorator@@0PBDB  100ba634     libvcruntime:undname.obj
 0003:00030638       ?name@UnDecorator@@0PBDB   100ba638     libvcruntime:undname.obj
 0003:0003063c       ?outputString@UnDecorator@@0PADA 100ba63c     libvcruntime:undname.obj
 0003:00030640       ?maxStringLength@UnDecorator@@0HA 100ba640     libvcruntime:undname.obj
 0003:00030644       ?disableFlags@UnDecorator@@0KA 100ba644     libvcruntime:undname.obj
 0003:00030648       ?fExplicitTemplateParams@UnDecorator@@0_NA 100ba648     libvcruntime:undname.obj
 0003:00030649       ?fGetTemplateArgumentList@UnDecorator@@0_NA 100ba649     libvcruntime:undname.obj
 0003:0003064c       ?m_pGetParameter@UnDecorator@@0P6APADJ@ZA 100ba64c     libvcruntime:undname.obj
 0003:00030670       ?nodes@?1??make@DNameStatusNode@@SAPAV2@W4DNameStatus@@@Z@4PAV2@A 100ba670     libvcruntime:undname.obj
 0003:000306ac       ??_B?1??make@DNameStatusNode@@SAPAV1@W4DNameStatus@@@Z@51 100ba6ac     libvcruntime:undname.obj
 0003:000306b0       __nstream                  100ba6b0     libucrt:_file.obj
 0003:000306b4       ___piob                    100ba6b4     libucrt:_file.obj
 0003:000306bc       __cflush                   100ba6bc     libucrt:_file.obj
 0003:000306cc       __environ_table            100ba6cc     libucrt:environment_initialization.obj
 0003:000306d0       __wenviron_table           100ba6d0     libucrt:environment_initialization.obj
 0003:000306d8       ___dcrt_initial_wide_environment 100ba6d8     libucrt:environment_initialization.obj
 0003:000306dc       ___dcrt_initial_narrow_environment 100ba6dc     libucrt:environment_initialization.obj
 0003:000306e0       ___acrt_atexit_table       100ba6e0     libucrt:onexit.obj
 0003:000306f0       ___acrt_at_quick_exit_table 100ba6f0     libucrt:onexit.obj
 0003:00030810       ___pioinfo                 100ba810     libucrt:ioinit.obj
 0003:00030a78       __nhandle                  100baa78     libucrt:ioinit.obj
 0003:00030a80       ___acrt_stdout_buffer      100baa80     libucrt:_sftbuf.obj
 0003:00030a84       ___acrt_stderr_buffer      100baa84     libucrt:_sftbuf.obj
 0003:00030a88       ___acrt_locale_changed_data 100baa88     libucrt:wsetlocale.obj
 0003:00030a8c       ___acrt_current_locale_data 100baa8c     libucrt:nlsdata.obj
 0003:00031398       ___mblocalename            100bb398     libucrt:mbctype.obj
 0003:0003139c       ___mbcodepage              100bb39c     libucrt:mbctype.obj
 0003:000313a0       ___ismbcodepage            100bb3a0     libucrt:mbctype.obj
 0003:000313a4       ___mbulinfo                100bb3a4     libucrt:mbctype.obj
 0003:000313b8       ___acrt_heap               100bb3b8     libucrt:heap_handle.obj
 0003:000313bc       ___argc                    100bb3bc     libucrt:argv_data.obj
 0003:000313c0       ___argv                    100bb3c0     libucrt:argv_data.obj
 0003:000313c4       ___wargv                   100bb3c4     libucrt:argv_data.obj
 0003:000313c8       __acmdln                   100bb3c8     libucrt:argv_data.obj
 0003:000313cc       __wcmdln                   100bb3cc     libucrt:argv_data.obj
 0003:000313d0       __pgmptr                   100bb3d0     libucrt:argv_data.obj
 0003:000313d4       __wpgmptr                  100bb3d4     libucrt:argv_data.obj
 0003:000313e0       ___acrt_lconv_static_null  100bb3e0     libucrt:localeconv.obj
 0003:000313e4       ___acrt_lconv_static_W_null 100bb3e4     libucrt:localeconv.obj
 0003:000313e8       __commode                  100bb3e8     libucrt:ncommode.obj
 0003:000313ec       __umaskval                 100bb3ec     libucrt:umask.obj
 0003:000313f0       ___fastflag                100bb3f0     libucrt:fp_flags.obj
 0003:000313f8       __fmode                    100bb3f8     libucrt:txtmode.obj
 0003:00031400       _g_HelpValue               100bb400     <common>
 0003:00031740       _g_AcyclicObjectBuffer     100bb740     <common>
 0003:00031940       _g_GeneralProcessInfo      100bb940     <common>
 0003:00031b40       _CANAC2_2_receiveindex_mb3 100bbb40     <common>
 0003:00034c14       _CANAC2_2_receivemaxindex_mb3 100bec14     <common>
 0003:00034c20       _CANAC2_2_sendindex_mb3    100bec20     <common>
 0003:00034f40       _CANAC2_2_sendmaxindex_mb3 100bef40     <common>
 0003:00034f60       _CANAC2_1_receiveindex_mb3 100bef60     <common>
 0003:00035280       _CANAC2_1_receivemaxindex_mb3 100bf280     <common>
 0003:000352a0       _CANAC2_1_sendindex_mb3    100bf2a0     <common>
 0003:000355c0       _CANAC2_1_sendmaxindex_mb3 100bf5c0     <common>
 0003:000355e0       _CANAC2_2_receive_mb3      100bf5e0     <common>
 0003:00035900       _CANAC2_2_send_mb3         100bf900     <common>
 0003:00035c20       _CANAC2_1_receive_mb3      100bfc20     <common>
 0003:00035f40       _CANAC2_1_send_mb3         100bff40     <common>
 0003:00036260       _CANAC2_2_receiveindex_mb2 100c0260     <common>
 0003:00036580       _CANAC2_2_receivemaxindex_mb2 100c0580     <common>
 0003:000365a0       _CANAC2_2_sendindex_mb2    100c05a0     <common>
 0003:000368c0       _CANAC2_2_sendmaxindex_mb2 100c08c0     <common>
 0003:000368e0       _CANAC2_1_receiveindex_mb2 100c08e0     <common>
 0003:00036c00       _CANAC2_1_receivemaxindex_mb2 100c0c00     <common>
 0003:00036c20       _CANAC2_1_sendindex_mb2    100c0c20     <common>
 0003:00036f40       _CANAC2_1_sendmaxindex_mb2 100c0f40     <common>
 0003:00036f60       _CANAC2_2_receive_mb2      100c0f60     <common>
 0003:00037280       _CANAC2_2_send_mb2         100c1280     <common>
 0003:000375a0       _CANAC2_1_receive_mb2      100c15a0     <common>
 0003:000378c0       _CANAC2_1_send_mb2         100c18c0     <common>
 0003:00037be0       _CANAC2_2_receiveindex_mb1 100c1be0     <common>
 0003:00037f00       _CANAC2_2_receivemaxindex_mb1 100c1f00     <common>
 0003:00037f20       _CANAC2_2_sendindex_mb1    100c1f20     <common>
 0003:00038240       _CANAC2_2_sendmaxindex_mb1 100c2240     <common>
 0003:00038260       _CANAC2_1_receiveindex_mb1 100c2260     <common>
 0003:00038580       _CANAC2_1_receivemaxindex_mb1 100c2580     <common>
 0003:000385a0       _CANAC2_1_sendindex_mb1    100c25a0     <common>
 0003:000388c0       _CANAC2_1_sendmaxindex_mb1 100c28c0     <common>
 0003:000388e0       _CANAC2_2_receive_mb1      100c28e0     <common>
 0003:00038c00       _CANAC2_2_send_mb1         100c2c00     <common>
 0003:00038f20       _CANAC2_1_receive_mb1      100c2f20     <common>
 0003:00039240       _CANAC2_1_send_mb1         100c3240     <common>
 0003:00039560       _CANAC2_2_receiveindex     100c3560     <common>
 0003:00039880       _CANAC2_2_receivemaxindex  100c3880     <common>
 0003:000398a0       _CANAC2_2_sendindex        100c38a0     <common>
 0003:00039bc0       _CANAC2_2_sendmaxindex     100c3bc0     <common>
 0003:00039be0       _CANAC2_1_receiveindex     100c3be0     <common>
 0003:00039f00       _CANAC2_1_receivemaxindex  100c3f00     <common>
 0003:00039f20       _CANAC2_1_sendindex        100c3f20     <common>
 0003:0003a240       _CANAC2_1_sendmaxindex     100c4240     <common>
 0003:0003a260       _CANAC2_2_receive          100c4260     <common>
 0003:0003a580       _CANAC2_2_send             100c4580     <common>
 0003:0003a8a0       _CANAC2_1_receive          100c48a0     <common>
 0003:0003abc0       _CANAC2_1_send             100c4bc0     <common>
 0003:0003aee0       _siepowercan_can_object_buffer_port2 100c4ee0     <common>
 0003:0003ef00       _siepowercan_can_object_buffer_port1 100c8f00     <common>
 0003:00042f00       _rtNaNF                    100ccf00     <common>
 0003:00042f14       _rtMinusInfF               100ccf14     <common>
 0003:00042f18       _rtInfF                    100ccf18     <common>
 0003:00042f20       _rtNaN                     100ccf20     <common>
 0003:00042f28       _rtMinusInf                100ccf28     <common>
 0003:00042f30       _rtInf                     100ccf30     <common>
 0003:00042f38       ?_OptionsStorage@?1??__local_stdio_printf_options@@9@9 100ccf38     <common>
 0003:00043260       _speedgoat_test_SN2593_R2016b_M_ 100cd260     <common>
 0003:00044120       _speedgoat_test_SN2593_R2016b_DW 100ce120     <common>
 0003:00044140       _speedgoat_test_SN2593_R2016b_B 100ce140     <common>
 0003:00044154       _CloseClientSocket         100ce154     <common>
 0003:000441bc       _ConnectClientSocket       100ce1bc     <common>
 0003:000441c0       _BindClientSocket          100ce1c0     <common>
 0003:000441c4       _CreateClientSocket        100ce1c4     <common>
 0003:000441c8       _CloseServerSocket         100ce1c8     <common>
 0003:000441cc       _ConnectServerSocket       100ce1cc     <common>
 0003:000441d0       _OpenServerListen          100ce1d0     <common>
 0003:000441d4       _CreateServerSocket        100ce1d4     <common>
 0003:000441d8       _SocketReceive             100ce1d8     <common>
 0003:000441dc       _SocketSend                100ce1dc     <common>
 0003:000441e0       _GetSocketState            100ce1e0     <common>
 0003:000441e4       _GetSocket                 100ce1e4     <common>
 0003:000441e8       _socket                    100ce1e8     <common>
 0003:000441ec       _inet_addr                 100ce1ec     <common>
 0003:000441f0       _sendto                    100ce1f0     <common>
 0003:000441f4       _recvfrom                  100ce1f4     <common>
 0003:000441f8       _listen                    100ce1f8     <common>
 0003:000441fc       _ioctlsocket               100ce1fc     <common>
 0003:00044200       _connect                   100ce200     <common>
 0003:00044204       _closesocket               100ce204     <common>
 0003:00044208       _setsockopt                100ce208     <common>
 0003:0004420c       _bind                      100ce20c     <common>
 0003:00044210       _accept                    100ce210     <common>
 0003:00044214       _GetHostTarIPAdd           100ce214     <common>
 0003:00044218       _GetDCUUsage               100ce218     <common>
 0003:0004421c       _DeleteRoute               100ce21c     <common>
 0003:00044220       _AddGatewayRoute           100ce220     <common>
 0003:00044224       _SetIP                     100ce224     <common>
 0003:00044228       _CloseInterface            100ce228     <common>
 0003:0004422c       _OpenInterface             100ce22c     <common>
 0003:00044230       _SetIPTASKPriority         100ce230     <common>
 0003:00044234       _isUsedByRTIP              100ce234     <common>
 0003:00044238       _slrtWarning               100ce238     <common>
 0003:0004423c       _slrtGetCPUTCelsius        100ce23c     <common>
 0003:00044240       _geterrorstring            100ce240     <common>
 0003:00044244       _getlasterror              100ce244     <common>
 0003:00044248       _slrtLogEvent              100ce248     <common>
 0003:0004424c       _slrtGetDefaultDrive       100ce24c     <common>
 0003:00044250       _slrtfsFread               100ce250     <common>
 0003:00044254       _slrtfsGetFileStatus       100ce254     <common>
 0003:00044258       _slrtfsOpenFileAsync       100ce258     <common>
 0003:0004425c       _slrtfsCloseFileAsync      100ce25c     <common>
 0003:00044260       _slrtfsGetFileErrorMessage 100ce260     <common>
 0003:00044264       _slrtfsGetFileError        100ce264     <common>
 0003:00044268       _slrtfsWriteToFile         100ce268     <common>
 0003:0004426c       _slrtfsCloseFile           100ce26c     <common>
 0003:00044270       _slrtfsOpenFile            100ce270     <common>
 0003:00044274       _slrtGetSgCRBSpace         100ce274     <common>
 0003:00044278       _slrtGetCRBScratchSpace    100ce278     <common>
 0003:0004427c       _slrteSetupMSI             100ce27c     <common>
 0003:00044280       _slTestRegAssessment       100ce280     <common>
 0003:00044284       _slTestTerminate           100ce284     <common>
 0003:00044288       _slTestEvalOnFail          100ce288     <common>
 0003:0004428c       _slTestLogAssessments      100ce28c     <common>
 0003:00044290       _slTestInitialize          100ce290     <common>
 0003:00044294       _unRegisterPTPTimeRead     100ce294     <common>
 0003:00044298       _registerPTPTimeRead       100ce298     <common>
 0003:0004429c       _slrteGetCurrentStepSize   100ce29c     <common>
 0003:000442a0       _slrteSetStepSizeDelta     100ce2a0     <common>
 0003:000442a4       _xpceGetIntTimerGranularityNS 100ce2a4     <common>
 0003:000442a8       _xpceDAQUpdateTimeStamp    100ce2a8     <common>
 0003:000442ac       _xpceDAQPostEvent          100ce2ac     <common>
 0003:000442b0       _StreamVideo               100ce2b0     <common>
 0003:000442b4       _StopVideoDisplay          100ce2b4     <common>
 0003:000442b8       _StartVideoDisplay         100ce2b8     <common>
 0003:000442bc       _DestroyVideoDisplay       100ce2bc     <common>
 0003:000442c0       _CreateVideoDisplay        100ce2c0     <common>
 0003:000442c4       _ConvertUImage             100ce2c4     <common>
 0003:000442c8       _StopVideo                 100ce2c8     <common>
 0003:000442cc       _ReadFrameBuffer           100ce2cc     <common>
 0003:000442d0       _StartVideo                100ce2d0     <common>
 0003:000442d4       _GetVideoConfigs           100ce2d4     <common>
 0003:000442d8       _FindUsbVideoDevice        100ce2d8     <common>
 0003:000442dc       _xpceDeleteSemaphore       100ce2dc     <common>
 0003:000442e0       _xpceSignalSemaphore       100ce2e0     <common>
 0003:000442e4       _xpceWaitSemaphore         100ce2e4     <common>
 0003:000442e8       _xpceCreateSemaphore       100ce2e8     <common>
 0003:000442ec       _TBGiveSpinFast            100ce2ec     <common>
 0003:000442f0       _TBTakeSpinFast            100ce2f0     <common>
 0003:000442f4       _TBDeleteSpin              100ce2f4     <common>
 0003:000442f8       _TBCreateSpin              100ce2f8     <common>
 0003:000442fc       _xpceScopeAcqOK            100ce2fc     <common>
 0003:00044300       _rl32eRestartAcquisition   100ce300     <common>
 0003:00044304       _rl32eSetTargetScopeSigFt  100ce304     <common>
 0003:00044308       _rl32eSetTargetScope       100ce308     <common>
 0003:0004430c       _xpceFSScopeSet            100ce30c     <common>
 0003:00044310       _rl32eSetScope             100ce310     <common>
 0003:00044314       _rl32eAddSignal            100ce314     <common>
 0003:00044318       _rl32eGetSignalNo          100ce318     <common>
 0003:0004431c       _rl32eDefScope             100ce31c     <common>
 0003:00044320       _rl32eScopeExists          100ce320     <common>
 0003:00044324       _xpceGetParamDims          100ce324     <common>
 0003:00044328       _xpceGetParameter          100ce328     <common>
 0003:0004432c       _xpceSetParameter          100ce32c     <common>
 0003:00044330       _xpceGetSignalValue        100ce330     <common>
 0003:00044334       _xpceAssignPCIInterrupt    100ce334     <common>
 0003:00044338       _rl32eGetPCIInfoAtSlot     100ce338     <common>
 0003:0004433c       _rl32eGetPCIInfo           100ce33c     <common>
 0003:00044340       _rl32eShowPCIInfo          100ce340     <common>
 0003:00044344       _rl32eShowPCIDev           100ce344     <common>
 0003:00044348       _xpceGetTET                100ce348     <common>
 0003:0004434c       _xpceaddEvent              100ce34c     <common>
 0003:00044350       _xpceDeRegisterISR         100ce350     <common>
 0003:00044354       _xpceRegisterISR           100ce354     <common>
 0003:00044358       _xpcIsModelInit            100ce358     <common>
 0003:0004435c       _xpcGetElapsedTime         100ce35c     <common>
 0003:00044360       _xpcBusyWait               100ce360     <common>
 0003:00044364       _xpcFreePhysicalMemory     100ce364     <common>
 0003:00044368       _xpcAllocPhysicalMemory    100ce368     <common>
 0003:0004436c       _xpcReserveMemoryRegion    100ce36c     <common>
 0003:00044370       _xpcOutpB                  100ce370     <common>
 0003:00044374       _xpcOutpW                  100ce374     <common>
 0003:00044378       _xpcOutpDW                 100ce378     <common>
 0003:0004437c       _xpcInpB                   100ce37c     <common>
 0003:00044380       _xpcInpW                   100ce380     <common>
 0003:00044384       _xpcInpDW                  100ce384     <common>
 0003:00044388       ___scrt_ucrt_dll_is_in_use 100ce388     <common>
 0003:00044394       ___dyn_tls_init_callback   100ce394     <common>
 0003:000443a0       __pDestructExceptionObject 100ce3a0     <common>
 0003:000443ac       __pmatherr                 100ce3ac     <common>
 0003:000443b8       ___use_sse2_mathfcns       100ce3b8     <common>
 0004:00000000       __imp__SystemFunction036@8 100cf000     advapi32:ADVAPI32.dll
 0004:00000004       \177ADVAPI32_NULL_THUNK_DATA 100cf004     advapi32:ADVAPI32.dll
 0004:00000030       __imp__SetCurrentDirectoryA@4 100cf030     kernel32:KERNEL32.dll
 0004:00000034       __imp__GetCurrentDirectoryA@8 100cf034     kernel32:KERNEL32.dll
 0004:00000038       __imp__Sleep@4             100cf038     kernel32:KERNEL32.dll
 0004:0000003c       __imp__UnhandledExceptionFilter@4 100cf03c     kernel32:KERNEL32.dll
 0004:00000040       __imp__SetUnhandledExceptionFilter@4 100cf040     kernel32:KERNEL32.dll
 0004:00000044       __imp__GetCurrentProcess@0 100cf044     kernel32:KERNEL32.dll
 0004:00000048       __imp__TerminateProcess@8  100cf048     kernel32:KERNEL32.dll
 0004:0000004c       __imp__IsProcessorFeaturePresent@4 100cf04c     kernel32:KERNEL32.dll
 0004:00000050       __imp__QueryPerformanceCounter@4 100cf050     kernel32:KERNEL32.dll
 0004:00000054       __imp__GetCurrentProcessId@0 100cf054     kernel32:KERNEL32.dll
 0004:00000058       __imp__GetCurrentThreadId@0 100cf058     kernel32:KERNEL32.dll
 0004:0000005c       __imp__GetSystemTimeAsFileTime@4 100cf05c     kernel32:KERNEL32.dll
 0004:00000060       __imp__InitializeSListHead@4 100cf060     kernel32:KERNEL32.dll
 0004:00000064       __imp__IsDebuggerPresent@0 100cf064     kernel32:KERNEL32.dll
 0004:00000068       __imp__GetStartupInfoW@4   100cf068     kernel32:KERNEL32.dll
 0004:0000006c       __imp__GetModuleHandleW@4  100cf06c     kernel32:KERNEL32.dll
 0004:00000070       __imp__GetLastError@0      100cf070     kernel32:KERNEL32.dll
 0004:00000074       __imp__GetModuleFileNameW@12 100cf074     kernel32:KERNEL32.dll
 0004:00000078       __imp__InterlockedPushEntrySList@8 100cf078     kernel32:KERNEL32.dll
 0004:0000007c       __imp__InterlockedFlushSList@4 100cf07c     kernel32:KERNEL32.dll
 0004:00000080       __imp__InitializeCriticalSectionAndSpinCount@8 100cf080     kernel32:KERNEL32.dll
 0004:00000084       __imp__TlsAlloc@0          100cf084     kernel32:KERNEL32.dll
 0004:00000088       __imp__TlsGetValue@4       100cf088     kernel32:KERNEL32.dll
 0004:0000008c       __imp__TlsSetValue@8       100cf08c     kernel32:KERNEL32.dll
 0004:00000090       __imp__TlsFree@4           100cf090     kernel32:KERNEL32.dll
 0004:00000094       __imp__FreeLibrary@4       100cf094     kernel32:KERNEL32.dll
 0004:00000098       __imp__LoadLibraryExW@12   100cf098     kernel32:KERNEL32.dll
 0004:0000009c       __imp__RtlUnwind@16        100cf09c     kernel32:KERNEL32.dll
 0004:000000a0       __imp__SetLastError@4      100cf0a0     kernel32:KERNEL32.dll
 0004:000000a4       __imp__EnterCriticalSection@4 100cf0a4     kernel32:KERNEL32.dll
 0004:000000a8       __imp__LeaveCriticalSection@4 100cf0a8     kernel32:KERNEL32.dll
 0004:000000ac       __imp__DeleteCriticalSection@4 100cf0ac     kernel32:KERNEL32.dll
 0004:000000b0       __imp__GetStdHandle@4      100cf0b0     kernel32:KERNEL32.dll
 0004:000000b4       __imp__GetFileType@4       100cf0b4     kernel32:KERNEL32.dll
 0004:000000b8       __imp__GetModuleFileNameA@12 100cf0b8     kernel32:KERNEL32.dll
 0004:000000bc       __imp__GetModuleHandleExW@12 100cf0bc     kernel32:KERNEL32.dll
 0004:000000c0       __imp__WriteConsoleW@20    100cf0c0     kernel32:KERNEL32.dll
 0004:000000c4       __imp__ExitProcess@4       100cf0c4     kernel32:KERNEL32.dll
 0004:000000c8       __imp__ReadFile@20         100cf0c8     kernel32:KERNEL32.dll
 0004:000000cc       __imp__RaiseException@16   100cf0cc     kernel32:KERNEL32.dll
 0004:000000d0       __imp__MultiByteToWideChar@24 100cf0d0     kernel32:KERNEL32.dll
 0004:000000d4       __imp__GetProcAddress@8    100cf0d4     kernel32:KERNEL32.dll
 0004:000000d8       __imp__HeapFree@12         100cf0d8     kernel32:KERNEL32.dll
 0004:000000dc       __imp__HeapAlloc@12        100cf0dc     kernel32:KERNEL32.dll
 0004:000000e0       __imp__GetDateFormatW@24   100cf0e0     kernel32:KERNEL32.dll
 0004:000000e4       __imp__GetTimeFormatW@24   100cf0e4     kernel32:KERNEL32.dll
 0004:000000e8       __imp__CompareStringW@24   100cf0e8     kernel32:KERNEL32.dll
 0004:000000ec       __imp__LCMapStringW@24     100cf0ec     kernel32:KERNEL32.dll
 0004:000000f0       __imp__GetLocaleInfoW@16   100cf0f0     kernel32:KERNEL32.dll
 0004:000000f4       __imp__IsValidLocale@8     100cf0f4     kernel32:KERNEL32.dll
 0004:000000f8       __imp__GetUserDefaultLCID@0 100cf0f8     kernel32:KERNEL32.dll
 0004:000000fc       __imp__EnumSystemLocalesW@8 100cf0fc     kernel32:KERNEL32.dll
 0004:00000100       __imp__GetCurrentThread@0  100cf100     kernel32:KERNEL32.dll
 0004:00000104       __imp__GetACP@0            100cf104     kernel32:KERNEL32.dll
 0004:00000108       __imp__WriteFile@20        100cf108     kernel32:KERNEL32.dll
 0004:0000010c       __imp__OutputDebugStringA@4 100cf10c     kernel32:KERNEL32.dll
 0004:00000110       __imp__OutputDebugStringW@4 100cf110     kernel32:KERNEL32.dll
 0004:00000114       __imp__CloseHandle@4       100cf114     kernel32:KERNEL32.dll
 0004:00000118       __imp__WaitForSingleObjectEx@12 100cf118     kernel32:KERNEL32.dll
 0004:0000011c       __imp__CreateThread@24     100cf11c     kernel32:KERNEL32.dll
 0004:00000120       __imp__SetConsoleCtrlHandler@8 100cf120     kernel32:KERNEL32.dll
 0004:00000124       __imp__HeapReAlloc@16      100cf124     kernel32:KERNEL32.dll
 0004:00000128       __imp__GetConsoleMode@8    100cf128     kernel32:KERNEL32.dll
 0004:0000012c       __imp__ReadConsoleW@20     100cf12c     kernel32:KERNEL32.dll
 0004:00000130       __imp__GetConsoleCP@0      100cf130     kernel32:KERNEL32.dll
 0004:00000134       __imp__DeleteFileW@4       100cf134     kernel32:KERNEL32.dll
 0004:00000138       __imp__SetFilePointerEx@20 100cf138     kernel32:KERNEL32.dll
 0004:0000013c       __imp__GetStringTypeW@16   100cf13c     kernel32:KERNEL32.dll
 0004:00000140       __imp__IsValidCodePage@4   100cf140     kernel32:KERNEL32.dll
 0004:00000144       __imp__GetOEMCP@0          100cf144     kernel32:KERNEL32.dll
 0004:00000148       __imp__GetCPInfo@8         100cf148     kernel32:KERNEL32.dll
 0004:0000014c       __imp__GetEnvironmentStringsW@0 100cf14c     kernel32:KERNEL32.dll
 0004:00000150       __imp__FreeEnvironmentStringsW@4 100cf150     kernel32:KERNEL32.dll
 0004:00000154       __imp__SetEnvironmentVariableA@8 100cf154     kernel32:KERNEL32.dll
 0004:00000158       __imp__SetEnvironmentVariableW@8 100cf158     kernel32:KERNEL32.dll
 0004:0000015c       __imp__GetProcessHeap@0    100cf15c     kernel32:KERNEL32.dll
 0004:00000160       __imp__GetCommandLineA@0   100cf160     kernel32:KERNEL32.dll
 0004:00000164       __imp__GetCommandLineW@0   100cf164     kernel32:KERNEL32.dll
 0004:00000168       __imp__FlushFileBuffers@4  100cf168     kernel32:KERNEL32.dll
 0004:0000016c       __imp__SetStdHandle@8      100cf16c     kernel32:KERNEL32.dll
 0004:00000170       __imp__CreateFileW@28      100cf170     kernel32:KERNEL32.dll
 0004:00000174       __imp__HeapSize@12         100cf174     kernel32:KERNEL32.dll
 0004:00000178       __imp__SetEndOfFile@4      100cf178     kernel32:KERNEL32.dll
 0004:0000017c       __imp__EncodePointer@4     100cf17c     kernel32:KERNEL32.dll
 0004:00000180       __imp__DecodePointer@4     100cf180     kernel32:KERNEL32.dll
 0004:00000184       __imp__WideCharToMultiByte@32 100cf184     kernel32:KERNEL32.dll
 0004:00000188       __imp__GetModuleHandleA@4  100cf188     kernel32:KERNEL32.dll
 0004:0000018c       \177KERNEL32_NULL_THUNK_DATA 100cf18c     kernel32:KERNEL32.dll
 0004:000001fc       __IMPORT_DESCRIPTOR_KERNEL32 100cf1fc     kernel32:KERNEL32.dll
 0004:00000210       __IMPORT_DESCRIPTOR_ADVAPI32 100cf210     advapi32:ADVAPI32.dll
 0004:00000224       __NULL_IMPORT_DESCRIPTOR   100cf224     kernel32:KERNEL32.dll
 0005:00000000       ___guard_check_icall_fptr  100d0000     LIBCMT:guard_support.obj
